GAS LISTING /tmp/ccvyM2DX.s 			page 1


   1               		.file	"main.c"
   2               	__SREG__ = 0x3f
   3               	__SP_H__ = 0x3e
   4               	__SP_L__ = 0x3d
   5               	__CCP__ = 0x34
   6               	__tmp_reg__ = 0
   7               	__zero_reg__ = 1
   8               		.section	.debug_abbrev,"",@progbits
   9               	.Ldebug_abbrev0:
  10               		.section	.debug_info,"",@progbits
  11               	.Ldebug_info0:
  12               		.section	.debug_line,"",@progbits
  13               	.Ldebug_line0:
  14               		.text
  15               	.Ltext0:
  16               		.type	uart_putchar, @function
  17               	uart_putchar:
  18               	.LFB37:
  19               	.LM1:
  20               	.LVL0:
  21 0000 1F93      		push r17
  22               	/* prologue: function */
  23               	/* frame size = 0 */
  24               	/* stack size = 1 */
  25               	.L__stack_usage = 1
  26 0002 182F      		mov r17,r24
  27               	.LM2:
  28 0004 8A30      		cpi r24,lo8(10)
  29 0006 01F4      		brne .L4
  30               	.LVL1:
  31               	.LM3:
  32 0008 8DE0      		ldi r24,lo8(13)
  33 000a 0E94 0000 		call uart_putchar
  34               	.LVL2:
  35               	.L4:
  36               	.LM4:
  37 000e 8091 B109 		lds r24,2481
  38 0012 85FF      		sbrs r24,5
  39 0014 00C0      		rjmp .L4
  40               	.LM5:
  41 0016 1093 B009 		sts 2480,r17
  42               	.LM6:
  43 001a 80E0      		ldi r24,lo8(0)
  44 001c 90E0      		ldi r25,hi8(0)
  45               	/* epilogue start */
  46 001e 1F91      		pop r17
  47               	.LVL3:
  48 0020 0895      		ret
  49               	.LFE37:
  50               		.size	uart_putchar, .-uart_putchar
  51               	.global	CCPWrite
  52               		.type	CCPWrite, @function
  53               	CCPWrite:
  54               	.LFB7:
  55               	.LM7:
  56               	.LVL4:
  57 0022 0F93      		push r16
GAS LISTING /tmp/ccvyM2DX.s 			page 2


  58 0024 DF93      		push r29
  59 0026 CF93      		push r28
  60 0028 0F92      		push __tmp_reg__
  61 002a CDB7      		in r28,__SP_L__
  62 002c DEB7      		in r29,__SP_H__
  63               	/* prologue: function */
  64               	/* frame size = 1 */
  65               	/* stack size = 4 */
  66               	.L__stack_usage = 4
  67               	.LM8:
  68 002e 2FB7      		in r18,__SREG__
  69               	.LVL5:
  70 0030 2983      		std Y+1,r18
  71               	/* #APP */
  72               	 ;  108 "requiredFiles/clksys_driver.c" 1
  73 0032 F894      		cli
  74               	 ;  0 "" 2
  75               	.LVL6:
  76               	.LM9:
  77               	/* #NOAPP */
  78 0034 1BBE      		out 59-0,__zero_reg__
  79               	.LM10:
  80               	/* #APP */
  81               	 ;  113 "requiredFiles/clksys_driver.c" 1
  82 0036 FC01      		movw r30,  r24
  83 0038 08ED      		ldi  r16,  216
  84 003a 04BF      		out   52, r16
  85 003c 6083      		st     Z,  r22
  86               		
  87               	 ;  0 "" 2
  88               	.LM11:
  89               	/* #NOAPP */
  90 003e 8981      		ldd r24,Y+1
  91               	.LVL7:
  92 0040 8FBF      		out __SREG__,r24
  93               	/* epilogue start */
  94               	.LM12:
  95 0042 0F90      		pop __tmp_reg__
  96 0044 CF91      		pop r28
  97 0046 DF91      		pop r29
  98 0048 0F91      		pop r16
  99 004a 0895      		ret
 100               	.LFE7:
 101               		.size	CCPWrite, .-CCPWrite
 102               	.global	CLKSYS_XOSC_Config
 103               		.type	CLKSYS_XOSC_Config, @function
 104               	CLKSYS_XOSC_Config:
 105               	.LFB8:
 106               	.LM13:
 107               	.LVL8:
 108               	/* prologue: function */
 109               	/* frame size = 0 */
 110               	/* stack size = 0 */
 111               	.L__stack_usage = 0
 112               	.LM14:
 113 004c 6623      		tst r22
 114 004e 01F0      		breq .L9
GAS LISTING /tmp/ccvyM2DX.s 			page 3


 115 0050 90E2      		ldi r25,lo8(32)
 116 0052 00C0      		rjmp .L8
 117               	.L9:
 118 0054 90E0      		ldi r25,lo8(0)
 119               	.L8:
 120               	.LM15:
 121 0056 842B      		or r24,r20
 122               	.LVL9:
 123 0058 892B      		or r24,r25
 124 005a E0E5      		ldi r30,lo8(80)
 125 005c F0E0      		ldi r31,hi8(80)
 126 005e 8283      		std Z+2,r24
 127               	/* epilogue start */
 128               	.LM16:
 129 0060 0895      		ret
 130               	.LFE8:
 131               		.size	CLKSYS_XOSC_Config, .-CLKSYS_XOSC_Config
 132               	.global	CLKSYS_PLL_Config
 133               		.type	CLKSYS_PLL_Config, @function
 134               	CLKSYS_PLL_Config:
 135               	.LFB9:
 136               	.LM17:
 137               	.LVL10:
 138               	/* prologue: function */
 139               	/* frame size = 0 */
 140               	/* stack size = 0 */
 141               	.L__stack_usage = 0
 142               	.LM18:
 143 0062 6F71      		andi r22,lo8(31)
 144               	.LVL11:
 145               	.LM19:
 146 0064 682B      		or r22,r24
 147               	.LVL12:
 148 0066 E0E5      		ldi r30,lo8(80)
 149 0068 F0E0      		ldi r31,hi8(80)
 150 006a 6583      		std Z+5,r22
 151               	/* epilogue start */
 152               	.LM20:
 153 006c 0895      		ret
 154               	.LFE9:
 155               		.size	CLKSYS_PLL_Config, .-CLKSYS_PLL_Config
 156               	.global	CLKSYS_Disable
 157               		.type	CLKSYS_Disable, @function
 158               	CLKSYS_Disable:
 159               	.LFB10:
 160               	.LM21:
 161               	.LVL13:
 162               	/* prologue: function */
 163               	/* frame size = 0 */
 164               	/* stack size = 0 */
 165               	.L__stack_usage = 0
 166               	.LM22:
 167 006e E0E5      		ldi r30,lo8(80)
 168 0070 F0E0      		ldi r31,hi8(80)
 169 0072 2081      		ld r18,Z
 170 0074 982F      		mov r25,r24
 171 0076 9095      		com r25
GAS LISTING /tmp/ccvyM2DX.s 			page 4


 172 0078 9223      		and r25,r18
 173 007a 9083      		st Z,r25
 174               	.LM23:
 175 007c 9081      		ld r25,Z
 176               	.LVL14:
 177               	.LM24:
 178 007e 8923      		and r24,r25
 179               	.LVL15:
 180               	/* epilogue start */
 181 0080 0895      		ret
 182               	.LFE10:
 183               		.size	CLKSYS_Disable, .-CLKSYS_Disable
 184               	.global	CLKSYS_Prescalers_Config
 185               		.type	CLKSYS_Prescalers_Config, @function
 186               	CLKSYS_Prescalers_Config:
 187               	.LFB11:
 188               	.LM25:
 189               	.LVL16:
 190               	/* prologue: function */
 191               	/* frame size = 0 */
 192               	/* stack size = 0 */
 193               	.L__stack_usage = 0
 194               	.LM26:
 195 0082 682B      		or r22,r24
 196               	.LVL17:
 197               	.LM27:
 198 0084 81E4      		ldi r24,lo8(65)
 199 0086 90E0      		ldi r25,hi8(65)
 200               	.LVL18:
 201 0088 0E94 0000 		call CCPWrite
 202               	.LVL19:
 203               	/* epilogue start */
 204               	.LM28:
 205 008c 0895      		ret
 206               	.LFE11:
 207               		.size	CLKSYS_Prescalers_Config, .-CLKSYS_Prescalers_Config
 208               	.global	CLKSYS_Main_ClockSource_Select
 209               		.type	CLKSYS_Main_ClockSource_Select, @function
 210               	CLKSYS_Main_ClockSource_Select:
 211               	.LFB12:
 212               	.LM29:
 213               	.LVL20:
 214 008e 1F93      		push r17
 215 0090 CF93      		push r28
 216 0092 DF93      		push r29
 217               	/* prologue: function */
 218               	/* frame size = 0 */
 219               	/* stack size = 3 */
 220               	.L__stack_usage = 3
 221 0094 182F      		mov r17,r24
 222               	.LM30:
 223 0096 C0E4      		ldi r28,lo8(64)
 224 0098 D0E0      		ldi r29,hi8(64)
 225 009a 6881      		ld r22,Y
 226               	.LVL21:
 227 009c 687F      		andi r22,lo8(-8)
 228               	.LVL22:
GAS LISTING /tmp/ccvyM2DX.s 			page 5


 229 009e 682B      		or r22,r24
 230               	.LVL23:
 231               	.LM31:
 232 00a0 80E4      		ldi r24,lo8(64)
 233 00a2 90E0      		ldi r25,hi8(64)
 234               	.LVL24:
 235 00a4 0E94 0000 		call CCPWrite
 236               	.LVL25:
 237               	.LM32:
 238 00a8 8881      		ld r24,Y
 239               	.LVL26:
 240               	.LM33:
 241 00aa 8123      		and r24,r17
 242               	.LVL27:
 243               	/* epilogue start */
 244 00ac DF91      		pop r29
 245 00ae CF91      		pop r28
 246 00b0 1F91      		pop r17
 247               	.LVL28:
 248 00b2 0895      		ret
 249               	.LFE12:
 250               		.size	CLKSYS_Main_ClockSource_Select, .-CLKSYS_Main_ClockSource_Select
 251               	.global	CLKSYS_RTC_ClockSource_Enable
 252               		.type	CLKSYS_RTC_ClockSource_Enable, @function
 253               	CLKSYS_RTC_ClockSource_Enable:
 254               	.LFB13:
 255               	.LM34:
 256               	.LVL29:
 257               	/* prologue: function */
 258               	/* frame size = 0 */
 259               	/* stack size = 0 */
 260               	.L__stack_usage = 0
 261               	.LM35:
 262 00b4 E0E4      		ldi r30,lo8(64)
 263 00b6 F0E0      		ldi r31,hi8(64)
 264 00b8 9381      		ldd r25,Z+3
 265 00ba 917F      		andi r25,lo8(-15)
 266 00bc 9160      		ori r25,lo8(1)
 267 00be 982B      		or r25,r24
 268 00c0 9383      		std Z+3,r25
 269               	/* epilogue start */
 270               	.LM36:
 271 00c2 0895      		ret
 272               	.LFE13:
 273               		.size	CLKSYS_RTC_ClockSource_Enable, .-CLKSYS_RTC_ClockSource_Enable
 274               	.global	CLKSYS_AutoCalibration_Enable
 275               		.type	CLKSYS_AutoCalibration_Enable, @function
 276               	CLKSYS_AutoCalibration_Enable:
 277               	.LFB14:
 278               	.LM37:
 279               	.LVL30:
 280               	/* prologue: function */
 281               	/* frame size = 0 */
 282               	/* stack size = 0 */
 283               	.L__stack_usage = 0
 284               	.LM38:
 285 00c4 3091 5600 		lds r19,86
GAS LISTING /tmp/ccvyM2DX.s 			page 6


 286 00c8 282F      		mov r18,r24
 287 00ca 982F      		mov r25,r24
 288 00cc 9095      		com r25
 289 00ce 9323      		and r25,r19
 290 00d0 6623      		tst r22
 291 00d2 01F4      		brne .L16
 292               	.LVL31:
 293 00d4 20E0      		ldi r18,lo8(0)
 294               	.LVL32:
 295               	.L16:
 296               	.LM39:
 297 00d6 922B      		or r25,r18
 298 00d8 E0E5      		ldi r30,lo8(80)
 299 00da F0E0      		ldi r31,hi8(80)
 300 00dc 9683      		std Z+6,r25
 301               	.LM40:
 302 00de 8130      		cpi r24,lo8(1)
 303 00e0 01F4      		brne .L17
 304               	.LM41:
 305 00e2 8091 6800 		lds r24,104
 306               	.LVL33:
 307 00e6 8160      		ori r24,lo8(1)
 308 00e8 8093 6800 		sts 104,r24
 309 00ec 0895      		ret
 310               	.LVL34:
 311               	.L17:
 312               	.LM42:
 313 00ee 8230      		cpi r24,lo8(2)
 314 00f0 01F4      		brne .L15
 315               	.LM43:
 316 00f2 8091 6000 		lds r24,96
 317               	.LVL35:
 318 00f6 8160      		ori r24,lo8(1)
 319 00f8 8093 6000 		sts 96,r24
 320               	.L15:
 321 00fc 0895      		ret
 322               	.LFE14:
 323               		.size	CLKSYS_AutoCalibration_Enable, .-CLKSYS_AutoCalibration_Enable
 324               	.global	CLKSYS_XOSC_FailureDetection_Enable
 325               		.type	CLKSYS_XOSC_FailureDetection_Enable, @function
 326               	CLKSYS_XOSC_FailureDetection_Enable:
 327               	.LFB15:
 328               	.LM44:
 329               	/* prologue: function */
 330               	/* frame size = 0 */
 331               	/* stack size = 0 */
 332               	.L__stack_usage = 0
 333               	.LM45:
 334 00fe 83E5      		ldi r24,lo8(83)
 335 0100 90E0      		ldi r25,hi8(83)
 336 0102 63E0      		ldi r22,lo8(3)
 337 0104 0E94 0000 		call CCPWrite
 338               	/* epilogue start */
 339               	.LM46:
 340 0108 0895      		ret
 341               	.LFE15:
 342               		.size	CLKSYS_XOSC_FailureDetection_Enable, .-CLKSYS_XOSC_FailureDetection_Enable
GAS LISTING /tmp/ccvyM2DX.s 			page 7


 343               	.global	CLKSYS_Configuration_Lock
 344               		.type	CLKSYS_Configuration_Lock, @function
 345               	CLKSYS_Configuration_Lock:
 346               	.LFB16:
 347               	.LM47:
 348               	/* prologue: function */
 349               	/* frame size = 0 */
 350               	/* stack size = 0 */
 351               	.L__stack_usage = 0
 352               	.LM48:
 353 010a 82E4      		ldi r24,lo8(66)
 354 010c 90E0      		ldi r25,hi8(66)
 355 010e 61E0      		ldi r22,lo8(1)
 356 0110 0E94 0000 		call CCPWrite
 357               	/* epilogue start */
 358               	.LM49:
 359 0114 0895      		ret
 360               	.LFE16:
 361               		.size	CLKSYS_Configuration_Lock, .-CLKSYS_Configuration_Lock
 362               	.global	__vector_14
 363               		.type	__vector_14, @function
 364               	__vector_14:
 365               	.LFB17:
 366               	.LM50:
 367 0116 1F92      		push __zero_reg__
 368 0118 0F92      		push r0
 369 011a 0FB6      		in r0,__SREG__
 370 011c 0F92      		push r0
 371 011e 1124      		clr __zero_reg__
 372 0120 8F93      		push r24
 373 0122 9F93      		push r25
 374 0124 AF93      		push r26
 375 0126 BF93      		push r27
 376               	/* prologue: Signal */
 377               	/* frame size = 0 */
 378               	/* stack size = 7 */
 379               	.L__stack_usage = 7
 380               	.LM51:
 381 0128 8091 0000 		lds r24,elapsedMillis
 382 012c 9091 0000 		lds r25,elapsedMillis+1
 383 0130 A091 0000 		lds r26,elapsedMillis+2
 384 0134 B091 0000 		lds r27,elapsedMillis+3
 385 0138 0196      		adiw r24,1
 386 013a A11D      		adc r26,__zero_reg__
 387 013c B11D      		adc r27,__zero_reg__
 388 013e 8093 0000 		sts elapsedMillis,r24
 389 0142 9093 0000 		sts elapsedMillis+1,r25
 390 0146 A093 0000 		sts elapsedMillis+2,r26
 391 014a B093 0000 		sts elapsedMillis+3,r27
 392               	/* epilogue start */
 393               	.LM52:
 394 014e BF91      		pop r27
 395 0150 AF91      		pop r26
 396 0152 9F91      		pop r25
 397 0154 8F91      		pop r24
 398 0156 0F90      		pop r0
 399 0158 0FBE      		out __SREG__,r0
GAS LISTING /tmp/ccvyM2DX.s 			page 8


 400 015a 0F90      		pop r0
 401 015c 1F90      		pop __zero_reg__
 402 015e 1895      		reti
 403               	.LFE17:
 404               		.size	__vector_14, .-__vector_14
 405               	.global	delay_ms
 406               		.type	delay_ms, @function
 407               	delay_ms:
 408               	.LFB18:
 409               	.LM53:
 410               	.LVL36:
 411               	/* prologue: function */
 412               	/* frame size = 0 */
 413               	/* stack size = 0 */
 414               	.L__stack_usage = 0
 415               	.LM54:
 416 0160 282F      		mov r18,r24
 417 0162 392F      		mov r19,r25
 418 0164 C901      		movw r24,r18
 419               	.LVL37:
 420               	.LM55:
 421 0166 00C0      		rjmp .L23
 422               	.L24:
 423               	.LVL38:
 424               	.LBB76:
 425               	.LBB77:
 426               	.LM56:
 427 0168 EFE3      		 ldi r30,lo8(7999)
 428 016a FFE1      	    ldi r31,hi8(7999)
 429 016c 3197      	    1:sbiw r30,1
 430 016e 01F4      	    brne 1b
 431 0170 00C0      		rjmp .
 432 0172 0000      		nop
 433 0174 0197      		sbiw r24,1
 434               	.LVL39:
 435               	.L23:
 436               	.LBE77:
 437               	.LBE76:
 438               	.LM57:
 439 0176 0097      		sbiw r24,0
 440 0178 01F4      		brne .L24
 441               	/* epilogue start */
 442               	.LM58:
 443 017a 0895      		ret
 444               	.LFE18:
 445               		.size	delay_ms, .-delay_ms
 446               	.global	compareArray
 447               		.type	compareArray, @function
 448               	compareArray:
 449               	.LFB19:
 450               	.LM59:
 451               	.LVL40:
 452               	/* prologue: function */
 453               	/* frame size = 0 */
 454               	/* stack size = 0 */
 455               	.L__stack_usage = 0
 456 017c FC01      		movw r30,r24
GAS LISTING /tmp/ccvyM2DX.s 			page 9


 457 017e DB01      		movw r26,r22
 458               	.LM60:
 459 0180 2081      		ld r18,Z
 460 0182 3181      		ldd r19,Z+1
 461 0184 8D91      		ld r24,X+
 462 0186 9C91      		ld r25,X
 463 0188 1197      		sbiw r26,1
 464               	.LVL41:
 465 018a 2817      		cp r18,r24
 466 018c 3907      		cpc r19,r25
 467 018e 01F4      		brne .L32
 468               	.LM61:
 469 0190 2281      		ldd r18,Z+2
 470 0192 3381      		ldd r19,Z+3
 471 0194 1296      		adiw r26,2
 472 0196 8D91      		ld r24,X+
 473 0198 9C91      		ld r25,X
 474 019a 1397      		sbiw r26,2+1
 475 019c 2817      		cp r18,r24
 476 019e 3907      		cpc r19,r25
 477 01a0 01F4      		brne .L32
 478               	.LM62:
 479 01a2 2481      		ldd r18,Z+4
 480 01a4 3581      		ldd r19,Z+5
 481 01a6 1496      		adiw r26,4
 482 01a8 8D91      		ld r24,X+
 483 01aa 9C91      		ld r25,X
 484 01ac 1597      		sbiw r26,4+1
 485 01ae 2817      		cp r18,r24
 486 01b0 3907      		cpc r19,r25
 487 01b2 01F4      		brne .L32
 488               	.LM63:
 489 01b4 2681      		ldd r18,Z+6
 490 01b6 3781      		ldd r19,Z+7
 491 01b8 1696      		adiw r26,6
 492 01ba 8D91      		ld r24,X+
 493 01bc 9C91      		ld r25,X
 494 01be 1797      		sbiw r26,6+1
 495 01c0 2817      		cp r18,r24
 496 01c2 3907      		cpc r19,r25
 497 01c4 01F4      		brne .L32
 498               	.LM64:
 499 01c6 2085      		ldd r18,Z+8
 500 01c8 3185      		ldd r19,Z+9
 501 01ca 1896      		adiw r26,8
 502 01cc 8D91      		ld r24,X+
 503 01ce 9C91      		ld r25,X
 504 01d0 1997      		sbiw r26,8+1
 505 01d2 2817      		cp r18,r24
 506 01d4 3907      		cpc r19,r25
 507 01d6 01F4      		brne .L32
 508               	.LM65:
 509 01d8 21E0      		ldi r18,lo8(1)
 510 01da 30E0      		ldi r19,hi8(1)
 511 01dc 4285      		ldd r20,Z+10
 512 01de 5385      		ldd r21,Z+11
 513 01e0 1A96      		adiw r26,10
GAS LISTING /tmp/ccvyM2DX.s 			page 10


 514 01e2 8D91      		ld r24,X+
 515 01e4 9C91      		ld r25,X
 516 01e6 1B97      		sbiw r26,10+1
 517 01e8 4817      		cp r20,r24
 518 01ea 5907      		cpc r21,r25
 519 01ec 01F0      		breq .L26
 520               	.L32:
 521               	.LM66:
 522 01ee 20E0      		ldi r18,lo8(0)
 523 01f0 30E0      		ldi r19,hi8(0)
 524               	.L26:
 525               	.LM67:
 526 01f2 C901      		movw r24,r18
 527               	/* epilogue start */
 528 01f4 0895      		ret
 529               	.LFE19:
 530               		.size	compareArray, .-compareArray
 531               	.global	signum
 532               		.type	signum, @function
 533               	signum:
 534               	.LFB20:
 535               	.LM68:
 536               	.LVL42:
 537               	/* prologue: function */
 538               	/* frame size = 0 */
 539               	/* stack size = 0 */
 540               	.L__stack_usage = 0
 541               	.LM69:
 542 01f6 97FD      		sbrc r25,7
 543 01f8 00C0      		rjmp .L36
 544               	.LM70:
 545 01fa 21E0      		ldi r18,lo8(1)
 546 01fc 30E0      		ldi r19,hi8(1)
 547 01fe 1816      		cp __zero_reg__,r24
 548 0200 1906      		cpc __zero_reg__,r25
 549 0202 04F0      		brlt .L34
 550 0204 20E0      		ldi r18,lo8(0)
 551 0206 30E0      		ldi r19,hi8(0)
 552 0208 00C0      		rjmp .L34
 553               	.L36:
 554               	.LM71:
 555 020a 2FEF      		ldi r18,lo8(-1)
 556 020c 3FEF      		ldi r19,hi8(-1)
 557               	.L34:
 558               	.LM72:
 559 020e C901      		movw r24,r18
 560               	.LVL43:
 561               	/* epilogue start */
 562 0210 0895      		ret
 563               	.LFE20:
 564               		.size	signum, .-signum
 565               	.global	Config32MHzClock
 566               		.type	Config32MHzClock, @function
 567               	Config32MHzClock:
 568               	.LFB21:
 569               	.LM73:
 570               	/* prologue: function */
GAS LISTING /tmp/ccvyM2DX.s 			page 11


 571               	/* frame size = 0 */
 572               	/* stack size = 0 */
 573               	.L__stack_usage = 0
 574               	.LM74:
 575 0212 88ED      		ldi r24,lo8(-40)
 576 0214 84BF      		out 52-0,r24
 577               	.LM75:
 578 0216 82E0      		ldi r24,lo8(2)
 579 0218 8093 5000 		sts 80,r24
 580               	.L38:
 581               	.LM76:
 582 021c 8091 5100 		lds r24,81
 583 0220 81FF      		sbrs r24,1
 584 0222 00C0      		rjmp .L38
 585               	.LM77:
 586 0224 88ED      		ldi r24,lo8(-40)
 587 0226 84BF      		out 52-0,r24
 588               	.LM78:
 589 0228 81E0      		ldi r24,lo8(1)
 590 022a 8093 4000 		sts 64,r24
 591               	/* epilogue start */
 592               	.LM79:
 593 022e 0895      		ret
 594               	.LFE21:
 595               		.size	Config32MHzClock, .-Config32MHzClock
 596               	.global	millis
 597               		.type	millis, @function
 598               	millis:
 599               	.LFB22:
 600               	.LM80:
 601               	/* prologue: function */
 602               	/* frame size = 0 */
 603               	/* stack size = 0 */
 604               	.L__stack_usage = 0
 605               	.LM81:
 606 0230 2091 0000 		lds r18,elapsedMillis
 607 0234 3091 0000 		lds r19,elapsedMillis+1
 608 0238 4091 0000 		lds r20,elapsedMillis+2
 609 023c 5091 0000 		lds r21,elapsedMillis+3
 610               	.LM82:
 611 0240 B901      		movw r22,r18
 612 0242 CA01      		movw r24,r20
 613               	/* epilogue start */
 614 0244 0895      		ret
 615               	.LFE22:
 616               		.size	millis, .-millis
 617               	.global	blink
 618               		.type	blink, @function
 619               	blink:
 620               	.LFB23:
 621               	.LM83:
 622               	.LVL44:
 623 0246 FF92      		push r15
 624 0248 0F93      		push r16
 625 024a 1F93      		push r17
 626 024c CF93      		push r28
 627 024e DF93      		push r29
GAS LISTING /tmp/ccvyM2DX.s 			page 12


 628               	/* prologue: function */
 629               	/* frame size = 0 */
 630               	/* stack size = 5 */
 631               	.L__stack_usage = 5
 632 0250 EC01      		movw r28,r24
 633               	.LM84:
 634 0252 00E8      		ldi r16,lo8(1664)
 635 0254 16E0      		ldi r17,hi8(1664)
 636 0256 FF24      		clr r15
 637 0258 F394      		inc r15
 638 025a F801      		movw r30,r16
 639 025c F582      		std Z+5,r15
 640               	.LM85:
 641 025e 0E94 0000 		call delay_ms
 642               	.LVL45:
 643               	.LM86:
 644 0262 F801      		movw r30,r16
 645 0264 F682      		std Z+6,r15
 646               	.LM87:
 647 0266 CE01      		movw r24,r28
 648 0268 0E94 0000 		call delay_ms
 649               	/* epilogue start */
 650               	.LM88:
 651 026c DF91      		pop r29
 652 026e CF91      		pop r28
 653               	.LVL46:
 654 0270 1F91      		pop r17
 655 0272 0F91      		pop r16
 656 0274 FF90      		pop r15
 657 0276 0895      		ret
 658               	.LFE23:
 659               		.size	blink, .-blink
 660               	.global	blinkN
 661               		.type	blinkN, @function
 662               	blinkN:
 663               	.LFB24:
 664               	.LM89:
 665               	.LVL47:
 666 0278 0F93      		push r16
 667 027a 1F93      		push r17
 668 027c CF93      		push r28
 669 027e DF93      		push r29
 670               	/* prologue: function */
 671               	/* frame size = 0 */
 672               	/* stack size = 4 */
 673               	.L__stack_usage = 4
 674 0280 8C01      		movw r16,r24
 675               	.LVL48:
 676               	.LM90:
 677 0282 C0E0      		ldi r28,lo8(0)
 678 0284 D0E0      		ldi r29,hi8(0)
 679 0286 00C0      		rjmp .L43
 680               	.LVL49:
 681               	.L44:
 682               	.LM91:
 683 0288 82E3      		ldi r24,lo8(50)
 684 028a 90E0      		ldi r25,hi8(50)
GAS LISTING /tmp/ccvyM2DX.s 			page 13


 685 028c 0E94 0000 		call blink
 686               	.LM92:
 687 0290 2196      		adiw r28,1
 688               	.LVL50:
 689               	.L43:
 690               	.LM93:
 691 0292 C017      		cp r28,r16
 692 0294 D107      		cpc r29,r17
 693 0296 04F0      		brlt .L44
 694               	/* epilogue start */
 695               	.LM94:
 696 0298 DF91      		pop r29
 697 029a CF91      		pop r28
 698               	.LVL51:
 699 029c 1F91      		pop r17
 700 029e 0F91      		pop r16
 701               	.LVL52:
 702 02a0 0895      		ret
 703               	.LFE24:
 704               		.size	blinkN, .-blinkN
 705               	.global	setPin
 706               		.type	setPin, @function
 707               	setPin:
 708               	.LFB25:
 709               	.LM95:
 710               	.LVL53:
 711               	/* prologue: function */
 712               	/* frame size = 0 */
 713               	/* stack size = 0 */
 714               	.L__stack_usage = 0
 715               	.LM96:
 716 02a2 8234      		cpi r24,lo8(66)
 717 02a4 01F0      		breq .L48
 718 02a6 8334      		cpi r24,lo8(67)
 719 02a8 00F4      		brsh .L51
 720 02aa 8134      		cpi r24,lo8(65)
 721 02ac 01F0      		breq .+2
 722 02ae 00C0      		rjmp .L45
 723 02b0 00C0      		rjmp .L84
 724               	.L51:
 725 02b2 8334      		cpi r24,lo8(67)
 726 02b4 01F4      		brne .+2
 727 02b6 00C0      		rjmp .L49
 728 02b8 8434      		cpi r24,lo8(68)
 729 02ba 01F0      		breq .+2
 730 02bc 00C0      		rjmp .L45
 731 02be 00C0      		rjmp .L85
 732               	.L84:
 733               	.LM97:
 734 02c0 6330      		cpi r22,3
 735 02c2 7105      		cpc r23,__zero_reg__
 736 02c4 01F0      		breq .L55
 737 02c6 6430      		cpi r22,4
 738 02c8 7105      		cpc r23,__zero_reg__
 739 02ca 04F4      		brge .L60
 740 02cc 6130      		cpi r22,1
 741 02ce 7105      		cpc r23,__zero_reg__
GAS LISTING /tmp/ccvyM2DX.s 			page 14


 742 02d0 01F0      		breq .L53
 743 02d2 6230      		cpi r22,2
 744 02d4 7105      		cpc r23,__zero_reg__
 745 02d6 04F4      		brge .L54
 746 02d8 6115      		cp r22,__zero_reg__
 747 02da 7105      		cpc r23,__zero_reg__
 748 02dc 01F0      		breq .L52
 749 02de 0895      		ret
 750               	.L60:
 751 02e0 6530      		cpi r22,5
 752 02e2 7105      		cpc r23,__zero_reg__
 753 02e4 01F0      		breq .L57
 754 02e6 6530      		cpi r22,5
 755 02e8 7105      		cpc r23,__zero_reg__
 756 02ea 04F0      		brlt .L56
 757 02ec 6630      		cpi r22,6
 758 02ee 7105      		cpc r23,__zero_reg__
 759 02f0 01F0      		breq .L58
 760 02f2 6730      		cpi r22,7
 761 02f4 7105      		cpc r23,__zero_reg__
 762 02f6 01F0      		breq .+2
 763 02f8 00C0      		rjmp .L45
 764 02fa 00C0      		rjmp .L86
 765               	.L52:
 766               	.LM98:
 767 02fc 81E0      		ldi r24,lo8(1)
 768               	.LVL54:
 769 02fe 00C0      		rjmp .L81
 770               	.LVL55:
 771               	.L53:
 772               	.LM99:
 773 0300 82E0      		ldi r24,lo8(2)
 774               	.LVL56:
 775 0302 00C0      		rjmp .L81
 776               	.LVL57:
 777               	.L54:
 778               	.LM100:
 779 0304 84E0      		ldi r24,lo8(4)
 780               	.LVL58:
 781 0306 00C0      		rjmp .L81
 782               	.LVL59:
 783               	.L55:
 784               	.LM101:
 785 0308 88E0      		ldi r24,lo8(8)
 786               	.LVL60:
 787 030a 00C0      		rjmp .L81
 788               	.LVL61:
 789               	.L56:
 790               	.LM102:
 791 030c 80E1      		ldi r24,lo8(16)
 792               	.LVL62:
 793 030e 00C0      		rjmp .L81
 794               	.LVL63:
 795               	.L57:
 796               	.LM103:
 797 0310 80E2      		ldi r24,lo8(32)
 798               	.LVL64:
GAS LISTING /tmp/ccvyM2DX.s 			page 15


 799 0312 00C0      		rjmp .L81
 800               	.LVL65:
 801               	.L58:
 802               	.LM104:
 803 0314 80E4      		ldi r24,lo8(64)
 804               	.LVL66:
 805 0316 00C0      		rjmp .L81
 806               	.LVL67:
 807               	.L86:
 808               	.LM105:
 809 0318 80E8      		ldi r24,lo8(-128)
 810               	.LVL68:
 811               	.L81:
 812 031a 8093 0506 		sts 1541,r24
 813 031e 0895      		ret
 814               	.LVL69:
 815               	.L48:
 816               	.LM106:
 817 0320 6130      		cpi r22,1
 818 0322 7105      		cpc r23,__zero_reg__
 819 0324 01F0      		breq .L62
 820 0326 6230      		cpi r22,2
 821 0328 7105      		cpc r23,__zero_reg__
 822 032a 04F4      		brge .L65
 823 032c 6115      		cp r22,__zero_reg__
 824 032e 7105      		cpc r23,__zero_reg__
 825 0330 01F0      		breq .L61
 826 0332 0895      		ret
 827               	.L65:
 828 0334 6230      		cpi r22,2
 829 0336 7105      		cpc r23,__zero_reg__
 830 0338 01F0      		breq .L63
 831 033a 6330      		cpi r22,3
 832 033c 7105      		cpc r23,__zero_reg__
 833 033e 01F0      		breq .+2
 834 0340 00C0      		rjmp .L45
 835 0342 00C0      		rjmp .L87
 836               	.L61:
 837               	.LM107:
 838 0344 81E0      		ldi r24,lo8(1)
 839               	.LVL70:
 840 0346 00C0      		rjmp .L83
 841               	.LVL71:
 842               	.L62:
 843               	.LM108:
 844 0348 82E0      		ldi r24,lo8(2)
 845               	.LVL72:
 846 034a 00C0      		rjmp .L83
 847               	.LVL73:
 848               	.L63:
 849               	.LM109:
 850 034c 84E0      		ldi r24,lo8(4)
 851               	.LVL74:
 852 034e 00C0      		rjmp .L83
 853               	.LVL75:
 854               	.L87:
 855               	.LM110:
GAS LISTING /tmp/ccvyM2DX.s 			page 16


 856 0350 88E0      		ldi r24,lo8(8)
 857               	.LVL76:
 858               	.L83:
 859 0352 8093 2506 		sts 1573,r24
 860 0356 0895      		ret
 861               	.LVL77:
 862               	.L49:
 863               	.LM111:
 864 0358 6330      		cpi r22,3
 865 035a 7105      		cpc r23,__zero_reg__
 866 035c 01F0      		breq .L69
 867 035e 6430      		cpi r22,4
 868 0360 7105      		cpc r23,__zero_reg__
 869 0362 04F4      		brge .L74
 870 0364 6130      		cpi r22,1
 871 0366 7105      		cpc r23,__zero_reg__
 872 0368 01F0      		breq .L67
 873 036a 6230      		cpi r22,2
 874 036c 7105      		cpc r23,__zero_reg__
 875 036e 04F4      		brge .L68
 876 0370 6115      		cp r22,__zero_reg__
 877 0372 7105      		cpc r23,__zero_reg__
 878 0374 01F0      		breq .L66
 879 0376 0895      		ret
 880               	.L74:
 881 0378 6530      		cpi r22,5
 882 037a 7105      		cpc r23,__zero_reg__
 883 037c 01F0      		breq .L71
 884 037e 6530      		cpi r22,5
 885 0380 7105      		cpc r23,__zero_reg__
 886 0382 04F0      		brlt .L70
 887 0384 6630      		cpi r22,6
 888 0386 7105      		cpc r23,__zero_reg__
 889 0388 01F0      		breq .L72
 890 038a 6730      		cpi r22,7
 891 038c 7105      		cpc r23,__zero_reg__
 892 038e 01F4      		brne .L45
 893 0390 00C0      		rjmp .L88
 894               	.L66:
 895               	.LM112:
 896 0392 81E0      		ldi r24,lo8(1)
 897               	.LVL78:
 898 0394 00C0      		rjmp .L82
 899               	.LVL79:
 900               	.L67:
 901               	.LM113:
 902 0396 82E0      		ldi r24,lo8(2)
 903               	.LVL80:
 904 0398 00C0      		rjmp .L82
 905               	.LVL81:
 906               	.L68:
 907               	.LM114:
 908 039a 84E0      		ldi r24,lo8(4)
 909               	.LVL82:
 910 039c 00C0      		rjmp .L82
 911               	.LVL83:
 912               	.L69:
GAS LISTING /tmp/ccvyM2DX.s 			page 17


 913               	.LM115:
 914 039e 88E0      		ldi r24,lo8(8)
 915               	.LVL84:
 916 03a0 00C0      		rjmp .L82
 917               	.LVL85:
 918               	.L70:
 919               	.LM116:
 920 03a2 80E1      		ldi r24,lo8(16)
 921               	.LVL86:
 922 03a4 00C0      		rjmp .L82
 923               	.LVL87:
 924               	.L71:
 925               	.LM117:
 926 03a6 80E2      		ldi r24,lo8(32)
 927               	.LVL88:
 928 03a8 00C0      		rjmp .L82
 929               	.LVL89:
 930               	.L72:
 931               	.LM118:
 932 03aa 80E4      		ldi r24,lo8(64)
 933               	.LVL90:
 934 03ac 00C0      		rjmp .L82
 935               	.LVL91:
 936               	.L88:
 937               	.LM119:
 938 03ae 80E8      		ldi r24,lo8(-128)
 939               	.LVL92:
 940               	.L82:
 941 03b0 8093 4506 		sts 1605,r24
 942 03b4 0895      		ret
 943               	.LVL93:
 944               	.L85:
 945               	.LM120:
 946 03b6 6130      		cpi r22,1
 947 03b8 7105      		cpc r23,__zero_reg__
 948 03ba 01F0      		breq .L76
 949 03bc 6230      		cpi r22,2
 950 03be 7105      		cpc r23,__zero_reg__
 951 03c0 04F4      		brge .L79
 952 03c2 6115      		cp r22,__zero_reg__
 953 03c4 7105      		cpc r23,__zero_reg__
 954 03c6 01F0      		breq .L75
 955 03c8 0895      		ret
 956               	.L79:
 957 03ca 6230      		cpi r22,2
 958 03cc 7105      		cpc r23,__zero_reg__
 959 03ce 01F0      		breq .L77
 960 03d0 6330      		cpi r22,3
 961 03d2 7105      		cpc r23,__zero_reg__
 962 03d4 01F4      		brne .L45
 963 03d6 00C0      		rjmp .L89
 964               	.L75:
 965               	.LM121:
 966 03d8 81E0      		ldi r24,lo8(1)
 967               	.LVL94:
 968 03da 00C0      		rjmp .L80
 969               	.LVL95:
GAS LISTING /tmp/ccvyM2DX.s 			page 18


 970               	.L76:
 971               	.LM122:
 972 03dc 82E0      		ldi r24,lo8(2)
 973               	.LVL96:
 974 03de 00C0      		rjmp .L80
 975               	.LVL97:
 976               	.L77:
 977               	.LM123:
 978 03e0 84E0      		ldi r24,lo8(4)
 979               	.LVL98:
 980               	.L80:
 981 03e2 8093 6506 		sts 1637,r24
 982 03e6 0895      		ret
 983               	.LVL99:
 984               	.L89:
 985               	.LM124:
 986 03e8 88E0      		ldi r24,lo8(8)
 987               	.LVL100:
 988 03ea 8093 6506 		sts 1637,r24
 989               	.L45:
 990 03ee 0895      		ret
 991               	.LFE25:
 992               		.size	setPin, .-setPin
 993               	.global	clearPin
 994               		.type	clearPin, @function
 995               	clearPin:
 996               	.LFB26:
 997               	.LM125:
 998               	.LVL101:
 999               	/* prologue: function */
 1000               	/* frame size = 0 */
 1001               	/* stack size = 0 */
 1002               	.L__stack_usage = 0
 1003               	.LM126:
 1004 03f0 8234      		cpi r24,lo8(66)
 1005 03f2 01F0      		breq .L93
 1006 03f4 8334      		cpi r24,lo8(67)
 1007 03f6 00F4      		brsh .L96
 1008 03f8 8134      		cpi r24,lo8(65)
 1009 03fa 01F0      		breq .+2
 1010 03fc 00C0      		rjmp .L90
 1011 03fe 00C0      		rjmp .L129
 1012               	.L96:
 1013 0400 8334      		cpi r24,lo8(67)
 1014 0402 01F4      		brne .+2
 1015 0404 00C0      		rjmp .L94
 1016 0406 8434      		cpi r24,lo8(68)
 1017 0408 01F0      		breq .+2
 1018 040a 00C0      		rjmp .L90
 1019 040c 00C0      		rjmp .L130
 1020               	.L129:
 1021               	.LM127:
 1022 040e 6330      		cpi r22,3
 1023 0410 7105      		cpc r23,__zero_reg__
 1024 0412 01F0      		breq .L100
 1025 0414 6430      		cpi r22,4
 1026 0416 7105      		cpc r23,__zero_reg__
GAS LISTING /tmp/ccvyM2DX.s 			page 19


 1027 0418 04F4      		brge .L105
 1028 041a 6130      		cpi r22,1
 1029 041c 7105      		cpc r23,__zero_reg__
 1030 041e 01F0      		breq .L98
 1031 0420 6230      		cpi r22,2
 1032 0422 7105      		cpc r23,__zero_reg__
 1033 0424 04F4      		brge .L99
 1034 0426 6115      		cp r22,__zero_reg__
 1035 0428 7105      		cpc r23,__zero_reg__
 1036 042a 01F0      		breq .L97
 1037 042c 0895      		ret
 1038               	.L105:
 1039 042e 6530      		cpi r22,5
 1040 0430 7105      		cpc r23,__zero_reg__
 1041 0432 01F0      		breq .L102
 1042 0434 6530      		cpi r22,5
 1043 0436 7105      		cpc r23,__zero_reg__
 1044 0438 04F0      		brlt .L101
 1045 043a 6630      		cpi r22,6
 1046 043c 7105      		cpc r23,__zero_reg__
 1047 043e 01F0      		breq .L103
 1048 0440 6730      		cpi r22,7
 1049 0442 7105      		cpc r23,__zero_reg__
 1050 0444 01F0      		breq .+2
 1051 0446 00C0      		rjmp .L90
 1052 0448 00C0      		rjmp .L131
 1053               	.L97:
 1054               	.LM128:
 1055 044a 81E0      		ldi r24,lo8(1)
 1056               	.LVL102:
 1057 044c 00C0      		rjmp .L126
 1058               	.LVL103:
 1059               	.L98:
 1060               	.LM129:
 1061 044e 82E0      		ldi r24,lo8(2)
 1062               	.LVL104:
 1063 0450 00C0      		rjmp .L126
 1064               	.LVL105:
 1065               	.L99:
 1066               	.LM130:
 1067 0452 84E0      		ldi r24,lo8(4)
 1068               	.LVL106:
 1069 0454 00C0      		rjmp .L126
 1070               	.LVL107:
 1071               	.L100:
 1072               	.LM131:
 1073 0456 88E0      		ldi r24,lo8(8)
 1074               	.LVL108:
 1075 0458 00C0      		rjmp .L126
 1076               	.LVL109:
 1077               	.L101:
 1078               	.LM132:
 1079 045a 80E1      		ldi r24,lo8(16)
 1080               	.LVL110:
 1081 045c 00C0      		rjmp .L126
 1082               	.LVL111:
 1083               	.L102:
GAS LISTING /tmp/ccvyM2DX.s 			page 20


 1084               	.LM133:
 1085 045e 80E2      		ldi r24,lo8(32)
 1086               	.LVL112:
 1087 0460 00C0      		rjmp .L126
 1088               	.LVL113:
 1089               	.L103:
 1090               	.LM134:
 1091 0462 80E4      		ldi r24,lo8(64)
 1092               	.LVL114:
 1093 0464 00C0      		rjmp .L126
 1094               	.LVL115:
 1095               	.L131:
 1096               	.LM135:
 1097 0466 80E8      		ldi r24,lo8(-128)
 1098               	.LVL116:
 1099               	.L126:
 1100 0468 8093 0606 		sts 1542,r24
 1101 046c 0895      		ret
 1102               	.LVL117:
 1103               	.L93:
 1104               	.LM136:
 1105 046e 6130      		cpi r22,1
 1106 0470 7105      		cpc r23,__zero_reg__
 1107 0472 01F0      		breq .L107
 1108 0474 6230      		cpi r22,2
 1109 0476 7105      		cpc r23,__zero_reg__
 1110 0478 04F4      		brge .L110
 1111 047a 6115      		cp r22,__zero_reg__
 1112 047c 7105      		cpc r23,__zero_reg__
 1113 047e 01F0      		breq .L106
 1114 0480 0895      		ret
 1115               	.L110:
 1116 0482 6230      		cpi r22,2
 1117 0484 7105      		cpc r23,__zero_reg__
 1118 0486 01F0      		breq .L108
 1119 0488 6330      		cpi r22,3
 1120 048a 7105      		cpc r23,__zero_reg__
 1121 048c 01F0      		breq .+2
 1122 048e 00C0      		rjmp .L90
 1123 0490 00C0      		rjmp .L132
 1124               	.L106:
 1125               	.LM137:
 1126 0492 81E0      		ldi r24,lo8(1)
 1127               	.LVL118:
 1128 0494 00C0      		rjmp .L128
 1129               	.LVL119:
 1130               	.L107:
 1131               	.LM138:
 1132 0496 82E0      		ldi r24,lo8(2)
 1133               	.LVL120:
 1134 0498 00C0      		rjmp .L128
 1135               	.LVL121:
 1136               	.L108:
 1137               	.LM139:
 1138 049a 84E0      		ldi r24,lo8(4)
 1139               	.LVL122:
 1140 049c 00C0      		rjmp .L128
GAS LISTING /tmp/ccvyM2DX.s 			page 21


 1141               	.LVL123:
 1142               	.L132:
 1143               	.LM140:
 1144 049e 88E0      		ldi r24,lo8(8)
 1145               	.LVL124:
 1146               	.L128:
 1147 04a0 8093 2606 		sts 1574,r24
 1148 04a4 0895      		ret
 1149               	.LVL125:
 1150               	.L94:
 1151               	.LM141:
 1152 04a6 6330      		cpi r22,3
 1153 04a8 7105      		cpc r23,__zero_reg__
 1154 04aa 01F0      		breq .L114
 1155 04ac 6430      		cpi r22,4
 1156 04ae 7105      		cpc r23,__zero_reg__
 1157 04b0 04F4      		brge .L119
 1158 04b2 6130      		cpi r22,1
 1159 04b4 7105      		cpc r23,__zero_reg__
 1160 04b6 01F0      		breq .L112
 1161 04b8 6230      		cpi r22,2
 1162 04ba 7105      		cpc r23,__zero_reg__
 1163 04bc 04F4      		brge .L113
 1164 04be 6115      		cp r22,__zero_reg__
 1165 04c0 7105      		cpc r23,__zero_reg__
 1166 04c2 01F0      		breq .L111
 1167 04c4 0895      		ret
 1168               	.L119:
 1169 04c6 6530      		cpi r22,5
 1170 04c8 7105      		cpc r23,__zero_reg__
 1171 04ca 01F0      		breq .L116
 1172 04cc 6530      		cpi r22,5
 1173 04ce 7105      		cpc r23,__zero_reg__
 1174 04d0 04F0      		brlt .L115
 1175 04d2 6630      		cpi r22,6
 1176 04d4 7105      		cpc r23,__zero_reg__
 1177 04d6 01F0      		breq .L117
 1178 04d8 6730      		cpi r22,7
 1179 04da 7105      		cpc r23,__zero_reg__
 1180 04dc 01F4      		brne .L90
 1181 04de 00C0      		rjmp .L133
 1182               	.L111:
 1183               	.LM142:
 1184 04e0 81E0      		ldi r24,lo8(1)
 1185               	.LVL126:
 1186 04e2 00C0      		rjmp .L127
 1187               	.LVL127:
 1188               	.L112:
 1189               	.LM143:
 1190 04e4 82E0      		ldi r24,lo8(2)
 1191               	.LVL128:
 1192 04e6 00C0      		rjmp .L127
 1193               	.LVL129:
 1194               	.L113:
 1195               	.LM144:
 1196 04e8 84E0      		ldi r24,lo8(4)
 1197               	.LVL130:
GAS LISTING /tmp/ccvyM2DX.s 			page 22


 1198 04ea 00C0      		rjmp .L127
 1199               	.LVL131:
 1200               	.L114:
 1201               	.LM145:
 1202 04ec 88E0      		ldi r24,lo8(8)
 1203               	.LVL132:
 1204 04ee 00C0      		rjmp .L127
 1205               	.LVL133:
 1206               	.L115:
 1207               	.LM146:
 1208 04f0 80E1      		ldi r24,lo8(16)
 1209               	.LVL134:
 1210 04f2 00C0      		rjmp .L127
 1211               	.LVL135:
 1212               	.L116:
 1213               	.LM147:
 1214 04f4 80E2      		ldi r24,lo8(32)
 1215               	.LVL136:
 1216 04f6 00C0      		rjmp .L127
 1217               	.LVL137:
 1218               	.L117:
 1219               	.LM148:
 1220 04f8 80E4      		ldi r24,lo8(64)
 1221               	.LVL138:
 1222 04fa 00C0      		rjmp .L127
 1223               	.LVL139:
 1224               	.L133:
 1225               	.LM149:
 1226 04fc 80E8      		ldi r24,lo8(-128)
 1227               	.LVL140:
 1228               	.L127:
 1229 04fe 8093 4606 		sts 1606,r24
 1230 0502 0895      		ret
 1231               	.LVL141:
 1232               	.L130:
 1233               	.LM150:
 1234 0504 6130      		cpi r22,1
 1235 0506 7105      		cpc r23,__zero_reg__
 1236 0508 01F0      		breq .L121
 1237 050a 6230      		cpi r22,2
 1238 050c 7105      		cpc r23,__zero_reg__
 1239 050e 04F4      		brge .L124
 1240 0510 6115      		cp r22,__zero_reg__
 1241 0512 7105      		cpc r23,__zero_reg__
 1242 0514 01F0      		breq .L120
 1243 0516 0895      		ret
 1244               	.L124:
 1245 0518 6230      		cpi r22,2
 1246 051a 7105      		cpc r23,__zero_reg__
 1247 051c 01F0      		breq .L122
 1248 051e 6330      		cpi r22,3
 1249 0520 7105      		cpc r23,__zero_reg__
 1250 0522 01F4      		brne .L90
 1251 0524 00C0      		rjmp .L134
 1252               	.L120:
 1253               	.LM151:
 1254 0526 81E0      		ldi r24,lo8(1)
GAS LISTING /tmp/ccvyM2DX.s 			page 23


 1255               	.LVL142:
 1256 0528 00C0      		rjmp .L125
 1257               	.LVL143:
 1258               	.L121:
 1259               	.LM152:
 1260 052a 82E0      		ldi r24,lo8(2)
 1261               	.LVL144:
 1262 052c 00C0      		rjmp .L125
 1263               	.LVL145:
 1264               	.L122:
 1265               	.LM153:
 1266 052e 84E0      		ldi r24,lo8(4)
 1267               	.LVL146:
 1268               	.L125:
 1269 0530 8093 6606 		sts 1638,r24
 1270 0534 0895      		ret
 1271               	.LVL147:
 1272               	.L134:
 1273               	.LM154:
 1274 0536 88E0      		ldi r24,lo8(8)
 1275               	.LVL148:
 1276 0538 8093 6606 		sts 1638,r24
 1277               	.L90:
 1278 053c 0895      		ret
 1279               	.LFE26:
 1280               		.size	clearPin, .-clearPin
 1281               	.global	setSpeed
 1282               		.type	setSpeed, @function
 1283               	setSpeed:
 1284               	.LFB27:
 1285               	.LM155:
 1286               	.LVL149:
 1287 053e EF92      		push r14
 1288 0540 FF92      		push r15
 1289 0542 0F93      		push r16
 1290 0544 1F93      		push r17
 1291 0546 CF93      		push r28
 1292 0548 DF93      		push r29
 1293               	/* prologue: function */
 1294               	/* frame size = 0 */
 1295               	/* stack size = 6 */
 1296               	.L__stack_usage = 6
 1297 054a EC01      		movw r28,r24
 1298 054c 7A01      		movw r14,r20
 1299 054e 8B01      		movw r16,r22
 1300               	.LM156:
 1301 0550 2A85      		ldd r18,Y+10
 1302 0552 3B85      		ldd r19,Y+11
 1303 0554 4427      		clr r20
 1304 0556 37FD      		sbrc r19,7
 1305 0558 4095      		com r20
 1306 055a 542F      		mov r21,r20
 1307 055c 60E6      		ldi r22,lo8(60000)
 1308 055e 7AEE      		ldi r23,hi8(60000)
 1309 0560 80E0      		ldi r24,hlo8(60000)
 1310 0562 90E0      		ldi r25,hhi8(60000)
 1311 0564 0E94 0000 		call __divmodsi4
GAS LISTING /tmp/ccvyM2DX.s 			page 24


 1312 0568 CA01      		movw r24,r20
 1313 056a B901      		movw r22,r18
 1314 056c A801      		movw r20,r16
 1315 056e 9701      		movw r18,r14
 1316 0570 0E94 0000 		call __divmodsi4
 1317 0574 2E83      		std Y+6,r18
 1318 0576 3F83      		std Y+7,r19
 1319 0578 4887      		std Y+8,r20
 1320 057a 5987      		std Y+9,r21
 1321               	/* epilogue start */
 1322               	.LM157:
 1323 057c DF91      		pop r29
 1324 057e CF91      		pop r28
 1325 0580 1F91      		pop r17
 1326 0582 0F91      		pop r16
 1327 0584 FF90      		pop r15
 1328 0586 EF90      		pop r14
 1329 0588 0895      		ret
 1330               	.LFE27:
 1331               		.size	setSpeed, .-setSpeed
 1332               	.global	stepMotor
 1333               		.type	stepMotor, @function
 1334               	stepMotor:
 1335               	.LFB28:
 1336               	.LM158:
 1337               	.LVL150:
 1338 058a 9F92      		push r9
 1339 058c AF92      		push r10
 1340 058e BF92      		push r11
 1341 0590 CF92      		push r12
 1342 0592 DF92      		push r13
 1343 0594 EF92      		push r14
 1344 0596 FF92      		push r15
 1345 0598 0F93      		push r16
 1346 059a 1F93      		push r17
 1347 059c DF93      		push r29
 1348 059e CF93      		push r28
 1349 05a0 CDB7      		in r28,__SP_L__
 1350 05a2 DEB7      		in r29,__SP_H__
 1351               	/* prologue: function */
 1352               	/* frame size = 0 */
 1353               	/* stack size = 11 */
 1354               	.L__stack_usage = 11
 1355 05a4 2AA9      		ldd r18,Y+50
 1356 05a6 3BA9      		ldd r19,Y+51
 1357               	.LM159:
 1358 05a8 4A8D      		ldd r20,Y+26
 1359 05aa 5B8D      		ldd r21,Y+27
 1360 05ac 8AA1      		ldd r24,Y+34
 1361 05ae 6BA1      		ldd r22,Y+35
 1362 05b0 7CA1      		ldd r23,Y+36
 1363 05b2 BDA0      		ldd r11,Y+37
 1364 05b4 0EA1      		ldd r16,Y+38
 1365 05b6 1FA1      		ldd r17,Y+39
 1366 05b8 98A4      		ldd r9,Y+40
 1367 05ba E9A4      		ldd r14,Y+41
 1368 05bc FAA4      		ldd r15,Y+42
GAS LISTING /tmp/ccvyM2DX.s 			page 25


 1369 05be ABA4      		ldd r10,Y+43
 1370 05c0 CCA4      		ldd r12,Y+44
 1371 05c2 DDA4      		ldd r13,Y+45
 1372               	.LM160:
 1373 05c4 4230      		cpi r20,2
 1374 05c6 5105      		cpc r21,__zero_reg__
 1375 05c8 01F4      		brne .L137
 1376               	.LM161:
 1377 05ca 2130      		cpi r18,1
 1378 05cc 3105      		cpc r19,__zero_reg__
 1379 05ce 01F0      		breq .L140
 1380 05d0 2230      		cpi r18,2
 1381 05d2 3105      		cpc r19,__zero_reg__
 1382 05d4 04F4      		brge .L143
 1383 05d6 2115      		cp r18,__zero_reg__
 1384 05d8 3105      		cpc r19,__zero_reg__
 1385 05da 01F0      		breq .L139
 1386 05dc 00C0      		rjmp .L136
 1387               	.L143:
 1388 05de 2230      		cpi r18,2
 1389 05e0 3105      		cpc r19,__zero_reg__
 1390 05e2 01F0      		breq .L141
 1391 05e4 2330      		cpi r18,3
 1392 05e6 3105      		cpc r19,__zero_reg__
 1393 05e8 01F0      		breq .+2
 1394 05ea 00C0      		rjmp .L136
 1395 05ec 00C0      		rjmp .L155
 1396               	.L139:
 1397               	.LM162:
 1398 05ee 0E94 0000 		call clearPin
 1399 05f2 00C0      		rjmp .L153
 1400               	.L140:
 1401               	.LM163:
 1402 05f4 0E94 0000 		call setPin
 1403               	.L153:
 1404               	.LM164:
 1405 05f8 8B2D      		mov r24,r11
 1406 05fa B801      		movw r22,r16
 1407 05fc 00C0      		rjmp .L149
 1408               	.L141:
 1409               	.LM165:
 1410 05fe 0E94 0000 		call setPin
 1411 0602 00C0      		rjmp .L152
 1412               	.L155:
 1413               	.LM166:
 1414 0604 0E94 0000 		call clearPin
 1415               	.L152:
 1416               	.LM167:
 1417 0608 8B2D      		mov r24,r11
 1418 060a B801      		movw r22,r16
 1419 060c 00C0      		rjmp .L151
 1420               	.L137:
 1421               	.LM168:
 1422 060e 4430      		cpi r20,4
 1423 0610 5105      		cpc r21,__zero_reg__
 1424 0612 01F4      		brne .L136
 1425               	.LM169:
GAS LISTING /tmp/ccvyM2DX.s 			page 26


 1426 0614 2130      		cpi r18,1
 1427 0616 3105      		cpc r19,__zero_reg__
 1428 0618 01F0      		breq .L145
 1429 061a 2230      		cpi r18,2
 1430 061c 3105      		cpc r19,__zero_reg__
 1431 061e 04F4      		brge .L148
 1432 0620 2115      		cp r18,__zero_reg__
 1433 0622 3105      		cpc r19,__zero_reg__
 1434 0624 01F0      		breq .L144
 1435 0626 00C0      		rjmp .L136
 1436               	.L148:
 1437 0628 2230      		cpi r18,2
 1438 062a 3105      		cpc r19,__zero_reg__
 1439 062c 01F0      		breq .L146
 1440 062e 2330      		cpi r18,3
 1441 0630 3105      		cpc r19,__zero_reg__
 1442 0632 01F4      		brne .L136
 1443 0634 00C0      		rjmp .L156
 1444               	.L144:
 1445               	.LM170:
 1446 0636 0E94 0000 		call setPin
 1447               	.LM171:
 1448 063a 8B2D      		mov r24,r11
 1449 063c B801      		movw r22,r16
 1450 063e 0E94 0000 		call clearPin
 1451 0642 00C0      		rjmp .L150
 1452               	.L145:
 1453               	.LM172:
 1454 0644 0E94 0000 		call clearPin
 1455               	.LM173:
 1456 0648 8B2D      		mov r24,r11
 1457 064a B801      		movw r22,r16
 1458 064c 0E94 0000 		call setPin
 1459               	.L150:
 1460               	.LM174:
 1461 0650 892D      		mov r24,r9
 1462 0652 B701      		movw r22,r14
 1463 0654 0E94 0000 		call setPin
 1464               	.LM175:
 1465 0658 8A2D      		mov r24,r10
 1466 065a B601      		movw r22,r12
 1467               	.L151:
 1468 065c 0E94 0000 		call clearPin
 1469               	.LM176:
 1470 0660 00C0      		rjmp .L136
 1471               	.L146:
 1472               	.LM177:
 1473 0662 0E94 0000 		call clearPin
 1474               	.LM178:
 1475 0666 8B2D      		mov r24,r11
 1476 0668 B801      		movw r22,r16
 1477 066a 0E94 0000 		call setPin
 1478 066e 00C0      		rjmp .L154
 1479               	.L156:
 1480               	.LM179:
 1481 0670 0E94 0000 		call setPin
 1482               	.LM180:
GAS LISTING /tmp/ccvyM2DX.s 			page 27


 1483 0674 8B2D      		mov r24,r11
 1484 0676 B801      		movw r22,r16
 1485 0678 0E94 0000 		call clearPin
 1486               	.L154:
 1487               	.LM181:
 1488 067c 892D      		mov r24,r9
 1489 067e B701      		movw r22,r14
 1490 0680 0E94 0000 		call clearPin
 1491               	.LM182:
 1492 0684 8A2D      		mov r24,r10
 1493 0686 B601      		movw r22,r12
 1494               	.L149:
 1495 0688 0E94 0000 		call setPin
 1496               	.L136:
 1497               	/* epilogue start */
 1498               	.LM183:
 1499 068c CF91      		pop r28
 1500 068e DF91      		pop r29
 1501 0690 1F91      		pop r17
 1502 0692 0F91      		pop r16
 1503 0694 FF90      		pop r15
 1504 0696 EF90      		pop r14
 1505 0698 DF90      		pop r13
 1506 069a CF90      		pop r12
 1507 069c BF90      		pop r11
 1508 069e AF90      		pop r10
 1509 06a0 9F90      		pop r9
 1510 06a2 0895      		ret
 1511               	.LFE28:
 1512               		.size	stepMotor, .-stepMotor
 1513               	.global	step
 1514               		.type	step, @function
 1515               	step:
 1516               	.LFB29:
 1517               	.LM184:
 1518               	.LVL151:
 1519 06a4 AF92      		push r10
 1520 06a6 BF92      		push r11
 1521 06a8 CF92      		push r12
 1522 06aa DF92      		push r13
 1523 06ac EF92      		push r14
 1524 06ae FF92      		push r15
 1525 06b0 0F93      		push r16
 1526 06b2 1F93      		push r17
 1527 06b4 CF93      		push r28
 1528 06b6 DF93      		push r29
 1529               	/* prologue: function */
 1530               	/* frame size = 0 */
 1531               	/* stack size = 10 */
 1532               	.L__stack_usage = 10
 1533 06b8 EC01      		movw r28,r24
 1534 06ba 8B01      		movw r16,r22
 1535               	.LVL152:
 1536               	.LM185:
 1537 06bc 6230      		cpi r22,2
 1538 06be 7105      		cpc r23,__zero_reg__
 1539 06c0 04F0      		brlt .L158
GAS LISTING /tmp/ccvyM2DX.s 			page 28


 1540               	.LVL153:
 1541               	.LM186:
 1542 06c2 81E0      		ldi r24,lo8(1)
 1543 06c4 90E0      		ldi r25,hi8(1)
 1544               	.LVL154:
 1545 06c6 8A83      		std Y+2,r24
 1546 06c8 9B83      		std Y+3,r25
 1547 06ca 00C0      		rjmp .L178
 1548               	.LVL155:
 1549               	.L158:
 1550               	.LM187:
 1551 06cc 1095      		com r17
 1552 06ce 0195      		neg r16
 1553 06d0 1F4F      		sbci r17,lo8(-1)
 1554               	.LVL156:
 1555               	.LM188:
 1556 06d2 1A82      		std Y+2,__zero_reg__
 1557 06d4 1B82      		std Y+3,__zero_reg__
 1558 06d6 00C0      		rjmp .L178
 1559               	.LVL157:
 1560               	.L161:
 1561               	.LBB78:
 1562               	.LBB79:
 1563               	.LM189:
 1564 06d8 8091 0000 		lds r24,elapsedMillis
 1565 06dc 9091 0000 		lds r25,elapsedMillis+1
 1566 06e0 A091 0000 		lds r26,elapsedMillis+2
 1567 06e4 B091 0000 		lds r27,elapsedMillis+3
 1568               	.LBE79:
 1569               	.LBE78:
 1570               	.LM190:
 1571 06e8 821B      		sub r24,r18
 1572 06ea 930B      		sbc r25,r19
 1573 06ec A40B      		sbc r26,r20
 1574 06ee B50B      		sbc r27,r21
 1575 06f0 8C15      		cp r24,r12
 1576 06f2 9D05      		cpc r25,r13
 1577 06f4 AE05      		cpc r26,r14
 1578 06f6 BF05      		cpc r27,r15
 1579 06f8 00F0      		brlo .L161
 1580               	.LBB80:
 1581               	.LBB81:
 1582               	.LM191:
 1583 06fa 8091 0000 		lds r24,elapsedMillis
 1584 06fe 9091 0000 		lds r25,elapsedMillis+1
 1585 0702 A091 0000 		lds r26,elapsedMillis+2
 1586 0706 B091 0000 		lds r27,elapsedMillis+3
 1587               	.LBE81:
 1588               	.LBE80:
 1589               	.LM192:
 1590 070a 88A3      		std Y+32,r24
 1591 070c 99A3      		std Y+33,r25
 1592 070e AAA3      		std Y+34,r26
 1593 0710 BBA3      		std Y+35,r27
 1594               	.LM193:
 1595 0712 2A81      		ldd r18,Y+2
 1596 0714 3B81      		ldd r19,Y+3
GAS LISTING /tmp/ccvyM2DX.s 			page 29


 1597 0716 8E85      		ldd r24,Y+14
 1598 0718 9F85      		ldd r25,Y+15
 1599 071a 2130      		cpi r18,1
 1600 071c 3105      		cpc r19,__zero_reg__
 1601 071e 01F4      		brne .L162
 1602               	.LM194:
 1603 0720 9C01      		movw r18,r24
 1604 0722 2F5F      		subi r18,lo8(-(1))
 1605 0724 3F4F      		sbci r19,hi8(-(1))
 1606 0726 2E87      		std Y+14,r18
 1607 0728 3F87      		std Y+15,r19
 1608               	.LM195:
 1609 072a E881      		ld r30,Y
 1610 072c F981      		ldd r31,Y+1
 1611 072e EE0F      		lsl r30
 1612 0730 FF1F      		rol r31
 1613 0732 E050      		subi r30,lo8(-(pose-2))
 1614 0734 F040      		sbci r31,hi8(-(pose-2))
 1615 0736 8081      		ld r24,Z
 1616 0738 9181      		ldd r25,Z+1
 1617 073a 0196      		adiw r24,1
 1618 073c 8083      		st Z,r24
 1619 073e 9183      		std Z+1,r25
 1620               	.LM196:
 1621 0740 8A85      		ldd r24,Y+10
 1622 0742 9B85      		ldd r25,Y+11
 1623 0744 2817      		cp r18,r24
 1624 0746 3907      		cpc r19,r25
 1625 0748 01F4      		brne .L163
 1626               	.LM197:
 1627 074a 1E86      		std Y+14,__zero_reg__
 1628 074c 1F86      		std Y+15,__zero_reg__
 1629 074e 00C0      		rjmp .L163
 1630               	.L162:
 1631               	.LM198:
 1632 0750 0097      		sbiw r24,0
 1633 0752 01F4      		brne .L164
 1634               	.LM199:
 1635 0754 8A85      		ldd r24,Y+10
 1636 0756 9B85      		ldd r25,Y+11
 1637 0758 8E87      		std Y+14,r24
 1638 075a 9F87      		std Y+15,r25
 1639               	.L164:
 1640               	.LM200:
 1641 075c 8E85      		ldd r24,Y+14
 1642 075e 9F85      		ldd r25,Y+15
 1643 0760 0197      		sbiw r24,1
 1644 0762 8E87      		std Y+14,r24
 1645 0764 9F87      		std Y+15,r25
 1646               	.LM201:
 1647 0766 E881      		ld r30,Y
 1648 0768 F981      		ldd r31,Y+1
 1649 076a EE0F      		lsl r30
 1650 076c FF1F      		rol r31
 1651 076e E050      		subi r30,lo8(-(pose-2))
 1652 0770 F040      		sbci r31,hi8(-(pose-2))
 1653 0772 8081      		ld r24,Z
GAS LISTING /tmp/ccvyM2DX.s 			page 30


 1654 0774 9181      		ldd r25,Z+1
 1655 0776 0197      		sbiw r24,1
 1656 0778 8083      		st Z,r24
 1657 077a 9183      		std Z+1,r25
 1658               	.L163:
 1659               	.LM202:
 1660 077c 0150      		subi r16,lo8(-(-1))
 1661 077e 1040      		sbci r17,hi8(-(-1))
 1662               	.LVL158:
 1663               	.LM203:
 1664 0780 8DB7      		in r24,__SP_L__
 1665 0782 9EB7      		in r25,__SP_H__
 1666 0784 8697      		sbiw r24,38
 1667 0786 8DBF      		out __SP_L__,r24
 1668 0788 9EBF      		out __SP_H__,r25
 1669 078a CDB6      		in r12,__SP_L__
 1670 078c DEB6      		in r13,__SP_H__
 1671 078e 0894      		sec
 1672 0790 C11C      		adc r12,__zero_reg__
 1673 0792 D11C      		adc r13,__zero_reg__
 1674 0794 C601      		movw r24,r12
 1675 0796 DE01      		movw r26,r28
 1676 0798 24E2      		ldi r18,lo8(36)
 1677               	.L165:
 1678 079a 0D90      		ld r0,X+
 1679 079c FC01      		movw r30,r24
 1680 079e 0192      		st Z+,r0
 1681 07a0 CF01      		movw r24,r30
 1682 07a2 2150      		subi r18,lo8(-(-1))
 1683 07a4 01F4      		brne .L165
 1684 07a6 8E85      		ldd r24,Y+14
 1685 07a8 9F85      		ldd r25,Y+15
 1686 07aa B501      		movw r22,r10
 1687 07ac 0E94 0000 		call __divmodhi4
 1688 07b0 F601      		movw r30,r12
 1689 07b2 84A3      		std Z+36,r24
 1690 07b4 95A3      		std Z+37,r25
 1691 07b6 0E94 0000 		call stepMotor
 1692               	.LM204:
 1693 07ba 8DB7      		in r24,__SP_L__
 1694 07bc 9EB7      		in r25,__SP_H__
 1695 07be 8696      		adiw r24,38
 1696 07c0 8DBF      		out __SP_L__,r24
 1697 07c2 9EBF      		out __SP_H__,r25
 1698 07c4 8881      		ld r24,Y
 1699 07c6 9981      		ldd r25,Y+1
 1700 07c8 8330      		cpi r24,3
 1701 07ca 9105      		cpc r25,__zero_reg__
 1702 07cc 01F0      		breq .+2
 1703 07ce 00C0      		rjmp .L177
 1704               	.LM205:
 1705 07d0 8A81      		ldd r24,Y+2
 1706 07d2 9B81      		ldd r25,Y+3
 1707 07d4 9095      		com r25
 1708 07d6 8195      		neg r24
 1709 07d8 9F4F      		sbci r25,lo8(-1)
 1710 07da 8093 0000 		sts Gripper+2,r24
GAS LISTING /tmp/ccvyM2DX.s 			page 31


 1711 07de 9093 0000 		sts Gripper+2+1,r25
 1712               	.LM206:
 1713 07e2 8130      		cpi r24,1
 1714 07e4 9105      		cpc r25,__zero_reg__
 1715 07e6 01F4      		brne .L167
 1716               	.LM207:
 1717 07e8 8091 0000 		lds r24,Gripper+14
 1718 07ec 9091 0000 		lds r25,Gripper+14+1
 1719 07f0 0196      		adiw r24,1
 1720 07f2 8093 0000 		sts Gripper+14,r24
 1721 07f6 9093 0000 		sts Gripper+14+1,r25
 1722               	.LM208:
 1723 07fa 2091 0000 		lds r18,Gripper+10
 1724 07fe 3091 0000 		lds r19,Gripper+10+1
 1725 0802 8217      		cp r24,r18
 1726 0804 9307      		cpc r25,r19
 1727 0806 01F4      		brne .L168
 1728               	.LM209:
 1729 0808 1092 0000 		sts Gripper+14,__zero_reg__
 1730 080c 1092 0000 		sts Gripper+14+1,__zero_reg__
 1731 0810 00C0      		rjmp .L168
 1732               	.L167:
 1733               	.LM210:
 1734 0812 8091 0000 		lds r24,Gripper+14
 1735 0816 9091 0000 		lds r25,Gripper+14+1
 1736 081a 0097      		sbiw r24,0
 1737 081c 01F4      		brne .L169
 1738               	.LM211:
 1739 081e 8091 0000 		lds r24,Gripper+10
 1740 0822 9091 0000 		lds r25,Gripper+10+1
 1741 0826 8093 0000 		sts Gripper+14,r24
 1742 082a 9093 0000 		sts Gripper+14+1,r25
 1743               	.L169:
 1744               	.LM212:
 1745 082e 8091 0000 		lds r24,Gripper+14
 1746 0832 9091 0000 		lds r25,Gripper+14+1
 1747 0836 0197      		sbiw r24,1
 1748 0838 8093 0000 		sts Gripper+14,r24
 1749 083c 9093 0000 		sts Gripper+14+1,r25
 1750               	.L168:
 1751               	.LM213:
 1752 0840 EDB7      		in r30,__SP_L__
 1753 0842 FEB7      		in r31,__SP_H__
 1754 0844 B697      		sbiw r30,38
 1755 0846 EDBF      		out __SP_L__,r30
 1756 0848 FEBF      		out __SP_H__,r31
 1757 084a CDB6      		in r12,__SP_L__
 1758 084c DEB6      		in r13,__SP_H__
 1759 084e 0894      		sec
 1760 0850 C11C      		adc r12,__zero_reg__
 1761 0852 D11C      		adc r13,__zero_reg__
 1762 0854 C601      		movw r24,r12
 1763 0856 A0E0      		ldi r26,lo8(Gripper)
 1764 0858 B0E0      		ldi r27,hi8(Gripper)
 1765 085a 24E2      		ldi r18,lo8(36)
 1766               	.L170:
 1767 085c 0D90      		ld r0,X+
GAS LISTING /tmp/ccvyM2DX.s 			page 32


 1768 085e FC01      		movw r30,r24
 1769 0860 0192      		st Z+,r0
 1770 0862 CF01      		movw r24,r30
 1771 0864 2150      		subi r18,lo8(-(-1))
 1772 0866 01F4      		brne .L170
 1773 0868 8091 0000 		lds r24,Gripper+14
 1774 086c 9091 0000 		lds r25,Gripper+14+1
 1775 0870 B501      		movw r22,r10
 1776 0872 0E94 0000 		call __divmodhi4
 1777 0876 F601      		movw r30,r12
 1778 0878 84A3      		std Z+36,r24
 1779 087a 95A3      		std Z+37,r25
 1780 087c 0E94 0000 		call stepMotor
 1781 0880 8DB7      		in r24,__SP_L__
 1782 0882 9EB7      		in r25,__SP_H__
 1783 0884 8696      		adiw r24,38
 1784 0886 8DBF      		out __SP_L__,r24
 1785 0888 9EBF      		out __SP_H__,r25
 1786 088a 00C0      		rjmp .L177
 1787               	.LVL159:
 1788               	.L178:
 1789               	.LM214:
 1790 088c 84E0      		ldi r24,lo8(4)
 1791 088e A82E      		mov r10,r24
 1792 0890 B12C      		mov r11,__zero_reg__
 1793               	.LVL160:
 1794               	.L177:
 1795               	.LM215:
 1796 0892 1016      		cp __zero_reg__,r16
 1797 0894 1106      		cpc __zero_reg__,r17
 1798 0896 04F4      		brge .L157
 1799               	.LM216:
 1800 0898 28A1      		ldd r18,Y+32
 1801 089a 39A1      		ldd r19,Y+33
 1802 089c 4AA1      		ldd r20,Y+34
 1803 089e 5BA1      		ldd r21,Y+35
 1804 08a0 CE80      		ldd r12,Y+6
 1805 08a2 DF80      		ldd r13,Y+7
 1806 08a4 E884      		ldd r14,Y+8
 1807 08a6 F984      		ldd r15,Y+9
 1808 08a8 00C0      		rjmp .L161
 1809               	.L157:
 1810               	/* epilogue start */
 1811               	.LM217:
 1812 08aa DF91      		pop r29
 1813 08ac CF91      		pop r28
 1814               	.LVL161:
 1815 08ae 1F91      		pop r17
 1816 08b0 0F91      		pop r16
 1817               	.LVL162:
 1818 08b2 FF90      		pop r15
 1819 08b4 EF90      		pop r14
 1820 08b6 DF90      		pop r13
 1821 08b8 CF90      		pop r12
 1822 08ba BF90      		pop r11
 1823 08bc AF90      		pop r10
 1824 08be 0895      		ret
GAS LISTING /tmp/ccvyM2DX.s 			page 33


 1825               	.LFE29:
 1826               		.size	step, .-step
 1827               	.global	stepOne
 1828               		.type	stepOne, @function
 1829               	stepOne:
 1830               	.LFB30:
 1831               	.LM218:
 1832               	.LVL163:
 1833 08c0 0F93      		push r16
 1834 08c2 1F93      		push r17
 1835 08c4 CF93      		push r28
 1836 08c6 DF93      		push r29
 1837               	/* prologue: function */
 1838               	/* frame size = 0 */
 1839               	/* stack size = 4 */
 1840               	.L__stack_usage = 4
 1841 08c8 EC01      		movw r28,r24
 1842               	.LM219:
 1843 08ca 6A83      		std Y+2,r22
 1844 08cc 7B83      		std Y+3,r23
 1845               	.LM220:
 1846 08ce 6130      		cpi r22,1
 1847 08d0 7105      		cpc r23,__zero_reg__
 1848 08d2 01F4      		brne .L180
 1849               	.LM221:
 1850 08d4 8E85      		ldd r24,Y+14
 1851 08d6 9F85      		ldd r25,Y+15
 1852               	.LVL164:
 1853 08d8 0196      		adiw r24,1
 1854 08da 8E87      		std Y+14,r24
 1855 08dc 9F87      		std Y+15,r25
 1856               	.LM222:
 1857 08de E881      		ld r30,Y
 1858 08e0 F981      		ldd r31,Y+1
 1859 08e2 EE0F      		lsl r30
 1860 08e4 FF1F      		rol r31
 1861               	.LVL165:
 1862 08e6 E050      		subi r30,lo8(-(pose-2))
 1863 08e8 F040      		sbci r31,hi8(-(pose-2))
 1864 08ea 2081      		ld r18,Z
 1865 08ec 3181      		ldd r19,Z+1
 1866 08ee 2F5F      		subi r18,lo8(-(1))
 1867 08f0 3F4F      		sbci r19,hi8(-(1))
 1868 08f2 2083      		st Z,r18
 1869 08f4 3183      		std Z+1,r19
 1870               	.LM223:
 1871 08f6 2A85      		ldd r18,Y+10
 1872 08f8 3B85      		ldd r19,Y+11
 1873 08fa 8217      		cp r24,r18
 1874 08fc 9307      		cpc r25,r19
 1875 08fe 01F4      		brne .L181
 1876               	.LM224:
 1877 0900 1E86      		std Y+14,__zero_reg__
 1878 0902 1F86      		std Y+15,__zero_reg__
 1879 0904 00C0      		rjmp .L181
 1880               	.L180:
 1881               	.LM225:
GAS LISTING /tmp/ccvyM2DX.s 			page 34


 1882 0906 6115      		cp r22,__zero_reg__
 1883 0908 7105      		cpc r23,__zero_reg__
 1884 090a 01F0      		breq .L181
 1885               	.LM226:
 1886 090c 8E85      		ldd r24,Y+14
 1887 090e 9F85      		ldd r25,Y+15
 1888 0910 0097      		sbiw r24,0
 1889 0912 01F4      		brne .L182
 1890               	.LM227:
 1891 0914 8A85      		ldd r24,Y+10
 1892 0916 9B85      		ldd r25,Y+11
 1893 0918 8E87      		std Y+14,r24
 1894 091a 9F87      		std Y+15,r25
 1895               	.L182:
 1896               	.LM228:
 1897 091c 8E85      		ldd r24,Y+14
 1898 091e 9F85      		ldd r25,Y+15
 1899 0920 0197      		sbiw r24,1
 1900 0922 8E87      		std Y+14,r24
 1901 0924 9F87      		std Y+15,r25
 1902               	.LM229:
 1903 0926 E881      		ld r30,Y
 1904 0928 F981      		ldd r31,Y+1
 1905 092a EE0F      		lsl r30
 1906 092c FF1F      		rol r31
 1907 092e E050      		subi r30,lo8(-(pose-2))
 1908 0930 F040      		sbci r31,hi8(-(pose-2))
 1909 0932 8081      		ld r24,Z
 1910 0934 9181      		ldd r25,Z+1
 1911 0936 0197      		sbiw r24,1
 1912 0938 8083      		st Z,r24
 1913 093a 9183      		std Z+1,r25
 1914               	.L181:
 1915               	.LM230:
 1916 093c 8DB7      		in r24,__SP_L__
 1917 093e 9EB7      		in r25,__SP_H__
 1918 0940 8697      		sbiw r24,38
 1919 0942 8DBF      		out __SP_L__,r24
 1920 0944 9EBF      		out __SP_H__,r25
 1921 0946 0DB7      		in r16,__SP_L__
 1922 0948 1EB7      		in r17,__SP_H__
 1923 094a 0F5F      		subi r16,lo8(-(1))
 1924 094c 1F4F      		sbci r17,hi8(-(1))
 1925 094e C801      		movw r24,r16
 1926 0950 DE01      		movw r26,r28
 1927 0952 24E2      		ldi r18,lo8(36)
 1928               	.L183:
 1929 0954 0D90      		ld r0,X+
 1930 0956 FC01      		movw r30,r24
 1931 0958 0192      		st Z+,r0
 1932 095a CF01      		movw r24,r30
 1933 095c 2150      		subi r18,lo8(-(-1))
 1934 095e 01F4      		brne .L183
 1935 0960 8E85      		ldd r24,Y+14
 1936 0962 9F85      		ldd r25,Y+15
 1937 0964 64E0      		ldi r22,lo8(4)
 1938 0966 70E0      		ldi r23,hi8(4)
GAS LISTING /tmp/ccvyM2DX.s 			page 35


 1939 0968 0E94 0000 		call __divmodhi4
 1940 096c F801      		movw r30,r16
 1941 096e 84A3      		std Z+36,r24
 1942 0970 95A3      		std Z+37,r25
 1943 0972 0E94 0000 		call stepMotor
 1944               	.LVL166:
 1945               	.LM231:
 1946 0976 8DB7      		in r24,__SP_L__
 1947 0978 9EB7      		in r25,__SP_H__
 1948 097a 8696      		adiw r24,38
 1949 097c 8DBF      		out __SP_L__,r24
 1950 097e 9EBF      		out __SP_H__,r25
 1951 0980 8881      		ld r24,Y
 1952 0982 9981      		ldd r25,Y+1
 1953 0984 8330      		cpi r24,3
 1954 0986 9105      		cpc r25,__zero_reg__
 1955 0988 01F0      		breq .+2
 1956 098a 00C0      		rjmp .L179
 1957               	.LM232:
 1958 098c 8A81      		ldd r24,Y+2
 1959 098e 9B81      		ldd r25,Y+3
 1960 0990 9095      		com r25
 1961 0992 8195      		neg r24
 1962 0994 9F4F      		sbci r25,lo8(-1)
 1963 0996 8093 0000 		sts Gripper+2,r24
 1964 099a 9093 0000 		sts Gripper+2+1,r25
 1965               	.LM233:
 1966 099e 8130      		cpi r24,1
 1967 09a0 9105      		cpc r25,__zero_reg__
 1968 09a2 01F4      		brne .L185
 1969               	.LM234:
 1970 09a4 8091 0000 		lds r24,Gripper+14
 1971 09a8 9091 0000 		lds r25,Gripper+14+1
 1972 09ac 0196      		adiw r24,1
 1973 09ae 8093 0000 		sts Gripper+14,r24
 1974 09b2 9093 0000 		sts Gripper+14+1,r25
 1975               	.LM235:
 1976 09b6 2091 0000 		lds r18,Gripper+10
 1977 09ba 3091 0000 		lds r19,Gripper+10+1
 1978 09be 8217      		cp r24,r18
 1979 09c0 9307      		cpc r25,r19
 1980 09c2 01F4      		brne .L186
 1981               	.LM236:
 1982 09c4 1092 0000 		sts Gripper+14,__zero_reg__
 1983 09c8 1092 0000 		sts Gripper+14+1,__zero_reg__
 1984 09cc 00C0      		rjmp .L186
 1985               	.L185:
 1986               	.LM237:
 1987 09ce 8A81      		ldd r24,Y+2
 1988 09d0 9B81      		ldd r25,Y+3
 1989 09d2 0097      		sbiw r24,0
 1990 09d4 01F0      		breq .L186
 1991               	.LM238:
 1992 09d6 8091 0000 		lds r24,Gripper+14
 1993 09da 9091 0000 		lds r25,Gripper+14+1
 1994 09de 0097      		sbiw r24,0
 1995 09e0 01F4      		brne .L187
GAS LISTING /tmp/ccvyM2DX.s 			page 36


 1996               	.LM239:
 1997 09e2 8091 0000 		lds r24,Gripper+10
 1998 09e6 9091 0000 		lds r25,Gripper+10+1
 1999 09ea 8093 0000 		sts Gripper+14,r24
 2000 09ee 9093 0000 		sts Gripper+14+1,r25
 2001               	.L187:
 2002               	.LM240:
 2003 09f2 8091 0000 		lds r24,Gripper+14
 2004 09f6 9091 0000 		lds r25,Gripper+14+1
 2005 09fa 0197      		sbiw r24,1
 2006 09fc 8093 0000 		sts Gripper+14,r24
 2007 0a00 9093 0000 		sts Gripper+14+1,r25
 2008               	.L186:
 2009               	.LM241:
 2010 0a04 EDB7      		in r30,__SP_L__
 2011 0a06 FEB7      		in r31,__SP_H__
 2012 0a08 B697      		sbiw r30,38
 2013 0a0a EDBF      		out __SP_L__,r30
 2014 0a0c FEBF      		out __SP_H__,r31
 2015 0a0e 3196      		adiw r30,1
 2016 0a10 EF01      		movw r28,r30
 2017               	.LVL167:
 2018 0a12 A0E0      		ldi r26,lo8(Gripper)
 2019 0a14 B0E0      		ldi r27,hi8(Gripper)
 2020 0a16 84E2      		ldi r24,lo8(36)
 2021               	.LVL168:
 2022               	.L188:
 2023 0a18 0D90      		ld r0,X+
 2024 0a1a 0992      		st Y+,r0
 2025 0a1c 8150      		subi r24,lo8(-(-1))
 2026 0a1e 01F4      		brne .L188
 2027 0a20 8091 0000 		lds r24,Gripper+14
 2028 0a24 9091 0000 		lds r25,Gripper+14+1
 2029 0a28 64E0      		ldi r22,lo8(4)
 2030 0a2a 70E0      		ldi r23,hi8(4)
 2031 0a2c 0E94 0000 		call __divmodhi4
 2032 0a30 84A3      		std Z+36,r24
 2033 0a32 95A3      		std Z+37,r25
 2034 0a34 0E94 0000 		call stepMotor
 2035 0a38 8DB7      		in r24,__SP_L__
 2036 0a3a 9EB7      		in r25,__SP_H__
 2037 0a3c 8696      		adiw r24,38
 2038 0a3e 8DBF      		out __SP_L__,r24
 2039 0a40 9EBF      		out __SP_H__,r25
 2040               	.L179:
 2041               	/* epilogue start */
 2042               	.LM242:
 2043 0a42 DF91      		pop r29
 2044 0a44 CF91      		pop r28
 2045 0a46 1F91      		pop r17
 2046 0a48 0F91      		pop r16
 2047               	.LVL169:
 2048 0a4a 0895      		ret
 2049               	.LFE30:
 2050               		.size	stepOne, .-stepOne
 2051               		.data
 2052               	.LC0:
GAS LISTING /tmp/ccvyM2DX.s 			page 37


 2053 0000 2D2D 2D2D 		.string	"-----------------GOAL------------------"
 2053      2D2D 2D2D 
 2053      2D2D 2D2D 
 2053      2D2D 2D2D 
 2053      2D47 4F41 
 2054               		.text
 2055               	.global	changeGoal
 2056               		.type	changeGoal, @function
 2057               	changeGoal:
 2058               	.LFB31:
 2059               	.LM243:
 2060               	.LVL170:
 2061 0a4c 2F92      		push r2
 2062 0a4e 3F92      		push r3
 2063 0a50 4F92      		push r4
 2064 0a52 5F92      		push r5
 2065 0a54 6F92      		push r6
 2066 0a56 7F92      		push r7
 2067 0a58 8F92      		push r8
 2068 0a5a 9F92      		push r9
 2069 0a5c AF92      		push r10
 2070 0a5e BF92      		push r11
 2071 0a60 CF92      		push r12
 2072 0a62 DF92      		push r13
 2073 0a64 EF92      		push r14
 2074 0a66 FF92      		push r15
 2075 0a68 0F93      		push r16
 2076 0a6a 1F93      		push r17
 2077 0a6c DF93      		push r29
 2078 0a6e CF93      		push r28
 2079 0a70 CDB7      		in r28,__SP_L__
 2080 0a72 DEB7      		in r29,__SP_H__
 2081 0a74 2897      		sbiw r28,8
 2082 0a76 CDBF      		out __SP_L__,r28
 2083 0a78 DEBF      		out __SP_H__,r29
 2084               	/* prologue: function */
 2085               	/* frame size = 8 */
 2086               	/* stack size = 26 */
 2087               	.L__stack_usage = 26
 2088 0a7a 8983      		std Y+1,r24
 2089 0a7c 9A83      		std Y+2,r25
 2090 0a7e 6B83      		std Y+3,r22
 2091 0a80 7C83      		std Y+4,r23
 2092 0a82 3A01      		movw r6,r20
 2093 0a84 2F83      		std Y+7,r18
 2094 0a86 3887      		std Y+8,r19
 2095 0a88 ED82      		std Y+5,r14
 2096 0a8a FE82      		std Y+6,r15
 2097               	.LM244:
 2098 0a8c 9B01      		movw r18,r22
 2099               	.LVL171:
 2100 0a8e B901      		movw r22,r18
 2101 0a90 8827      		clr r24
 2102 0a92 77FD      		sbrc r23,7
 2103 0a94 8095      		com r24
 2104 0a96 982F      		mov r25,r24
 2105               	.LVL172:
GAS LISTING /tmp/ccvyM2DX.s 			page 38


 2106 0a98 0E94 0000 		call __floatsisf
 2107               	.LVL173:
 2108 0a9c 20E0      		ldi r18,lo8(0xbf200000)
 2109 0a9e 30E0      		ldi r19,hi8(0xbf200000)
 2110 0aa0 40E2      		ldi r20,hlo8(0xbf200000)
 2111 0aa2 5FEB      		ldi r21,hhi8(0xbf200000)
 2112 0aa4 0E94 0000 		call __mulsf3
 2113 0aa8 F62E      		mov r15,r22
 2114 0aaa E72E      		mov r14,r23
 2115               	.LVL174:
 2116 0aac D82E      		mov r13,r24
 2117 0aae C92E      		mov r12,r25
 2118 0ab0 A701      		movw r20,r14
 2119 0ab2 9601      		movw r18,r12
 2120 0ab4 652F      		mov r22,r21
 2121 0ab6 742F      		mov r23,r20
 2122 0ab8 832F      		mov r24,r19
 2123 0aba 922F      		mov r25,r18
 2124 0abc 20E0      		ldi r18,lo8(0x445ac000)
 2125 0abe 30EC      		ldi r19,hi8(0x445ac000)
 2126 0ac0 4AE5      		ldi r20,hlo8(0x445ac000)
 2127 0ac2 54E4      		ldi r21,hhi8(0x445ac000)
 2128 0ac4 0E94 0000 		call __subsf3
 2129 0ac8 562E      		mov r5,r22
 2130 0aca 472E      		mov r4,r23
 2131 0acc 382E      		mov r3,r24
 2132 0ace 292E      		mov r2,r25
 2133 0ad0 B301      		movw r22,r6
 2134 0ad2 8827      		clr r24
 2135 0ad4 77FD      		sbrc r23,7
 2136 0ad6 8095      		com r24
 2137 0ad8 982F      		mov r25,r24
 2138 0ada 0E94 0000 		call __floatsisf
 2139 0ade 4B01      		movw r8,r22
 2140 0ae0 5C01      		movw r10,r24
 2141 0ae2 A201      		movw r20,r4
 2142 0ae4 9101      		movw r18,r2
 2143 0ae6 652F      		mov r22,r21
 2144 0ae8 742F      		mov r23,r20
 2145 0aea 832F      		mov r24,r19
 2146 0aec 922F      		mov r25,r18
 2147 0aee A501      		movw r20,r10
 2148 0af0 9401      		movw r18,r8
 2149 0af2 0E94 0000 		call __gtsf2
 2150 0af6 1816      		cp __zero_reg__,r24
 2151 0af8 04F4      		brge .L206
 2152               	.LM245:
 2153 0afa A201      		movw r20,r4
 2154 0afc 9101      		movw r18,r2
 2155 0afe 00C0      		rjmp .L208
 2156               	.L206:
 2157               	.LM246:
 2158 0b00 A701      		movw r20,r14
 2159 0b02 9601      		movw r18,r12
 2160 0b04 652F      		mov r22,r21
 2161 0b06 742F      		mov r23,r20
 2162 0b08 832F      		mov r24,r19
GAS LISTING /tmp/ccvyM2DX.s 			page 39


 2163 0b0a 922F      		mov r25,r18
 2164 0b0c A501      		movw r20,r10
 2165 0b0e 9401      		movw r18,r8
 2166 0b10 0E94 0000 		call __ltsf2
 2167 0b14 87FF      		sbrs r24,7
 2168 0b16 00C0      		rjmp .L194
 2169               	.LM247:
 2170 0b18 A701      		movw r20,r14
 2171 0b1a 9601      		movw r18,r12
 2172               	.L208:
 2173 0b1c 652F      		mov r22,r21
 2174 0b1e 742F      		mov r23,r20
 2175 0b20 832F      		mov r24,r19
 2176 0b22 922F      		mov r25,r18
 2177 0b24 0E94 0000 		call __fixsfsi
 2178 0b28 3B01      		movw r6,r22
 2179               	.LVL175:
 2180               	.L194:
 2181               	.LM248:
 2182 0b2a 2F81      		ldd r18,Y+7
 2183 0b2c 3885      		ldd r19,Y+8
 2184 0b2e 37FF      		sbrs r19,7
 2185 0b30 00C0      		rjmp .L197
 2186 0b32 3095      		com r19
 2187 0b34 2195      		neg r18
 2188 0b36 3F4F      		sbci r19,lo8(-1)
 2189               	.L197:
 2190 0b38 C801      		movw r24,r16
 2191 0b3a 17FF      		sbrs r17,7
 2192 0b3c 00C0      		rjmp .L198
 2193 0b3e 8827      		clr r24
 2194 0b40 9927      		clr r25
 2195 0b42 801B      		sub r24,r16
 2196 0b44 910B      		sbc r25,r17
 2197               	.L198:
 2198 0b46 2817      		cp r18,r24
 2199 0b48 3907      		cpc r19,r25
 2200 0b4a 01F0      		breq .+2
 2201 0b4c 00C0      		rjmp .L196
 2202               	.LM249:
 2203 0b4e B301      		movw r22,r6
 2204 0b50 8827      		clr r24
 2205 0b52 77FD      		sbrc r23,7
 2206 0b54 8095      		com r24
 2207 0b56 982F      		mov r25,r24
 2208 0b58 0E94 0000 		call __floatsisf
 2209 0b5c 2BEA      		ldi r18,lo8(0xbeaaaaab)
 2210 0b5e 3AEA      		ldi r19,hi8(0xbeaaaaab)
 2211 0b60 4AEA      		ldi r20,hlo8(0xbeaaaaab)
 2212 0b62 5EEB      		ldi r21,hhi8(0xbeaaaaab)
 2213 0b64 0E94 0000 		call __mulsf3
 2214 0b68 B62E      		mov r11,r22
 2215 0b6a 872E      		mov r8,r23
 2216 0b6c A82E      		mov r10,r24
 2217 0b6e 992E      		mov r9,r25
 2218 0b70 20E0      		ldi r18,lo8(0x43480000)
 2219 0b72 30E0      		ldi r19,hi8(0x43480000)
GAS LISTING /tmp/ccvyM2DX.s 			page 40


 2220 0b74 48E4      		ldi r20,hlo8(0x43480000)
 2221 0b76 53E4      		ldi r21,hhi8(0x43480000)
 2222 0b78 0E94 0000 		call __addsf3
 2223 0b7c F62E      		mov r15,r22
 2224 0b7e E72E      		mov r14,r23
 2225 0b80 D82E      		mov r13,r24
 2226 0b82 C92E      		mov r12,r25
 2227 0b84 EF81      		ldd r30,Y+7
 2228 0b86 F885      		ldd r31,Y+8
 2229 0b88 BF01      		movw r22,r30
 2230 0b8a 8827      		clr r24
 2231 0b8c 77FD      		sbrc r23,7
 2232 0b8e 8095      		com r24
 2233 0b90 982F      		mov r25,r24
 2234 0b92 0E94 0000 		call __floatsisf
 2235 0b96 1B01      		movw r2,r22
 2236 0b98 2C01      		movw r4,r24
 2237 0b9a A701      		movw r20,r14
 2238 0b9c 9601      		movw r18,r12
 2239 0b9e 652F      		mov r22,r21
 2240 0ba0 742F      		mov r23,r20
 2241 0ba2 832F      		mov r24,r19
 2242 0ba4 922F      		mov r25,r18
 2243 0ba6 A201      		movw r20,r4
 2244 0ba8 9101      		movw r18,r2
 2245 0baa 0E94 0000 		call __ltsf2
 2246 0bae 87FD      		sbrc r24,7
 2247 0bb0 00C0      		rjmp .L209
 2248               	.L207:
 2249               	.LM250:
 2250 0bb2 6B2D      		mov r22,r11
 2251 0bb4 782D      		mov r23,r8
 2252 0bb6 8A2D      		mov r24,r10
 2253 0bb8 992D      		mov r25,r9
 2254 0bba 20E0      		ldi r18,lo8(0x43480000)
 2255 0bbc 30E0      		ldi r19,hi8(0x43480000)
 2256 0bbe 48E4      		ldi r20,hlo8(0x43480000)
 2257 0bc0 53E4      		ldi r21,hhi8(0x43480000)
 2258 0bc2 0E94 0000 		call __subsf3
 2259 0bc6 F62E      		mov r15,r22
 2260 0bc8 E72E      		mov r14,r23
 2261 0bca D82E      		mov r13,r24
 2262 0bcc C92E      		mov r12,r25
 2263 0bce A701      		movw r20,r14
 2264 0bd0 9601      		movw r18,r12
 2265 0bd2 652F      		mov r22,r21
 2266 0bd4 742F      		mov r23,r20
 2267 0bd6 832F      		mov r24,r19
 2268 0bd8 922F      		mov r25,r18
 2269 0bda A201      		movw r20,r4
 2270 0bdc 9101      		movw r18,r2
 2271 0bde 0E94 0000 		call __gtsf2
 2272 0be2 1816      		cp __zero_reg__,r24
 2273 0be4 04F4      		brge .L196
 2274               	.L209:
 2275               	.LM251:
 2276 0be6 A701      		movw r20,r14
GAS LISTING /tmp/ccvyM2DX.s 			page 41


 2277 0be8 9601      		movw r18,r12
 2278 0bea 652F      		mov r22,r21
 2279 0bec 7E2D      		mov r23,r14
 2280 0bee 832F      		mov r24,r19
 2281 0bf0 9C2D      		mov r25,r12
 2282 0bf2 0E94 0000 		call __fixsfsi
 2283 0bf6 6F83      		std Y+7,r22
 2284 0bf8 7887      		std Y+8,r23
 2285               	.LVL176:
 2286               	.LM252:
 2287 0bfa 8B01      		movw r16,r22
 2288               	.LVL177:
 2289 0bfc 1095      		com r17
 2290 0bfe 0195      		neg r16
 2291 0c00 1F4F      		sbci r17,lo8(-1)
 2292               	.LVL178:
 2293               	.L196:
 2294               	.LM253:
 2295 0c02 2981      		ldd r18,Y+1
 2296 0c04 3A81      		ldd r19,Y+2
 2297 0c06 2093 0000 		sts goal,r18
 2298 0c0a 3093 0000 		sts goal+1,r19
 2299               	.LM254:
 2300 0c0e 8B81      		ldd r24,Y+3
 2301 0c10 9C81      		ldd r25,Y+4
 2302 0c12 8093 0000 		sts goal+2,r24
 2303 0c16 9093 0000 		sts goal+2+1,r25
 2304               	.LM255:
 2305 0c1a 6092 0000 		sts goal+4,r6
 2306 0c1e 7092 0000 		sts goal+4+1,r7
 2307               	.LM256:
 2308 0c22 EF81      		ldd r30,Y+7
 2309 0c24 F885      		ldd r31,Y+8
 2310 0c26 E093 0000 		sts goal+6,r30
 2311 0c2a F093 0000 		sts goal+6+1,r31
 2312               	.LM257:
 2313 0c2e 0093 0000 		sts goal+8,r16
 2314 0c32 1093 0000 		sts goal+8+1,r17
 2315               	.LM258:
 2316 0c36 2D81      		ldd r18,Y+5
 2317 0c38 3E81      		ldd r19,Y+6
 2318 0c3a 2093 0000 		sts goal+10,r18
 2319 0c3e 3093 0000 		sts goal+10+1,r19
 2320               	.LM259:
 2321 0c42 80E0      		ldi r24,lo8(.LC0)
 2322 0c44 90E0      		ldi r25,hi8(.LC0)
 2323 0c46 0E94 0000 		call puts
 2324               	.LM260:
 2325 0c4a 00D0      		rcall .
 2326 0c4c 2981      		ldd r18,Y+1
 2327 0c4e 3A81      		ldd r19,Y+2
 2328 0c50 EDB7      		in r30,__SP_L__
 2329 0c52 FEB7      		in r31,__SP_H__
 2330 0c54 2183      		std Z+1,r18
 2331 0c56 3283      		std Z+2,r19
 2332 0c58 0E94 0000 		call printf
 2333 0c5c 0F90      		pop __tmp_reg__
GAS LISTING /tmp/ccvyM2DX.s 			page 42


 2334 0c5e 0F90      		pop __tmp_reg__
 2335               	/* epilogue start */
 2336               	.LM261:
 2337 0c60 2896      		adiw r28,8
 2338               	.LVL179:
 2339 0c62 CDBF      		out __SP_L__,r28
 2340 0c64 DEBF      		out __SP_H__,r29
 2341 0c66 CF91      		pop r28
 2342 0c68 DF91      		pop r29
 2343               	.LVL180:
 2344 0c6a 1F91      		pop r17
 2345 0c6c 0F91      		pop r16
 2346               	.LVL181:
 2347 0c6e FF90      		pop r15
 2348 0c70 EF90      		pop r14
 2349 0c72 DF90      		pop r13
 2350 0c74 CF90      		pop r12
 2351 0c76 BF90      		pop r11
 2352 0c78 AF90      		pop r10
 2353 0c7a 9F90      		pop r9
 2354 0c7c 8F90      		pop r8
 2355 0c7e 7F90      		pop r7
 2356 0c80 6F90      		pop r6
 2357               	.LVL182:
 2358 0c82 5F90      		pop r5
 2359 0c84 4F90      		pop r4
 2360 0c86 3F90      		pop r3
 2361 0c88 2F90      		pop r2
 2362 0c8a 0895      		ret
 2363               	.LFE31:
 2364               		.size	changeGoal, .-changeGoal
 2365               	.global	moveToGoal
 2366               		.type	moveToGoal, @function
 2367               	moveToGoal:
 2368               	.LFB32:
 2369               	.LM262:
 2370 0c8c 2F92      		push r2
 2371 0c8e 3F92      		push r3
 2372 0c90 4F92      		push r4
 2373 0c92 5F92      		push r5
 2374 0c94 6F92      		push r6
 2375 0c96 7F92      		push r7
 2376 0c98 8F92      		push r8
 2377 0c9a 9F92      		push r9
 2378 0c9c AF92      		push r10
 2379 0c9e BF92      		push r11
 2380 0ca0 CF92      		push r12
 2381 0ca2 DF92      		push r13
 2382 0ca4 EF92      		push r14
 2383 0ca6 FF92      		push r15
 2384 0ca8 0F93      		push r16
 2385 0caa 1F93      		push r17
 2386 0cac DF93      		push r29
 2387 0cae CF93      		push r28
 2388 0cb0 CDB7      		in r28,__SP_L__
 2389 0cb2 DEB7      		in r29,__SP_H__
 2390 0cb4 6497      		sbiw r28,20
GAS LISTING /tmp/ccvyM2DX.s 			page 43


 2391 0cb6 CDBF      		out __SP_L__,r28
 2392 0cb8 DEBF      		out __SP_H__,r29
 2393               	/* prologue: function */
 2394               	/* frame size = 20 */
 2395               	/* stack size = 38 */
 2396               	.L__stack_usage = 38
 2397               	.LM263:
 2398 0cba 0091 0000 		lds r16,goal
 2399 0cbe 1091 0000 		lds r17,goal+1
 2400 0cc2 8091 0000 		lds r24,pose
 2401 0cc6 9091 0000 		lds r25,pose+1
 2402 0cca 081B      		sub r16,r24
 2403 0ccc 190B      		sbc r17,r25
 2404               	.LM264:
 2405 0cce E090 0000 		lds r14,goal+2
 2406 0cd2 F090 0000 		lds r15,goal+2+1
 2407 0cd6 8091 0000 		lds r24,pose+2
 2408 0cda 9091 0000 		lds r25,pose+2+1
 2409 0cde E81A      		sub r14,r24
 2410 0ce0 F90A      		sbc r15,r25
 2411               	.LM265:
 2412 0ce2 C090 0000 		lds r12,goal+4
 2413 0ce6 D090 0000 		lds r13,goal+4+1
 2414 0cea 8091 0000 		lds r24,pose+4
 2415 0cee 9091 0000 		lds r25,pose+4+1
 2416 0cf2 C81A      		sub r12,r24
 2417 0cf4 D90A      		sbc r13,r25
 2418               	.LM266:
 2419 0cf6 2090 0000 		lds r2,goal+6
 2420 0cfa 3090 0000 		lds r3,goal+6+1
 2421 0cfe 8091 0000 		lds r24,pose+6
 2422 0d02 9091 0000 		lds r25,pose+6+1
 2423 0d06 281A      		sub r2,r24
 2424 0d08 390A      		sbc r3,r25
 2425               	.LM267:
 2426 0d0a 2091 0000 		lds r18,goal+8
 2427 0d0e 3091 0000 		lds r19,goal+8+1
 2428 0d12 8091 0000 		lds r24,pose+8
 2429 0d16 9091 0000 		lds r25,pose+8+1
 2430 0d1a 281B      		sub r18,r24
 2431 0d1c 390B      		sbc r19,r25
 2432 0d1e 2D87      		std Y+13,r18
 2433 0d20 3E87      		std Y+14,r19
 2434               	.LM268:
 2435 0d22 4091 0000 		lds r20,goal+10
 2436 0d26 5091 0000 		lds r21,goal+10+1
 2437 0d2a 8091 0000 		lds r24,pose+10
 2438 0d2e 9091 0000 		lds r25,pose+10+1
 2439 0d32 481B      		sub r20,r24
 2440 0d34 590B      		sbc r21,r25
 2441 0d36 4F87      		std Y+15,r20
 2442 0d38 588B      		std Y+16,r21
 2443               	.LM269:
 2444 0d3a 0983      		std Y+1,r16
 2445 0d3c 1A83      		std Y+2,r17
 2446 0d3e EB82      		std Y+3,r14
 2447 0d40 FC82      		std Y+4,r15
GAS LISTING /tmp/ccvyM2DX.s 			page 44


 2448 0d42 CD82      		std Y+5,r12
 2449 0d44 DE82      		std Y+6,r13
 2450 0d46 2F82      		std Y+7,r2
 2451 0d48 3886      		std Y+8,r3
 2452 0d4a 2987      		std Y+9,r18
 2453 0d4c 3A87      		std Y+10,r19
 2454 0d4e 4B87      		std Y+11,r20
 2455 0d50 5C87      		std Y+12,r21
 2456               	.LVL183:
 2457 0d52 FE01      		movw r30,r28
 2458 0d54 3396      		adiw r30,3
 2459               	.LM270:
 2460 0d56 AE01      		movw r20,r28
 2461 0d58 435F      		subi r20,lo8(-(13))
 2462 0d5a 5F4F      		sbci r21,hi8(-(13))
 2463               	.LM271:
 2464 0d5c B801      		movw r22,r16
 2465               	.LVL184:
 2466               	.L214:
 2467               	.LM272:
 2468 0d5e B081      		ld r27,Z
 2469 0d60 A181      		ldd r26,Z+1
 2470 0d62 3296      		adiw r30,2
 2471 0d64 9D01      		movw r18,r26
 2472 0d66 832F      		mov r24,r19
 2473 0d68 922F      		mov r25,r18
 2474 0d6a 97FF      		sbrs r25,7
 2475 0d6c 00C0      		rjmp .L212
 2476 0d6e 9095      		com r25
 2477 0d70 8195      		neg r24
 2478 0d72 9F4F      		sbci r25,lo8(-1)
 2479               	.L212:
 2480 0d74 9B01      		movw r18,r22
 2481 0d76 77FF      		sbrs r23,7
 2482 0d78 00C0      		rjmp .L213
 2483               	.LVL185:
 2484 0d7a 2227      		clr r18
 2485 0d7c 3327      		clr r19
 2486 0d7e 261B      		sub r18,r22
 2487 0d80 370B      		sbc r19,r23
 2488               	.LVL186:
 2489               	.L213:
 2490 0d82 2817      		cp r18,r24
 2491 0d84 3907      		cpc r19,r25
 2492 0d86 04F4      		brge .L211
 2493               	.LM273:
 2494 0d88 CD01      		movw r24,r26
 2495 0d8a 692F      		mov r22,r25
 2496               	.LVL187:
 2497 0d8c 7A2F      		mov r23,r26
 2498               	.L211:
 2499               	.LVL188:
 2500               	.LM274:
 2501 0d8e E417      		cp r30,r20
 2502 0d90 F507      		cpc r31,r21
 2503 0d92 01F4      		brne .L214
 2504               	.LM275:
GAS LISTING /tmp/ccvyM2DX.s 			page 45


 2505 0d94 8827      		clr r24
 2506 0d96 77FD      		sbrc r23,7
 2507 0d98 8095      		com r24
 2508 0d9a 982F      		mov r25,r24
 2509 0d9c 0E94 0000 		call __floatsisf
 2510               	.LVL189:
 2511 0da0 4B01      		movw r8,r22
 2512 0da2 5C01      		movw r10,r24
 2513               	.LVL190:
 2514               	.LBB82:
 2515               	.LBB83:
 2516               	.LM276:
 2517 0da4 2091 0000 		lds r18,Base+10
 2518 0da8 3091 0000 		lds r19,Base+10+1
 2519 0dac 4427      		clr r20
 2520 0dae 37FD      		sbrc r19,7
 2521 0db0 4095      		com r20
 2522 0db2 542F      		mov r21,r20
 2523 0db4 60E6      		ldi r22,lo8(60000)
 2524 0db6 7AEE      		ldi r23,hi8(60000)
 2525 0db8 80E0      		ldi r24,hlo8(60000)
 2526 0dba 90E0      		ldi r25,hhi8(60000)
 2527 0dbc 0E94 0000 		call __divmodsi4
 2528 0dc0 2901      		movw r4,r18
 2529 0dc2 3A01      		movw r6,r20
 2530               	.LBE83:
 2531               	.LBE82:
 2532               	.LM277:
 2533 0dc4 B801      		movw r22,r16
 2534 0dc6 8827      		clr r24
 2535 0dc8 77FD      		sbrc r23,7
 2536 0dca 8095      		com r24
 2537 0dcc 982F      		mov r25,r24
 2538 0dce 0E94 0000 		call __floatsisf
 2539 0dd2 A501      		movw r20,r10
 2540 0dd4 9401      		movw r18,r8
 2541 0dd6 0E94 0000 		call __divsf3
 2542 0dda 20E0      		ldi r18,lo8(0x42200000)
 2543 0ddc 30E0      		ldi r19,hi8(0x42200000)
 2544 0dde 40E2      		ldi r20,hlo8(0x42200000)
 2545 0de0 52E4      		ldi r21,hhi8(0x42200000)
 2546 0de2 0E94 0000 		call __mulsf3
 2547 0de6 0E94 0000 		call __fixsfsi
 2548 0dea 262F      		mov r18,r22
 2549 0dec 372F      		mov r19,r23
 2550 0dee 37FF      		sbrs r19,7
 2551 0df0 00C0      		rjmp .L215
 2552 0df2 3095      		com r19
 2553 0df4 2195      		neg r18
 2554 0df6 3F4F      		sbci r19,lo8(-1)
 2555               	.L215:
 2556 0df8 4427      		clr r20
 2557 0dfa 37FD      		sbrc r19,7
 2558 0dfc 4095      		com r20
 2559 0dfe 542F      		mov r21,r20
 2560               	.LBB85:
 2561               	.LBB84:
GAS LISTING /tmp/ccvyM2DX.s 			page 46


 2562               	.LM278:
 2563 0e00 C301      		movw r24,r6
 2564 0e02 B201      		movw r22,r4
 2565 0e04 0E94 0000 		call __divmodsi4
 2566 0e08 298B      		std Y+17,r18
 2567 0e0a 3A8B      		std Y+18,r19
 2568 0e0c 4B8B      		std Y+19,r20
 2569 0e0e 5C8B      		std Y+20,r21
 2570 0e10 2093 0000 		sts Base+6,r18
 2571 0e14 3093 0000 		sts Base+6+1,r19
 2572 0e18 4093 0000 		sts Base+6+2,r20
 2573 0e1c 5093 0000 		sts Base+6+3,r21
 2574               	.LVL191:
 2575               	.LBE84:
 2576               	.LBE85:
 2577               	.LBB86:
 2578               	.LBB87:
 2579 0e20 2091 0000 		lds r18,Shoulder+10
 2580 0e24 3091 0000 		lds r19,Shoulder+10+1
 2581 0e28 4427      		clr r20
 2582 0e2a 37FD      		sbrc r19,7
 2583 0e2c 4095      		com r20
 2584 0e2e 542F      		mov r21,r20
 2585 0e30 60E6      		ldi r22,lo8(60000)
 2586 0e32 7AEE      		ldi r23,hi8(60000)
 2587 0e34 80E0      		ldi r24,hlo8(60000)
 2588 0e36 90E0      		ldi r25,hhi8(60000)
 2589 0e38 0E94 0000 		call __divmodsi4
 2590 0e3c 2901      		movw r4,r18
 2591 0e3e 3A01      		movw r6,r20
 2592               	.LBE87:
 2593               	.LBE86:
 2594               	.LM279:
 2595 0e40 B701      		movw r22,r14
 2596 0e42 8827      		clr r24
 2597 0e44 77FD      		sbrc r23,7
 2598 0e46 8095      		com r24
 2599 0e48 982F      		mov r25,r24
 2600 0e4a 0E94 0000 		call __floatsisf
 2601 0e4e A501      		movw r20,r10
 2602 0e50 9401      		movw r18,r8
 2603 0e52 0E94 0000 		call __divsf3
 2604 0e56 20E0      		ldi r18,lo8(0x42200000)
 2605 0e58 30E0      		ldi r19,hi8(0x42200000)
 2606 0e5a 40E2      		ldi r20,hlo8(0x42200000)
 2607 0e5c 52E4      		ldi r21,hhi8(0x42200000)
 2608 0e5e 0E94 0000 		call __mulsf3
 2609 0e62 0E94 0000 		call __fixsfsi
 2610 0e66 262F      		mov r18,r22
 2611 0e68 372F      		mov r19,r23
 2612 0e6a 37FF      		sbrs r19,7
 2613 0e6c 00C0      		rjmp .L216
 2614 0e6e 3095      		com r19
 2615 0e70 2195      		neg r18
 2616 0e72 3F4F      		sbci r19,lo8(-1)
 2617               	.L216:
 2618 0e74 4427      		clr r20
GAS LISTING /tmp/ccvyM2DX.s 			page 47


 2619 0e76 37FD      		sbrc r19,7
 2620 0e78 4095      		com r20
 2621 0e7a 542F      		mov r21,r20
 2622               	.LBB89:
 2623               	.LBB88:
 2624               	.LM280:
 2625 0e7c C301      		movw r24,r6
 2626 0e7e B201      		movw r22,r4
 2627 0e80 0E94 0000 		call __divmodsi4
 2628 0e84 2093 0000 		sts Shoulder+6,r18
 2629 0e88 3093 0000 		sts Shoulder+6+1,r19
 2630 0e8c 4093 0000 		sts Shoulder+6+2,r20
 2631 0e90 5093 0000 		sts Shoulder+6+3,r21
 2632               	.LVL192:
 2633               	.LBE88:
 2634               	.LBE89:
 2635               	.LBB90:
 2636               	.LBB91:
 2637 0e94 2091 0000 		lds r18,Elbow+10
 2638 0e98 3091 0000 		lds r19,Elbow+10+1
 2639 0e9c 4427      		clr r20
 2640 0e9e 37FD      		sbrc r19,7
 2641 0ea0 4095      		com r20
 2642 0ea2 542F      		mov r21,r20
 2643 0ea4 60E6      		ldi r22,lo8(60000)
 2644 0ea6 7AEE      		ldi r23,hi8(60000)
 2645 0ea8 80E0      		ldi r24,hlo8(60000)
 2646 0eaa 90E0      		ldi r25,hhi8(60000)
 2647 0eac 0E94 0000 		call __divmodsi4
 2648 0eb0 7901      		movw r14,r18
 2649 0eb2 8A01      		movw r16,r20
 2650               	.LBE91:
 2651               	.LBE90:
 2652               	.LM281:
 2653 0eb4 B601      		movw r22,r12
 2654 0eb6 8827      		clr r24
 2655 0eb8 77FD      		sbrc r23,7
 2656 0eba 8095      		com r24
 2657 0ebc 982F      		mov r25,r24
 2658 0ebe 0E94 0000 		call __floatsisf
 2659 0ec2 A501      		movw r20,r10
 2660 0ec4 9401      		movw r18,r8
 2661 0ec6 0E94 0000 		call __divsf3
 2662 0eca 20E0      		ldi r18,lo8(0x42200000)
 2663 0ecc 30E0      		ldi r19,hi8(0x42200000)
 2664 0ece 40E2      		ldi r20,hlo8(0x42200000)
 2665 0ed0 52E4      		ldi r21,hhi8(0x42200000)
 2666 0ed2 0E94 0000 		call __mulsf3
 2667 0ed6 0E94 0000 		call __fixsfsi
 2668 0eda 262F      		mov r18,r22
 2669 0edc 372F      		mov r19,r23
 2670 0ede 37FF      		sbrs r19,7
 2671 0ee0 00C0      		rjmp .L217
 2672 0ee2 3095      		com r19
 2673 0ee4 2195      		neg r18
 2674 0ee6 3F4F      		sbci r19,lo8(-1)
 2675               	.L217:
GAS LISTING /tmp/ccvyM2DX.s 			page 48


 2676 0ee8 4427      		clr r20
 2677 0eea 37FD      		sbrc r19,7
 2678 0eec 4095      		com r20
 2679 0eee 542F      		mov r21,r20
 2680               	.LBB93:
 2681               	.LBB92:
 2682               	.LM282:
 2683 0ef0 C801      		movw r24,r16
 2684 0ef2 B701      		movw r22,r14
 2685 0ef4 0E94 0000 		call __divmodsi4
 2686 0ef8 2093 0000 		sts Elbow+6,r18
 2687 0efc 3093 0000 		sts Elbow+6+1,r19
 2688 0f00 4093 0000 		sts Elbow+6+2,r20
 2689 0f04 5093 0000 		sts Elbow+6+3,r21
 2690               	.LVL193:
 2691               	.LBE92:
 2692               	.LBE93:
 2693               	.LBB94:
 2694               	.LBB95:
 2695 0f08 2091 0000 		lds r18,Right_Wrist+10
 2696 0f0c 3091 0000 		lds r19,Right_Wrist+10+1
 2697 0f10 4427      		clr r20
 2698 0f12 37FD      		sbrc r19,7
 2699 0f14 4095      		com r20
 2700 0f16 542F      		mov r21,r20
 2701 0f18 60E6      		ldi r22,lo8(60000)
 2702 0f1a 7AEE      		ldi r23,hi8(60000)
 2703 0f1c 80E0      		ldi r24,hlo8(60000)
 2704 0f1e 90E0      		ldi r25,hhi8(60000)
 2705 0f20 0E94 0000 		call __divmodsi4
 2706 0f24 7901      		movw r14,r18
 2707 0f26 8A01      		movw r16,r20
 2708               	.LBE95:
 2709               	.LBE94:
 2710               	.LM283:
 2711 0f28 B101      		movw r22,r2
 2712 0f2a 8827      		clr r24
 2713 0f2c 77FD      		sbrc r23,7
 2714 0f2e 8095      		com r24
 2715 0f30 982F      		mov r25,r24
 2716 0f32 0E94 0000 		call __floatsisf
 2717 0f36 A501      		movw r20,r10
 2718 0f38 9401      		movw r18,r8
 2719 0f3a 0E94 0000 		call __divsf3
 2720 0f3e 20E0      		ldi r18,lo8(0x42200000)
 2721 0f40 30E0      		ldi r19,hi8(0x42200000)
 2722 0f42 40E2      		ldi r20,hlo8(0x42200000)
 2723 0f44 52E4      		ldi r21,hhi8(0x42200000)
 2724 0f46 0E94 0000 		call __mulsf3
 2725 0f4a 0E94 0000 		call __fixsfsi
 2726 0f4e 262F      		mov r18,r22
 2727 0f50 372F      		mov r19,r23
 2728 0f52 37FF      		sbrs r19,7
 2729 0f54 00C0      		rjmp .L218
 2730 0f56 3095      		com r19
 2731 0f58 2195      		neg r18
 2732 0f5a 3F4F      		sbci r19,lo8(-1)
GAS LISTING /tmp/ccvyM2DX.s 			page 49


 2733               	.L218:
 2734 0f5c 4427      		clr r20
 2735 0f5e 37FD      		sbrc r19,7
 2736 0f60 4095      		com r20
 2737 0f62 542F      		mov r21,r20
 2738               	.LBB97:
 2739               	.LBB96:
 2740               	.LM284:
 2741 0f64 C801      		movw r24,r16
 2742 0f66 B701      		movw r22,r14
 2743 0f68 0E94 0000 		call __divmodsi4
 2744 0f6c 2093 0000 		sts Right_Wrist+6,r18
 2745 0f70 3093 0000 		sts Right_Wrist+6+1,r19
 2746 0f74 4093 0000 		sts Right_Wrist+6+2,r20
 2747 0f78 5093 0000 		sts Right_Wrist+6+3,r21
 2748               	.LVL194:
 2749               	.LBE96:
 2750               	.LBE97:
 2751               	.LBB98:
 2752               	.LBB99:
 2753 0f7c 2091 0000 		lds r18,Left_Wrist+10
 2754 0f80 3091 0000 		lds r19,Left_Wrist+10+1
 2755 0f84 4427      		clr r20
 2756 0f86 37FD      		sbrc r19,7
 2757 0f88 4095      		com r20
 2758 0f8a 542F      		mov r21,r20
 2759 0f8c 60E6      		ldi r22,lo8(60000)
 2760 0f8e 7AEE      		ldi r23,hi8(60000)
 2761 0f90 80E0      		ldi r24,hlo8(60000)
 2762 0f92 90E0      		ldi r25,hhi8(60000)
 2763 0f94 0E94 0000 		call __divmodsi4
 2764 0f98 7901      		movw r14,r18
 2765 0f9a 8A01      		movw r16,r20
 2766               	.LBE99:
 2767               	.LBE98:
 2768               	.LM285:
 2769 0f9c AD85      		ldd r26,Y+13
 2770 0f9e BE85      		ldd r27,Y+14
 2771 0fa0 BD01      		movw r22,r26
 2772 0fa2 8827      		clr r24
 2773 0fa4 77FD      		sbrc r23,7
 2774 0fa6 8095      		com r24
 2775 0fa8 982F      		mov r25,r24
 2776 0faa 0E94 0000 		call __floatsisf
 2777 0fae A501      		movw r20,r10
 2778 0fb0 9401      		movw r18,r8
 2779 0fb2 0E94 0000 		call __divsf3
 2780 0fb6 20E0      		ldi r18,lo8(0x42200000)
 2781 0fb8 30E0      		ldi r19,hi8(0x42200000)
 2782 0fba 40E2      		ldi r20,hlo8(0x42200000)
 2783 0fbc 52E4      		ldi r21,hhi8(0x42200000)
 2784 0fbe 0E94 0000 		call __mulsf3
 2785 0fc2 0E94 0000 		call __fixsfsi
 2786 0fc6 262F      		mov r18,r22
 2787 0fc8 372F      		mov r19,r23
 2788 0fca 37FF      		sbrs r19,7
 2789 0fcc 00C0      		rjmp .L219
GAS LISTING /tmp/ccvyM2DX.s 			page 50


 2790 0fce 3095      		com r19
 2791 0fd0 2195      		neg r18
 2792 0fd2 3F4F      		sbci r19,lo8(-1)
 2793               	.L219:
 2794 0fd4 4427      		clr r20
 2795 0fd6 37FD      		sbrc r19,7
 2796 0fd8 4095      		com r20
 2797 0fda 542F      		mov r21,r20
 2798               	.LBB101:
 2799               	.LBB100:
 2800               	.LM286:
 2801 0fdc C801      		movw r24,r16
 2802 0fde B701      		movw r22,r14
 2803 0fe0 0E94 0000 		call __divmodsi4
 2804 0fe4 2093 0000 		sts Left_Wrist+6,r18
 2805 0fe8 3093 0000 		sts Left_Wrist+6+1,r19
 2806 0fec 4093 0000 		sts Left_Wrist+6+2,r20
 2807 0ff0 5093 0000 		sts Left_Wrist+6+3,r21
 2808               	.LVL195:
 2809               	.LBE100:
 2810               	.LBE101:
 2811               	.LBB102:
 2812               	.LBB103:
 2813 0ff4 2091 0000 		lds r18,Gripper+10
 2814 0ff8 3091 0000 		lds r19,Gripper+10+1
 2815 0ffc 4427      		clr r20
 2816 0ffe 37FD      		sbrc r19,7
 2817 1000 4095      		com r20
 2818 1002 542F      		mov r21,r20
 2819 1004 60E6      		ldi r22,lo8(60000)
 2820 1006 7AEE      		ldi r23,hi8(60000)
 2821 1008 80E0      		ldi r24,hlo8(60000)
 2822 100a 90E0      		ldi r25,hhi8(60000)
 2823 100c 0E94 0000 		call __divmodsi4
 2824 1010 7901      		movw r14,r18
 2825 1012 8A01      		movw r16,r20
 2826               	.LBE103:
 2827               	.LBE102:
 2828               	.LM287:
 2829 1014 2F85      		ldd r18,Y+15
 2830 1016 3889      		ldd r19,Y+16
 2831 1018 B901      		movw r22,r18
 2832 101a 8827      		clr r24
 2833 101c 77FD      		sbrc r23,7
 2834 101e 8095      		com r24
 2835 1020 982F      		mov r25,r24
 2836 1022 0E94 0000 		call __floatsisf
 2837 1026 A501      		movw r20,r10
 2838 1028 9401      		movw r18,r8
 2839 102a 0E94 0000 		call __divsf3
 2840 102e 20E0      		ldi r18,lo8(0x42200000)
 2841 1030 30E0      		ldi r19,hi8(0x42200000)
 2842 1032 40E2      		ldi r20,hlo8(0x42200000)
 2843 1034 52E4      		ldi r21,hhi8(0x42200000)
 2844 1036 0E94 0000 		call __mulsf3
 2845 103a 0E94 0000 		call __fixsfsi
 2846 103e 262F      		mov r18,r22
GAS LISTING /tmp/ccvyM2DX.s 			page 51


 2847 1040 372F      		mov r19,r23
 2848 1042 37FF      		sbrs r19,7
 2849 1044 00C0      		rjmp .L220
 2850 1046 3095      		com r19
 2851 1048 2195      		neg r18
 2852 104a 3F4F      		sbci r19,lo8(-1)
 2853               	.L220:
 2854 104c 4427      		clr r20
 2855 104e 37FD      		sbrc r19,7
 2856 1050 4095      		com r20
 2857 1052 542F      		mov r21,r20
 2858               	.LBB105:
 2859               	.LBB104:
 2860               	.LM288:
 2861 1054 C801      		movw r24,r16
 2862 1056 B701      		movw r22,r14
 2863 1058 0E94 0000 		call __divmodsi4
 2864 105c 2093 0000 		sts Gripper+6,r18
 2865 1060 3093 0000 		sts Gripper+6+1,r19
 2866 1064 4093 0000 		sts Gripper+6+2,r20
 2867 1068 5093 0000 		sts Gripper+6+3,r21
 2868               	.LVL196:
 2869 106c E0E0      		ldi r30,lo8(goal)
 2870 106e F0E0      		ldi r31,hi8(goal)
 2871 1070 20E0      		ldi r18,lo8(pose)
 2872 1072 30E0      		ldi r19,hi8(pose)
 2873 1074 BE01      		movw r22,r28
 2874 1076 6F5F      		subi r22,lo8(-(1))
 2875 1078 7F4F      		sbci r23,hi8(-(1))
 2876               	.LVL197:
 2877               	.L221:
 2878               	.LBE104:
 2879               	.LBE105:
 2880               	.LM289:
 2881 107a 8191      		ld r24,Z+
 2882 107c 9191      		ld r25,Z+
 2883 107e D901      		movw r26,r18
 2884 1080 4D91      		ld r20,X+
 2885 1082 5D91      		ld r21,X+
 2886 1084 9D01      		movw r18,r26
 2887 1086 841B      		sub r24,r20
 2888 1088 950B      		sbc r25,r21
 2889 108a DB01      		movw r26,r22
 2890 108c 8D93      		st X+,r24
 2891 108e 9D93      		st X+,r25
 2892 1090 BD01      		movw r22,r26
 2893               	.LM290:
 2894 1092 B0E0      		ldi r27,hi8(goal+12)
 2895 1094 E030      		cpi r30,lo8(goal+12)
 2896 1096 FB07      		cpc r31,r27
 2897 1098 01F4      		brne .L221
 2898               	.LBB106:
 2899               	.LBB107:
 2900               	.LM291:
 2901 109a 8091 0000 		lds r24,elapsedMillis
 2902 109e 9091 0000 		lds r25,elapsedMillis+1
 2903 10a2 A091 0000 		lds r26,elapsedMillis+2
GAS LISTING /tmp/ccvyM2DX.s 			page 52


 2904 10a6 B091 0000 		lds r27,elapsedMillis+3
 2905               	.LBE107:
 2906               	.LBE106:
 2907               	.LM292:
 2908 10aa 2091 0000 		lds r18,Base+32
 2909 10ae 3091 0000 		lds r19,Base+32+1
 2910 10b2 4091 0000 		lds r20,Base+32+2
 2911 10b6 5091 0000 		lds r21,Base+32+3
 2912 10ba 821B      		sub r24,r18
 2913 10bc 930B      		sbc r25,r19
 2914 10be A40B      		sbc r26,r20
 2915 10c0 B50B      		sbc r27,r21
 2916 10c2 2989      		ldd r18,Y+17
 2917 10c4 3A89      		ldd r19,Y+18
 2918 10c6 4B89      		ldd r20,Y+19
 2919 10c8 5C89      		ldd r21,Y+20
 2920 10ca 8217      		cp r24,r18
 2921 10cc 9307      		cpc r25,r19
 2922 10ce A407      		cpc r26,r20
 2923 10d0 B507      		cpc r27,r21
 2924 10d2 00F0      		brlo .L222
 2925               	.LBB108:
 2926               	.LBB109:
 2927               	.LM293:
 2928 10d4 8091 0000 		lds r24,elapsedMillis
 2929 10d8 9091 0000 		lds r25,elapsedMillis+1
 2930 10dc A091 0000 		lds r26,elapsedMillis+2
 2931 10e0 B091 0000 		lds r27,elapsedMillis+3
 2932               	.LBE109:
 2933               	.LBE108:
 2934               	.LM294:
 2935 10e4 8093 0000 		sts Base+32,r24
 2936 10e8 9093 0000 		sts Base+32+1,r25
 2937 10ec A093 0000 		sts Base+32+2,r26
 2938 10f0 B093 0000 		sts Base+32+3,r27
 2939               	.LM295:
 2940 10f4 8981      		ldd r24,Y+1
 2941 10f6 9A81      		ldd r25,Y+2
 2942               	.LVL198:
 2943               	.LBB110:
 2944               	.LBB111:
 2945               	.LM296:
 2946 10f8 97FD      		sbrc r25,7
 2947 10fa 00C0      		rjmp .L241
 2948 10fc 61E0      		ldi r22,lo8(1)
 2949 10fe 70E0      		ldi r23,hi8(1)
 2950 1100 1816      		cp __zero_reg__,r24
 2951 1102 1906      		cpc __zero_reg__,r25
 2952 1104 04F0      		brlt .L223
 2953 1106 60E0      		ldi r22,lo8(0)
 2954 1108 70E0      		ldi r23,hi8(0)
 2955 110a 00C0      		rjmp .L223
 2956               	.L241:
 2957 110c 6FEF      		ldi r22,lo8(-1)
 2958 110e 7FEF      		ldi r23,hi8(-1)
 2959               	.L223:
 2960               	.LBE111:
GAS LISTING /tmp/ccvyM2DX.s 			page 53


 2961               	.LBE110:
 2962               	.LM297:
 2963 1110 80E0      		ldi r24,lo8(Base)
 2964 1112 90E0      		ldi r25,hi8(Base)
 2965 1114 0E94 0000 		call stepOne
 2966               	.LVL199:
 2967               	.L222:
 2968               	.LBB112:
 2969               	.LBB113:
 2970               	.LM298:
 2971 1118 8091 0000 		lds r24,elapsedMillis
 2972 111c 9091 0000 		lds r25,elapsedMillis+1
 2973 1120 A091 0000 		lds r26,elapsedMillis+2
 2974 1124 B091 0000 		lds r27,elapsedMillis+3
 2975               	.LBE113:
 2976               	.LBE112:
 2977               	.LM299:
 2978 1128 2091 0000 		lds r18,Shoulder+32
 2979 112c 3091 0000 		lds r19,Shoulder+32+1
 2980 1130 4091 0000 		lds r20,Shoulder+32+2
 2981 1134 5091 0000 		lds r21,Shoulder+32+3
 2982 1138 821B      		sub r24,r18
 2983 113a 930B      		sbc r25,r19
 2984 113c A40B      		sbc r26,r20
 2985 113e B50B      		sbc r27,r21
 2986 1140 2091 0000 		lds r18,Shoulder+6
 2987 1144 3091 0000 		lds r19,Shoulder+6+1
 2988 1148 4091 0000 		lds r20,Shoulder+6+2
 2989 114c 5091 0000 		lds r21,Shoulder+6+3
 2990 1150 8217      		cp r24,r18
 2991 1152 9307      		cpc r25,r19
 2992 1154 A407      		cpc r26,r20
 2993 1156 B507      		cpc r27,r21
 2994 1158 00F0      		brlo .L225
 2995               	.LBB114:
 2996               	.LBB115:
 2997               	.LM300:
 2998 115a 8091 0000 		lds r24,elapsedMillis
 2999 115e 9091 0000 		lds r25,elapsedMillis+1
 3000 1162 A091 0000 		lds r26,elapsedMillis+2
 3001 1166 B091 0000 		lds r27,elapsedMillis+3
 3002               	.LBE115:
 3003               	.LBE114:
 3004               	.LM301:
 3005 116a 8093 0000 		sts Shoulder+32,r24
 3006 116e 9093 0000 		sts Shoulder+32+1,r25
 3007 1172 A093 0000 		sts Shoulder+32+2,r26
 3008 1176 B093 0000 		sts Shoulder+32+3,r27
 3009               	.LM302:
 3010 117a 8B81      		ldd r24,Y+3
 3011 117c 9C81      		ldd r25,Y+4
 3012               	.LVL200:
 3013               	.LBB116:
 3014               	.LBB117:
 3015               	.LM303:
 3016 117e 97FD      		sbrc r25,7
 3017 1180 00C0      		rjmp .L242
GAS LISTING /tmp/ccvyM2DX.s 			page 54


 3018 1182 61E0      		ldi r22,lo8(1)
 3019 1184 70E0      		ldi r23,hi8(1)
 3020 1186 1816      		cp __zero_reg__,r24
 3021 1188 1906      		cpc __zero_reg__,r25
 3022 118a 04F0      		brlt .L226
 3023 118c 60E0      		ldi r22,lo8(0)
 3024 118e 70E0      		ldi r23,hi8(0)
 3025 1190 00C0      		rjmp .L226
 3026               	.L242:
 3027 1192 6FEF      		ldi r22,lo8(-1)
 3028 1194 7FEF      		ldi r23,hi8(-1)
 3029               	.L226:
 3030               	.LBE117:
 3031               	.LBE116:
 3032               	.LM304:
 3033 1196 80E0      		ldi r24,lo8(Shoulder)
 3034 1198 90E0      		ldi r25,hi8(Shoulder)
 3035 119a 0E94 0000 		call stepOne
 3036               	.LVL201:
 3037               	.L225:
 3038               	.LBB118:
 3039               	.LBB119:
 3040               	.LM305:
 3041 119e 8091 0000 		lds r24,elapsedMillis
 3042 11a2 9091 0000 		lds r25,elapsedMillis+1
 3043 11a6 A091 0000 		lds r26,elapsedMillis+2
 3044 11aa B091 0000 		lds r27,elapsedMillis+3
 3045               	.LBE119:
 3046               	.LBE118:
 3047               	.LM306:
 3048 11ae 2091 0000 		lds r18,Elbow+32
 3049 11b2 3091 0000 		lds r19,Elbow+32+1
 3050 11b6 4091 0000 		lds r20,Elbow+32+2
 3051 11ba 5091 0000 		lds r21,Elbow+32+3
 3052 11be 821B      		sub r24,r18
 3053 11c0 930B      		sbc r25,r19
 3054 11c2 A40B      		sbc r26,r20
 3055 11c4 B50B      		sbc r27,r21
 3056 11c6 2091 0000 		lds r18,Elbow+6
 3057 11ca 3091 0000 		lds r19,Elbow+6+1
 3058 11ce 4091 0000 		lds r20,Elbow+6+2
 3059 11d2 5091 0000 		lds r21,Elbow+6+3
 3060 11d6 8217      		cp r24,r18
 3061 11d8 9307      		cpc r25,r19
 3062 11da A407      		cpc r26,r20
 3063 11dc B507      		cpc r27,r21
 3064 11de 00F0      		brlo .L228
 3065               	.LBB120:
 3066               	.LBB121:
 3067               	.LM307:
 3068 11e0 8091 0000 		lds r24,elapsedMillis
 3069 11e4 9091 0000 		lds r25,elapsedMillis+1
 3070 11e8 A091 0000 		lds r26,elapsedMillis+2
 3071 11ec B091 0000 		lds r27,elapsedMillis+3
 3072               	.LBE121:
 3073               	.LBE120:
 3074               	.LM308:
GAS LISTING /tmp/ccvyM2DX.s 			page 55


 3075 11f0 8093 0000 		sts Elbow+32,r24
 3076 11f4 9093 0000 		sts Elbow+32+1,r25
 3077 11f8 A093 0000 		sts Elbow+32+2,r26
 3078 11fc B093 0000 		sts Elbow+32+3,r27
 3079               	.LM309:
 3080 1200 8D81      		ldd r24,Y+5
 3081 1202 9E81      		ldd r25,Y+6
 3082               	.LVL202:
 3083               	.LBB122:
 3084               	.LBB123:
 3085               	.LM310:
 3086 1204 97FD      		sbrc r25,7
 3087 1206 00C0      		rjmp .L243
 3088 1208 61E0      		ldi r22,lo8(1)
 3089 120a 70E0      		ldi r23,hi8(1)
 3090 120c 1816      		cp __zero_reg__,r24
 3091 120e 1906      		cpc __zero_reg__,r25
 3092 1210 04F0      		brlt .L229
 3093 1212 60E0      		ldi r22,lo8(0)
 3094 1214 70E0      		ldi r23,hi8(0)
 3095 1216 00C0      		rjmp .L229
 3096               	.L243:
 3097 1218 6FEF      		ldi r22,lo8(-1)
 3098 121a 7FEF      		ldi r23,hi8(-1)
 3099               	.L229:
 3100               	.LBE123:
 3101               	.LBE122:
 3102               	.LM311:
 3103 121c 80E0      		ldi r24,lo8(Elbow)
 3104 121e 90E0      		ldi r25,hi8(Elbow)
 3105 1220 0E94 0000 		call stepOne
 3106               	.LVL203:
 3107               	.L228:
 3108               	.LBB124:
 3109               	.LBB125:
 3110               	.LM312:
 3111 1224 8091 0000 		lds r24,elapsedMillis
 3112 1228 9091 0000 		lds r25,elapsedMillis+1
 3113 122c A091 0000 		lds r26,elapsedMillis+2
 3114 1230 B091 0000 		lds r27,elapsedMillis+3
 3115               	.LBE125:
 3116               	.LBE124:
 3117               	.LM313:
 3118 1234 2091 0000 		lds r18,Right_Wrist+32
 3119 1238 3091 0000 		lds r19,Right_Wrist+32+1
 3120 123c 4091 0000 		lds r20,Right_Wrist+32+2
 3121 1240 5091 0000 		lds r21,Right_Wrist+32+3
 3122 1244 821B      		sub r24,r18
 3123 1246 930B      		sbc r25,r19
 3124 1248 A40B      		sbc r26,r20
 3125 124a B50B      		sbc r27,r21
 3126 124c 2091 0000 		lds r18,Right_Wrist+6
 3127 1250 3091 0000 		lds r19,Right_Wrist+6+1
 3128 1254 4091 0000 		lds r20,Right_Wrist+6+2
 3129 1258 5091 0000 		lds r21,Right_Wrist+6+3
 3130 125c 8217      		cp r24,r18
 3131 125e 9307      		cpc r25,r19
GAS LISTING /tmp/ccvyM2DX.s 			page 56


 3132 1260 A407      		cpc r26,r20
 3133 1262 B507      		cpc r27,r21
 3134 1264 00F0      		brlo .L231
 3135               	.LBB126:
 3136               	.LBB127:
 3137               	.LM314:
 3138 1266 8091 0000 		lds r24,elapsedMillis
 3139 126a 9091 0000 		lds r25,elapsedMillis+1
 3140 126e A091 0000 		lds r26,elapsedMillis+2
 3141 1272 B091 0000 		lds r27,elapsedMillis+3
 3142               	.LBE127:
 3143               	.LBE126:
 3144               	.LM315:
 3145 1276 8093 0000 		sts Right_Wrist+32,r24
 3146 127a 9093 0000 		sts Right_Wrist+32+1,r25
 3147 127e A093 0000 		sts Right_Wrist+32+2,r26
 3148 1282 B093 0000 		sts Right_Wrist+32+3,r27
 3149               	.LM316:
 3150 1286 8F81      		ldd r24,Y+7
 3151 1288 9885      		ldd r25,Y+8
 3152               	.LVL204:
 3153               	.LBB128:
 3154               	.LBB129:
 3155               	.LM317:
 3156 128a 97FD      		sbrc r25,7
 3157 128c 00C0      		rjmp .L244
 3158 128e 61E0      		ldi r22,lo8(1)
 3159 1290 70E0      		ldi r23,hi8(1)
 3160 1292 1816      		cp __zero_reg__,r24
 3161 1294 1906      		cpc __zero_reg__,r25
 3162 1296 04F0      		brlt .L232
 3163 1298 60E0      		ldi r22,lo8(0)
 3164 129a 70E0      		ldi r23,hi8(0)
 3165 129c 00C0      		rjmp .L232
 3166               	.L244:
 3167 129e 6FEF      		ldi r22,lo8(-1)
 3168 12a0 7FEF      		ldi r23,hi8(-1)
 3169               	.L232:
 3170               	.LBE129:
 3171               	.LBE128:
 3172               	.LM318:
 3173 12a2 80E0      		ldi r24,lo8(Right_Wrist)
 3174 12a4 90E0      		ldi r25,hi8(Right_Wrist)
 3175 12a6 0E94 0000 		call stepOne
 3176               	.LVL205:
 3177               	.L231:
 3178               	.LBB130:
 3179               	.LBB131:
 3180               	.LM319:
 3181 12aa 8091 0000 		lds r24,elapsedMillis
 3182 12ae 9091 0000 		lds r25,elapsedMillis+1
 3183 12b2 A091 0000 		lds r26,elapsedMillis+2
 3184 12b6 B091 0000 		lds r27,elapsedMillis+3
 3185               	.LBE131:
 3186               	.LBE130:
 3187               	.LM320:
 3188 12ba 2091 0000 		lds r18,Left_Wrist+32
GAS LISTING /tmp/ccvyM2DX.s 			page 57


 3189 12be 3091 0000 		lds r19,Left_Wrist+32+1
 3190 12c2 4091 0000 		lds r20,Left_Wrist+32+2
 3191 12c6 5091 0000 		lds r21,Left_Wrist+32+3
 3192 12ca 821B      		sub r24,r18
 3193 12cc 930B      		sbc r25,r19
 3194 12ce A40B      		sbc r26,r20
 3195 12d0 B50B      		sbc r27,r21
 3196 12d2 2091 0000 		lds r18,Left_Wrist+6
 3197 12d6 3091 0000 		lds r19,Left_Wrist+6+1
 3198 12da 4091 0000 		lds r20,Left_Wrist+6+2
 3199 12de 5091 0000 		lds r21,Left_Wrist+6+3
 3200 12e2 8217      		cp r24,r18
 3201 12e4 9307      		cpc r25,r19
 3202 12e6 A407      		cpc r26,r20
 3203 12e8 B507      		cpc r27,r21
 3204 12ea 00F0      		brlo .L234
 3205               	.LBB132:
 3206               	.LBB133:
 3207               	.LM321:
 3208 12ec 8091 0000 		lds r24,elapsedMillis
 3209 12f0 9091 0000 		lds r25,elapsedMillis+1
 3210 12f4 A091 0000 		lds r26,elapsedMillis+2
 3211 12f8 B091 0000 		lds r27,elapsedMillis+3
 3212               	.LBE133:
 3213               	.LBE132:
 3214               	.LM322:
 3215 12fc 8093 0000 		sts Left_Wrist+32,r24
 3216 1300 9093 0000 		sts Left_Wrist+32+1,r25
 3217 1304 A093 0000 		sts Left_Wrist+32+2,r26
 3218 1308 B093 0000 		sts Left_Wrist+32+3,r27
 3219               	.LM323:
 3220 130c 8985      		ldd r24,Y+9
 3221 130e 9A85      		ldd r25,Y+10
 3222               	.LVL206:
 3223               	.LBB134:
 3224               	.LBB135:
 3225               	.LM324:
 3226 1310 97FD      		sbrc r25,7
 3227 1312 00C0      		rjmp .L245
 3228 1314 61E0      		ldi r22,lo8(1)
 3229 1316 70E0      		ldi r23,hi8(1)
 3230 1318 1816      		cp __zero_reg__,r24
 3231 131a 1906      		cpc __zero_reg__,r25
 3232 131c 04F0      		brlt .L235
 3233 131e 60E0      		ldi r22,lo8(0)
 3234 1320 70E0      		ldi r23,hi8(0)
 3235 1322 00C0      		rjmp .L235
 3236               	.L245:
 3237 1324 6FEF      		ldi r22,lo8(-1)
 3238 1326 7FEF      		ldi r23,hi8(-1)
 3239               	.L235:
 3240               	.LBE135:
 3241               	.LBE134:
 3242               	.LM325:
 3243 1328 80E0      		ldi r24,lo8(Left_Wrist)
 3244 132a 90E0      		ldi r25,hi8(Left_Wrist)
 3245 132c 0E94 0000 		call stepOne
GAS LISTING /tmp/ccvyM2DX.s 			page 58


 3246               	.LVL207:
 3247               	.L234:
 3248               	.LBB136:
 3249               	.LBB137:
 3250               	.LM326:
 3251 1330 8091 0000 		lds r24,elapsedMillis
 3252 1334 9091 0000 		lds r25,elapsedMillis+1
 3253 1338 A091 0000 		lds r26,elapsedMillis+2
 3254 133c B091 0000 		lds r27,elapsedMillis+3
 3255               	.LBE137:
 3256               	.LBE136:
 3257               	.LM327:
 3258 1340 2091 0000 		lds r18,Gripper+32
 3259 1344 3091 0000 		lds r19,Gripper+32+1
 3260 1348 4091 0000 		lds r20,Gripper+32+2
 3261 134c 5091 0000 		lds r21,Gripper+32+3
 3262 1350 821B      		sub r24,r18
 3263 1352 930B      		sbc r25,r19
 3264 1354 A40B      		sbc r26,r20
 3265 1356 B50B      		sbc r27,r21
 3266 1358 2091 0000 		lds r18,Gripper+6
 3267 135c 3091 0000 		lds r19,Gripper+6+1
 3268 1360 4091 0000 		lds r20,Gripper+6+2
 3269 1364 5091 0000 		lds r21,Gripper+6+3
 3270 1368 8217      		cp r24,r18
 3271 136a 9307      		cpc r25,r19
 3272 136c A407      		cpc r26,r20
 3273 136e B507      		cpc r27,r21
 3274 1370 00F0      		brlo .L210
 3275               	.LBB138:
 3276               	.LBB139:
 3277               	.LM328:
 3278 1372 8091 0000 		lds r24,elapsedMillis
 3279 1376 9091 0000 		lds r25,elapsedMillis+1
 3280 137a A091 0000 		lds r26,elapsedMillis+2
 3281 137e B091 0000 		lds r27,elapsedMillis+3
 3282               	.LBE139:
 3283               	.LBE138:
 3284               	.LM329:
 3285 1382 8093 0000 		sts Gripper+32,r24
 3286 1386 9093 0000 		sts Gripper+32+1,r25
 3287 138a A093 0000 		sts Gripper+32+2,r26
 3288 138e B093 0000 		sts Gripper+32+3,r27
 3289               	.LM330:
 3290 1392 8B85      		ldd r24,Y+11
 3291 1394 9C85      		ldd r25,Y+12
 3292               	.LVL208:
 3293               	.LBB140:
 3294               	.LBB141:
 3295               	.LM331:
 3296 1396 97FD      		sbrc r25,7
 3297 1398 00C0      		rjmp .L246
 3298 139a 61E0      		ldi r22,lo8(1)
 3299 139c 70E0      		ldi r23,hi8(1)
 3300 139e 1816      		cp __zero_reg__,r24
 3301 13a0 1906      		cpc __zero_reg__,r25
 3302 13a2 04F0      		brlt .L238
GAS LISTING /tmp/ccvyM2DX.s 			page 59


 3303 13a4 60E0      		ldi r22,lo8(0)
 3304 13a6 70E0      		ldi r23,hi8(0)
 3305 13a8 00C0      		rjmp .L238
 3306               	.L246:
 3307 13aa 6FEF      		ldi r22,lo8(-1)
 3308 13ac 7FEF      		ldi r23,hi8(-1)
 3309               	.L238:
 3310               	.LBE141:
 3311               	.LBE140:
 3312               	.LM332:
 3313 13ae 80E0      		ldi r24,lo8(Gripper)
 3314 13b0 90E0      		ldi r25,hi8(Gripper)
 3315 13b2 0E94 0000 		call stepOne
 3316               	.LVL209:
 3317               	.L210:
 3318               	/* epilogue start */
 3319               	.LM333:
 3320 13b6 6496      		adiw r28,20
 3321 13b8 CDBF      		out __SP_L__,r28
 3322 13ba DEBF      		out __SP_H__,r29
 3323 13bc CF91      		pop r28
 3324 13be DF91      		pop r29
 3325 13c0 1F91      		pop r17
 3326 13c2 0F91      		pop r16
 3327 13c4 FF90      		pop r15
 3328 13c6 EF90      		pop r14
 3329 13c8 DF90      		pop r13
 3330 13ca CF90      		pop r12
 3331 13cc BF90      		pop r11
 3332 13ce AF90      		pop r10
 3333 13d0 9F90      		pop r9
 3334 13d2 8F90      		pop r8
 3335 13d4 7F90      		pop r7
 3336 13d6 6F90      		pop r6
 3337 13d8 5F90      		pop r5
 3338 13da 4F90      		pop r4
 3339 13dc 3F90      		pop r3
 3340 13de 2F90      		pop r2
 3341 13e0 0895      		ret
 3342               	.LFE32:
 3343               		.size	moveToGoal, .-moveToGoal
 3344               		.data
 3345               	.LC1:
 3346 0028 7265 6164 		.string	"ready"
 3346      7900 
 3347               	.LC2:
 3348 002e 6D6F 7669 		.string	"moving"
 3348      6E67 00
 3349               	.LC3:
 3350 0035 676F 7454 		.string	"gotThere"
 3350      6865 7265 
 3350      00
 3351               		.text
 3352               	.global	mainLoop
 3353               		.type	mainLoop, @function
 3354               	mainLoop:
 3355               	.LFB33:
GAS LISTING /tmp/ccvyM2DX.s 			page 60


 3356               	.LM334:
 3357 13e2 6F92      		push r6
 3358 13e4 7F92      		push r7
 3359 13e6 8F92      		push r8
 3360 13e8 9F92      		push r9
 3361 13ea AF92      		push r10
 3362 13ec BF92      		push r11
 3363 13ee CF92      		push r12
 3364 13f0 DF92      		push r13
 3365 13f2 EF92      		push r14
 3366 13f4 FF92      		push r15
 3367 13f6 0F93      		push r16
 3368 13f8 1F93      		push r17
 3369 13fa CF93      		push r28
 3370 13fc DF93      		push r29
 3371               	/* prologue: function */
 3372               	/* frame size = 0 */
 3373               	/* stack size = 14 */
 3374               	.L__stack_usage = 14
 3375               	.LM335:
 3376 13fe A2E0      		ldi r26,lo8(2)
 3377 1400 8A2E      		mov r8,r26
 3378 1402 912C      		mov r9,__zero_reg__
 3379               	.LBB142:
 3380               	.LM336:
 3381 1404 F3E0      		ldi r31,lo8(3)
 3382 1406 6F2E      		mov r6,r31
 3383 1408 712C      		mov r7,__zero_reg__
 3384               	.LBE142:
 3385               	.LBB143:
 3386               	.LBB144:
 3387               	.LM337:
 3388 140a E0E6      		ldi r30,lo8(60000)
 3389 140c EE2E      		mov r14,r30
 3390 140e EAEE      		ldi r30,hi8(60000)
 3391 1410 FE2E      		mov r15,r30
 3392 1412 012D      		mov r16,__zero_reg__
 3393 1414 112D      		mov r17,__zero_reg__
 3394 1416 74E1      		ldi r23,lo8(20)
 3395 1418 A72E      		mov r10,r23
 3396 141a B12C      		mov r11,__zero_reg__
 3397 141c C12C      		mov r12,__zero_reg__
 3398 141e D12C      		mov r13,__zero_reg__
 3399               	.L263:
 3400               	.LBE144:
 3401               	.LBE143:
 3402               	.LM338:
 3403 1420 8091 0000 		lds r24,state
 3404 1424 9091 0000 		lds r25,state+1
 3405 1428 0097      		sbiw r24,0
 3406 142a 01F4      		brne .+2
 3407 142c 00C0      		rjmp .L251
 3408               	.LM339:
 3409 142e 8130      		cpi r24,1
 3410 1430 9105      		cpc r25,__zero_reg__
 3411 1432 01F0      		breq .+2
 3412 1434 00C0      		rjmp .L252
GAS LISTING /tmp/ccvyM2DX.s 			page 61


 3413               	.LVL210:
 3414               	.LBB146:
 3415               	.LBB145:
 3416               	.LM340:
 3417 1436 2091 0000 		lds r18,Base+10
 3418 143a 3091 0000 		lds r19,Base+10+1
 3419 143e 4427      		clr r20
 3420 1440 37FD      		sbrc r19,7
 3421 1442 4095      		com r20
 3422 1444 542F      		mov r21,r20
 3423 1446 C801      		movw r24,r16
 3424 1448 B701      		movw r22,r14
 3425 144a 0E94 0000 		call __divmodsi4
 3426 144e CA01      		movw r24,r20
 3427 1450 B901      		movw r22,r18
 3428 1452 A601      		movw r20,r12
 3429 1454 9501      		movw r18,r10
 3430 1456 0E94 0000 		call __divmodsi4
 3431 145a 2093 0000 		sts Base+6,r18
 3432 145e 3093 0000 		sts Base+6+1,r19
 3433 1462 4093 0000 		sts Base+6+2,r20
 3434 1466 5093 0000 		sts Base+6+3,r21
 3435               	.LVL211:
 3436               	.LBE145:
 3437               	.LBE146:
 3438               	.LBB147:
 3439               	.LBB148:
 3440 146a 2091 0000 		lds r18,Shoulder+10
 3441 146e 3091 0000 		lds r19,Shoulder+10+1
 3442 1472 4427      		clr r20
 3443 1474 37FD      		sbrc r19,7
 3444 1476 4095      		com r20
 3445 1478 542F      		mov r21,r20
 3446 147a C801      		movw r24,r16
 3447 147c B701      		movw r22,r14
 3448 147e 0E94 0000 		call __divmodsi4
 3449 1482 CA01      		movw r24,r20
 3450 1484 B901      		movw r22,r18
 3451 1486 A601      		movw r20,r12
 3452 1488 9501      		movw r18,r10
 3453 148a 0E94 0000 		call __divmodsi4
 3454 148e 2093 0000 		sts Shoulder+6,r18
 3455 1492 3093 0000 		sts Shoulder+6+1,r19
 3456 1496 4093 0000 		sts Shoulder+6+2,r20
 3457 149a 5093 0000 		sts Shoulder+6+3,r21
 3458               	.LVL212:
 3459               	.LBE148:
 3460               	.LBE147:
 3461               	.LBB149:
 3462               	.LBB150:
 3463 149e 2091 0000 		lds r18,Elbow+10
 3464 14a2 3091 0000 		lds r19,Elbow+10+1
 3465 14a6 4427      		clr r20
 3466 14a8 37FD      		sbrc r19,7
 3467 14aa 4095      		com r20
 3468 14ac 542F      		mov r21,r20
 3469 14ae C801      		movw r24,r16
GAS LISTING /tmp/ccvyM2DX.s 			page 62


 3470 14b0 B701      		movw r22,r14
 3471 14b2 0E94 0000 		call __divmodsi4
 3472 14b6 CA01      		movw r24,r20
 3473 14b8 B901      		movw r22,r18
 3474 14ba A601      		movw r20,r12
 3475 14bc 9501      		movw r18,r10
 3476 14be 0E94 0000 		call __divmodsi4
 3477 14c2 2093 0000 		sts Elbow+6,r18
 3478 14c6 3093 0000 		sts Elbow+6+1,r19
 3479 14ca 4093 0000 		sts Elbow+6+2,r20
 3480 14ce 5093 0000 		sts Elbow+6+3,r21
 3481               	.LVL213:
 3482               	.LBE150:
 3483               	.LBE149:
 3484               	.LBB151:
 3485               	.LBB152:
 3486 14d2 2091 0000 		lds r18,Right_Wrist+10
 3487 14d6 3091 0000 		lds r19,Right_Wrist+10+1
 3488 14da 4427      		clr r20
 3489 14dc 37FD      		sbrc r19,7
 3490 14de 4095      		com r20
 3491 14e0 542F      		mov r21,r20
 3492 14e2 C801      		movw r24,r16
 3493 14e4 B701      		movw r22,r14
 3494 14e6 0E94 0000 		call __divmodsi4
 3495 14ea CA01      		movw r24,r20
 3496 14ec B901      		movw r22,r18
 3497 14ee A601      		movw r20,r12
 3498 14f0 9501      		movw r18,r10
 3499 14f2 0E94 0000 		call __divmodsi4
 3500 14f6 2093 0000 		sts Right_Wrist+6,r18
 3501 14fa 3093 0000 		sts Right_Wrist+6+1,r19
 3502 14fe 4093 0000 		sts Right_Wrist+6+2,r20
 3503 1502 5093 0000 		sts Right_Wrist+6+3,r21
 3504               	.LVL214:
 3505               	.LBE152:
 3506               	.LBE151:
 3507               	.LBB153:
 3508               	.LBB154:
 3509 1506 2091 0000 		lds r18,Left_Wrist+10
 3510 150a 3091 0000 		lds r19,Left_Wrist+10+1
 3511 150e 4427      		clr r20
 3512 1510 37FD      		sbrc r19,7
 3513 1512 4095      		com r20
 3514 1514 542F      		mov r21,r20
 3515 1516 C801      		movw r24,r16
 3516 1518 B701      		movw r22,r14
 3517 151a 0E94 0000 		call __divmodsi4
 3518 151e CA01      		movw r24,r20
 3519 1520 B901      		movw r22,r18
 3520 1522 A601      		movw r20,r12
 3521 1524 9501      		movw r18,r10
 3522 1526 0E94 0000 		call __divmodsi4
 3523 152a 2093 0000 		sts Left_Wrist+6,r18
 3524 152e 3093 0000 		sts Left_Wrist+6+1,r19
 3525 1532 4093 0000 		sts Left_Wrist+6+2,r20
 3526 1536 5093 0000 		sts Left_Wrist+6+3,r21
GAS LISTING /tmp/ccvyM2DX.s 			page 63


 3527               	.LVL215:
 3528               	.LBE154:
 3529               	.LBE153:
 3530               	.LBB155:
 3531               	.LBB156:
 3532 153a 2091 0000 		lds r18,Gripper+10
 3533 153e 3091 0000 		lds r19,Gripper+10+1
 3534 1542 4427      		clr r20
 3535 1544 37FD      		sbrc r19,7
 3536 1546 4095      		com r20
 3537 1548 542F      		mov r21,r20
 3538 154a C801      		movw r24,r16
 3539 154c B701      		movw r22,r14
 3540 154e 0E94 0000 		call __divmodsi4
 3541 1552 CA01      		movw r24,r20
 3542 1554 B901      		movw r22,r18
 3543 1556 A601      		movw r20,r12
 3544 1558 9501      		movw r18,r10
 3545 155a 0E94 0000 		call __divmodsi4
 3546 155e 2093 0000 		sts Gripper+6,r18
 3547 1562 3093 0000 		sts Gripper+6+1,r19
 3548 1566 4093 0000 		sts Gripper+6+2,r20
 3549 156a 5093 0000 		sts Gripper+6+3,r21
 3550               	.LBE156:
 3551               	.LBE155:
 3552               	.LM341:
 3553 156e 8091 6806 		lds r24,1640
 3554               	.LM342:
 3555 1572 1092 0000 		sts pose,__zero_reg__
 3556 1576 1092 0000 		sts pose+1,__zero_reg__
 3557               	.LM343:
 3558 157a 8091 6806 		lds r24,1640
 3559               	.LM344:
 3560 157e 1092 0000 		sts pose+2,__zero_reg__
 3561 1582 1092 0000 		sts pose+2+1,__zero_reg__
 3562               	.LM345:
 3563 1586 8091 8806 		lds r24,1672
 3564               	.LM346:
 3565 158a 1092 0000 		sts pose+4,__zero_reg__
 3566 158e 1092 0000 		sts pose+4+1,__zero_reg__
 3567               	.L254:
 3568               	.LBB157:
 3569               	.LBB158:
 3570               	.LM347:
 3571 1592 8091 0000 		lds r24,elapsedMillis
 3572 1596 9091 0000 		lds r25,elapsedMillis+1
 3573 159a A091 0000 		lds r26,elapsedMillis+2
 3574 159e B091 0000 		lds r27,elapsedMillis+3
 3575               	.LBE158:
 3576               	.LBE157:
 3577               	.LM348:
 3578 15a2 2091 0000 		lds r18,Gripper+32
 3579 15a6 3091 0000 		lds r19,Gripper+32+1
 3580 15aa 4091 0000 		lds r20,Gripper+32+2
 3581 15ae 5091 0000 		lds r21,Gripper+32+3
 3582 15b2 821B      		sub r24,r18
 3583 15b4 930B      		sbc r25,r19
GAS LISTING /tmp/ccvyM2DX.s 			page 64


 3584 15b6 A40B      		sbc r26,r20
 3585 15b8 B50B      		sbc r27,r21
 3586 15ba 2091 0000 		lds r18,Gripper+6
 3587 15be 3091 0000 		lds r19,Gripper+6+1
 3588 15c2 4091 0000 		lds r20,Gripper+6+2
 3589 15c6 5091 0000 		lds r21,Gripper+6+3
 3590 15ca 8217      		cp r24,r18
 3591 15cc 9307      		cpc r25,r19
 3592 15ce A407      		cpc r26,r20
 3593 15d0 B507      		cpc r27,r21
 3594 15d2 00F0      		brlo .L253
 3595               	.LBB159:
 3596               	.LBB160:
 3597               	.LM349:
 3598 15d4 8091 0000 		lds r24,elapsedMillis
 3599 15d8 9091 0000 		lds r25,elapsedMillis+1
 3600 15dc A091 0000 		lds r26,elapsedMillis+2
 3601 15e0 B091 0000 		lds r27,elapsedMillis+3
 3602               	.LBE160:
 3603               	.LBE159:
 3604               	.LM350:
 3605 15e4 8093 0000 		sts Gripper+32,r24
 3606 15e8 9093 0000 		sts Gripper+32+1,r25
 3607 15ec A093 0000 		sts Gripper+32+2,r26
 3608 15f0 B093 0000 		sts Gripper+32+3,r27
 3609               	.LM351:
 3610 15f4 80E0      		ldi r24,lo8(Gripper)
 3611 15f6 90E0      		ldi r25,hi8(Gripper)
 3612 15f8 61E0      		ldi r22,lo8(1)
 3613 15fa 70E0      		ldi r23,hi8(1)
 3614 15fc 0E94 0000 		call stepOne
 3615               	.L253:
 3616               	.LM352:
 3617 1600 8091 6806 		lds r24,1640
 3618 1604 84FD      		sbrc r24,4
 3619 1606 00C0      		rjmp .L254
 3620               	.LM353:
 3621 1608 CEE1      		ldi r28,lo8(30)
 3622 160a D0E0      		ldi r29,hi8(30)
 3623               	.L255:
 3624               	.LBB161:
 3625               	.LM354:
 3626 160c 8091 0000 		lds r24,Gripper+6
 3627 1610 9091 0000 		lds r25,Gripper+6+1
 3628 1614 0E94 0000 		call delay_ms
 3629               	.LM355:
 3630 1618 80E0      		ldi r24,lo8(Gripper)
 3631 161a 90E0      		ldi r25,hi8(Gripper)
 3632 161c 61E0      		ldi r22,lo8(1)
 3633 161e 70E0      		ldi r23,hi8(1)
 3634 1620 0E94 0000 		call stepOne
 3635 1624 2197      		sbiw r28,1
 3636               	.LM356:
 3637 1626 01F4      		brne .L255
 3638               	.LBE161:
 3639               	.LM357:
 3640 1628 1092 0000 		sts pose+10,__zero_reg__
GAS LISTING /tmp/ccvyM2DX.s 			page 65


 3641 162c 1092 0000 		sts pose+10+1,__zero_reg__
 3642               	.LM358:
 3643 1630 8091 8806 		lds r24,1672
 3644               	.LM359:
 3645 1634 1092 0000 		sts pose+6,__zero_reg__
 3646 1638 1092 0000 		sts pose+6+1,__zero_reg__
 3647               	.LM360:
 3648 163c 1092 0000 		sts pose+8,__zero_reg__
 3649 1640 1092 0000 		sts pose+8+1,__zero_reg__
 3650               	.LM361:
 3651 1644 80E0      		ldi r24,lo8(.LC1)
 3652 1646 90E0      		ldi r25,hi8(.LC1)
 3653 1648 00C0      		rjmp .L265
 3654               	.LVL216:
 3655               	.L252:
 3656               	.LM362:
 3657 164a 8230      		cpi r24,2
 3658 164c 9105      		cpc r25,__zero_reg__
 3659 164e 01F4      		brne .L257
 3660               	.LBB162:
 3661               	.LM363:
 3662 1650 0E94 0000 		call update
 3663               	.LM364:
 3664 1654 80E0      		ldi r24,lo8(pose)
 3665 1656 90E0      		ldi r25,hi8(pose)
 3666 1658 60E0      		ldi r22,lo8(goal)
 3667 165a 70E0      		ldi r23,hi8(goal)
 3668 165c 0E94 0000 		call compareArray
 3669 1660 0097      		sbiw r24,0
 3670 1662 01F0      		breq .+2
 3671 1664 00C0      		rjmp .L263
 3672               	.LM365:
 3673 1666 6092 0000 		sts state,r6
 3674 166a 7092 0000 		sts state+1,r7
 3675               	.LM366:
 3676 166e 80E0      		ldi r24,lo8(.LC2)
 3677 1670 90E0      		ldi r25,hi8(.LC2)
 3678 1672 0E94 0000 		call puts
 3679 1676 00C0      		rjmp .L263
 3680               	.L257:
 3681               	.LBE162:
 3682               	.LM367:
 3683 1678 8330      		cpi r24,3
 3684 167a 9105      		cpc r25,__zero_reg__
 3685 167c 01F0      		breq .+2
 3686 167e 00C0      		rjmp .L263
 3687               	.LM368:
 3688 1680 80E0      		ldi r24,lo8(pose)
 3689 1682 90E0      		ldi r25,hi8(pose)
 3690 1684 60E0      		ldi r22,lo8(goal)
 3691 1686 70E0      		ldi r23,hi8(goal)
 3692 1688 0E94 0000 		call compareArray
 3693 168c 0097      		sbiw r24,0
 3694 168e 01F4      		brne .L258
 3695               	.LM369:
 3696 1690 0E94 0000 		call moveToGoal
 3697 1694 00C0      		rjmp .L263
GAS LISTING /tmp/ccvyM2DX.s 			page 66


 3698               	.L258:
 3699               	.LM370:
 3700 1696 80E0      		ldi r24,lo8(.LC3)
 3701 1698 90E0      		ldi r25,hi8(.LC3)
 3702               	.L265:
 3703 169a 0E94 0000 		call puts
 3704               	.LM371:
 3705 169e 8092 0000 		sts state,r8
 3706 16a2 9092 0000 		sts state+1,r9
 3707 16a6 00C0      		rjmp .L263
 3708               	.L251:
 3709               	.L264:
 3710 16a8 00C0      		rjmp .L264
 3711               	.LFE33:
 3712               		.size	mainLoop, .-mainLoop
 3713               	.global	init
 3714               		.type	init, @function
 3715               	init:
 3716               	.LFB35:
 3717               	.LM372:
 3718               	/* prologue: function */
 3719               	/* frame size = 0 */
 3720               	/* stack size = 0 */
 3721               	.L__stack_usage = 0
 3722               	.LM373:
 3723 16aa 0E94 0000 		call Config32MHzClock
 3724               	.LM374:
 3725 16ae E0E0      		ldi r30,lo8(2048)
 3726 16b0 F8E0      		ldi r31,hi8(2048)
 3727 16b2 80EA      		ldi r24,lo8(4000)
 3728 16b4 9FE0      		ldi r25,hi8(4000)
 3729 16b6 86A3      		std Z+38,r24
 3730 16b8 97A3      		std Z+39,r25
 3731               	.LM375:
 3732 16ba 8081      		ld r24,Z
 3733 16bc 807F      		andi r24,lo8(-16)
 3734 16be 8460      		ori r24,lo8(4)
 3735 16c0 8083      		st Z,r24
 3736               	.LM376:
 3737 16c2 8681      		ldd r24,Z+6
 3738 16c4 8360      		ori r24,lo8(3)
 3739 16c6 8683      		std Z+6,r24
 3740               	.LM377:
 3741 16c8 E0EA      		ldi r30,lo8(160)
 3742 16ca F0E0      		ldi r31,hi8(160)
 3743 16cc 8281      		ldd r24,Z+2
 3744 16ce 8460      		ori r24,lo8(4)
 3745 16d0 8283      		std Z+2,r24
 3746               	.LM378:
 3747               	/* #APP */
 3748               	 ;  784 "main.c" 1
 3749 16d2 7894      		sei
 3750               	 ;  0 "" 2
 3751               	.LM379:
 3752               	/* #NOAPP */
 3753 16d4 E0E0      		ldi r30,lo8(1536)
 3754 16d6 F6E0      		ldi r31,hi8(1536)
GAS LISTING /tmp/ccvyM2DX.s 			page 67


 3755 16d8 8181      		ldd r24,Z+1
 3756 16da 8FEF      		ldi r24,lo8(-1)
 3757 16dc 8183      		std Z+1,r24
 3758               	.LM380:
 3759 16de E0E2      		ldi r30,lo8(1568)
 3760 16e0 F6E0      		ldi r31,hi8(1568)
 3761 16e2 9181      		ldd r25,Z+1
 3762 16e4 8183      		std Z+1,r24
 3763               	.LM381:
 3764 16e6 E0E4      		ldi r30,lo8(1600)
 3765 16e8 F6E0      		ldi r31,hi8(1600)
 3766 16ea 9181      		ldd r25,Z+1
 3767 16ec 8183      		std Z+1,r24
 3768               	.LM382:
 3769 16ee E0E6      		ldi r30,lo8(1632)
 3770 16f0 F6E0      		ldi r31,hi8(1632)
 3771 16f2 8181      		ldd r24,Z+1
 3772 16f4 8F60      		ori r24,lo8(15)
 3773 16f6 8183      		std Z+1,r24
 3774               	.LM383:
 3775 16f8 88E1      		ldi r24,lo8(24)
 3776 16fa 848B      		std Z+20,r24
 3777               	.LM384:
 3778 16fc 858B      		std Z+21,r24
 3779               	.LM385:
 3780 16fe A0E8      		ldi r26,lo8(1664)
 3781 1700 B6E0      		ldi r27,hi8(1664)
 3782 1702 5196      		adiw r26,17
 3783 1704 8C93      		st X,r24
 3784 1706 5197      		sbiw r26,17
 3785               	.LM386:
 3786 1708 5296      		adiw r26,18
 3787 170a 8C93      		st X,r24
 3788 170c 5297      		sbiw r26,18
 3789               	.LM387:
 3790 170e 5396      		adiw r26,19
 3791 1710 8C93      		st X,r24
 3792 1712 5397      		sbiw r26,19
 3793               	.LBB163:
 3794               	.LBB164:
 3795               	.LM388:
 3796 1714 90E8      		ldi r25,lo8(-128)
 3797 1716 9583      		std Z+5,r25
 3798               	.LM389:
 3799 1718 9183      		std Z+1,r25
 3800               	.LM390:
 3801 171a E0EB      		ldi r30,lo8(2480)
 3802 171c F9E0      		ldi r31,hi8(2480)
 3803 171e 1782      		std Z+7,__zero_reg__
 3804               	.LM391:
 3805 1720 93E3      		ldi r25,lo8(51)
 3806 1722 9683      		std Z+6,r25
 3807               	.LM392:
 3808 1724 1382      		std Z+3,__zero_reg__
 3809               	.LM393:
 3810 1726 93E0      		ldi r25,lo8(3)
 3811 1728 9583      		std Z+5,r25
GAS LISTING /tmp/ccvyM2DX.s 			page 68


 3812               	.LM394:
 3813 172a 8483      		std Z+4,r24
 3814               	/* epilogue start */
 3815               	.LBE164:
 3816               	.LBE163:
 3817               	.LM395:
 3818 172c 0895      		ret
 3819               	.LFE35:
 3820               		.size	init, .-init
 3821               		.data
 3822               	.LC4:
 3823 003e 4C45 5453 		.string	"LETSDOTHIS"
 3823      444F 5448 
 3823      4953 00
 3824               		.text
 3825               	.global	main
 3826               		.type	main, @function
 3827               	main:
 3828               	.LFB36:
 3829               	.LM396:
 3830               	/* prologue: function */
 3831               	/* frame size = 0 */
 3832               	/* stack size = 0 */
 3833               	.L__stack_usage = 0
 3834               	.LM397:
 3835 172e 0E94 0000 		call init
 3836               	.LM398:
 3837 1732 80E0      		ldi r24,lo8(mystdout)
 3838 1734 90E0      		ldi r25,hi8(mystdout)
 3839 1736 8093 0000 		sts __iob+2,r24
 3840 173a 9093 0000 		sts __iob+2+1,r25
 3841               	.LM399:
 3842 173e 80E0      		ldi r24,lo8(.LC4)
 3843 1740 90E0      		ldi r25,hi8(.LC4)
 3844 1742 0E94 0000 		call puts
 3845               	.LM400:
 3846 1746 0E94 0000 		call mainLoop
 3847               	.LM401:
 3848 174a 80E0      		ldi r24,lo8(0)
 3849 174c 90E0      		ldi r25,hi8(0)
 3850               	/* epilogue start */
 3851 174e 0895      		ret
 3852               	.LFE36:
 3853               		.size	main, .-main
 3854               	.global	uart_getchar
 3855               		.type	uart_getchar, @function
 3856               	uart_getchar:
 3857               	.LFB38:
 3858               	.LM402:
 3859               	/* prologue: function */
 3860               	/* frame size = 0 */
 3861               	/* stack size = 0 */
 3862               	.L__stack_usage = 0
 3863               	.L269:
 3864               	.LM403:
 3865 1750 8091 B109 		lds r24,2481
 3866 1754 87FF      		sbrs r24,7
GAS LISTING /tmp/ccvyM2DX.s 			page 69


 3867 1756 00C0      		rjmp .L269
 3868               	.LM404:
 3869 1758 81E0      		ldi r24,lo8(1)
 3870 175a E0E8      		ldi r30,lo8(1664)
 3871 175c F6E0      		ldi r31,hi8(1664)
 3872 175e 8683      		std Z+6,r24
 3873               	.LM405:
 3874 1760 8091 B009 		lds r24,2480
 3875               	.LM406:
 3876 1764 90E0      		ldi r25,lo8(0)
 3877               	/* epilogue start */
 3878 1766 0895      		ret
 3879               	.LFE38:
 3880               		.size	uart_getchar, .-uart_getchar
 3881               		.data
 3882               	.LC5:
 3883 0049 6769 6D6D 		.string	"gimme"
 3883      6500 
 3884               	.LC6:
 3885 004f 2D2D 2D2D 		.string	"-----------------newVals------------------"
 3885      2D2D 2D2D 
 3885      2D2D 2D2D 
 3885      2D2D 2D2D 
 3885      2D6E 6577 
 3886               		.text
 3887               	.global	update
 3888               		.type	update, @function
 3889               	update:
 3890               	.LFB34:
 3891               	.LM407:
 3892 1768 EF92      		push r14
 3893 176a FF92      		push r15
 3894 176c 0F93      		push r16
 3895 176e 1F93      		push r17
 3896 1770 DF93      		push r29
 3897 1772 CF93      		push r28
 3898 1774 CDB7      		in r28,__SP_L__
 3899 1776 DEB7      		in r29,__SP_H__
 3900 1778 2C97      		sbiw r28,12
 3901 177a CDBF      		out __SP_L__,r28
 3902 177c DEBF      		out __SP_H__,r29
 3903               	/* prologue: function */
 3904               	/* frame size = 12 */
 3905               	/* stack size = 18 */
 3906               	.L__stack_usage = 18
 3907               	.LM408:
 3908 177e 80E0      		ldi r24,lo8(.LC5)
 3909 1780 90E0      		ldi r25,hi8(.LC5)
 3910 1782 0E94 0000 		call puts
 3911               	.LM409:
 3912 1786 FE01      		movw r30,r28
 3913 1788 3196      		adiw r30,1
 3914 178a 8CE0      		ldi r24,lo8(12)
 3915 178c DF01      		movw r26,r30
 3916 178e 1D92      		st X+,__zero_reg__
 3917 1790 8A95      	        dec r24
 3918 1792 01F4      		brne .-6
GAS LISTING /tmp/ccvyM2DX.s 			page 70


 3919               	.LVL217:
 3920 1794 8F01      		movw r16,r30
 3921               	.LM410:
 3922 1796 7DE0      		ldi r23,lo8(13)
 3923 1798 E72E      		mov r14,r23
 3924 179a F12C      		mov r15,__zero_reg__
 3925 179c EC0E      		add r14,r28
 3926 179e FD1E      		adc r15,r29
 3927               	.LVL218:
 3928               	.L276:
 3929               	.LBB165:
 3930               	.LM411:
 3931 17a0 0E94 0000 		call uart_getchar
 3932               	.LVL219:
 3933               	.LM412:
 3934 17a4 8C32      		cpi r24,44
 3935 17a6 9105      		cpc r25,__zero_reg__
 3936 17a8 01F0      		breq .L273
 3937               	.LM413:
 3938 17aa 8A30      		cpi r24,10
 3939 17ac 9105      		cpc r25,__zero_reg__
 3940 17ae 01F0      		breq .L273
 3941               	.LM414:
 3942 17b0 F801      		movw r30,r16
 3943 17b2 4081      		ld r20,Z
 3944 17b4 5181      		ldd r21,Z+1
 3945 17b6 9A01      		movw r18,r20
 3946 17b8 220F      		lsl r18
 3947 17ba 331F      		rol r19
 3948 17bc B3E0      		ldi r27,3
 3949 17be 440F      	1:	lsl r20
 3950 17c0 551F      		rol r21
 3951 17c2 BA95      		dec r27
 3952 17c4 01F4      		brne 1b
 3953 17c6 240F      		add r18,r20
 3954 17c8 351F      		adc r19,r21
 3955 17ca 2053      		subi r18,lo8(-(-48))
 3956 17cc 3040      		sbci r19,hi8(-(-48))
 3957 17ce 280F      		add r18,r24
 3958 17d0 391F      		adc r19,r25
 3959 17d2 2083      		st Z,r18
 3960 17d4 3183      		std Z+1,r19
 3961               	.LBE165:
 3962               	.LM415:
 3963 17d6 00C0      		rjmp .L276
 3964               	.L273:
 3965 17d8 0E5F      		subi r16,lo8(-(2))
 3966 17da 1F4F      		sbci r17,hi8(-(2))
 3967               	.LM416:
 3968 17dc 0E15      		cp r16,r14
 3969 17de 1F05      		cpc r17,r15
 3970 17e0 01F4      		brne .L276
 3971               	.LM417:
 3972 17e2 80E0      		ldi r24,lo8(.LC6)
 3973 17e4 90E0      		ldi r25,hi8(.LC6)
 3974               	.LVL220:
 3975 17e6 0E94 0000 		call puts
GAS LISTING /tmp/ccvyM2DX.s 			page 71


 3976               	.LM418:
 3977 17ea 6B81      		ldd r22,Y+3
 3978 17ec 7C81      		ldd r23,Y+4
 3979 17ee 4D81      		ldd r20,Y+5
 3980 17f0 5E81      		ldd r21,Y+6
 3981 17f2 2F81      		ldd r18,Y+7
 3982 17f4 3885      		ldd r19,Y+8
 3983 17f6 0985      		ldd r16,Y+9
 3984 17f8 1A85      		ldd r17,Y+10
 3985 17fa EB84      		ldd r14,Y+11
 3986 17fc FC84      		ldd r15,Y+12
 3987 17fe 8981      		ldd r24,Y+1
 3988 1800 9A81      		ldd r25,Y+2
 3989 1802 0E94 0000 		call changeGoal
 3990               	/* epilogue start */
 3991               	.LM419:
 3992 1806 2C96      		adiw r28,12
 3993 1808 CDBF      		out __SP_L__,r28
 3994 180a DEBF      		out __SP_H__,r29
 3995 180c CF91      		pop r28
 3996 180e DF91      		pop r29
 3997 1810 1F91      		pop r17
 3998 1812 0F91      		pop r16
 3999 1814 FF90      		pop r15
 4000 1816 EF90      		pop r14
 4001 1818 0895      		ret
 4002               	.LFE34:
 4003               		.size	update, .-update
 4004               	.global	state
 4005               		.data
 4006               		.type	state, @object
 4007               		.size	state, 2
 4008               	state:
 4009 007a 0100      		.word	1
 4010               	.global	debugFlag
 4011               	.global	debugFlag
 4012               		.section .bss
 4013               		.type	debugFlag, @object
 4014               		.size	debugFlag, 2
 4015               	debugFlag:
 4016 0000 0000      		.skip 2,0
 4017               	.global	goal
 4018               	.global	goal
 4019               		.type	goal, @object
 4020               		.size	goal, 12
 4021               	goal:
 4022 0002 0000 0000 		.skip 12,0
 4022      0000 0000 
 4022      0000 0000 
 4023               	.global	pose
 4024               	.global	pose
 4025               		.type	pose, @object
 4026               		.size	pose, 12
 4027               	pose:
 4028 000e 0000 0000 		.skip 12,0
 4028      0000 0000 
 4028      0000 0000 
GAS LISTING /tmp/ccvyM2DX.s 			page 72


 4029               	.global	elapsedMillis
 4030               	.global	elapsedMillis
 4031               		.type	elapsedMillis, @object
 4032               		.size	elapsedMillis, 4
 4033               	elapsedMillis:
 4034 001a 0000 0000 		.skip 4,0
 4035               	.global	Base
 4036               		.data
 4037               		.type	Base, @object
 4038               		.size	Base, 36
 4039               	Base:
 4040 007c 0100      		.word	1
 4041 007e 0100      		.word	1
 4042 0080 2800      		.word	40
 4043 0082 0A        		.byte	10
 4044 0083 00        		.byte	0
 4045 0084 00        		.byte	0
 4046 0085 00        		.byte	0
 4047 0086 6400      		.word	100
 4048 0088 0400      		.word	4
 4049 008a 0000      		.word	0
 4050 008c AEFC      		.word	-850
 4051 008e 5203      		.word	850
 4052 0090 41        		.byte	65
 4053 0091 0000      		.word	0
 4054 0093 41        		.byte	65
 4055 0094 0100      		.word	1
 4056 0096 41        		.byte	65
 4057 0097 0200      		.word	2
 4058 0099 41        		.byte	65
 4059 009a 0300      		.word	3
 4060 009c 0000 0000 		.skip 4,0
 4061               	.global	Shoulder
 4062               		.type	Shoulder, @object
 4063               		.size	Shoulder, 36
 4064               	Shoulder:
 4065 00a0 0200      		.word	2
 4066 00a2 0100      		.word	1
 4067 00a4 2800      		.word	40
 4068 00a6 0A        		.byte	10
 4069 00a7 00        		.byte	0
 4070 00a8 00        		.byte	0
 4071 00a9 00        		.byte	0
 4072 00aa 6400      		.word	100
 4073 00ac 0400      		.word	4
 4074 00ae 0000      		.word	0
 4075 00b0 0000      		.word	0
 4076 00b2 56FA      		.word	-1450
 4077 00b4 41        		.byte	65
 4078 00b5 0400      		.word	4
 4079 00b7 41        		.byte	65
 4080 00b8 0500      		.word	5
 4081 00ba 41        		.byte	65
 4082 00bb 0600      		.word	6
 4083 00bd 41        		.byte	65
 4084 00be 0700      		.word	7
 4085 00c0 0000 0000 		.skip 4,0
GAS LISTING /tmp/ccvyM2DX.s 			page 73


 4086               	.global	Elbow
 4087               		.type	Elbow, @object
 4088               		.size	Elbow, 36
 4089               	Elbow:
 4090 00c4 0300      		.word	3
 4091 00c6 0100      		.word	1
 4092 00c8 2800      		.word	40
 4093 00ca 0A        		.byte	10
 4094 00cb 00        		.byte	0
 4095 00cc 00        		.byte	0
 4096 00cd 00        		.byte	0
 4097 00ce 6400      		.word	100
 4098 00d0 0400      		.word	4
 4099 00d2 0000      		.word	0
 4100 00d4 0000      		.word	0
 4101 00d6 AA05      		.word	1450
 4102 00d8 42        		.byte	66
 4103 00d9 0000      		.word	0
 4104 00db 42        		.byte	66
 4105 00dc 0100      		.word	1
 4106 00de 42        		.byte	66
 4107 00df 0200      		.word	2
 4108 00e1 42        		.byte	66
 4109 00e2 0300      		.word	3
 4110 00e4 0000 0000 		.skip 4,0
 4111               	.global	Right_Wrist
 4112               		.type	Right_Wrist, @object
 4113               		.size	Right_Wrist, 36
 4114               	Right_Wrist:
 4115 00e8 0400      		.word	4
 4116 00ea 0100      		.word	1
 4117 00ec 2800      		.word	40
 4118 00ee 0A        		.byte	10
 4119 00ef 00        		.byte	0
 4120 00f0 00        		.byte	0
 4121 00f1 00        		.byte	0
 4122 00f2 6400      		.word	100
 4123 00f4 0400      		.word	4
 4124 00f6 0000      		.word	0
 4125 00f8 C800      		.word	200
 4126 00fa 38FF      		.word	-200
 4127 00fc 43        		.byte	67
 4128 00fd 0000      		.word	0
 4129 00ff 43        		.byte	67
 4130 0100 0100      		.word	1
 4131 0102 43        		.byte	67
 4132 0103 0200      		.word	2
 4133 0105 43        		.byte	67
 4134 0106 0300      		.word	3
 4135 0108 0000 0000 		.skip 4,0
 4136               	.global	Left_Wrist
 4137               		.type	Left_Wrist, @object
 4138               		.size	Left_Wrist, 36
 4139               	Left_Wrist:
 4140 010c 0500      		.word	5
 4141 010e 0100      		.word	1
 4142 0110 2800      		.word	40
GAS LISTING /tmp/ccvyM2DX.s 			page 74


 4143 0112 0A        		.byte	10
 4144 0113 00        		.byte	0
 4145 0114 00        		.byte	0
 4146 0115 00        		.byte	0
 4147 0116 6400      		.word	100
 4148 0118 0400      		.word	4
 4149 011a 0000      		.word	0
 4150 011c 38FF      		.word	-200
 4151 011e C800      		.word	200
 4152 0120 43        		.byte	67
 4153 0121 0400      		.word	4
 4154 0123 43        		.byte	67
 4155 0124 0500      		.word	5
 4156 0126 43        		.byte	67
 4157 0127 0600      		.word	6
 4158 0129 43        		.byte	67
 4159 012a 0700      		.word	7
 4160 012c 0000 0000 		.skip 4,0
 4161               	.global	Gripper
 4162               		.type	Gripper, @object
 4163               		.size	Gripper, 36
 4164               	Gripper:
 4165 0130 0600      		.word	6
 4166 0132 0100      		.word	1
 4167 0134 2800      		.word	40
 4168 0136 0A        		.byte	10
 4169 0137 00        		.byte	0
 4170 0138 00        		.byte	0
 4171 0139 00        		.byte	0
 4172 013a 6400      		.word	100
 4173 013c 0400      		.word	4
 4174 013e 0000      		.word	0
 4175 0140 0000      		.word	0
 4176 0142 2003      		.word	800
 4177 0144 44        		.byte	68
 4178 0145 0000      		.word	0
 4179 0147 44        		.byte	68
 4180 0148 0100      		.word	1
 4181 014a 44        		.byte	68
 4182 014b 0200      		.word	2
 4183 014d 44        		.byte	68
 4184 014e 0300      		.word	3
 4185 0150 0000 0000 		.skip 4,0
 4186               		.type	mystdout, @object
 4187               		.size	mystdout, 14
 4188               	mystdout:
 4189 0154 0000 00   		.skip 3,0
 4190 0157 02        		.byte	2
 4191 0158 0000 0000 		.skip 4,0
 4192 015c 0000      		.word	gs(uart_putchar)
 4193 015e 0000      		.word	0
 4194 0160 0000      		.word	0
 4195               		.section	.debug_frame,"",@progbits
 4196               	.Lframe0:
 4197 0000 0C00 0000 		.long	.LECIE0-.LSCIE0
 4198               	.LSCIE0:
 4199 0004 FFFF FFFF 		.long	0xffffffff
GAS LISTING /tmp/ccvyM2DX.s 			page 75


 4200 0008 01        		.byte	0x1
 4201 0009 00        		.string	""
 4202 000a 01        		.uleb128 0x1
 4203 000b 7F        		.sleb128 -1
 4204 000c 24        		.byte	0x24
 4205 000d 0C        		.byte	0xc
 4206 000e 20        		.uleb128 0x20
 4207 000f 00        		.uleb128 0x0
 4208               		.p2align	2
 4209               	.LECIE0:
 4210               	.LSFDE0:
 4211 0010 0C00 0000 		.long	.LEFDE0-.LASFDE0
 4212               	.LASFDE0:
 4213 0014 0000 0000 		.long	.Lframe0
 4214 0018 0000 0000 		.long	.LFB37
 4215 001c 2200 0000 		.long	.LFE37-.LFB37
 4216               		.p2align	2
 4217               	.LEFDE0:
 4218               	.LSFDE2:
 4219 0020 0C00 0000 		.long	.LEFDE2-.LASFDE2
 4220               	.LASFDE2:
 4221 0024 0000 0000 		.long	.Lframe0
 4222 0028 0000 0000 		.long	.LFB7
 4223 002c 2A00 0000 		.long	.LFE7-.LFB7
 4224               		.p2align	2
 4225               	.LEFDE2:
 4226               	.LSFDE4:
 4227 0030 0C00 0000 		.long	.LEFDE4-.LASFDE4
 4228               	.LASFDE4:
 4229 0034 0000 0000 		.long	.Lframe0
 4230 0038 0000 0000 		.long	.LFB8
 4231 003c 1600 0000 		.long	.LFE8-.LFB8
 4232               		.p2align	2
 4233               	.LEFDE4:
 4234               	.LSFDE6:
 4235 0040 0C00 0000 		.long	.LEFDE6-.LASFDE6
 4236               	.LASFDE6:
 4237 0044 0000 0000 		.long	.Lframe0
 4238 0048 0000 0000 		.long	.LFB9
 4239 004c 0C00 0000 		.long	.LFE9-.LFB9
 4240               		.p2align	2
 4241               	.LEFDE6:
 4242               	.LSFDE8:
 4243 0050 0C00 0000 		.long	.LEFDE8-.LASFDE8
 4244               	.LASFDE8:
 4245 0054 0000 0000 		.long	.Lframe0
 4246 0058 0000 0000 		.long	.LFB10
 4247 005c 1400 0000 		.long	.LFE10-.LFB10
 4248               		.p2align	2
 4249               	.LEFDE8:
 4250               	.LSFDE10:
 4251 0060 0C00 0000 		.long	.LEFDE10-.LASFDE10
 4252               	.LASFDE10:
 4253 0064 0000 0000 		.long	.Lframe0
 4254 0068 0000 0000 		.long	.LFB11
 4255 006c 0C00 0000 		.long	.LFE11-.LFB11
 4256               		.p2align	2
GAS LISTING /tmp/ccvyM2DX.s 			page 76


 4257               	.LEFDE10:
 4258               	.LSFDE12:
 4259 0070 0C00 0000 		.long	.LEFDE12-.LASFDE12
 4260               	.LASFDE12:
 4261 0074 0000 0000 		.long	.Lframe0
 4262 0078 0000 0000 		.long	.LFB12
 4263 007c 2600 0000 		.long	.LFE12-.LFB12
 4264               		.p2align	2
 4265               	.LEFDE12:
 4266               	.LSFDE14:
 4267 0080 0C00 0000 		.long	.LEFDE14-.LASFDE14
 4268               	.LASFDE14:
 4269 0084 0000 0000 		.long	.Lframe0
 4270 0088 0000 0000 		.long	.LFB13
 4271 008c 1000 0000 		.long	.LFE13-.LFB13
 4272               		.p2align	2
 4273               	.LEFDE14:
 4274               	.LSFDE16:
 4275 0090 0C00 0000 		.long	.LEFDE16-.LASFDE16
 4276               	.LASFDE16:
 4277 0094 0000 0000 		.long	.Lframe0
 4278 0098 0000 0000 		.long	.LFB14
 4279 009c 3A00 0000 		.long	.LFE14-.LFB14
 4280               		.p2align	2
 4281               	.LEFDE16:
 4282               	.LSFDE18:
 4283 00a0 0C00 0000 		.long	.LEFDE18-.LASFDE18
 4284               	.LASFDE18:
 4285 00a4 0000 0000 		.long	.Lframe0
 4286 00a8 0000 0000 		.long	.LFB15
 4287 00ac 0C00 0000 		.long	.LFE15-.LFB15
 4288               		.p2align	2
 4289               	.LEFDE18:
 4290               	.LSFDE20:
 4291 00b0 0C00 0000 		.long	.LEFDE20-.LASFDE20
 4292               	.LASFDE20:
 4293 00b4 0000 0000 		.long	.Lframe0
 4294 00b8 0000 0000 		.long	.LFB16
 4295 00bc 0C00 0000 		.long	.LFE16-.LFB16
 4296               		.p2align	2
 4297               	.LEFDE20:
 4298               	.LSFDE22:
 4299 00c0 0C00 0000 		.long	.LEFDE22-.LASFDE22
 4300               	.LASFDE22:
 4301 00c4 0000 0000 		.long	.Lframe0
 4302 00c8 0000 0000 		.long	.LFB17
 4303 00cc 4A00 0000 		.long	.LFE17-.LFB17
 4304               		.p2align	2
 4305               	.LEFDE22:
 4306               	.LSFDE24:
 4307 00d0 0C00 0000 		.long	.LEFDE24-.LASFDE24
 4308               	.LASFDE24:
 4309 00d4 0000 0000 		.long	.Lframe0
 4310 00d8 0000 0000 		.long	.LFB18
 4311 00dc 1C00 0000 		.long	.LFE18-.LFB18
 4312               		.p2align	2
 4313               	.LEFDE24:
GAS LISTING /tmp/ccvyM2DX.s 			page 77


 4314               	.LSFDE26:
 4315 00e0 0C00 0000 		.long	.LEFDE26-.LASFDE26
 4316               	.LASFDE26:
 4317 00e4 0000 0000 		.long	.Lframe0
 4318 00e8 0000 0000 		.long	.LFB19
 4319 00ec 7A00 0000 		.long	.LFE19-.LFB19
 4320               		.p2align	2
 4321               	.LEFDE26:
 4322               	.LSFDE28:
 4323 00f0 0C00 0000 		.long	.LEFDE28-.LASFDE28
 4324               	.LASFDE28:
 4325 00f4 0000 0000 		.long	.Lframe0
 4326 00f8 0000 0000 		.long	.LFB20
 4327 00fc 1C00 0000 		.long	.LFE20-.LFB20
 4328               		.p2align	2
 4329               	.LEFDE28:
 4330               	.LSFDE30:
 4331 0100 0C00 0000 		.long	.LEFDE30-.LASFDE30
 4332               	.LASFDE30:
 4333 0104 0000 0000 		.long	.Lframe0
 4334 0108 0000 0000 		.long	.LFB21
 4335 010c 1E00 0000 		.long	.LFE21-.LFB21
 4336               		.p2align	2
 4337               	.LEFDE30:
 4338               	.LSFDE32:
 4339 0110 0C00 0000 		.long	.LEFDE32-.LASFDE32
 4340               	.LASFDE32:
 4341 0114 0000 0000 		.long	.Lframe0
 4342 0118 0000 0000 		.long	.LFB22
 4343 011c 1600 0000 		.long	.LFE22-.LFB22
 4344               		.p2align	2
 4345               	.LEFDE32:
 4346               	.LSFDE34:
 4347 0120 0C00 0000 		.long	.LEFDE34-.LASFDE34
 4348               	.LASFDE34:
 4349 0124 0000 0000 		.long	.Lframe0
 4350 0128 0000 0000 		.long	.LFB23
 4351 012c 3200 0000 		.long	.LFE23-.LFB23
 4352               		.p2align	2
 4353               	.LEFDE34:
 4354               	.LSFDE36:
 4355 0130 0C00 0000 		.long	.LEFDE36-.LASFDE36
 4356               	.LASFDE36:
 4357 0134 0000 0000 		.long	.Lframe0
 4358 0138 0000 0000 		.long	.LFB24
 4359 013c 2A00 0000 		.long	.LFE24-.LFB24
 4360               		.p2align	2
 4361               	.LEFDE36:
 4362               	.LSFDE38:
 4363 0140 0C00 0000 		.long	.LEFDE38-.LASFDE38
 4364               	.LASFDE38:
 4365 0144 0000 0000 		.long	.Lframe0
 4366 0148 0000 0000 		.long	.LFB25
 4367 014c 4E01 0000 		.long	.LFE25-.LFB25
 4368               		.p2align	2
 4369               	.LEFDE38:
 4370               	.LSFDE40:
GAS LISTING /tmp/ccvyM2DX.s 			page 78


 4371 0150 0C00 0000 		.long	.LEFDE40-.LASFDE40
 4372               	.LASFDE40:
 4373 0154 0000 0000 		.long	.Lframe0
 4374 0158 0000 0000 		.long	.LFB26
 4375 015c 4E01 0000 		.long	.LFE26-.LFB26
 4376               		.p2align	2
 4377               	.LEFDE40:
 4378               	.LSFDE42:
 4379 0160 0C00 0000 		.long	.LEFDE42-.LASFDE42
 4380               	.LASFDE42:
 4381 0164 0000 0000 		.long	.Lframe0
 4382 0168 0000 0000 		.long	.LFB27
 4383 016c 4C00 0000 		.long	.LFE27-.LFB27
 4384               		.p2align	2
 4385               	.LEFDE42:
 4386               	.LSFDE44:
 4387 0170 0C00 0000 		.long	.LEFDE44-.LASFDE44
 4388               	.LASFDE44:
 4389 0174 0000 0000 		.long	.Lframe0
 4390 0178 0000 0000 		.long	.LFB28
 4391 017c 1A01 0000 		.long	.LFE28-.LFB28
 4392               		.p2align	2
 4393               	.LEFDE44:
 4394               	.LSFDE46:
 4395 0180 0C00 0000 		.long	.LEFDE46-.LASFDE46
 4396               	.LASFDE46:
 4397 0184 0000 0000 		.long	.Lframe0
 4398 0188 0000 0000 		.long	.LFB29
 4399 018c 1C02 0000 		.long	.LFE29-.LFB29
 4400               		.p2align	2
 4401               	.LEFDE46:
 4402               	.LSFDE48:
 4403 0190 0C00 0000 		.long	.LEFDE48-.LASFDE48
 4404               	.LASFDE48:
 4405 0194 0000 0000 		.long	.Lframe0
 4406 0198 0000 0000 		.long	.LFB30
 4407 019c 8C01 0000 		.long	.LFE30-.LFB30
 4408               		.p2align	2
 4409               	.LEFDE48:
 4410               	.LSFDE50:
 4411 01a0 0C00 0000 		.long	.LEFDE50-.LASFDE50
 4412               	.LASFDE50:
 4413 01a4 0000 0000 		.long	.Lframe0
 4414 01a8 0000 0000 		.long	.LFB31
 4415 01ac 4002 0000 		.long	.LFE31-.LFB31
 4416               		.p2align	2
 4417               	.LEFDE50:
 4418               	.LSFDE52:
 4419 01b0 0C00 0000 		.long	.LEFDE52-.LASFDE52
 4420               	.LASFDE52:
 4421 01b4 0000 0000 		.long	.Lframe0
 4422 01b8 0000 0000 		.long	.LFB32
 4423 01bc 5607 0000 		.long	.LFE32-.LFB32
 4424               		.p2align	2
 4425               	.LEFDE52:
 4426               	.LSFDE54:
 4427 01c0 0C00 0000 		.long	.LEFDE54-.LASFDE54
GAS LISTING /tmp/ccvyM2DX.s 			page 79


 4428               	.LASFDE54:
 4429 01c4 0000 0000 		.long	.Lframe0
 4430 01c8 0000 0000 		.long	.LFB33
 4431 01cc C802 0000 		.long	.LFE33-.LFB33
 4432               		.p2align	2
 4433               	.LEFDE54:
 4434               	.LSFDE56:
 4435 01d0 0C00 0000 		.long	.LEFDE56-.LASFDE56
 4436               	.LASFDE56:
 4437 01d4 0000 0000 		.long	.Lframe0
 4438 01d8 0000 0000 		.long	.LFB35
 4439 01dc 8400 0000 		.long	.LFE35-.LFB35
 4440               		.p2align	2
 4441               	.LEFDE56:
 4442               	.LSFDE58:
 4443 01e0 0C00 0000 		.long	.LEFDE58-.LASFDE58
 4444               	.LASFDE58:
 4445 01e4 0000 0000 		.long	.Lframe0
 4446 01e8 0000 0000 		.long	.LFB36
 4447 01ec 2200 0000 		.long	.LFE36-.LFB36
 4448               		.p2align	2
 4449               	.LEFDE58:
 4450               	.LSFDE60:
 4451 01f0 0C00 0000 		.long	.LEFDE60-.LASFDE60
 4452               	.LASFDE60:
 4453 01f4 0000 0000 		.long	.Lframe0
 4454 01f8 0000 0000 		.long	.LFB38
 4455 01fc 1800 0000 		.long	.LFE38-.LFB38
 4456               		.p2align	2
 4457               	.LEFDE60:
 4458               	.LSFDE62:
 4459 0200 0C00 0000 		.long	.LEFDE62-.LASFDE62
 4460               	.LASFDE62:
 4461 0204 0000 0000 		.long	.Lframe0
 4462 0208 0000 0000 		.long	.LFB34
 4463 020c B200 0000 		.long	.LFE34-.LFB34
 4464               		.p2align	2
 4465               	.LEFDE62:
 4466               		.text
 4467               	.Letext0:
 4468               		.section	.debug_loc,"",@progbits
 4469               	.Ldebug_loc0:
 4470               	.LLST0:
 4471 0000 0000 0000 		.long	.LVL0-.Ltext0
 4472 0004 0800 0000 		.long	.LVL1-.Ltext0
 4473 0008 0100      		.word	0x1
 4474 000a 68        		.byte	0x68
 4475 000b 0800 0000 		.long	.LVL1-.Ltext0
 4476 000f 2000 0000 		.long	.LVL3-.Ltext0
 4477 0013 0100      		.word	0x1
 4478 0015 61        		.byte	0x61
 4479 0016 2000 0000 		.long	.LVL3-.Ltext0
 4480 001a 2200 0000 		.long	.LFE37-.Ltext0
 4481 001e 0300      		.word	0x3
 4482 0020 0A        		.byte	0xa
 4483 0021 B009      		.word	0x9b0
 4484 0023 0000 0000 		.long	0x0
GAS LISTING /tmp/ccvyM2DX.s 			page 80


 4485 0027 0000 0000 		.long	0x0
 4486               	.LLST1:
 4487 002b 0000 0000 		.long	.LVL0-.Ltext0
 4488 002f 0D00 0000 		.long	.LVL2-1-.Ltext0
 4489 0033 0600      		.word	0x6
 4490 0035 66        		.byte	0x66
 4491 0036 93        		.byte	0x93
 4492 0037 01        		.uleb128 0x1
 4493 0038 67        		.byte	0x67
 4494 0039 93        		.byte	0x93
 4495 003a 01        		.uleb128 0x1
 4496 003b 0000 0000 		.long	0x0
 4497 003f 0000 0000 		.long	0x0
 4498               	.LLST2:
 4499 0043 2200 0000 		.long	.LVL4-.Ltext0
 4500 0047 4000 0000 		.long	.LVL7-.Ltext0
 4501 004b 0600      		.word	0x6
 4502 004d 68        		.byte	0x68
 4503 004e 93        		.byte	0x93
 4504 004f 01        		.uleb128 0x1
 4505 0050 69        		.byte	0x69
 4506 0051 93        		.byte	0x93
 4507 0052 01        		.uleb128 0x1
 4508 0053 0000 0000 		.long	0x0
 4509 0057 0000 0000 		.long	0x0
 4510               	.LLST3:
 4511 005b 3400 0000 		.long	.LVL6-.Ltext0
 4512 005f 4000 0000 		.long	.LVL7-.Ltext0
 4513 0063 0600      		.word	0x6
 4514 0065 68        		.byte	0x68
 4515 0066 93        		.byte	0x93
 4516 0067 01        		.uleb128 0x1
 4517 0068 69        		.byte	0x69
 4518 0069 93        		.byte	0x93
 4519 006a 01        		.uleb128 0x1
 4520 006b 0000 0000 		.long	0x0
 4521 006f 0000 0000 		.long	0x0
 4522               	.LLST4:
 4523 0073 4C00 0000 		.long	.LVL8-.Ltext0
 4524 0077 5800 0000 		.long	.LVL9-.Ltext0
 4525 007b 0100      		.word	0x1
 4526 007d 68        		.byte	0x68
 4527 007e 0000 0000 		.long	0x0
 4528 0082 0000 0000 		.long	0x0
 4529               	.LLST5:
 4530 0086 6200 0000 		.long	.LVL10-.Ltext0
 4531 008a 6400 0000 		.long	.LVL11-.Ltext0
 4532 008e 0500      		.word	0x5
 4533 0090 86        		.byte	0x86
 4534 0091 00        		.sleb128 0
 4535 0092 4F        		.byte	0x4f
 4536 0093 1A        		.byte	0x1a
 4537 0094 9F        		.byte	0x9f
 4538 0095 6400 0000 		.long	.LVL11-.Ltext0
 4539 0099 6600 0000 		.long	.LVL12-.Ltext0
 4540 009d 0100      		.word	0x1
 4541 009f 66        		.byte	0x66
GAS LISTING /tmp/ccvyM2DX.s 			page 81


 4542 00a0 0000 0000 		.long	0x0
 4543 00a4 0000 0000 		.long	0x0
 4544               	.LLST6:
 4545 00a8 6E00 0000 		.long	.LVL13-.Ltext0
 4546 00ac 8000 0000 		.long	.LVL15-.Ltext0
 4547 00b0 0100      		.word	0x1
 4548 00b2 68        		.byte	0x68
 4549 00b3 0000 0000 		.long	0x0
 4550 00b7 0000 0000 		.long	0x0
 4551               	.LLST7:
 4552 00bb 7E00 0000 		.long	.LVL14-.Ltext0
 4553 00bf 8000 0000 		.long	.LVL15-.Ltext0
 4554 00c3 0600      		.word	0x6
 4555 00c5 88        		.byte	0x88
 4556 00c6 00        		.sleb128 0
 4557 00c7 89        		.byte	0x89
 4558 00c8 00        		.sleb128 0
 4559 00c9 1A        		.byte	0x1a
 4560 00ca 9F        		.byte	0x9f
 4561 00cb 8000 0000 		.long	.LVL15-.Ltext0
 4562 00cf 8200 0000 		.long	.LFE10-.Ltext0
 4563 00d3 0100      		.word	0x1
 4564 00d5 68        		.byte	0x68
 4565 00d6 0000 0000 		.long	0x0
 4566 00da 0000 0000 		.long	0x0
 4567               	.LLST8:
 4568 00de 8200 0000 		.long	.LVL16-.Ltext0
 4569 00e2 8800 0000 		.long	.LVL18-.Ltext0
 4570 00e6 0100      		.word	0x1
 4571 00e8 68        		.byte	0x68
 4572 00e9 0000 0000 		.long	0x0
 4573 00ed 0000 0000 		.long	0x0
 4574               	.LLST9:
 4575 00f1 8200 0000 		.long	.LVL16-.Ltext0
 4576 00f5 8400 0000 		.long	.LVL17-.Ltext0
 4577 00f9 0100      		.word	0x1
 4578 00fb 66        		.byte	0x66
 4579 00fc 0000 0000 		.long	0x0
 4580 0100 0000 0000 		.long	0x0
 4581               	.LLST10:
 4582 0104 8200 0000 		.long	.LVL16-.Ltext0
 4583 0108 8400 0000 		.long	.LVL17-.Ltext0
 4584 010c 0600      		.word	0x6
 4585 010e 86        		.byte	0x86
 4586 010f 00        		.sleb128 0
 4587 0110 88        		.byte	0x88
 4588 0111 00        		.sleb128 0
 4589 0112 21        		.byte	0x21
 4590 0113 9F        		.byte	0x9f
 4591 0114 8400 0000 		.long	.LVL17-.Ltext0
 4592 0118 8B00 0000 		.long	.LVL19-1-.Ltext0
 4593 011c 0100      		.word	0x1
 4594 011e 66        		.byte	0x66
 4595 011f 0000 0000 		.long	0x0
 4596 0123 0000 0000 		.long	0x0
 4597               	.LLST11:
 4598 0127 8E00 0000 		.long	.LVL20-.Ltext0
GAS LISTING /tmp/ccvyM2DX.s 			page 82


 4599 012b A400 0000 		.long	.LVL24-.Ltext0
 4600 012f 0100      		.word	0x1
 4601 0131 68        		.byte	0x68
 4602 0132 A400 0000 		.long	.LVL24-.Ltext0
 4603 0136 B200 0000 		.long	.LVL28-.Ltext0
 4604 013a 0100      		.word	0x1
 4605 013c 61        		.byte	0x61
 4606 013d 0000 0000 		.long	0x0
 4607 0141 0000 0000 		.long	0x0
 4608               	.LLST12:
 4609 0145 9C00 0000 		.long	.LVL21-.Ltext0
 4610 0149 9E00 0000 		.long	.LVL22-.Ltext0
 4611 014d 0900      		.word	0x9
 4612 014f 86        		.byte	0x86
 4613 0150 00        		.sleb128 0
 4614 0151 09        		.byte	0x9
 4615 0152 F8        		.byte	0xf8
 4616 0153 1A        		.byte	0x1a
 4617 0154 88        		.byte	0x88
 4618 0155 00        		.sleb128 0
 4619 0156 21        		.byte	0x21
 4620 0157 9F        		.byte	0x9f
 4621 0158 A000 0000 		.long	.LVL23-.Ltext0
 4622 015c A700 0000 		.long	.LVL25-1-.Ltext0
 4623 0160 0100      		.word	0x1
 4624 0162 66        		.byte	0x66
 4625 0163 AA00 0000 		.long	.LVL26-.Ltext0
 4626 0167 AC00 0000 		.long	.LVL27-.Ltext0
 4627 016b 0600      		.word	0x6
 4628 016d 81        		.byte	0x81
 4629 016e 00        		.sleb128 0
 4630 016f 88        		.byte	0x88
 4631 0170 00        		.sleb128 0
 4632 0171 1A        		.byte	0x1a
 4633 0172 9F        		.byte	0x9f
 4634 0173 AC00 0000 		.long	.LVL27-.Ltext0
 4635 0177 B400 0000 		.long	.LFE12-.Ltext0
 4636 017b 0100      		.word	0x1
 4637 017d 68        		.byte	0x68
 4638 017e 0000 0000 		.long	0x0
 4639 0182 0000 0000 		.long	0x0
 4640               	.LLST13:
 4641 0186 C400 0000 		.long	.LVL30-.Ltext0
 4642 018a D400 0000 		.long	.LVL31-.Ltext0
 4643 018e 0100      		.word	0x1
 4644 0190 68        		.byte	0x68
 4645 0191 D400 0000 		.long	.LVL31-.Ltext0
 4646 0195 D600 0000 		.long	.LVL32-.Ltext0
 4647 0199 0100      		.word	0x1
 4648 019b 62        		.byte	0x62
 4649 019c D600 0000 		.long	.LVL32-.Ltext0
 4650 01a0 E600 0000 		.long	.LVL33-.Ltext0
 4651 01a4 0100      		.word	0x1
 4652 01a6 68        		.byte	0x68
 4653 01a7 EE00 0000 		.long	.LVL34-.Ltext0
 4654 01ab F600 0000 		.long	.LVL35-.Ltext0
 4655 01af 0100      		.word	0x1
GAS LISTING /tmp/ccvyM2DX.s 			page 83


 4656 01b1 68        		.byte	0x68
 4657 01b2 0000 0000 		.long	0x0
 4658 01b6 0000 0000 		.long	0x0
 4659               	.LLST14:
 4660 01ba 6001 0000 		.long	.LVL36-.Ltext0
 4661 01be 6601 0000 		.long	.LVL37-.Ltext0
 4662 01c2 0600      		.word	0x6
 4663 01c4 68        		.byte	0x68
 4664 01c5 93        		.byte	0x93
 4665 01c6 01        		.uleb128 0x1
 4666 01c7 69        		.byte	0x69
 4667 01c8 93        		.byte	0x93
 4668 01c9 01        		.uleb128 0x1
 4669 01ca 0000 0000 		.long	0x0
 4670 01ce 0000 0000 		.long	0x0
 4671               	.LLST15:
 4672 01d2 6801 0000 		.long	.LVL38-.Ltext0
 4673 01d6 7601 0000 		.long	.LVL39-.Ltext0
 4674 01da 0600      		.word	0x6
 4675 01dc 9E        		.byte	0x9e
 4676 01dd 04        		.uleb128 0x4
 4677 01de 0000 7A44 		.long	0x447a0000
 4678 01e2 0000 0000 		.long	0x0
 4679 01e6 0000 0000 		.long	0x0
 4680               	.LLST16:
 4681 01ea 6801 0000 		.long	.LVL38-.Ltext0
 4682 01ee 7601 0000 		.long	.LVL39-.Ltext0
 4683 01f2 0600      		.word	0x6
 4684 01f4 9E        		.byte	0x9e
 4685 01f5 04        		.uleb128 0x4
 4686 01f6 0000 FA46 		.long	0x46fa0000
 4687 01fa 0000 0000 		.long	0x0
 4688 01fe 0000 0000 		.long	0x0
 4689               	.LLST17:
 4690 0202 6801 0000 		.long	.LVL38-.Ltext0
 4691 0206 7601 0000 		.long	.LVL39-.Ltext0
 4692 020a 0400      		.word	0x4
 4693 020c 0A        		.byte	0xa
 4694 020d 007D      		.word	0x7d00
 4695 020f 9F        		.byte	0x9f
 4696 0210 0000 0000 		.long	0x0
 4697 0214 0000 0000 		.long	0x0
 4698               	.LLST18:
 4699 0218 7C01 0000 		.long	.LVL40-.Ltext0
 4700 021c 8A01 0000 		.long	.LVL41-.Ltext0
 4701 0220 0600      		.word	0x6
 4702 0222 68        		.byte	0x68
 4703 0223 93        		.byte	0x93
 4704 0224 01        		.uleb128 0x1
 4705 0225 69        		.byte	0x69
 4706 0226 93        		.byte	0x93
 4707 0227 01        		.uleb128 0x1
 4708 0228 8A01 0000 		.long	.LVL41-.Ltext0
 4709 022c F601 0000 		.long	.LFE19-.Ltext0
 4710 0230 0600      		.word	0x6
 4711 0232 6E        		.byte	0x6e
 4712 0233 93        		.byte	0x93
GAS LISTING /tmp/ccvyM2DX.s 			page 84


 4713 0234 01        		.uleb128 0x1
 4714 0235 6F        		.byte	0x6f
 4715 0236 93        		.byte	0x93
 4716 0237 01        		.uleb128 0x1
 4717 0238 0000 0000 		.long	0x0
 4718 023c 0000 0000 		.long	0x0
 4719               	.LLST19:
 4720 0240 F601 0000 		.long	.LVL42-.Ltext0
 4721 0244 1002 0000 		.long	.LVL43-.Ltext0
 4722 0248 0600      		.word	0x6
 4723 024a 68        		.byte	0x68
 4724 024b 93        		.byte	0x93
 4725 024c 01        		.uleb128 0x1
 4726 024d 69        		.byte	0x69
 4727 024e 93        		.byte	0x93
 4728 024f 01        		.uleb128 0x1
 4729 0250 0000 0000 		.long	0x0
 4730 0254 0000 0000 		.long	0x0
 4731               	.LLST20:
 4732 0258 4602 0000 		.long	.LVL44-.Ltext0
 4733 025c 6102 0000 		.long	.LVL45-1-.Ltext0
 4734 0260 0600      		.word	0x6
 4735 0262 68        		.byte	0x68
 4736 0263 93        		.byte	0x93
 4737 0264 01        		.uleb128 0x1
 4738 0265 69        		.byte	0x69
 4739 0266 93        		.byte	0x93
 4740 0267 01        		.uleb128 0x1
 4741 0268 6102 0000 		.long	.LVL45-1-.Ltext0
 4742 026c 7002 0000 		.long	.LVL46-.Ltext0
 4743 0270 0600      		.word	0x6
 4744 0272 6C        		.byte	0x6c
 4745 0273 93        		.byte	0x93
 4746 0274 01        		.uleb128 0x1
 4747 0275 6D        		.byte	0x6d
 4748 0276 93        		.byte	0x93
 4749 0277 01        		.uleb128 0x1
 4750 0278 0000 0000 		.long	0x0
 4751 027c 0000 0000 		.long	0x0
 4752               	.LLST21:
 4753 0280 7802 0000 		.long	.LVL47-.Ltext0
 4754 0284 8802 0000 		.long	.LVL49-.Ltext0
 4755 0288 0600      		.word	0x6
 4756 028a 68        		.byte	0x68
 4757 028b 93        		.byte	0x93
 4758 028c 01        		.uleb128 0x1
 4759 028d 69        		.byte	0x69
 4760 028e 93        		.byte	0x93
 4761 028f 01        		.uleb128 0x1
 4762 0290 8802 0000 		.long	.LVL49-.Ltext0
 4763 0294 A002 0000 		.long	.LVL52-.Ltext0
 4764 0298 0600      		.word	0x6
 4765 029a 60        		.byte	0x60
 4766 029b 93        		.byte	0x93
 4767 029c 01        		.uleb128 0x1
 4768 029d 61        		.byte	0x61
 4769 029e 93        		.byte	0x93
GAS LISTING /tmp/ccvyM2DX.s 			page 85


 4770 029f 01        		.uleb128 0x1
 4771 02a0 0000 0000 		.long	0x0
 4772 02a4 0000 0000 		.long	0x0
 4773               	.LLST22:
 4774 02a8 8202 0000 		.long	.LVL48-.Ltext0
 4775 02ac 8802 0000 		.long	.LVL49-.Ltext0
 4776 02b0 0200      		.word	0x2
 4777 02b2 30        		.byte	0x30
 4778 02b3 9F        		.byte	0x9f
 4779 02b4 8802 0000 		.long	.LVL49-.Ltext0
 4780 02b8 9202 0000 		.long	.LVL50-.Ltext0
 4781 02bc 0600      		.word	0x6
 4782 02be 6C        		.byte	0x6c
 4783 02bf 93        		.byte	0x93
 4784 02c0 01        		.uleb128 0x1
 4785 02c1 6D        		.byte	0x6d
 4786 02c2 93        		.byte	0x93
 4787 02c3 01        		.uleb128 0x1
 4788 02c4 9202 0000 		.long	.LVL50-.Ltext0
 4789 02c8 9C02 0000 		.long	.LVL51-.Ltext0
 4790 02cc 0600      		.word	0x6
 4791 02ce 6C        		.byte	0x6c
 4792 02cf 93        		.byte	0x93
 4793 02d0 01        		.uleb128 0x1
 4794 02d1 6D        		.byte	0x6d
 4795 02d2 93        		.byte	0x93
 4796 02d3 01        		.uleb128 0x1
 4797 02d4 0000 0000 		.long	0x0
 4798 02d8 0000 0000 		.long	0x0
 4799               	.LLST23:
 4800 02dc A202 0000 		.long	.LVL53-.Ltext0
 4801 02e0 FE02 0000 		.long	.LVL54-.Ltext0
 4802 02e4 0100      		.word	0x1
 4803 02e6 68        		.byte	0x68
 4804 02e7 0003 0000 		.long	.LVL55-.Ltext0
 4805 02eb 0203 0000 		.long	.LVL56-.Ltext0
 4806 02ef 0100      		.word	0x1
 4807 02f1 68        		.byte	0x68
 4808 02f2 0403 0000 		.long	.LVL57-.Ltext0
 4809 02f6 0603 0000 		.long	.LVL58-.Ltext0
 4810 02fa 0100      		.word	0x1
 4811 02fc 68        		.byte	0x68
 4812 02fd 0803 0000 		.long	.LVL59-.Ltext0
 4813 0301 0A03 0000 		.long	.LVL60-.Ltext0
 4814 0305 0100      		.word	0x1
 4815 0307 68        		.byte	0x68
 4816 0308 0C03 0000 		.long	.LVL61-.Ltext0
 4817 030c 0E03 0000 		.long	.LVL62-.Ltext0
 4818 0310 0100      		.word	0x1
 4819 0312 68        		.byte	0x68
 4820 0313 1003 0000 		.long	.LVL63-.Ltext0
 4821 0317 1203 0000 		.long	.LVL64-.Ltext0
 4822 031b 0100      		.word	0x1
 4823 031d 68        		.byte	0x68
 4824 031e 1403 0000 		.long	.LVL65-.Ltext0
 4825 0322 1603 0000 		.long	.LVL66-.Ltext0
 4826 0326 0100      		.word	0x1
GAS LISTING /tmp/ccvyM2DX.s 			page 86


 4827 0328 68        		.byte	0x68
 4828 0329 1803 0000 		.long	.LVL67-.Ltext0
 4829 032d 1A03 0000 		.long	.LVL68-.Ltext0
 4830 0331 0100      		.word	0x1
 4831 0333 68        		.byte	0x68
 4832 0334 2003 0000 		.long	.LVL69-.Ltext0
 4833 0338 4603 0000 		.long	.LVL70-.Ltext0
 4834 033c 0100      		.word	0x1
 4835 033e 68        		.byte	0x68
 4836 033f 4803 0000 		.long	.LVL71-.Ltext0
 4837 0343 4A03 0000 		.long	.LVL72-.Ltext0
 4838 0347 0100      		.word	0x1
 4839 0349 68        		.byte	0x68
 4840 034a 4C03 0000 		.long	.LVL73-.Ltext0
 4841 034e 4E03 0000 		.long	.LVL74-.Ltext0
 4842 0352 0100      		.word	0x1
 4843 0354 68        		.byte	0x68
 4844 0355 5003 0000 		.long	.LVL75-.Ltext0
 4845 0359 5203 0000 		.long	.LVL76-.Ltext0
 4846 035d 0100      		.word	0x1
 4847 035f 68        		.byte	0x68
 4848 0360 5803 0000 		.long	.LVL77-.Ltext0
 4849 0364 9403 0000 		.long	.LVL78-.Ltext0
 4850 0368 0100      		.word	0x1
 4851 036a 68        		.byte	0x68
 4852 036b 9603 0000 		.long	.LVL79-.Ltext0
 4853 036f 9803 0000 		.long	.LVL80-.Ltext0
 4854 0373 0100      		.word	0x1
 4855 0375 68        		.byte	0x68
 4856 0376 9A03 0000 		.long	.LVL81-.Ltext0
 4857 037a 9C03 0000 		.long	.LVL82-.Ltext0
 4858 037e 0100      		.word	0x1
 4859 0380 68        		.byte	0x68
 4860 0381 9E03 0000 		.long	.LVL83-.Ltext0
 4861 0385 A003 0000 		.long	.LVL84-.Ltext0
 4862 0389 0100      		.word	0x1
 4863 038b 68        		.byte	0x68
 4864 038c A203 0000 		.long	.LVL85-.Ltext0
 4865 0390 A403 0000 		.long	.LVL86-.Ltext0
 4866 0394 0100      		.word	0x1
 4867 0396 68        		.byte	0x68
 4868 0397 A603 0000 		.long	.LVL87-.Ltext0
 4869 039b A803 0000 		.long	.LVL88-.Ltext0
 4870 039f 0100      		.word	0x1
 4871 03a1 68        		.byte	0x68
 4872 03a2 AA03 0000 		.long	.LVL89-.Ltext0
 4873 03a6 AC03 0000 		.long	.LVL90-.Ltext0
 4874 03aa 0100      		.word	0x1
 4875 03ac 68        		.byte	0x68
 4876 03ad AE03 0000 		.long	.LVL91-.Ltext0
 4877 03b1 B003 0000 		.long	.LVL92-.Ltext0
 4878 03b5 0100      		.word	0x1
 4879 03b7 68        		.byte	0x68
 4880 03b8 B603 0000 		.long	.LVL93-.Ltext0
 4881 03bc DA03 0000 		.long	.LVL94-.Ltext0
 4882 03c0 0100      		.word	0x1
 4883 03c2 68        		.byte	0x68
GAS LISTING /tmp/ccvyM2DX.s 			page 87


 4884 03c3 DC03 0000 		.long	.LVL95-.Ltext0
 4885 03c7 DE03 0000 		.long	.LVL96-.Ltext0
 4886 03cb 0100      		.word	0x1
 4887 03cd 68        		.byte	0x68
 4888 03ce E003 0000 		.long	.LVL97-.Ltext0
 4889 03d2 E203 0000 		.long	.LVL98-.Ltext0
 4890 03d6 0100      		.word	0x1
 4891 03d8 68        		.byte	0x68
 4892 03d9 E803 0000 		.long	.LVL99-.Ltext0
 4893 03dd EA03 0000 		.long	.LVL100-.Ltext0
 4894 03e1 0100      		.word	0x1
 4895 03e3 68        		.byte	0x68
 4896 03e4 0000 0000 		.long	0x0
 4897 03e8 0000 0000 		.long	0x0
 4898               	.LLST24:
 4899 03ec F003 0000 		.long	.LVL101-.Ltext0
 4900 03f0 4C04 0000 		.long	.LVL102-.Ltext0
 4901 03f4 0100      		.word	0x1
 4902 03f6 68        		.byte	0x68
 4903 03f7 4E04 0000 		.long	.LVL103-.Ltext0
 4904 03fb 5004 0000 		.long	.LVL104-.Ltext0
 4905 03ff 0100      		.word	0x1
 4906 0401 68        		.byte	0x68
 4907 0402 5204 0000 		.long	.LVL105-.Ltext0
 4908 0406 5404 0000 		.long	.LVL106-.Ltext0
 4909 040a 0100      		.word	0x1
 4910 040c 68        		.byte	0x68
 4911 040d 5604 0000 		.long	.LVL107-.Ltext0
 4912 0411 5804 0000 		.long	.LVL108-.Ltext0
 4913 0415 0100      		.word	0x1
 4914 0417 68        		.byte	0x68
 4915 0418 5A04 0000 		.long	.LVL109-.Ltext0
 4916 041c 5C04 0000 		.long	.LVL110-.Ltext0
 4917 0420 0100      		.word	0x1
 4918 0422 68        		.byte	0x68
 4919 0423 5E04 0000 		.long	.LVL111-.Ltext0
 4920 0427 6004 0000 		.long	.LVL112-.Ltext0
 4921 042b 0100      		.word	0x1
 4922 042d 68        		.byte	0x68
 4923 042e 6204 0000 		.long	.LVL113-.Ltext0
 4924 0432 6404 0000 		.long	.LVL114-.Ltext0
 4925 0436 0100      		.word	0x1
 4926 0438 68        		.byte	0x68
 4927 0439 6604 0000 		.long	.LVL115-.Ltext0
 4928 043d 6804 0000 		.long	.LVL116-.Ltext0
 4929 0441 0100      		.word	0x1
 4930 0443 68        		.byte	0x68
 4931 0444 6E04 0000 		.long	.LVL117-.Ltext0
 4932 0448 9404 0000 		.long	.LVL118-.Ltext0
 4933 044c 0100      		.word	0x1
 4934 044e 68        		.byte	0x68
 4935 044f 9604 0000 		.long	.LVL119-.Ltext0
 4936 0453 9804 0000 		.long	.LVL120-.Ltext0
 4937 0457 0100      		.word	0x1
 4938 0459 68        		.byte	0x68
 4939 045a 9A04 0000 		.long	.LVL121-.Ltext0
 4940 045e 9C04 0000 		.long	.LVL122-.Ltext0
GAS LISTING /tmp/ccvyM2DX.s 			page 88


 4941 0462 0100      		.word	0x1
 4942 0464 68        		.byte	0x68
 4943 0465 9E04 0000 		.long	.LVL123-.Ltext0
 4944 0469 A004 0000 		.long	.LVL124-.Ltext0
 4945 046d 0100      		.word	0x1
 4946 046f 68        		.byte	0x68
 4947 0470 A604 0000 		.long	.LVL125-.Ltext0
 4948 0474 E204 0000 		.long	.LVL126-.Ltext0
 4949 0478 0100      		.word	0x1
 4950 047a 68        		.byte	0x68
 4951 047b E404 0000 		.long	.LVL127-.Ltext0
 4952 047f E604 0000 		.long	.LVL128-.Ltext0
 4953 0483 0100      		.word	0x1
 4954 0485 68        		.byte	0x68
 4955 0486 E804 0000 		.long	.LVL129-.Ltext0
 4956 048a EA04 0000 		.long	.LVL130-.Ltext0
 4957 048e 0100      		.word	0x1
 4958 0490 68        		.byte	0x68
 4959 0491 EC04 0000 		.long	.LVL131-.Ltext0
 4960 0495 EE04 0000 		.long	.LVL132-.Ltext0
 4961 0499 0100      		.word	0x1
 4962 049b 68        		.byte	0x68
 4963 049c F004 0000 		.long	.LVL133-.Ltext0
 4964 04a0 F204 0000 		.long	.LVL134-.Ltext0
 4965 04a4 0100      		.word	0x1
 4966 04a6 68        		.byte	0x68
 4967 04a7 F404 0000 		.long	.LVL135-.Ltext0
 4968 04ab F604 0000 		.long	.LVL136-.Ltext0
 4969 04af 0100      		.word	0x1
 4970 04b1 68        		.byte	0x68
 4971 04b2 F804 0000 		.long	.LVL137-.Ltext0
 4972 04b6 FA04 0000 		.long	.LVL138-.Ltext0
 4973 04ba 0100      		.word	0x1
 4974 04bc 68        		.byte	0x68
 4975 04bd FC04 0000 		.long	.LVL139-.Ltext0
 4976 04c1 FE04 0000 		.long	.LVL140-.Ltext0
 4977 04c5 0100      		.word	0x1
 4978 04c7 68        		.byte	0x68
 4979 04c8 0405 0000 		.long	.LVL141-.Ltext0
 4980 04cc 2805 0000 		.long	.LVL142-.Ltext0
 4981 04d0 0100      		.word	0x1
 4982 04d2 68        		.byte	0x68
 4983 04d3 2A05 0000 		.long	.LVL143-.Ltext0
 4984 04d7 2C05 0000 		.long	.LVL144-.Ltext0
 4985 04db 0100      		.word	0x1
 4986 04dd 68        		.byte	0x68
 4987 04de 2E05 0000 		.long	.LVL145-.Ltext0
 4988 04e2 3005 0000 		.long	.LVL146-.Ltext0
 4989 04e6 0100      		.word	0x1
 4990 04e8 68        		.byte	0x68
 4991 04e9 3605 0000 		.long	.LVL147-.Ltext0
 4992 04ed 3805 0000 		.long	.LVL148-.Ltext0
 4993 04f1 0100      		.word	0x1
 4994 04f3 68        		.byte	0x68
 4995 04f4 0000 0000 		.long	0x0
 4996 04f8 0000 0000 		.long	0x0
 4997               	.LLST25:
GAS LISTING /tmp/ccvyM2DX.s 			page 89


 4998 04fc A406 0000 		.long	.LVL151-.Ltext0
 4999 0500 C606 0000 		.long	.LVL154-.Ltext0
 5000 0504 0600      		.word	0x6
 5001 0506 68        		.byte	0x68
 5002 0507 93        		.byte	0x93
 5003 0508 01        		.uleb128 0x1
 5004 0509 69        		.byte	0x69
 5005 050a 93        		.byte	0x93
 5006 050b 01        		.uleb128 0x1
 5007 050c C606 0000 		.long	.LVL154-.Ltext0
 5008 0510 AE08 0000 		.long	.LVL161-.Ltext0
 5009 0514 0600      		.word	0x6
 5010 0516 6C        		.byte	0x6c
 5011 0517 93        		.byte	0x93
 5012 0518 01        		.uleb128 0x1
 5013 0519 6D        		.byte	0x6d
 5014 051a 93        		.byte	0x93
 5015 051b 01        		.uleb128 0x1
 5016 051c 0000 0000 		.long	0x0
 5017 0520 0000 0000 		.long	0x0
 5018               	.LLST26:
 5019 0524 A406 0000 		.long	.LVL151-.Ltext0
 5020 0528 C206 0000 		.long	.LVL153-.Ltext0
 5021 052c 0600      		.word	0x6
 5022 052e 66        		.byte	0x66
 5023 052f 93        		.byte	0x93
 5024 0530 01        		.uleb128 0x1
 5025 0531 67        		.byte	0x67
 5026 0532 93        		.byte	0x93
 5027 0533 01        		.uleb128 0x1
 5028 0534 C206 0000 		.long	.LVL153-.Ltext0
 5029 0538 D206 0000 		.long	.LVL156-.Ltext0
 5030 053c 0600      		.word	0x6
 5031 053e 60        		.byte	0x60
 5032 053f 93        		.byte	0x93
 5033 0540 01        		.uleb128 0x1
 5034 0541 61        		.byte	0x61
 5035 0542 93        		.byte	0x93
 5036 0543 01        		.uleb128 0x1
 5037 0544 D206 0000 		.long	.LVL156-.Ltext0
 5038 0548 D806 0000 		.long	.LVL157-.Ltext0
 5039 054c 0600      		.word	0x6
 5040 054e 66        		.byte	0x66
 5041 054f 93        		.byte	0x93
 5042 0550 01        		.uleb128 0x1
 5043 0551 67        		.byte	0x67
 5044 0552 93        		.byte	0x93
 5045 0553 01        		.uleb128 0x1
 5046 0554 8C08 0000 		.long	.LVL159-.Ltext0
 5047 0558 9208 0000 		.long	.LVL160-.Ltext0
 5048 055c 0600      		.word	0x6
 5049 055e 66        		.byte	0x66
 5050 055f 93        		.byte	0x93
 5051 0560 01        		.uleb128 0x1
 5052 0561 67        		.byte	0x67
 5053 0562 93        		.byte	0x93
 5054 0563 01        		.uleb128 0x1
GAS LISTING /tmp/ccvyM2DX.s 			page 90


 5055 0564 0000 0000 		.long	0x0
 5056 0568 0000 0000 		.long	0x0
 5057               	.LLST27:
 5058 056c BC06 0000 		.long	.LVL152-.Ltext0
 5059 0570 C206 0000 		.long	.LVL153-.Ltext0
 5060 0574 0200      		.word	0x2
 5061 0576 30        		.byte	0x30
 5062 0577 9F        		.byte	0x9f
 5063 0578 C206 0000 		.long	.LVL153-.Ltext0
 5064 057c CC06 0000 		.long	.LVL155-.Ltext0
 5065 0580 0600      		.word	0x6
 5066 0582 60        		.byte	0x60
 5067 0583 93        		.byte	0x93
 5068 0584 01        		.uleb128 0x1
 5069 0585 61        		.byte	0x61
 5070 0586 93        		.byte	0x93
 5071 0587 01        		.uleb128 0x1
 5072 0588 CC06 0000 		.long	.LVL155-.Ltext0
 5073 058c D206 0000 		.long	.LVL156-.Ltext0
 5074 0590 0200      		.word	0x2
 5075 0592 30        		.byte	0x30
 5076 0593 9F        		.byte	0x9f
 5077 0594 D206 0000 		.long	.LVL156-.Ltext0
 5078 0598 8007 0000 		.long	.LVL158-.Ltext0
 5079 059c 0600      		.word	0x6
 5080 059e 60        		.byte	0x60
 5081 059f 93        		.byte	0x93
 5082 05a0 01        		.uleb128 0x1
 5083 05a1 61        		.byte	0x61
 5084 05a2 93        		.byte	0x93
 5085 05a3 01        		.uleb128 0x1
 5086 05a4 8007 0000 		.long	.LVL158-.Ltext0
 5087 05a8 B208 0000 		.long	.LVL162-.Ltext0
 5088 05ac 0600      		.word	0x6
 5089 05ae 60        		.byte	0x60
 5090 05af 93        		.byte	0x93
 5091 05b0 01        		.uleb128 0x1
 5092 05b1 61        		.byte	0x61
 5093 05b2 93        		.byte	0x93
 5094 05b3 01        		.uleb128 0x1
 5095 05b4 0000 0000 		.long	0x0
 5096 05b8 0000 0000 		.long	0x0
 5097               	.LLST28:
 5098 05bc C008 0000 		.long	.LVL163-.Ltext0
 5099 05c0 D808 0000 		.long	.LVL164-.Ltext0
 5100 05c4 0600      		.word	0x6
 5101 05c6 68        		.byte	0x68
 5102 05c7 93        		.byte	0x93
 5103 05c8 01        		.uleb128 0x1
 5104 05c9 69        		.byte	0x69
 5105 05ca 93        		.byte	0x93
 5106 05cb 01        		.uleb128 0x1
 5107 05cc D808 0000 		.long	.LVL164-.Ltext0
 5108 05d0 120A 0000 		.long	.LVL167-.Ltext0
 5109 05d4 0600      		.word	0x6
 5110 05d6 6C        		.byte	0x6c
 5111 05d7 93        		.byte	0x93
GAS LISTING /tmp/ccvyM2DX.s 			page 91


 5112 05d8 01        		.uleb128 0x1
 5113 05d9 6D        		.byte	0x6d
 5114 05da 93        		.byte	0x93
 5115 05db 01        		.uleb128 0x1
 5116 05dc 120A 0000 		.long	.LVL167-.Ltext0
 5117 05e0 180A 0000 		.long	.LVL168-.Ltext0
 5118 05e4 0400      		.word	0x4
 5119 05e6 92        		.byte	0x92
 5120 05e7 20        		.uleb128 0x20
 5121 05e8 2A        		.sleb128 42
 5122 05e9 9F        		.byte	0x9f
 5123 05ea 180A 0000 		.long	.LVL168-.Ltext0
 5124 05ee 4A0A 0000 		.long	.LVL169-.Ltext0
 5125 05f2 0300      		.word	0x3
 5126 05f4 80        		.byte	0x80
 5127 05f5 03        		.sleb128 3
 5128 05f6 9F        		.byte	0x9f
 5129 05f7 0000 0000 		.long	0x0
 5130 05fb 0000 0000 		.long	0x0
 5131               	.LLST29:
 5132 05ff C008 0000 		.long	.LVL163-.Ltext0
 5133 0603 E608 0000 		.long	.LVL165-.Ltext0
 5134 0607 0600      		.word	0x6
 5135 0609 66        		.byte	0x66
 5136 060a 93        		.byte	0x93
 5137 060b 01        		.uleb128 0x1
 5138 060c 67        		.byte	0x67
 5139 060d 93        		.byte	0x93
 5140 060e 01        		.uleb128 0x1
 5141 060f E608 0000 		.long	.LVL165-.Ltext0
 5142 0613 7509 0000 		.long	.LVL166-1-.Ltext0
 5143 0617 0200      		.word	0x2
 5144 0619 8C        		.byte	0x8c
 5145 061a 02        		.sleb128 2
 5146 061b 0000 0000 		.long	0x0
 5147 061f 0000 0000 		.long	0x0
 5148               	.LLST30:
 5149 0623 4C0A 0000 		.long	.LVL170-.Ltext0
 5150 0627 9B0A 0000 		.long	.LVL173-1-.Ltext0
 5151 062b 0600      		.word	0x6
 5152 062d 68        		.byte	0x68
 5153 062e 93        		.byte	0x93
 5154 062f 01        		.uleb128 0x1
 5155 0630 69        		.byte	0x69
 5156 0631 93        		.byte	0x93
 5157 0632 01        		.uleb128 0x1
 5158 0633 9B0A 0000 		.long	.LVL173-1-.Ltext0
 5159 0637 620C 0000 		.long	.LVL179-.Ltext0
 5160 063b 0200      		.word	0x2
 5161 063d 8C        		.byte	0x8c
 5162 063e 01        		.sleb128 1
 5163 063f 620C 0000 		.long	.LVL179-.Ltext0
 5164 0643 6A0C 0000 		.long	.LVL180-.Ltext0
 5165 0647 0200      		.word	0x2
 5166 0649 8C        		.byte	0x8c
 5167 064a 79        		.sleb128 -7
 5168 064b 0000 0000 		.long	0x0
GAS LISTING /tmp/ccvyM2DX.s 			page 92


 5169 064f 0000 0000 		.long	0x0
 5170               	.LLST31:
 5171 0653 4C0A 0000 		.long	.LVL170-.Ltext0
 5172 0657 980A 0000 		.long	.LVL172-.Ltext0
 5173 065b 0600      		.word	0x6
 5174 065d 66        		.byte	0x66
 5175 065e 93        		.byte	0x93
 5176 065f 01        		.uleb128 0x1
 5177 0660 67        		.byte	0x67
 5178 0661 93        		.byte	0x93
 5179 0662 01        		.uleb128 0x1
 5180 0663 980A 0000 		.long	.LVL172-.Ltext0
 5181 0667 9B0A 0000 		.long	.LVL173-1-.Ltext0
 5182 066b 0600      		.word	0x6
 5183 066d 62        		.byte	0x62
 5184 066e 93        		.byte	0x93
 5185 066f 01        		.uleb128 0x1
 5186 0670 63        		.byte	0x63
 5187 0671 93        		.byte	0x93
 5188 0672 01        		.uleb128 0x1
 5189 0673 9B0A 0000 		.long	.LVL173-1-.Ltext0
 5190 0677 620C 0000 		.long	.LVL179-.Ltext0
 5191 067b 0200      		.word	0x2
 5192 067d 8C        		.byte	0x8c
 5193 067e 03        		.sleb128 3
 5194 067f 620C 0000 		.long	.LVL179-.Ltext0
 5195 0683 6A0C 0000 		.long	.LVL180-.Ltext0
 5196 0687 0200      		.word	0x2
 5197 0689 8C        		.byte	0x8c
 5198 068a 7B        		.sleb128 -5
 5199 068b 0000 0000 		.long	0x0
 5200 068f 0000 0000 		.long	0x0
 5201               	.LLST32:
 5202 0693 4C0A 0000 		.long	.LVL170-.Ltext0
 5203 0697 9B0A 0000 		.long	.LVL173-1-.Ltext0
 5204 069b 0600      		.word	0x6
 5205 069d 64        		.byte	0x64
 5206 069e 93        		.byte	0x93
 5207 069f 01        		.uleb128 0x1
 5208 06a0 65        		.byte	0x65
 5209 06a1 93        		.byte	0x93
 5210 06a2 01        		.uleb128 0x1
 5211 06a3 9B0A 0000 		.long	.LVL173-1-.Ltext0
 5212 06a7 2A0B 0000 		.long	.LVL175-.Ltext0
 5213 06ab 0600      		.word	0x6
 5214 06ad 56        		.byte	0x56
 5215 06ae 93        		.byte	0x93
 5216 06af 01        		.uleb128 0x1
 5217 06b0 57        		.byte	0x57
 5218 06b1 93        		.byte	0x93
 5219 06b2 01        		.uleb128 0x1
 5220 06b3 2A0B 0000 		.long	.LVL175-.Ltext0
 5221 06b7 820C 0000 		.long	.LVL182-.Ltext0
 5222 06bb 0600      		.word	0x6
 5223 06bd 56        		.byte	0x56
 5224 06be 93        		.byte	0x93
 5225 06bf 01        		.uleb128 0x1
GAS LISTING /tmp/ccvyM2DX.s 			page 93


 5226 06c0 57        		.byte	0x57
 5227 06c1 93        		.byte	0x93
 5228 06c2 01        		.uleb128 0x1
 5229 06c3 0000 0000 		.long	0x0
 5230 06c7 0000 0000 		.long	0x0
 5231               	.LLST33:
 5232 06cb 4C0A 0000 		.long	.LVL170-.Ltext0
 5233 06cf 8E0A 0000 		.long	.LVL171-.Ltext0
 5234 06d3 0600      		.word	0x6
 5235 06d5 62        		.byte	0x62
 5236 06d6 93        		.byte	0x93
 5237 06d7 01        		.uleb128 0x1
 5238 06d8 63        		.byte	0x63
 5239 06d9 93        		.byte	0x93
 5240 06da 01        		.uleb128 0x1
 5241 06db 8E0A 0000 		.long	.LVL171-.Ltext0
 5242 06df FA0B 0000 		.long	.LVL176-.Ltext0
 5243 06e3 0200      		.word	0x2
 5244 06e5 8C        		.byte	0x8c
 5245 06e6 07        		.sleb128 7
 5246 06e7 FA0B 0000 		.long	.LVL176-.Ltext0
 5247 06eb 020C 0000 		.long	.LVL178-.Ltext0
 5248 06ef 0600      		.word	0x6
 5249 06f1 66        		.byte	0x66
 5250 06f2 93        		.byte	0x93
 5251 06f3 01        		.uleb128 0x1
 5252 06f4 67        		.byte	0x67
 5253 06f5 93        		.byte	0x93
 5254 06f6 01        		.uleb128 0x1
 5255 06f7 020C 0000 		.long	.LVL178-.Ltext0
 5256 06fb 620C 0000 		.long	.LVL179-.Ltext0
 5257 06ff 0200      		.word	0x2
 5258 0701 8C        		.byte	0x8c
 5259 0702 07        		.sleb128 7
 5260 0703 620C 0000 		.long	.LVL179-.Ltext0
 5261 0707 6A0C 0000 		.long	.LVL180-.Ltext0
 5262 070b 0200      		.word	0x2
 5263 070d 8C        		.byte	0x8c
 5264 070e 7F        		.sleb128 -1
 5265 070f 0000 0000 		.long	0x0
 5266 0713 0000 0000 		.long	0x0
 5267               	.LLST34:
 5268 0717 4C0A 0000 		.long	.LVL170-.Ltext0
 5269 071b FC0B 0000 		.long	.LVL177-.Ltext0
 5270 071f 0600      		.word	0x6
 5271 0721 60        		.byte	0x60
 5272 0722 93        		.byte	0x93
 5273 0723 01        		.uleb128 0x1
 5274 0724 61        		.byte	0x61
 5275 0725 93        		.byte	0x93
 5276 0726 01        		.uleb128 0x1
 5277 0727 020C 0000 		.long	.LVL178-.Ltext0
 5278 072b 6E0C 0000 		.long	.LVL181-.Ltext0
 5279 072f 0600      		.word	0x6
 5280 0731 60        		.byte	0x60
 5281 0732 93        		.byte	0x93
 5282 0733 01        		.uleb128 0x1
GAS LISTING /tmp/ccvyM2DX.s 			page 94


 5283 0734 61        		.byte	0x61
 5284 0735 93        		.byte	0x93
 5285 0736 01        		.uleb128 0x1
 5286 0737 0000 0000 		.long	0x0
 5287 073b 0000 0000 		.long	0x0
 5288               	.LLST35:
 5289 073f 4C0A 0000 		.long	.LVL170-.Ltext0
 5290 0743 AC0A 0000 		.long	.LVL174-.Ltext0
 5291 0747 0600      		.word	0x6
 5292 0749 5E        		.byte	0x5e
 5293 074a 93        		.byte	0x93
 5294 074b 01        		.uleb128 0x1
 5295 074c 5F        		.byte	0x5f
 5296 074d 93        		.byte	0x93
 5297 074e 01        		.uleb128 0x1
 5298 074f AC0A 0000 		.long	.LVL174-.Ltext0
 5299 0753 620C 0000 		.long	.LVL179-.Ltext0
 5300 0757 0200      		.word	0x2
 5301 0759 8C        		.byte	0x8c
 5302 075a 05        		.sleb128 5
 5303 075b 620C 0000 		.long	.LVL179-.Ltext0
 5304 075f 6A0C 0000 		.long	.LVL180-.Ltext0
 5305 0763 0200      		.word	0x2
 5306 0765 8C        		.byte	0x8c
 5307 0766 7D        		.sleb128 -3
 5308 0767 0000 0000 		.long	0x0
 5309 076b 0000 0000 		.long	0x0
 5310               	.LLST36:
 5311 076f 520D 0000 		.long	.LVL183-.Ltext0
 5312 0773 5E0D 0000 		.long	.LVL184-.Ltext0
 5313 0777 0600      		.word	0x6
 5314 0779 60        		.byte	0x60
 5315 077a 93        		.byte	0x93
 5316 077b 01        		.uleb128 0x1
 5317 077c 61        		.byte	0x61
 5318 077d 93        		.byte	0x93
 5319 077e 01        		.uleb128 0x1
 5320 077f 5E0D 0000 		.long	.LVL184-.Ltext0
 5321 0783 7A0D 0000 		.long	.LVL185-.Ltext0
 5322 0787 0600      		.word	0x6
 5323 0789 66        		.byte	0x66
 5324 078a 93        		.byte	0x93
 5325 078b 01        		.uleb128 0x1
 5326 078c 67        		.byte	0x67
 5327 078d 93        		.byte	0x93
 5328 078e 01        		.uleb128 0x1
 5329 078f 7A0D 0000 		.long	.LVL185-.Ltext0
 5330 0793 820D 0000 		.long	.LVL186-.Ltext0
 5331 0797 0600      		.word	0x6
 5332 0799 62        		.byte	0x62
 5333 079a 93        		.byte	0x93
 5334 079b 01        		.uleb128 0x1
 5335 079c 63        		.byte	0x63
 5336 079d 93        		.byte	0x93
 5337 079e 01        		.uleb128 0x1
 5338 079f 820D 0000 		.long	.LVL186-.Ltext0
 5339 07a3 8C0D 0000 		.long	.LVL187-.Ltext0
GAS LISTING /tmp/ccvyM2DX.s 			page 95


 5340 07a7 0600      		.word	0x6
 5341 07a9 66        		.byte	0x66
 5342 07aa 93        		.byte	0x93
 5343 07ab 01        		.uleb128 0x1
 5344 07ac 67        		.byte	0x67
 5345 07ad 93        		.byte	0x93
 5346 07ae 01        		.uleb128 0x1
 5347 07af 8E0D 0000 		.long	.LVL188-.Ltext0
 5348 07b3 9F0D 0000 		.long	.LVL189-1-.Ltext0
 5349 07b7 0600      		.word	0x6
 5350 07b9 66        		.byte	0x66
 5351 07ba 93        		.byte	0x93
 5352 07bb 01        		.uleb128 0x1
 5353 07bc 67        		.byte	0x67
 5354 07bd 93        		.byte	0x93
 5355 07be 01        		.uleb128 0x1
 5356 07bf 0000 0000 		.long	0x0
 5357 07c3 0000 0000 		.long	0x0
 5358               	.LLST37:
 5359 07c7 520D 0000 		.long	.LVL183-.Ltext0
 5360 07cb 5E0D 0000 		.long	.LVL184-.Ltext0
 5361 07cf 0200      		.word	0x2
 5362 07d1 31        		.byte	0x31
 5363 07d2 9F        		.byte	0x9f
 5364 07d3 6C10 0000 		.long	.LVL196-.Ltext0
 5365 07d7 7A10 0000 		.long	.LVL197-.Ltext0
 5366 07db 0200      		.word	0x2
 5367 07dd 30        		.byte	0x30
 5368 07de 9F        		.byte	0x9f
 5369 07df 0000 0000 		.long	0x0
 5370 07e3 0000 0000 		.long	0x0
 5371               	.LLST38:
 5372 07e7 F810 0000 		.long	.LVL198-.Ltext0
 5373 07eb 1711 0000 		.long	.LVL199-1-.Ltext0
 5374 07ef 0200      		.word	0x2
 5375 07f1 8C        		.byte	0x8c
 5376 07f2 01        		.sleb128 1
 5377 07f3 0000 0000 		.long	0x0
 5378 07f7 0000 0000 		.long	0x0
 5379               	.LLST39:
 5380 07fb 7E11 0000 		.long	.LVL200-.Ltext0
 5381 07ff 9D11 0000 		.long	.LVL201-1-.Ltext0
 5382 0803 0200      		.word	0x2
 5383 0805 8C        		.byte	0x8c
 5384 0806 03        		.sleb128 3
 5385 0807 0000 0000 		.long	0x0
 5386 080b 0000 0000 		.long	0x0
 5387               	.LLST40:
 5388 080f 0412 0000 		.long	.LVL202-.Ltext0
 5389 0813 2312 0000 		.long	.LVL203-1-.Ltext0
 5390 0817 0200      		.word	0x2
 5391 0819 8C        		.byte	0x8c
 5392 081a 05        		.sleb128 5
 5393 081b 0000 0000 		.long	0x0
 5394 081f 0000 0000 		.long	0x0
 5395               	.LLST41:
 5396 0823 8A12 0000 		.long	.LVL204-.Ltext0
GAS LISTING /tmp/ccvyM2DX.s 			page 96


 5397 0827 A912 0000 		.long	.LVL205-1-.Ltext0
 5398 082b 0200      		.word	0x2
 5399 082d 8C        		.byte	0x8c
 5400 082e 07        		.sleb128 7
 5401 082f 0000 0000 		.long	0x0
 5402 0833 0000 0000 		.long	0x0
 5403               	.LLST42:
 5404 0837 1013 0000 		.long	.LVL206-.Ltext0
 5405 083b 2F13 0000 		.long	.LVL207-1-.Ltext0
 5406 083f 0200      		.word	0x2
 5407 0841 8C        		.byte	0x8c
 5408 0842 09        		.sleb128 9
 5409 0843 0000 0000 		.long	0x0
 5410 0847 0000 0000 		.long	0x0
 5411               	.LLST43:
 5412 084b 9613 0000 		.long	.LVL208-.Ltext0
 5413 084f B513 0000 		.long	.LVL209-1-.Ltext0
 5414 0853 0200      		.word	0x2
 5415 0855 8C        		.byte	0x8c
 5416 0856 0B        		.sleb128 11
 5417 0857 0000 0000 		.long	0x0
 5418 085b 0000 0000 		.long	0x0
 5419               	.LLST44:
 5420 085f 3614 0000 		.long	.LVL210-.Ltext0
 5421 0863 4A16 0000 		.long	.LVL216-.Ltext0
 5422 0867 0200      		.word	0x2
 5423 0869 44        		.byte	0x44
 5424 086a 9F        		.byte	0x9f
 5425 086b 0000 0000 		.long	0x0
 5426 086f 0000 0000 		.long	0x0
 5427               	.LLST45:
 5428 0873 6A14 0000 		.long	.LVL211-.Ltext0
 5429 0877 4A16 0000 		.long	.LVL216-.Ltext0
 5430 087b 0200      		.word	0x2
 5431 087d 44        		.byte	0x44
 5432 087e 9F        		.byte	0x9f
 5433 087f 0000 0000 		.long	0x0
 5434 0883 0000 0000 		.long	0x0
 5435               	.LLST46:
 5436 0887 9E14 0000 		.long	.LVL212-.Ltext0
 5437 088b 4A16 0000 		.long	.LVL216-.Ltext0
 5438 088f 0200      		.word	0x2
 5439 0891 44        		.byte	0x44
 5440 0892 9F        		.byte	0x9f
 5441 0893 0000 0000 		.long	0x0
 5442 0897 0000 0000 		.long	0x0
 5443               	.LLST47:
 5444 089b D214 0000 		.long	.LVL213-.Ltext0
 5445 089f 4A16 0000 		.long	.LVL216-.Ltext0
 5446 08a3 0200      		.word	0x2
 5447 08a5 44        		.byte	0x44
 5448 08a6 9F        		.byte	0x9f
 5449 08a7 0000 0000 		.long	0x0
 5450 08ab 0000 0000 		.long	0x0
 5451               	.LLST48:
 5452 08af 0615 0000 		.long	.LVL214-.Ltext0
 5453 08b3 4A16 0000 		.long	.LVL216-.Ltext0
GAS LISTING /tmp/ccvyM2DX.s 			page 97


 5454 08b7 0200      		.word	0x2
 5455 08b9 44        		.byte	0x44
 5456 08ba 9F        		.byte	0x9f
 5457 08bb 0000 0000 		.long	0x0
 5458 08bf 0000 0000 		.long	0x0
 5459               	.LLST49:
 5460 08c3 3A15 0000 		.long	.LVL215-.Ltext0
 5461 08c7 4A16 0000 		.long	.LVL216-.Ltext0
 5462 08cb 0200      		.word	0x2
 5463 08cd 44        		.byte	0x44
 5464 08ce 9F        		.byte	0x9f
 5465 08cf 0000 0000 		.long	0x0
 5466 08d3 0000 0000 		.long	0x0
 5467               	.LLST50:
 5468 08d7 A417 0000 		.long	.LVL219-.Ltext0
 5469 08db E617 0000 		.long	.LVL220-.Ltext0
 5470 08df 0600      		.word	0x6
 5471 08e1 68        		.byte	0x68
 5472 08e2 93        		.byte	0x93
 5473 08e3 01        		.uleb128 0x1
 5474 08e4 69        		.byte	0x69
 5475 08e5 93        		.byte	0x93
 5476 08e6 01        		.uleb128 0x1
 5477 08e7 0000 0000 		.long	0x0
 5478 08eb 0000 0000 		.long	0x0
 5479               	.LLST51:
 5480 08ef 9417 0000 		.long	.LVL217-.Ltext0
 5481 08f3 A017 0000 		.long	.LVL218-.Ltext0
 5482 08f7 0200      		.word	0x2
 5483 08f9 30        		.byte	0x30
 5484 08fa 9F        		.byte	0x9f
 5485 08fb 0000 0000 		.long	0x0
 5486 08ff 0000 0000 		.long	0x0
 5487               		.section	.debug_info
 5488 0000 011B 0000 		.long	0x1b01
 5489 0004 0200      		.word	0x2
 5490 0006 0000 0000 		.long	.Ldebug_abbrev0
 5491 000a 04        		.byte	0x4
 5492 000b 01        		.uleb128 0x1
 5493 000c 0000 0000 		.long	.LASF325
 5494 0010 01        		.byte	0x1
 5495 0011 0000 0000 		.long	.LASF326
 5496 0015 0000 0000 		.long	.LASF327
 5497 0019 0000 0000 		.long	.Ltext0
 5498 001d 0000 0000 		.long	.Letext0
 5499 0021 0000 0000 		.long	.Ldebug_line0
 5500 0025 02        		.uleb128 0x2
 5501 0026 01        		.byte	0x1
 5502 0027 06        		.byte	0x6
 5503 0028 0000 0000 		.long	.LASF0
 5504 002c 03        		.uleb128 0x3
 5505 002d 0000 0000 		.long	.LASF4
 5506 0031 04        		.byte	0x4
 5507 0032 7A        		.byte	0x7a
 5508 0033 3700 0000 		.long	0x37
 5509 0037 02        		.uleb128 0x2
 5510 0038 01        		.byte	0x1
GAS LISTING /tmp/ccvyM2DX.s 			page 98


 5511 0039 08        		.byte	0x8
 5512 003a 0000 0000 		.long	.LASF1
 5513 003e 04        		.uleb128 0x4
 5514 003f 02        		.byte	0x2
 5515 0040 05        		.byte	0x5
 5516 0041 696E 7400 		.string	"int"
 5517 0045 02        		.uleb128 0x2
 5518 0046 02        		.byte	0x2
 5519 0047 07        		.byte	0x7
 5520 0048 0000 0000 		.long	.LASF2
 5521 004c 02        		.uleb128 0x2
 5522 004d 04        		.byte	0x4
 5523 004e 05        		.byte	0x5
 5524 004f 0000 0000 		.long	.LASF3
 5525 0053 03        		.uleb128 0x3
 5526 0054 0000 0000 		.long	.LASF5
 5527 0058 04        		.byte	0x4
 5528 0059 7E        		.byte	0x7e
 5529 005a 5E00 0000 		.long	0x5e
 5530 005e 02        		.uleb128 0x2
 5531 005f 04        		.byte	0x4
 5532 0060 07        		.byte	0x7
 5533 0061 0000 0000 		.long	.LASF6
 5534 0065 02        		.uleb128 0x2
 5535 0066 08        		.byte	0x8
 5536 0067 05        		.byte	0x5
 5537 0068 0000 0000 		.long	.LASF7
 5538 006c 02        		.uleb128 0x2
 5539 006d 08        		.byte	0x8
 5540 006e 07        		.byte	0x7
 5541 006f 0000 0000 		.long	.LASF8
 5542 0073 05        		.uleb128 0x5
 5543 0074 0000 0000 		.long	.LASF16
 5544 0078 0E        		.byte	0xe
 5545 0079 05        		.byte	0x5
 5546 007a F2        		.byte	0xf2
 5547 007b F500 0000 		.long	0xf5
 5548 007f 06        		.uleb128 0x6
 5549 0080 6275 6600 		.string	"buf"
 5550 0084 05        		.byte	0x5
 5551 0085 F3        		.byte	0xf3
 5552 0086 F500 0000 		.long	0xf5
 5553 008a 02        		.byte	0x2
 5554 008b 23        		.byte	0x23
 5555 008c 00        		.uleb128 0x0
 5556 008d 07        		.uleb128 0x7
 5557 008e 0000 0000 		.long	.LASF9
 5558 0092 05        		.byte	0x5
 5559 0093 F4        		.byte	0xf4
 5560 0094 3700 0000 		.long	0x37
 5561 0098 02        		.byte	0x2
 5562 0099 23        		.byte	0x23
 5563 009a 02        		.uleb128 0x2
 5564 009b 07        		.uleb128 0x7
 5565 009c 0000 0000 		.long	.LASF10
 5566 00a0 05        		.byte	0x5
 5567 00a1 F5        		.byte	0xf5
GAS LISTING /tmp/ccvyM2DX.s 			page 99


 5568 00a2 2C00 0000 		.long	0x2c
 5569 00a6 02        		.byte	0x2
 5570 00a7 23        		.byte	0x23
 5571 00a8 03        		.uleb128 0x3
 5572 00a9 08        		.uleb128 0x8
 5573 00aa 0000 0000 		.long	.LASF11
 5574 00ae 05        		.byte	0x5
 5575 00af 0501      		.word	0x105
 5576 00b1 3E00 0000 		.long	0x3e
 5577 00b5 02        		.byte	0x2
 5578 00b6 23        		.byte	0x23
 5579 00b7 04        		.uleb128 0x4
 5580 00b8 09        		.uleb128 0x9
 5581 00b9 6C65 6E00 		.string	"len"
 5582 00bd 05        		.byte	0x5
 5583 00be 0601      		.word	0x106
 5584 00c0 3E00 0000 		.long	0x3e
 5585 00c4 02        		.byte	0x2
 5586 00c5 23        		.byte	0x23
 5587 00c6 06        		.uleb128 0x6
 5588 00c7 09        		.uleb128 0x9
 5589 00c8 7075 7400 		.string	"put"
 5590 00cc 05        		.byte	0x5
 5591 00cd 0701      		.word	0x107
 5592 00cf 1D01 0000 		.long	0x11d
 5593 00d3 02        		.byte	0x2
 5594 00d4 23        		.byte	0x23
 5595 00d5 08        		.uleb128 0x8
 5596 00d6 09        		.uleb128 0x9
 5597 00d7 6765 7400 		.string	"get"
 5598 00db 05        		.byte	0x5
 5599 00dc 0801      		.word	0x108
 5600 00de 3301 0000 		.long	0x133
 5601 00e2 02        		.byte	0x2
 5602 00e3 23        		.byte	0x23
 5603 00e4 0A        		.uleb128 0xa
 5604 00e5 08        		.uleb128 0x8
 5605 00e6 0000 0000 		.long	.LASF12
 5606 00ea 05        		.byte	0x5
 5607 00eb 0901      		.word	0x109
 5608 00ed 3901 0000 		.long	0x139
 5609 00f1 02        		.byte	0x2
 5610 00f2 23        		.byte	0x23
 5611 00f3 0C        		.uleb128 0xc
 5612 00f4 00        		.byte	0x0
 5613 00f5 0A        		.uleb128 0xa
 5614 00f6 02        		.byte	0x2
 5615 00f7 FB00 0000 		.long	0xfb
 5616 00fb 02        		.uleb128 0x2
 5617 00fc 01        		.byte	0x1
 5618 00fd 08        		.byte	0x8
 5619 00fe 0000 0000 		.long	.LASF13
 5620 0102 0B        		.uleb128 0xb
 5621 0103 01        		.byte	0x1
 5622 0104 3E00 0000 		.long	0x3e
 5623 0108 1701 0000 		.long	0x117
 5624 010c 0C        		.uleb128 0xc
GAS LISTING /tmp/ccvyM2DX.s 			page 100


 5625 010d FB00 0000 		.long	0xfb
 5626 0111 0C        		.uleb128 0xc
 5627 0112 1701 0000 		.long	0x117
 5628 0116 00        		.byte	0x0
 5629 0117 0A        		.uleb128 0xa
 5630 0118 02        		.byte	0x2
 5631 0119 7300 0000 		.long	0x73
 5632 011d 0A        		.uleb128 0xa
 5633 011e 02        		.byte	0x2
 5634 011f 0201 0000 		.long	0x102
 5635 0123 0B        		.uleb128 0xb
 5636 0124 01        		.byte	0x1
 5637 0125 3E00 0000 		.long	0x3e
 5638 0129 3301 0000 		.long	0x133
 5639 012d 0C        		.uleb128 0xc
 5640 012e 1701 0000 		.long	0x117
 5641 0132 00        		.byte	0x0
 5642 0133 0A        		.uleb128 0xa
 5643 0134 02        		.byte	0x2
 5644 0135 2301 0000 		.long	0x123
 5645 0139 0D        		.uleb128 0xd
 5646 013a 02        		.byte	0x2
 5647 013b 0E        		.uleb128 0xe
 5648 013c 2C00 0000 		.long	0x2c
 5649 0140 0E        		.uleb128 0xe
 5650 0141 3700 0000 		.long	0x37
 5651 0145 0F        		.uleb128 0xf
 5652 0146 0000 0000 		.long	.LASF23
 5653 014a 01        		.byte	0x1
 5654 014b 06        		.byte	0x6
 5655 014c A2        		.byte	0xa2
 5656 014d 6001 0000 		.long	0x160
 5657 0151 10        		.uleb128 0x10
 5658 0152 0000 0000 		.long	.LASF14
 5659 0156 9D01      		.sleb128 157
 5660 0158 10        		.uleb128 0x10
 5661 0159 0000 0000 		.long	.LASF15
 5662 015d D801      		.sleb128 216
 5663 015f 00        		.byte	0x0
 5664 0160 05        		.uleb128 0x5
 5665 0161 0000 0000 		.long	.LASF17
 5666 0165 04        		.byte	0x4
 5667 0166 06        		.byte	0x6
 5668 0167 B0        		.byte	0xb0
 5669 0168 A501 0000 		.long	0x1a5
 5670 016c 07        		.uleb128 0x7
 5671 016d 0000 0000 		.long	.LASF18
 5672 0171 06        		.byte	0x6
 5673 0172 B2        		.byte	0xb2
 5674 0173 4001 0000 		.long	0x140
 5675 0177 02        		.byte	0x2
 5676 0178 23        		.byte	0x23
 5677 0179 00        		.uleb128 0x0
 5678 017a 07        		.uleb128 0x7
 5679 017b 0000 0000 		.long	.LASF19
 5680 017f 06        		.byte	0x6
 5681 0180 B3        		.byte	0xb3
GAS LISTING /tmp/ccvyM2DX.s 			page 101


 5682 0181 4001 0000 		.long	0x140
 5683 0185 02        		.byte	0x2
 5684 0186 23        		.byte	0x23
 5685 0187 01        		.uleb128 0x1
 5686 0188 07        		.uleb128 0x7
 5687 0189 0000 0000 		.long	.LASF20
 5688 018d 06        		.byte	0x6
 5689 018e B4        		.byte	0xb4
 5690 018f 4001 0000 		.long	0x140
 5691 0193 02        		.byte	0x2
 5692 0194 23        		.byte	0x23
 5693 0195 02        		.uleb128 0x2
 5694 0196 07        		.uleb128 0x7
 5695 0197 0000 0000 		.long	.LASF21
 5696 019b 06        		.byte	0x6
 5697 019c B5        		.byte	0xb5
 5698 019d 4001 0000 		.long	0x140
 5699 01a1 02        		.byte	0x2
 5700 01a2 23        		.byte	0x23
 5701 01a3 03        		.uleb128 0x3
 5702 01a4 00        		.byte	0x0
 5703 01a5 03        		.uleb128 0x3
 5704 01a6 0000 0000 		.long	.LASF22
 5705 01aa 06        		.byte	0x6
 5706 01ab B6        		.byte	0xb6
 5707 01ac 6001 0000 		.long	0x160
 5708 01b0 0F        		.uleb128 0xf
 5709 01b1 0000 0000 		.long	.LASF24
 5710 01b5 01        		.byte	0x1
 5711 01b6 06        		.byte	0x6
 5712 01b7 CB        		.byte	0xcb
 5713 01b8 DB01 0000 		.long	0x1db
 5714 01bc 10        		.uleb128 0x10
 5715 01bd 0000 0000 		.long	.LASF25
 5716 01c1 00        		.sleb128 0
 5717 01c2 10        		.uleb128 0x10
 5718 01c3 0000 0000 		.long	.LASF26
 5719 01c7 01        		.sleb128 1
 5720 01c8 10        		.uleb128 0x10
 5721 01c9 0000 0000 		.long	.LASF27
 5722 01cd 02        		.sleb128 2
 5723 01ce 10        		.uleb128 0x10
 5724 01cf 0000 0000 		.long	.LASF28
 5725 01d3 03        		.sleb128 3
 5726 01d4 10        		.uleb128 0x10
 5727 01d5 0000 0000 		.long	.LASF29
 5728 01d9 04        		.sleb128 4
 5729 01da 00        		.byte	0x0
 5730 01db 03        		.uleb128 0x3
 5731 01dc 0000 0000 		.long	.LASF30
 5732 01e0 06        		.byte	0x6
 5733 01e1 D2        		.byte	0xd2
 5734 01e2 B001 0000 		.long	0x1b0
 5735 01e6 0F        		.uleb128 0xf
 5736 01e7 0000 0000 		.long	.LASF31
 5737 01eb 01        		.byte	0x1
 5738 01ec 06        		.byte	0x6
GAS LISTING /tmp/ccvyM2DX.s 			page 102


 5739 01ed D5        		.byte	0xd5
 5740 01ee 3002 0000 		.long	0x230
 5741 01f2 10        		.uleb128 0x10
 5742 01f3 0000 0000 		.long	.LASF32
 5743 01f7 00        		.sleb128 0
 5744 01f8 10        		.uleb128 0x10
 5745 01f9 0000 0000 		.long	.LASF33
 5746 01fd 04        		.sleb128 4
 5747 01fe 10        		.uleb128 0x10
 5748 01ff 0000 0000 		.long	.LASF34
 5749 0203 0C        		.sleb128 12
 5750 0204 10        		.uleb128 0x10
 5751 0205 0000 0000 		.long	.LASF35
 5752 0209 14        		.sleb128 20
 5753 020a 10        		.uleb128 0x10
 5754 020b 0000 0000 		.long	.LASF36
 5755 020f 1C        		.sleb128 28
 5756 0210 10        		.uleb128 0x10
 5757 0211 0000 0000 		.long	.LASF37
 5758 0215 24        		.sleb128 36
 5759 0216 10        		.uleb128 0x10
 5760 0217 0000 0000 		.long	.LASF38
 5761 021b 2C        		.sleb128 44
 5762 021c 10        		.uleb128 0x10
 5763 021d 0000 0000 		.long	.LASF39
 5764 0221 34        		.sleb128 52
 5765 0222 10        		.uleb128 0x10
 5766 0223 0000 0000 		.long	.LASF40
 5767 0227 3C        		.sleb128 60
 5768 0228 10        		.uleb128 0x10
 5769 0229 0000 0000 		.long	.LASF41
 5770 022d C400      		.sleb128 68
 5771 022f 00        		.byte	0x0
 5772 0230 03        		.uleb128 0x3
 5773 0231 0000 0000 		.long	.LASF42
 5774 0235 06        		.byte	0x6
 5775 0236 E1        		.byte	0xe1
 5776 0237 E601 0000 		.long	0x1e6
 5777 023b 0F        		.uleb128 0xf
 5778 023c 0000 0000 		.long	.LASF43
 5779 0240 01        		.byte	0x1
 5780 0241 06        		.byte	0x6
 5781 0242 E4        		.byte	0xe4
 5782 0243 6002 0000 		.long	0x260
 5783 0247 10        		.uleb128 0x10
 5784 0248 0000 0000 		.long	.LASF44
 5785 024c 00        		.sleb128 0
 5786 024d 10        		.uleb128 0x10
 5787 024e 0000 0000 		.long	.LASF45
 5788 0252 01        		.sleb128 1
 5789 0253 10        		.uleb128 0x10
 5790 0254 0000 0000 		.long	.LASF46
 5791 0258 02        		.sleb128 2
 5792 0259 10        		.uleb128 0x10
 5793 025a 0000 0000 		.long	.LASF47
 5794 025e 03        		.sleb128 3
 5795 025f 00        		.byte	0x0
GAS LISTING /tmp/ccvyM2DX.s 			page 103


 5796 0260 03        		.uleb128 0x3
 5797 0261 0000 0000 		.long	.LASF48
 5798 0265 06        		.byte	0x6
 5799 0266 EA        		.byte	0xea
 5800 0267 3B02 0000 		.long	0x23b
 5801 026b 0F        		.uleb128 0xf
 5802 026c 0000 0000 		.long	.LASF49
 5803 0270 01        		.byte	0x1
 5804 0271 06        		.byte	0x6
 5805 0272 ED        		.byte	0xed
 5806 0273 9002 0000 		.long	0x290
 5807 0277 10        		.uleb128 0x10
 5808 0278 0000 0000 		.long	.LASF50
 5809 027c 00        		.sleb128 0
 5810 027d 10        		.uleb128 0x10
 5811 027e 0000 0000 		.long	.LASF51
 5812 0282 02        		.sleb128 2
 5813 0283 10        		.uleb128 0x10
 5814 0284 0000 0000 		.long	.LASF52
 5815 0288 04        		.sleb128 4
 5816 0289 10        		.uleb128 0x10
 5817 028a 0000 0000 		.long	.LASF53
 5818 028e 0A        		.sleb128 10
 5819 028f 00        		.byte	0x0
 5820 0290 03        		.uleb128 0x3
 5821 0291 0000 0000 		.long	.LASF54
 5822 0295 06        		.byte	0x6
 5823 0296 F3        		.byte	0xf3
 5824 0297 6B02 0000 		.long	0x26b
 5825 029b 11        		.uleb128 0x11
 5826 029c 0000 0000 		.long	.LASF55
 5827 02a0 07        		.byte	0x7
 5828 02a1 06        		.byte	0x6
 5829 02a2 1401      		.word	0x114
 5830 02a4 1203 0000 		.long	0x312
 5831 02a8 08        		.uleb128 0x8
 5832 02a9 0000 0000 		.long	.LASF18
 5833 02ad 06        		.byte	0x6
 5834 02ae 1601      		.word	0x116
 5835 02b0 4001 0000 		.long	0x140
 5836 02b4 02        		.byte	0x2
 5837 02b5 23        		.byte	0x23
 5838 02b6 00        		.uleb128 0x0
 5839 02b7 08        		.uleb128 0x8
 5840 02b8 0000 0000 		.long	.LASF56
 5841 02bc 06        		.byte	0x6
 5842 02bd 1701      		.word	0x117
 5843 02bf 4001 0000 		.long	0x140
 5844 02c3 02        		.byte	0x2
 5845 02c4 23        		.byte	0x23
 5846 02c5 01        		.uleb128 0x1
 5847 02c6 08        		.uleb128 0x8
 5848 02c7 0000 0000 		.long	.LASF57
 5849 02cb 06        		.byte	0x6
 5850 02cc 1801      		.word	0x118
 5851 02ce 4001 0000 		.long	0x140
 5852 02d2 02        		.byte	0x2
GAS LISTING /tmp/ccvyM2DX.s 			page 104


 5853 02d3 23        		.byte	0x23
 5854 02d4 02        		.uleb128 0x2
 5855 02d5 08        		.uleb128 0x8
 5856 02d6 0000 0000 		.long	.LASF58
 5857 02da 06        		.byte	0x6
 5858 02db 1901      		.word	0x119
 5859 02dd 4001 0000 		.long	0x140
 5860 02e1 02        		.byte	0x2
 5861 02e2 23        		.byte	0x23
 5862 02e3 03        		.uleb128 0x3
 5863 02e4 08        		.uleb128 0x8
 5864 02e5 0000 0000 		.long	.LASF59
 5865 02e9 06        		.byte	0x6
 5866 02ea 1A01      		.word	0x11a
 5867 02ec 4001 0000 		.long	0x140
 5868 02f0 02        		.byte	0x2
 5869 02f1 23        		.byte	0x23
 5870 02f2 04        		.uleb128 0x4
 5871 02f3 08        		.uleb128 0x8
 5872 02f4 0000 0000 		.long	.LASF60
 5873 02f8 06        		.byte	0x6
 5874 02f9 1B01      		.word	0x11b
 5875 02fb 4001 0000 		.long	0x140
 5876 02ff 02        		.byte	0x2
 5877 0300 23        		.byte	0x23
 5878 0301 05        		.uleb128 0x5
 5879 0302 08        		.uleb128 0x8
 5880 0303 0000 0000 		.long	.LASF61
 5881 0307 06        		.byte	0x6
 5882 0308 1C01      		.word	0x11c
 5883 030a 4001 0000 		.long	0x140
 5884 030e 02        		.byte	0x2
 5885 030f 23        		.byte	0x23
 5886 0310 06        		.uleb128 0x6
 5887 0311 00        		.byte	0x0
 5888 0312 12        		.uleb128 0x12
 5889 0313 0000 0000 		.long	.LASF62
 5890 0317 06        		.byte	0x6
 5891 0318 1D01      		.word	0x11d
 5892 031a 9B02 0000 		.long	0x29b
 5893 031e 13        		.uleb128 0x13
 5894 031f 0000 0000 		.long	.LASF63
 5895 0323 01        		.byte	0x1
 5896 0324 06        		.byte	0x6
 5897 0325 2001      		.word	0x120
 5898 0327 4703 0000 		.long	0x347
 5899 032b 10        		.uleb128 0x10
 5900 032c 0000 0000 		.long	.LASF64
 5901 0330 00        		.sleb128 0
 5902 0331 10        		.uleb128 0x10
 5903 0332 0000 0000 		.long	.LASF65
 5904 0336 C000      		.sleb128 64
 5905 0338 10        		.uleb128 0x10
 5906 0339 0000 0000 		.long	.LASF66
 5907 033d 8001      		.sleb128 128
 5908 033f 10        		.uleb128 0x10
 5909 0340 0000 0000 		.long	.LASF67
GAS LISTING /tmp/ccvyM2DX.s 			page 105


 5910 0344 C001      		.sleb128 192
 5911 0346 00        		.byte	0x0
 5912 0347 12        		.uleb128 0x12
 5913 0348 0000 0000 		.long	.LASF68
 5914 034c 06        		.byte	0x6
 5915 034d 2601      		.word	0x126
 5916 034f 1E03 0000 		.long	0x31e
 5917 0353 13        		.uleb128 0x13
 5918 0354 0000 0000 		.long	.LASF69
 5919 0358 01        		.byte	0x1
 5920 0359 06        		.byte	0x6
 5921 035a 2901      		.word	0x129
 5922 035c 7F03 0000 		.long	0x37f
 5923 0360 10        		.uleb128 0x10
 5924 0361 0000 0000 		.long	.LASF70
 5925 0365 00        		.sleb128 0
 5926 0366 10        		.uleb128 0x10
 5927 0367 0000 0000 		.long	.LASF71
 5928 036b 02        		.sleb128 2
 5929 036c 10        		.uleb128 0x10
 5930 036d 0000 0000 		.long	.LASF72
 5931 0371 03        		.sleb128 3
 5932 0372 10        		.uleb128 0x10
 5933 0373 0000 0000 		.long	.LASF73
 5934 0377 07        		.sleb128 7
 5935 0378 10        		.uleb128 0x10
 5936 0379 0000 0000 		.long	.LASF74
 5937 037d 0B        		.sleb128 11
 5938 037e 00        		.byte	0x0
 5939 037f 12        		.uleb128 0x12
 5940 0380 0000 0000 		.long	.LASF75
 5941 0384 06        		.byte	0x6
 5942 0385 3001      		.word	0x130
 5943 0387 5303 0000 		.long	0x353
 5944 038b 13        		.uleb128 0x13
 5945 038c 0000 0000 		.long	.LASF76
 5946 0390 01        		.byte	0x1
 5947 0391 06        		.byte	0x6
 5948 0392 3301      		.word	0x133
 5949 0394 AD03 0000 		.long	0x3ad
 5950 0398 10        		.uleb128 0x10
 5951 0399 0000 0000 		.long	.LASF77
 5952 039d 00        		.sleb128 0
 5953 039e 10        		.uleb128 0x10
 5954 039f 0000 0000 		.long	.LASF78
 5955 03a3 8001      		.sleb128 128
 5956 03a5 10        		.uleb128 0x10
 5957 03a6 0000 0000 		.long	.LASF79
 5958 03aa C001      		.sleb128 192
 5959 03ac 00        		.byte	0x0
 5960 03ad 12        		.uleb128 0x12
 5961 03ae 0000 0000 		.long	.LASF80
 5962 03b2 06        		.byte	0x6
 5963 03b3 3801      		.word	0x138
 5964 03b5 8B03 0000 		.long	0x38b
 5965 03b9 11        		.uleb128 0x11
 5966 03ba 0000 0000 		.long	.LASF81
GAS LISTING /tmp/ccvyM2DX.s 			page 106


 5967 03be 08        		.byte	0x8
 5968 03bf 06        		.byte	0x6
 5969 03c0 4201      		.word	0x142
 5970 03c2 3F04 0000 		.long	0x43f
 5971 03c6 08        		.uleb128 0x8
 5972 03c7 0000 0000 		.long	.LASF18
 5973 03cb 06        		.byte	0x6
 5974 03cc 4401      		.word	0x144
 5975 03ce 4001 0000 		.long	0x140
 5976 03d2 02        		.byte	0x2
 5977 03d3 23        		.byte	0x23
 5978 03d4 00        		.uleb128 0x0
 5979 03d5 08        		.uleb128 0x8
 5980 03d6 0000 0000 		.long	.LASF82
 5981 03da 06        		.byte	0x6
 5982 03db 4501      		.word	0x145
 5983 03dd 4001 0000 		.long	0x140
 5984 03e1 02        		.byte	0x2
 5985 03e2 23        		.byte	0x23
 5986 03e3 01        		.uleb128 0x1
 5987 03e4 08        		.uleb128 0x8
 5988 03e5 0000 0000 		.long	.LASF83
 5989 03e9 06        		.byte	0x6
 5990 03ea 4601      		.word	0x146
 5991 03ec 4001 0000 		.long	0x140
 5992 03f0 02        		.byte	0x2
 5993 03f1 23        		.byte	0x23
 5994 03f2 02        		.uleb128 0x2
 5995 03f3 08        		.uleb128 0x8
 5996 03f4 0000 0000 		.long	.LASF84
 5997 03f8 06        		.byte	0x6
 5998 03f9 4701      		.word	0x147
 5999 03fb 4001 0000 		.long	0x140
 6000 03ff 02        		.byte	0x2
 6001 0400 23        		.byte	0x23
 6002 0401 03        		.uleb128 0x3
 6003 0402 08        		.uleb128 0x8
 6004 0403 0000 0000 		.long	.LASF85
 6005 0407 06        		.byte	0x6
 6006 0408 4801      		.word	0x148
 6007 040a 4001 0000 		.long	0x140
 6008 040e 02        		.byte	0x2
 6009 040f 23        		.byte	0x23
 6010 0410 04        		.uleb128 0x4
 6011 0411 08        		.uleb128 0x8
 6012 0412 0000 0000 		.long	.LASF86
 6013 0416 06        		.byte	0x6
 6014 0417 4901      		.word	0x149
 6015 0419 4001 0000 		.long	0x140
 6016 041d 02        		.byte	0x2
 6017 041e 23        		.byte	0x23
 6018 041f 05        		.uleb128 0x5
 6019 0420 08        		.uleb128 0x8
 6020 0421 0000 0000 		.long	.LASF87
 6021 0425 06        		.byte	0x6
 6022 0426 4A01      		.word	0x14a
 6023 0428 4001 0000 		.long	0x140
GAS LISTING /tmp/ccvyM2DX.s 			page 107


 6024 042c 02        		.byte	0x2
 6025 042d 23        		.byte	0x23
 6026 042e 06        		.uleb128 0x6
 6027 042f 08        		.uleb128 0x8
 6028 0430 0000 0000 		.long	.LASF88
 6029 0434 06        		.byte	0x6
 6030 0435 4B01      		.word	0x14b
 6031 0437 4001 0000 		.long	0x140
 6032 043b 02        		.byte	0x2
 6033 043c 23        		.byte	0x23
 6034 043d 07        		.uleb128 0x7
 6035 043e 00        		.byte	0x0
 6036 043f 12        		.uleb128 0x12
 6037 0440 0000 0000 		.long	.LASF89
 6038 0444 06        		.byte	0x6
 6039 0445 4C01      		.word	0x14c
 6040 0447 B903 0000 		.long	0x3b9
 6041 044b 11        		.uleb128 0x11
 6042 044c 0000 0000 		.long	.LASF90
 6043 0450 03        		.byte	0x3
 6044 0451 06        		.byte	0x6
 6045 0452 AB01      		.word	0x1ab
 6046 0454 8604 0000 		.long	0x486
 6047 0458 08        		.uleb128 0x8
 6048 0459 0000 0000 		.long	.LASF56
 6049 045d 06        		.byte	0x6
 6050 045e AD01      		.word	0x1ad
 6051 0460 4001 0000 		.long	0x140
 6052 0464 02        		.byte	0x2
 6053 0465 23        		.byte	0x23
 6054 0466 00        		.uleb128 0x0
 6055 0467 08        		.uleb128 0x8
 6056 0468 0000 0000 		.long	.LASF91
 6057 046c 06        		.byte	0x6
 6058 046d AE01      		.word	0x1ae
 6059 046f 4001 0000 		.long	0x140
 6060 0473 02        		.byte	0x2
 6061 0474 23        		.byte	0x23
 6062 0475 01        		.uleb128 0x1
 6063 0476 08        		.uleb128 0x8
 6064 0477 0000 0000 		.long	.LASF18
 6065 047b 06        		.byte	0x6
 6066 047c AF01      		.word	0x1af
 6067 047e 4001 0000 		.long	0x140
 6068 0482 02        		.byte	0x2
 6069 0483 23        		.byte	0x23
 6070 0484 02        		.uleb128 0x2
 6071 0485 00        		.byte	0x0
 6072 0486 12        		.uleb128 0x12
 6073 0487 0000 0000 		.long	.LASF92
 6074 048b 06        		.byte	0x6
 6075 048c B001      		.word	0x1b0
 6076 048e 4B04 0000 		.long	0x44b
 6077 0492 0E        		.uleb128 0xe
 6078 0493 4500 0000 		.long	0x45
 6079 0497 11        		.uleb128 0x11
 6080 0498 0000 0000 		.long	.LASF93
GAS LISTING /tmp/ccvyM2DX.s 			page 108


 6081 049c 18        		.byte	0x18
 6082 049d 06        		.byte	0x6
 6083 049e 6E07      		.word	0x76e
 6084 04a0 0C06 0000 		.long	0x60c
 6085 04a4 09        		.uleb128 0x9
 6086 04a5 4449 5200 		.string	"DIR"
 6087 04a9 06        		.byte	0x6
 6088 04aa 7007      		.word	0x770
 6089 04ac 4001 0000 		.long	0x140
 6090 04b0 02        		.byte	0x2
 6091 04b1 23        		.byte	0x23
 6092 04b2 00        		.uleb128 0x0
 6093 04b3 08        		.uleb128 0x8
 6094 04b4 0000 0000 		.long	.LASF94
 6095 04b8 06        		.byte	0x6
 6096 04b9 7107      		.word	0x771
 6097 04bb 4001 0000 		.long	0x140
 6098 04bf 02        		.byte	0x2
 6099 04c0 23        		.byte	0x23
 6100 04c1 01        		.uleb128 0x1
 6101 04c2 08        		.uleb128 0x8
 6102 04c3 0000 0000 		.long	.LASF95
 6103 04c7 06        		.byte	0x6
 6104 04c8 7207      		.word	0x772
 6105 04ca 4001 0000 		.long	0x140
 6106 04ce 02        		.byte	0x2
 6107 04cf 23        		.byte	0x23
 6108 04d0 02        		.uleb128 0x2
 6109 04d1 08        		.uleb128 0x8
 6110 04d2 0000 0000 		.long	.LASF96
 6111 04d6 06        		.byte	0x6
 6112 04d7 7307      		.word	0x773
 6113 04d9 4001 0000 		.long	0x140
 6114 04dd 02        		.byte	0x2
 6115 04de 23        		.byte	0x23
 6116 04df 03        		.uleb128 0x3
 6117 04e0 09        		.uleb128 0x9
 6118 04e1 4F55 5400 		.string	"OUT"
 6119 04e5 06        		.byte	0x6
 6120 04e6 7407      		.word	0x774
 6121 04e8 4001 0000 		.long	0x140
 6122 04ec 02        		.byte	0x2
 6123 04ed 23        		.byte	0x23
 6124 04ee 04        		.uleb128 0x4
 6125 04ef 08        		.uleb128 0x8
 6126 04f0 0000 0000 		.long	.LASF97
 6127 04f4 06        		.byte	0x6
 6128 04f5 7507      		.word	0x775
 6129 04f7 4001 0000 		.long	0x140
 6130 04fb 02        		.byte	0x2
 6131 04fc 23        		.byte	0x23
 6132 04fd 05        		.uleb128 0x5
 6133 04fe 08        		.uleb128 0x8
 6134 04ff 0000 0000 		.long	.LASF98
 6135 0503 06        		.byte	0x6
 6136 0504 7607      		.word	0x776
 6137 0506 4001 0000 		.long	0x140
GAS LISTING /tmp/ccvyM2DX.s 			page 109


 6138 050a 02        		.byte	0x2
 6139 050b 23        		.byte	0x23
 6140 050c 06        		.uleb128 0x6
 6141 050d 08        		.uleb128 0x8
 6142 050e 0000 0000 		.long	.LASF99
 6143 0512 06        		.byte	0x6
 6144 0513 7707      		.word	0x777
 6145 0515 4001 0000 		.long	0x140
 6146 0519 02        		.byte	0x2
 6147 051a 23        		.byte	0x23
 6148 051b 07        		.uleb128 0x7
 6149 051c 09        		.uleb128 0x9
 6150 051d 494E 00   		.string	"IN"
 6151 0520 06        		.byte	0x6
 6152 0521 7807      		.word	0x778
 6153 0523 4001 0000 		.long	0x140
 6154 0527 02        		.byte	0x2
 6155 0528 23        		.byte	0x23
 6156 0529 08        		.uleb128 0x8
 6157 052a 08        		.uleb128 0x8
 6158 052b 0000 0000 		.long	.LASF100
 6159 052f 06        		.byte	0x6
 6160 0530 7907      		.word	0x779
 6161 0532 4001 0000 		.long	0x140
 6162 0536 02        		.byte	0x2
 6163 0537 23        		.byte	0x23
 6164 0538 09        		.uleb128 0x9
 6165 0539 08        		.uleb128 0x8
 6166 053a 0000 0000 		.long	.LASF101
 6167 053e 06        		.byte	0x6
 6168 053f 7A07      		.word	0x77a
 6169 0541 4001 0000 		.long	0x140
 6170 0545 02        		.byte	0x2
 6171 0546 23        		.byte	0x23
 6172 0547 0A        		.uleb128 0xa
 6173 0548 08        		.uleb128 0x8
 6174 0549 0000 0000 		.long	.LASF102
 6175 054d 06        		.byte	0x6
 6176 054e 7B07      		.word	0x77b
 6177 0550 4001 0000 		.long	0x140
 6178 0554 02        		.byte	0x2
 6179 0555 23        		.byte	0x23
 6180 0556 0B        		.uleb128 0xb
 6181 0557 08        		.uleb128 0x8
 6182 0558 0000 0000 		.long	.LASF103
 6183 055c 06        		.byte	0x6
 6184 055d 7C07      		.word	0x77c
 6185 055f 4001 0000 		.long	0x140
 6186 0563 02        		.byte	0x2
 6187 0564 23        		.byte	0x23
 6188 0565 0C        		.uleb128 0xc
 6189 0566 08        		.uleb128 0x8
 6190 0567 0000 0000 		.long	.LASF104
 6191 056b 06        		.byte	0x6
 6192 056c 7D07      		.word	0x77d
 6193 056e 4001 0000 		.long	0x140
 6194 0572 02        		.byte	0x2
GAS LISTING /tmp/ccvyM2DX.s 			page 110


 6195 0573 23        		.byte	0x23
 6196 0574 0D        		.uleb128 0xd
 6197 0575 08        		.uleb128 0x8
 6198 0576 0000 0000 		.long	.LASF105
 6199 057a 06        		.byte	0x6
 6200 057b 7E07      		.word	0x77e
 6201 057d 4001 0000 		.long	0x140
 6202 0581 02        		.byte	0x2
 6203 0582 23        		.byte	0x23
 6204 0583 0E        		.uleb128 0xe
 6205 0584 08        		.uleb128 0x8
 6206 0585 0000 0000 		.long	.LASF106
 6207 0589 06        		.byte	0x6
 6208 058a 7F07      		.word	0x77f
 6209 058c 4001 0000 		.long	0x140
 6210 0590 02        		.byte	0x2
 6211 0591 23        		.byte	0x23
 6212 0592 0F        		.uleb128 0xf
 6213 0593 08        		.uleb128 0x8
 6214 0594 0000 0000 		.long	.LASF107
 6215 0598 06        		.byte	0x6
 6216 0599 8007      		.word	0x780
 6217 059b 4001 0000 		.long	0x140
 6218 059f 02        		.byte	0x2
 6219 05a0 23        		.byte	0x23
 6220 05a1 10        		.uleb128 0x10
 6221 05a2 08        		.uleb128 0x8
 6222 05a3 0000 0000 		.long	.LASF108
 6223 05a7 06        		.byte	0x6
 6224 05a8 8107      		.word	0x781
 6225 05aa 4001 0000 		.long	0x140
 6226 05ae 02        		.byte	0x2
 6227 05af 23        		.byte	0x23
 6228 05b0 11        		.uleb128 0x11
 6229 05b1 08        		.uleb128 0x8
 6230 05b2 0000 0000 		.long	.LASF109
 6231 05b6 06        		.byte	0x6
 6232 05b7 8207      		.word	0x782
 6233 05b9 4001 0000 		.long	0x140
 6234 05bd 02        		.byte	0x2
 6235 05be 23        		.byte	0x23
 6236 05bf 12        		.uleb128 0x12
 6237 05c0 08        		.uleb128 0x8
 6238 05c1 0000 0000 		.long	.LASF110
 6239 05c5 06        		.byte	0x6
 6240 05c6 8307      		.word	0x783
 6241 05c8 4001 0000 		.long	0x140
 6242 05cc 02        		.byte	0x2
 6243 05cd 23        		.byte	0x23
 6244 05ce 13        		.uleb128 0x13
 6245 05cf 08        		.uleb128 0x8
 6246 05d0 0000 0000 		.long	.LASF111
 6247 05d4 06        		.byte	0x6
 6248 05d5 8407      		.word	0x784
 6249 05d7 4001 0000 		.long	0x140
 6250 05db 02        		.byte	0x2
 6251 05dc 23        		.byte	0x23
GAS LISTING /tmp/ccvyM2DX.s 			page 111


 6252 05dd 14        		.uleb128 0x14
 6253 05de 08        		.uleb128 0x8
 6254 05df 0000 0000 		.long	.LASF112
 6255 05e3 06        		.byte	0x6
 6256 05e4 8507      		.word	0x785
 6257 05e6 4001 0000 		.long	0x140
 6258 05ea 02        		.byte	0x2
 6259 05eb 23        		.byte	0x23
 6260 05ec 15        		.uleb128 0x15
 6261 05ed 08        		.uleb128 0x8
 6262 05ee 0000 0000 		.long	.LASF113
 6263 05f2 06        		.byte	0x6
 6264 05f3 8607      		.word	0x786
 6265 05f5 4001 0000 		.long	0x140
 6266 05f9 02        		.byte	0x2
 6267 05fa 23        		.byte	0x23
 6268 05fb 16        		.uleb128 0x16
 6269 05fc 08        		.uleb128 0x8
 6270 05fd 0000 0000 		.long	.LASF114
 6271 0601 06        		.byte	0x6
 6272 0602 8707      		.word	0x787
 6273 0604 4001 0000 		.long	0x140
 6274 0608 02        		.byte	0x2
 6275 0609 23        		.byte	0x23
 6276 060a 17        		.uleb128 0x17
 6277 060b 00        		.byte	0x0
 6278 060c 12        		.uleb128 0x12
 6279 060d 0000 0000 		.long	.LASF115
 6280 0611 06        		.byte	0x6
 6281 0612 8807      		.word	0x788
 6282 0614 9704 0000 		.long	0x497
 6283 0618 13        		.uleb128 0x13
 6284 0619 0000 0000 		.long	.LASF116
 6285 061d 01        		.byte	0x1
 6286 061e 06        		.byte	0x6
 6287 061f 0308      		.word	0x803
 6288 0621 5606 0000 		.long	0x656
 6289 0625 10        		.uleb128 0x10
 6290 0626 0000 0000 		.long	.LASF117
 6291 062a 00        		.sleb128 0
 6292 062b 10        		.uleb128 0x10
 6293 062c 0000 0000 		.long	.LASF118
 6294 0630 08        		.sleb128 8
 6295 0631 10        		.uleb128 0x10
 6296 0632 0000 0000 		.long	.LASF119
 6297 0636 10        		.sleb128 16
 6298 0637 10        		.uleb128 0x10
 6299 0638 0000 0000 		.long	.LASF120
 6300 063c 18        		.sleb128 24
 6301 063d 10        		.uleb128 0x10
 6302 063e 0000 0000 		.long	.LASF121
 6303 0642 20        		.sleb128 32
 6304 0643 10        		.uleb128 0x10
 6305 0644 0000 0000 		.long	.LASF122
 6306 0648 28        		.sleb128 40
 6307 0649 10        		.uleb128 0x10
 6308 064a 0000 0000 		.long	.LASF123
GAS LISTING /tmp/ccvyM2DX.s 			page 112


 6309 064e 30        		.sleb128 48
 6310 064f 10        		.uleb128 0x10
 6311 0650 0000 0000 		.long	.LASF124
 6312 0654 38        		.sleb128 56
 6313 0655 00        		.byte	0x0
 6314 0656 14        		.uleb128 0x14
 6315 0657 02        		.byte	0x2
 6316 0658 06        		.byte	0x6
 6317 0659 4308      		.word	0x843
 6318 065b 7E06 0000 		.long	0x67e
 6319 065f 08        		.uleb128 0x8
 6320 0660 0000 0000 		.long	.LASF125
 6321 0664 06        		.byte	0x6
 6322 0665 4308      		.word	0x843
 6323 0667 4001 0000 		.long	0x140
 6324 066b 02        		.byte	0x2
 6325 066c 23        		.byte	0x23
 6326 066d 00        		.uleb128 0x0
 6327 066e 08        		.uleb128 0x8
 6328 066f 0000 0000 		.long	.LASF126
 6329 0673 06        		.byte	0x6
 6330 0674 4308      		.word	0x843
 6331 0676 4001 0000 		.long	0x140
 6332 067a 02        		.byte	0x2
 6333 067b 23        		.byte	0x23
 6334 067c 01        		.uleb128 0x1
 6335 067d 00        		.byte	0x0
 6336 067e 15        		.uleb128 0x15
 6337 067f 02        		.byte	0x2
 6338 0680 06        		.byte	0x6
 6339 0681 4308      		.word	0x843
 6340 0683 9906 0000 		.long	0x699
 6341 0687 16        		.uleb128 0x16
 6342 0688 434E 5400 		.string	"CNT"
 6343 068c 06        		.byte	0x6
 6344 068d 4308      		.word	0x843
 6345 068f 9204 0000 		.long	0x492
 6346 0693 17        		.uleb128 0x17
 6347 0694 5606 0000 		.long	0x656
 6348 0698 00        		.byte	0x0
 6349 0699 14        		.uleb128 0x14
 6350 069a 02        		.byte	0x2
 6351 069b 06        		.byte	0x6
 6352 069c 4808      		.word	0x848
 6353 069e C106 0000 		.long	0x6c1
 6354 06a2 08        		.uleb128 0x8
 6355 06a3 0000 0000 		.long	.LASF127
 6356 06a7 06        		.byte	0x6
 6357 06a8 4808      		.word	0x848
 6358 06aa 4001 0000 		.long	0x140
 6359 06ae 02        		.byte	0x2
 6360 06af 23        		.byte	0x23
 6361 06b0 00        		.uleb128 0x0
 6362 06b1 08        		.uleb128 0x8
 6363 06b2 0000 0000 		.long	.LASF128
 6364 06b6 06        		.byte	0x6
 6365 06b7 4808      		.word	0x848
GAS LISTING /tmp/ccvyM2DX.s 			page 113


 6366 06b9 4001 0000 		.long	0x140
 6367 06bd 02        		.byte	0x2
 6368 06be 23        		.byte	0x23
 6369 06bf 01        		.uleb128 0x1
 6370 06c0 00        		.byte	0x0
 6371 06c1 15        		.uleb128 0x15
 6372 06c2 02        		.byte	0x2
 6373 06c3 06        		.byte	0x6
 6374 06c4 4808      		.word	0x848
 6375 06c6 DC06 0000 		.long	0x6dc
 6376 06ca 16        		.uleb128 0x16
 6377 06cb 5045 5200 		.string	"PER"
 6378 06cf 06        		.byte	0x6
 6379 06d0 4808      		.word	0x848
 6380 06d2 9204 0000 		.long	0x492
 6381 06d6 17        		.uleb128 0x17
 6382 06d7 9906 0000 		.long	0x699
 6383 06db 00        		.byte	0x0
 6384 06dc 14        		.uleb128 0x14
 6385 06dd 02        		.byte	0x2
 6386 06de 06        		.byte	0x6
 6387 06df 4908      		.word	0x849
 6388 06e1 0407 0000 		.long	0x704
 6389 06e5 08        		.uleb128 0x8
 6390 06e6 0000 0000 		.long	.LASF129
 6391 06ea 06        		.byte	0x6
 6392 06eb 4908      		.word	0x849
 6393 06ed 4001 0000 		.long	0x140
 6394 06f1 02        		.byte	0x2
 6395 06f2 23        		.byte	0x23
 6396 06f3 00        		.uleb128 0x0
 6397 06f4 08        		.uleb128 0x8
 6398 06f5 0000 0000 		.long	.LASF130
 6399 06f9 06        		.byte	0x6
 6400 06fa 4908      		.word	0x849
 6401 06fc 4001 0000 		.long	0x140
 6402 0700 02        		.byte	0x2
 6403 0701 23        		.byte	0x23
 6404 0702 01        		.uleb128 0x1
 6405 0703 00        		.byte	0x0
 6406 0704 15        		.uleb128 0x15
 6407 0705 02        		.byte	0x2
 6408 0706 06        		.byte	0x6
 6409 0707 4908      		.word	0x849
 6410 0709 1F07 0000 		.long	0x71f
 6411 070d 16        		.uleb128 0x16
 6412 070e 4343 4100 		.string	"CCA"
 6413 0712 06        		.byte	0x6
 6414 0713 4908      		.word	0x849
 6415 0715 9204 0000 		.long	0x492
 6416 0719 17        		.uleb128 0x17
 6417 071a DC06 0000 		.long	0x6dc
 6418 071e 00        		.byte	0x0
 6419 071f 14        		.uleb128 0x14
 6420 0720 02        		.byte	0x2
 6421 0721 06        		.byte	0x6
 6422 0722 4A08      		.word	0x84a
GAS LISTING /tmp/ccvyM2DX.s 			page 114


 6423 0724 4707 0000 		.long	0x747
 6424 0728 08        		.uleb128 0x8
 6425 0729 0000 0000 		.long	.LASF131
 6426 072d 06        		.byte	0x6
 6427 072e 4A08      		.word	0x84a
 6428 0730 4001 0000 		.long	0x140
 6429 0734 02        		.byte	0x2
 6430 0735 23        		.byte	0x23
 6431 0736 00        		.uleb128 0x0
 6432 0737 08        		.uleb128 0x8
 6433 0738 0000 0000 		.long	.LASF132
 6434 073c 06        		.byte	0x6
 6435 073d 4A08      		.word	0x84a
 6436 073f 4001 0000 		.long	0x140
 6437 0743 02        		.byte	0x2
 6438 0744 23        		.byte	0x23
 6439 0745 01        		.uleb128 0x1
 6440 0746 00        		.byte	0x0
 6441 0747 15        		.uleb128 0x15
 6442 0748 02        		.byte	0x2
 6443 0749 06        		.byte	0x6
 6444 074a 4A08      		.word	0x84a
 6445 074c 6207 0000 		.long	0x762
 6446 0750 16        		.uleb128 0x16
 6447 0751 4343 4200 		.string	"CCB"
 6448 0755 06        		.byte	0x6
 6449 0756 4A08      		.word	0x84a
 6450 0758 9204 0000 		.long	0x492
 6451 075c 17        		.uleb128 0x17
 6452 075d 1F07 0000 		.long	0x71f
 6453 0761 00        		.byte	0x0
 6454 0762 14        		.uleb128 0x14
 6455 0763 02        		.byte	0x2
 6456 0764 06        		.byte	0x6
 6457 0765 4B08      		.word	0x84b
 6458 0767 8A07 0000 		.long	0x78a
 6459 076b 08        		.uleb128 0x8
 6460 076c 0000 0000 		.long	.LASF133
 6461 0770 06        		.byte	0x6
 6462 0771 4B08      		.word	0x84b
 6463 0773 4001 0000 		.long	0x140
 6464 0777 02        		.byte	0x2
 6465 0778 23        		.byte	0x23
 6466 0779 00        		.uleb128 0x0
 6467 077a 08        		.uleb128 0x8
 6468 077b 0000 0000 		.long	.LASF134
 6469 077f 06        		.byte	0x6
 6470 0780 4B08      		.word	0x84b
 6471 0782 4001 0000 		.long	0x140
 6472 0786 02        		.byte	0x2
 6473 0787 23        		.byte	0x23
 6474 0788 01        		.uleb128 0x1
 6475 0789 00        		.byte	0x0
 6476 078a 15        		.uleb128 0x15
 6477 078b 02        		.byte	0x2
 6478 078c 06        		.byte	0x6
 6479 078d 4B08      		.word	0x84b
GAS LISTING /tmp/ccvyM2DX.s 			page 115


 6480 078f A507 0000 		.long	0x7a5
 6481 0793 16        		.uleb128 0x16
 6482 0794 4343 4300 		.string	"CCC"
 6483 0798 06        		.byte	0x6
 6484 0799 4B08      		.word	0x84b
 6485 079b 9204 0000 		.long	0x492
 6486 079f 17        		.uleb128 0x17
 6487 07a0 6207 0000 		.long	0x762
 6488 07a4 00        		.byte	0x0
 6489 07a5 14        		.uleb128 0x14
 6490 07a6 02        		.byte	0x2
 6491 07a7 06        		.byte	0x6
 6492 07a8 4C08      		.word	0x84c
 6493 07aa CD07 0000 		.long	0x7cd
 6494 07ae 08        		.uleb128 0x8
 6495 07af 0000 0000 		.long	.LASF135
 6496 07b3 06        		.byte	0x6
 6497 07b4 4C08      		.word	0x84c
 6498 07b6 4001 0000 		.long	0x140
 6499 07ba 02        		.byte	0x2
 6500 07bb 23        		.byte	0x23
 6501 07bc 00        		.uleb128 0x0
 6502 07bd 08        		.uleb128 0x8
 6503 07be 0000 0000 		.long	.LASF136
 6504 07c2 06        		.byte	0x6
 6505 07c3 4C08      		.word	0x84c
 6506 07c5 4001 0000 		.long	0x140
 6507 07c9 02        		.byte	0x2
 6508 07ca 23        		.byte	0x23
 6509 07cb 01        		.uleb128 0x1
 6510 07cc 00        		.byte	0x0
 6511 07cd 15        		.uleb128 0x15
 6512 07ce 02        		.byte	0x2
 6513 07cf 06        		.byte	0x6
 6514 07d0 4C08      		.word	0x84c
 6515 07d2 E807 0000 		.long	0x7e8
 6516 07d6 16        		.uleb128 0x16
 6517 07d7 4343 4400 		.string	"CCD"
 6518 07db 06        		.byte	0x6
 6519 07dc 4C08      		.word	0x84c
 6520 07de 9204 0000 		.long	0x492
 6521 07e2 17        		.uleb128 0x17
 6522 07e3 A507 0000 		.long	0x7a5
 6523 07e7 00        		.byte	0x0
 6524 07e8 14        		.uleb128 0x14
 6525 07e9 02        		.byte	0x2
 6526 07ea 06        		.byte	0x6
 6527 07eb 5308      		.word	0x853
 6528 07ed 1008 0000 		.long	0x810
 6529 07f1 08        		.uleb128 0x8
 6530 07f2 0000 0000 		.long	.LASF137
 6531 07f6 06        		.byte	0x6
 6532 07f7 5308      		.word	0x853
 6533 07f9 4001 0000 		.long	0x140
 6534 07fd 02        		.byte	0x2
 6535 07fe 23        		.byte	0x23
 6536 07ff 00        		.uleb128 0x0
GAS LISTING /tmp/ccvyM2DX.s 			page 116


 6537 0800 08        		.uleb128 0x8
 6538 0801 0000 0000 		.long	.LASF138
 6539 0805 06        		.byte	0x6
 6540 0806 5308      		.word	0x853
 6541 0808 4001 0000 		.long	0x140
 6542 080c 02        		.byte	0x2
 6543 080d 23        		.byte	0x23
 6544 080e 01        		.uleb128 0x1
 6545 080f 00        		.byte	0x0
 6546 0810 15        		.uleb128 0x15
 6547 0811 02        		.byte	0x2
 6548 0812 06        		.byte	0x6
 6549 0813 5308      		.word	0x853
 6550 0815 2B08 0000 		.long	0x82b
 6551 0819 18        		.uleb128 0x18
 6552 081a 0000 0000 		.long	.LASF139
 6553 081e 06        		.byte	0x6
 6554 081f 5308      		.word	0x853
 6555 0821 9204 0000 		.long	0x492
 6556 0825 17        		.uleb128 0x17
 6557 0826 E807 0000 		.long	0x7e8
 6558 082a 00        		.byte	0x0
 6559 082b 14        		.uleb128 0x14
 6560 082c 02        		.byte	0x2
 6561 082d 06        		.byte	0x6
 6562 082e 5408      		.word	0x854
 6563 0830 5308 0000 		.long	0x853
 6564 0834 08        		.uleb128 0x8
 6565 0835 0000 0000 		.long	.LASF140
 6566 0839 06        		.byte	0x6
 6567 083a 5408      		.word	0x854
 6568 083c 4001 0000 		.long	0x140
 6569 0840 02        		.byte	0x2
 6570 0841 23        		.byte	0x23
 6571 0842 00        		.uleb128 0x0
 6572 0843 08        		.uleb128 0x8
 6573 0844 0000 0000 		.long	.LASF141
 6574 0848 06        		.byte	0x6
 6575 0849 5408      		.word	0x854
 6576 084b 4001 0000 		.long	0x140
 6577 084f 02        		.byte	0x2
 6578 0850 23        		.byte	0x23
 6579 0851 01        		.uleb128 0x1
 6580 0852 00        		.byte	0x0
 6581 0853 15        		.uleb128 0x15
 6582 0854 02        		.byte	0x2
 6583 0855 06        		.byte	0x6
 6584 0856 5408      		.word	0x854
 6585 0858 6E08 0000 		.long	0x86e
 6586 085c 18        		.uleb128 0x18
 6587 085d 0000 0000 		.long	.LASF142
 6588 0861 06        		.byte	0x6
 6589 0862 5408      		.word	0x854
 6590 0864 9204 0000 		.long	0x492
 6591 0868 17        		.uleb128 0x17
 6592 0869 2B08 0000 		.long	0x82b
 6593 086d 00        		.byte	0x0
GAS LISTING /tmp/ccvyM2DX.s 			page 117


 6594 086e 14        		.uleb128 0x14
 6595 086f 02        		.byte	0x2
 6596 0870 06        		.byte	0x6
 6597 0871 5508      		.word	0x855
 6598 0873 9608 0000 		.long	0x896
 6599 0877 08        		.uleb128 0x8
 6600 0878 0000 0000 		.long	.LASF143
 6601 087c 06        		.byte	0x6
 6602 087d 5508      		.word	0x855
 6603 087f 4001 0000 		.long	0x140
 6604 0883 02        		.byte	0x2
 6605 0884 23        		.byte	0x23
 6606 0885 00        		.uleb128 0x0
 6607 0886 08        		.uleb128 0x8
 6608 0887 0000 0000 		.long	.LASF144
 6609 088b 06        		.byte	0x6
 6610 088c 5508      		.word	0x855
 6611 088e 4001 0000 		.long	0x140
 6612 0892 02        		.byte	0x2
 6613 0893 23        		.byte	0x23
 6614 0894 01        		.uleb128 0x1
 6615 0895 00        		.byte	0x0
 6616 0896 15        		.uleb128 0x15
 6617 0897 02        		.byte	0x2
 6618 0898 06        		.byte	0x6
 6619 0899 5508      		.word	0x855
 6620 089b B108 0000 		.long	0x8b1
 6621 089f 18        		.uleb128 0x18
 6622 08a0 0000 0000 		.long	.LASF145
 6623 08a4 06        		.byte	0x6
 6624 08a5 5508      		.word	0x855
 6625 08a7 9204 0000 		.long	0x492
 6626 08ab 17        		.uleb128 0x17
 6627 08ac 6E08 0000 		.long	0x86e
 6628 08b0 00        		.byte	0x0
 6629 08b1 14        		.uleb128 0x14
 6630 08b2 02        		.byte	0x2
 6631 08b3 06        		.byte	0x6
 6632 08b4 5608      		.word	0x856
 6633 08b6 D908 0000 		.long	0x8d9
 6634 08ba 08        		.uleb128 0x8
 6635 08bb 0000 0000 		.long	.LASF146
 6636 08bf 06        		.byte	0x6
 6637 08c0 5608      		.word	0x856
 6638 08c2 4001 0000 		.long	0x140
 6639 08c6 02        		.byte	0x2
 6640 08c7 23        		.byte	0x23
 6641 08c8 00        		.uleb128 0x0
 6642 08c9 08        		.uleb128 0x8
 6643 08ca 0000 0000 		.long	.LASF147
 6644 08ce 06        		.byte	0x6
 6645 08cf 5608      		.word	0x856
 6646 08d1 4001 0000 		.long	0x140
 6647 08d5 02        		.byte	0x2
 6648 08d6 23        		.byte	0x23
 6649 08d7 01        		.uleb128 0x1
 6650 08d8 00        		.byte	0x0
GAS LISTING /tmp/ccvyM2DX.s 			page 118


 6651 08d9 15        		.uleb128 0x15
 6652 08da 02        		.byte	0x2
 6653 08db 06        		.byte	0x6
 6654 08dc 5608      		.word	0x856
 6655 08de F408 0000 		.long	0x8f4
 6656 08e2 18        		.uleb128 0x18
 6657 08e3 0000 0000 		.long	.LASF148
 6658 08e7 06        		.byte	0x6
 6659 08e8 5608      		.word	0x856
 6660 08ea 9204 0000 		.long	0x492
 6661 08ee 17        		.uleb128 0x17
 6662 08ef B108 0000 		.long	0x8b1
 6663 08f3 00        		.byte	0x0
 6664 08f4 14        		.uleb128 0x14
 6665 08f5 02        		.byte	0x2
 6666 08f6 06        		.byte	0x6
 6667 08f7 5708      		.word	0x857
 6668 08f9 1C09 0000 		.long	0x91c
 6669 08fd 08        		.uleb128 0x8
 6670 08fe 0000 0000 		.long	.LASF149
 6671 0902 06        		.byte	0x6
 6672 0903 5708      		.word	0x857
 6673 0905 4001 0000 		.long	0x140
 6674 0909 02        		.byte	0x2
 6675 090a 23        		.byte	0x23
 6676 090b 00        		.uleb128 0x0
 6677 090c 08        		.uleb128 0x8
 6678 090d 0000 0000 		.long	.LASF150
 6679 0911 06        		.byte	0x6
 6680 0912 5708      		.word	0x857
 6681 0914 4001 0000 		.long	0x140
 6682 0918 02        		.byte	0x2
 6683 0919 23        		.byte	0x23
 6684 091a 01        		.uleb128 0x1
 6685 091b 00        		.byte	0x0
 6686 091c 15        		.uleb128 0x15
 6687 091d 02        		.byte	0x2
 6688 091e 06        		.byte	0x6
 6689 091f 5708      		.word	0x857
 6690 0921 3709 0000 		.long	0x937
 6691 0925 18        		.uleb128 0x18
 6692 0926 0000 0000 		.long	.LASF151
 6693 092a 06        		.byte	0x6
 6694 092b 5708      		.word	0x857
 6695 092d 9204 0000 		.long	0x492
 6696 0931 17        		.uleb128 0x17
 6697 0932 F408 0000 		.long	0x8f4
 6698 0936 00        		.byte	0x0
 6699 0937 11        		.uleb128 0x11
 6700 0938 0000 0000 		.long	.LASF152
 6701 093c 40        		.byte	0x40
 6702 093d 06        		.byte	0x6
 6703 093e 2108      		.word	0x821
 6704 0940 130C 0000 		.long	0xc13
 6705 0944 08        		.uleb128 0x8
 6706 0945 0000 0000 		.long	.LASF153
 6707 0949 06        		.byte	0x6
GAS LISTING /tmp/ccvyM2DX.s 			page 119


 6708 094a 2308      		.word	0x823
 6709 094c 4001 0000 		.long	0x140
 6710 0950 02        		.byte	0x2
 6711 0951 23        		.byte	0x23
 6712 0952 00        		.uleb128 0x0
 6713 0953 08        		.uleb128 0x8
 6714 0954 0000 0000 		.long	.LASF154
 6715 0958 06        		.byte	0x6
 6716 0959 2408      		.word	0x824
 6717 095b 4001 0000 		.long	0x140
 6718 095f 02        		.byte	0x2
 6719 0960 23        		.byte	0x23
 6720 0961 01        		.uleb128 0x1
 6721 0962 08        		.uleb128 0x8
 6722 0963 0000 0000 		.long	.LASF155
 6723 0967 06        		.byte	0x6
 6724 0968 2508      		.word	0x825
 6725 096a 4001 0000 		.long	0x140
 6726 096e 02        		.byte	0x2
 6727 096f 23        		.byte	0x23
 6728 0970 02        		.uleb128 0x2
 6729 0971 08        		.uleb128 0x8
 6730 0972 0000 0000 		.long	.LASF156
 6731 0976 06        		.byte	0x6
 6732 0977 2608      		.word	0x826
 6733 0979 4001 0000 		.long	0x140
 6734 097d 02        		.byte	0x2
 6735 097e 23        		.byte	0x23
 6736 097f 03        		.uleb128 0x3
 6737 0980 08        		.uleb128 0x8
 6738 0981 0000 0000 		.long	.LASF157
 6739 0985 06        		.byte	0x6
 6740 0986 2708      		.word	0x827
 6741 0988 4001 0000 		.long	0x140
 6742 098c 02        		.byte	0x2
 6743 098d 23        		.byte	0x23
 6744 098e 04        		.uleb128 0x4
 6745 098f 08        		.uleb128 0x8
 6746 0990 0000 0000 		.long	.LASF158
 6747 0994 06        		.byte	0x6
 6748 0995 2808      		.word	0x828
 6749 0997 4001 0000 		.long	0x140
 6750 099b 02        		.byte	0x2
 6751 099c 23        		.byte	0x23
 6752 099d 05        		.uleb128 0x5
 6753 099e 08        		.uleb128 0x8
 6754 099f 0000 0000 		.long	.LASF159
 6755 09a3 06        		.byte	0x6
 6756 09a4 2908      		.word	0x829
 6757 09a6 4001 0000 		.long	0x140
 6758 09aa 02        		.byte	0x2
 6759 09ab 23        		.byte	0x23
 6760 09ac 06        		.uleb128 0x6
 6761 09ad 08        		.uleb128 0x8
 6762 09ae 0000 0000 		.long	.LASF160
 6763 09b2 06        		.byte	0x6
 6764 09b3 2A08      		.word	0x82a
GAS LISTING /tmp/ccvyM2DX.s 			page 120


 6765 09b5 4001 0000 		.long	0x140
 6766 09b9 02        		.byte	0x2
 6767 09ba 23        		.byte	0x23
 6768 09bb 07        		.uleb128 0x7
 6769 09bc 08        		.uleb128 0x8
 6770 09bd 0000 0000 		.long	.LASF161
 6771 09c1 06        		.byte	0x6
 6772 09c2 2B08      		.word	0x82b
 6773 09c4 4001 0000 		.long	0x140
 6774 09c8 02        		.byte	0x2
 6775 09c9 23        		.byte	0x23
 6776 09ca 08        		.uleb128 0x8
 6777 09cb 08        		.uleb128 0x8
 6778 09cc 0000 0000 		.long	.LASF162
 6779 09d0 06        		.byte	0x6
 6780 09d1 2C08      		.word	0x82c
 6781 09d3 4001 0000 		.long	0x140
 6782 09d7 02        		.byte	0x2
 6783 09d8 23        		.byte	0x23
 6784 09d9 09        		.uleb128 0x9
 6785 09da 08        		.uleb128 0x8
 6786 09db 0000 0000 		.long	.LASF163
 6787 09df 06        		.byte	0x6
 6788 09e0 2D08      		.word	0x82d
 6789 09e2 4001 0000 		.long	0x140
 6790 09e6 02        		.byte	0x2
 6791 09e7 23        		.byte	0x23
 6792 09e8 0A        		.uleb128 0xa
 6793 09e9 08        		.uleb128 0x8
 6794 09ea 0000 0000 		.long	.LASF164
 6795 09ee 06        		.byte	0x6
 6796 09ef 2E08      		.word	0x82e
 6797 09f1 4001 0000 		.long	0x140
 6798 09f5 02        		.byte	0x2
 6799 09f6 23        		.byte	0x23
 6800 09f7 0B        		.uleb128 0xb
 6801 09f8 08        		.uleb128 0x8
 6802 09f9 0000 0000 		.long	.LASF103
 6803 09fd 06        		.byte	0x6
 6804 09fe 2F08      		.word	0x82f
 6805 0a00 4001 0000 		.long	0x140
 6806 0a04 02        		.byte	0x2
 6807 0a05 23        		.byte	0x23
 6808 0a06 0C        		.uleb128 0xc
 6809 0a07 08        		.uleb128 0x8
 6810 0a08 0000 0000 		.long	.LASF104
 6811 0a0c 06        		.byte	0x6
 6812 0a0d 3008      		.word	0x830
 6813 0a0f 4001 0000 		.long	0x140
 6814 0a13 02        		.byte	0x2
 6815 0a14 23        		.byte	0x23
 6816 0a15 0D        		.uleb128 0xd
 6817 0a16 08        		.uleb128 0x8
 6818 0a17 0000 0000 		.long	.LASF105
 6819 0a1b 06        		.byte	0x6
 6820 0a1c 3108      		.word	0x831
 6821 0a1e 4001 0000 		.long	0x140
GAS LISTING /tmp/ccvyM2DX.s 			page 121


 6822 0a22 02        		.byte	0x2
 6823 0a23 23        		.byte	0x23
 6824 0a24 0E        		.uleb128 0xe
 6825 0a25 08        		.uleb128 0x8
 6826 0a26 0000 0000 		.long	.LASF165
 6827 0a2a 06        		.byte	0x6
 6828 0a2b 3208      		.word	0x832
 6829 0a2d 4001 0000 		.long	0x140
 6830 0a31 02        		.byte	0x2
 6831 0a32 23        		.byte	0x23
 6832 0a33 0F        		.uleb128 0xf
 6833 0a34 08        		.uleb128 0x8
 6834 0a35 0000 0000 		.long	.LASF166
 6835 0a39 06        		.byte	0x6
 6836 0a3a 3308      		.word	0x833
 6837 0a3c 4001 0000 		.long	0x140
 6838 0a40 02        		.byte	0x2
 6839 0a41 23        		.byte	0x23
 6840 0a42 10        		.uleb128 0x10
 6841 0a43 08        		.uleb128 0x8
 6842 0a44 0000 0000 		.long	.LASF167
 6843 0a48 06        		.byte	0x6
 6844 0a49 3408      		.word	0x834
 6845 0a4b 4001 0000 		.long	0x140
 6846 0a4f 02        		.byte	0x2
 6847 0a50 23        		.byte	0x23
 6848 0a51 11        		.uleb128 0x11
 6849 0a52 08        		.uleb128 0x8
 6850 0a53 0000 0000 		.long	.LASF168
 6851 0a57 06        		.byte	0x6
 6852 0a58 3508      		.word	0x835
 6853 0a5a 4001 0000 		.long	0x140
 6854 0a5e 02        		.byte	0x2
 6855 0a5f 23        		.byte	0x23
 6856 0a60 12        		.uleb128 0x12
 6857 0a61 08        		.uleb128 0x8
 6858 0a62 0000 0000 		.long	.LASF169
 6859 0a66 06        		.byte	0x6
 6860 0a67 3608      		.word	0x836
 6861 0a69 4001 0000 		.long	0x140
 6862 0a6d 02        		.byte	0x2
 6863 0a6e 23        		.byte	0x23
 6864 0a6f 13        		.uleb128 0x13
 6865 0a70 08        		.uleb128 0x8
 6866 0a71 0000 0000 		.long	.LASF170
 6867 0a75 06        		.byte	0x6
 6868 0a76 3708      		.word	0x837
 6869 0a78 4001 0000 		.long	0x140
 6870 0a7c 02        		.byte	0x2
 6871 0a7d 23        		.byte	0x23
 6872 0a7e 14        		.uleb128 0x14
 6873 0a7f 08        		.uleb128 0x8
 6874 0a80 0000 0000 		.long	.LASF171
 6875 0a84 06        		.byte	0x6
 6876 0a85 3808      		.word	0x838
 6877 0a87 4001 0000 		.long	0x140
 6878 0a8b 02        		.byte	0x2
GAS LISTING /tmp/ccvyM2DX.s 			page 122


 6879 0a8c 23        		.byte	0x23
 6880 0a8d 15        		.uleb128 0x15
 6881 0a8e 08        		.uleb128 0x8
 6882 0a8f 0000 0000 		.long	.LASF172
 6883 0a93 06        		.byte	0x6
 6884 0a94 3908      		.word	0x839
 6885 0a96 4001 0000 		.long	0x140
 6886 0a9a 02        		.byte	0x2
 6887 0a9b 23        		.byte	0x23
 6888 0a9c 16        		.uleb128 0x16
 6889 0a9d 08        		.uleb128 0x8
 6890 0a9e 0000 0000 		.long	.LASF173
 6891 0aa2 06        		.byte	0x6
 6892 0aa3 3A08      		.word	0x83a
 6893 0aa5 4001 0000 		.long	0x140
 6894 0aa9 02        		.byte	0x2
 6895 0aaa 23        		.byte	0x23
 6896 0aab 17        		.uleb128 0x17
 6897 0aac 08        		.uleb128 0x8
 6898 0aad 0000 0000 		.long	.LASF174
 6899 0ab1 06        		.byte	0x6
 6900 0ab2 3B08      		.word	0x83b
 6901 0ab4 4001 0000 		.long	0x140
 6902 0ab8 02        		.byte	0x2
 6903 0ab9 23        		.byte	0x23
 6904 0aba 18        		.uleb128 0x18
 6905 0abb 08        		.uleb128 0x8
 6906 0abc 0000 0000 		.long	.LASF175
 6907 0ac0 06        		.byte	0x6
 6908 0ac1 3C08      		.word	0x83c
 6909 0ac3 4001 0000 		.long	0x140
 6910 0ac7 02        		.byte	0x2
 6911 0ac8 23        		.byte	0x23
 6912 0ac9 19        		.uleb128 0x19
 6913 0aca 08        		.uleb128 0x8
 6914 0acb 0000 0000 		.long	.LASF176
 6915 0acf 06        		.byte	0x6
 6916 0ad0 3D08      		.word	0x83d
 6917 0ad2 4001 0000 		.long	0x140
 6918 0ad6 02        		.byte	0x2
 6919 0ad7 23        		.byte	0x23
 6920 0ad8 1A        		.uleb128 0x1a
 6921 0ad9 08        		.uleb128 0x8
 6922 0ada 0000 0000 		.long	.LASF177
 6923 0ade 06        		.byte	0x6
 6924 0adf 3E08      		.word	0x83e
 6925 0ae1 4001 0000 		.long	0x140
 6926 0ae5 02        		.byte	0x2
 6927 0ae6 23        		.byte	0x23
 6928 0ae7 1B        		.uleb128 0x1b
 6929 0ae8 08        		.uleb128 0x8
 6930 0ae9 0000 0000 		.long	.LASF178
 6931 0aed 06        		.byte	0x6
 6932 0aee 3F08      		.word	0x83f
 6933 0af0 4001 0000 		.long	0x140
 6934 0af4 02        		.byte	0x2
 6935 0af5 23        		.byte	0x23
GAS LISTING /tmp/ccvyM2DX.s 			page 123


 6936 0af6 1C        		.uleb128 0x1c
 6937 0af7 08        		.uleb128 0x8
 6938 0af8 0000 0000 		.long	.LASF179
 6939 0afc 06        		.byte	0x6
 6940 0afd 4008      		.word	0x840
 6941 0aff 4001 0000 		.long	0x140
 6942 0b03 02        		.byte	0x2
 6943 0b04 23        		.byte	0x23
 6944 0b05 1D        		.uleb128 0x1d
 6945 0b06 08        		.uleb128 0x8
 6946 0b07 0000 0000 		.long	.LASF180
 6947 0b0b 06        		.byte	0x6
 6948 0b0c 4108      		.word	0x841
 6949 0b0e 4001 0000 		.long	0x140
 6950 0b12 02        		.byte	0x2
 6951 0b13 23        		.byte	0x23
 6952 0b14 1E        		.uleb128 0x1e
 6953 0b15 08        		.uleb128 0x8
 6954 0b16 0000 0000 		.long	.LASF181
 6955 0b1a 06        		.byte	0x6
 6956 0b1b 4208      		.word	0x842
 6957 0b1d 4001 0000 		.long	0x140
 6958 0b21 02        		.byte	0x2
 6959 0b22 23        		.byte	0x23
 6960 0b23 1F        		.uleb128 0x1f
 6961 0b24 19        		.uleb128 0x19
 6962 0b25 7E06 0000 		.long	0x67e
 6963 0b29 02        		.byte	0x2
 6964 0b2a 23        		.byte	0x23
 6965 0b2b 20        		.uleb128 0x20
 6966 0b2c 08        		.uleb128 0x8
 6967 0b2d 0000 0000 		.long	.LASF182
 6968 0b31 06        		.byte	0x6
 6969 0b32 4408      		.word	0x844
 6970 0b34 4001 0000 		.long	0x140
 6971 0b38 02        		.byte	0x2
 6972 0b39 23        		.byte	0x23
 6973 0b3a 22        		.uleb128 0x22
 6974 0b3b 08        		.uleb128 0x8
 6975 0b3c 0000 0000 		.long	.LASF183
 6976 0b40 06        		.byte	0x6
 6977 0b41 4508      		.word	0x845
 6978 0b43 4001 0000 		.long	0x140
 6979 0b47 02        		.byte	0x2
 6980 0b48 23        		.byte	0x23
 6981 0b49 23        		.uleb128 0x23
 6982 0b4a 08        		.uleb128 0x8
 6983 0b4b 0000 0000 		.long	.LASF184
 6984 0b4f 06        		.byte	0x6
 6985 0b50 4608      		.word	0x846
 6986 0b52 4001 0000 		.long	0x140
 6987 0b56 02        		.byte	0x2
 6988 0b57 23        		.byte	0x23
 6989 0b58 24        		.uleb128 0x24
 6990 0b59 08        		.uleb128 0x8
 6991 0b5a 0000 0000 		.long	.LASF185
 6992 0b5e 06        		.byte	0x6
GAS LISTING /tmp/ccvyM2DX.s 			page 124


 6993 0b5f 4708      		.word	0x847
 6994 0b61 4001 0000 		.long	0x140
 6995 0b65 02        		.byte	0x2
 6996 0b66 23        		.byte	0x23
 6997 0b67 25        		.uleb128 0x25
 6998 0b68 19        		.uleb128 0x19
 6999 0b69 C106 0000 		.long	0x6c1
 7000 0b6d 02        		.byte	0x2
 7001 0b6e 23        		.byte	0x23
 7002 0b6f 26        		.uleb128 0x26
 7003 0b70 19        		.uleb128 0x19
 7004 0b71 0407 0000 		.long	0x704
 7005 0b75 02        		.byte	0x2
 7006 0b76 23        		.byte	0x23
 7007 0b77 28        		.uleb128 0x28
 7008 0b78 19        		.uleb128 0x19
 7009 0b79 4707 0000 		.long	0x747
 7010 0b7d 02        		.byte	0x2
 7011 0b7e 23        		.byte	0x23
 7012 0b7f 2A        		.uleb128 0x2a
 7013 0b80 19        		.uleb128 0x19
 7014 0b81 8A07 0000 		.long	0x78a
 7015 0b85 02        		.byte	0x2
 7016 0b86 23        		.byte	0x23
 7017 0b87 2C        		.uleb128 0x2c
 7018 0b88 19        		.uleb128 0x19
 7019 0b89 CD07 0000 		.long	0x7cd
 7020 0b8d 02        		.byte	0x2
 7021 0b8e 23        		.byte	0x23
 7022 0b8f 2E        		.uleb128 0x2e
 7023 0b90 08        		.uleb128 0x8
 7024 0b91 0000 0000 		.long	.LASF186
 7025 0b95 06        		.byte	0x6
 7026 0b96 4D08      		.word	0x84d
 7027 0b98 4001 0000 		.long	0x140
 7028 0b9c 02        		.byte	0x2
 7029 0b9d 23        		.byte	0x23
 7030 0b9e 30        		.uleb128 0x30
 7031 0b9f 08        		.uleb128 0x8
 7032 0ba0 0000 0000 		.long	.LASF187
 7033 0ba4 06        		.byte	0x6
 7034 0ba5 4E08      		.word	0x84e
 7035 0ba7 4001 0000 		.long	0x140
 7036 0bab 02        		.byte	0x2
 7037 0bac 23        		.byte	0x23
 7038 0bad 31        		.uleb128 0x31
 7039 0bae 08        		.uleb128 0x8
 7040 0baf 0000 0000 		.long	.LASF188
 7041 0bb3 06        		.byte	0x6
 7042 0bb4 4F08      		.word	0x84f
 7043 0bb6 4001 0000 		.long	0x140
 7044 0bba 02        		.byte	0x2
 7045 0bbb 23        		.byte	0x23
 7046 0bbc 32        		.uleb128 0x32
 7047 0bbd 08        		.uleb128 0x8
 7048 0bbe 0000 0000 		.long	.LASF189
 7049 0bc2 06        		.byte	0x6
GAS LISTING /tmp/ccvyM2DX.s 			page 125


 7050 0bc3 5008      		.word	0x850
 7051 0bc5 4001 0000 		.long	0x140
 7052 0bc9 02        		.byte	0x2
 7053 0bca 23        		.byte	0x23
 7054 0bcb 33        		.uleb128 0x33
 7055 0bcc 08        		.uleb128 0x8
 7056 0bcd 0000 0000 		.long	.LASF190
 7057 0bd1 06        		.byte	0x6
 7058 0bd2 5108      		.word	0x851
 7059 0bd4 4001 0000 		.long	0x140
 7060 0bd8 02        		.byte	0x2
 7061 0bd9 23        		.byte	0x23
 7062 0bda 34        		.uleb128 0x34
 7063 0bdb 08        		.uleb128 0x8
 7064 0bdc 0000 0000 		.long	.LASF191
 7065 0be0 06        		.byte	0x6
 7066 0be1 5208      		.word	0x852
 7067 0be3 4001 0000 		.long	0x140
 7068 0be7 02        		.byte	0x2
 7069 0be8 23        		.byte	0x23
 7070 0be9 35        		.uleb128 0x35
 7071 0bea 19        		.uleb128 0x19
 7072 0beb 1008 0000 		.long	0x810
 7073 0bef 02        		.byte	0x2
 7074 0bf0 23        		.byte	0x23
 7075 0bf1 36        		.uleb128 0x36
 7076 0bf2 19        		.uleb128 0x19
 7077 0bf3 5308 0000 		.long	0x853
 7078 0bf7 02        		.byte	0x2
 7079 0bf8 23        		.byte	0x23
 7080 0bf9 38        		.uleb128 0x38
 7081 0bfa 19        		.uleb128 0x19
 7082 0bfb 9608 0000 		.long	0x896
 7083 0bff 02        		.byte	0x2
 7084 0c00 23        		.byte	0x23
 7085 0c01 3A        		.uleb128 0x3a
 7086 0c02 19        		.uleb128 0x19
 7087 0c03 D908 0000 		.long	0x8d9
 7088 0c07 02        		.byte	0x2
 7089 0c08 23        		.byte	0x23
 7090 0c09 3C        		.uleb128 0x3c
 7091 0c0a 19        		.uleb128 0x19
 7092 0c0b 1C09 0000 		.long	0x91c
 7093 0c0f 02        		.byte	0x2
 7094 0c10 23        		.byte	0x23
 7095 0c11 3E        		.uleb128 0x3e
 7096 0c12 00        		.byte	0x0
 7097 0c13 12        		.uleb128 0x12
 7098 0c14 0000 0000 		.long	.LASF192
 7099 0c18 06        		.byte	0x6
 7100 0c19 5808      		.word	0x858
 7101 0c1b 3709 0000 		.long	0x937
 7102 0c1f 13        		.uleb128 0x13
 7103 0c20 0000 0000 		.long	.LASF193
 7104 0c24 01        		.byte	0x1
 7105 0c25 06        		.byte	0x6
 7106 0c26 BF08      		.word	0x8bf
GAS LISTING /tmp/ccvyM2DX.s 			page 126


 7107 0c28 8D0C 0000 		.long	0xc8d
 7108 0c2c 10        		.uleb128 0x10
 7109 0c2d 0000 0000 		.long	.LASF194
 7110 0c31 00        		.sleb128 0
 7111 0c32 10        		.uleb128 0x10
 7112 0c33 0000 0000 		.long	.LASF195
 7113 0c37 01        		.sleb128 1
 7114 0c38 10        		.uleb128 0x10
 7115 0c39 0000 0000 		.long	.LASF196
 7116 0c3d 02        		.sleb128 2
 7117 0c3e 10        		.uleb128 0x10
 7118 0c3f 0000 0000 		.long	.LASF197
 7119 0c43 03        		.sleb128 3
 7120 0c44 10        		.uleb128 0x10
 7121 0c45 0000 0000 		.long	.LASF198
 7122 0c49 04        		.sleb128 4
 7123 0c4a 10        		.uleb128 0x10
 7124 0c4b 0000 0000 		.long	.LASF199
 7125 0c4f 05        		.sleb128 5
 7126 0c50 10        		.uleb128 0x10
 7127 0c51 0000 0000 		.long	.LASF200
 7128 0c55 06        		.sleb128 6
 7129 0c56 10        		.uleb128 0x10
 7130 0c57 0000 0000 		.long	.LASF201
 7131 0c5b 07        		.sleb128 7
 7132 0c5c 10        		.uleb128 0x10
 7133 0c5d 0000 0000 		.long	.LASF202
 7134 0c61 08        		.sleb128 8
 7135 0c62 10        		.uleb128 0x10
 7136 0c63 0000 0000 		.long	.LASF203
 7137 0c67 09        		.sleb128 9
 7138 0c68 10        		.uleb128 0x10
 7139 0c69 0000 0000 		.long	.LASF204
 7140 0c6d 0A        		.sleb128 10
 7141 0c6e 10        		.uleb128 0x10
 7142 0c6f 0000 0000 		.long	.LASF205
 7143 0c73 0B        		.sleb128 11
 7144 0c74 10        		.uleb128 0x10
 7145 0c75 0000 0000 		.long	.LASF206
 7146 0c79 0C        		.sleb128 12
 7147 0c7a 10        		.uleb128 0x10
 7148 0c7b 0000 0000 		.long	.LASF207
 7149 0c7f 0D        		.sleb128 13
 7150 0c80 10        		.uleb128 0x10
 7151 0c81 0000 0000 		.long	.LASF208
 7152 0c85 0E        		.sleb128 14
 7153 0c86 10        		.uleb128 0x10
 7154 0c87 0000 0000 		.long	.LASF209
 7155 0c8b 0F        		.sleb128 15
 7156 0c8c 00        		.byte	0x0
 7157 0c8d 13        		.uleb128 0x13
 7158 0c8e 0000 0000 		.long	.LASF210
 7159 0c92 01        		.byte	0x1
 7160 0c93 06        		.byte	0x6
 7161 0c94 0209      		.word	0x902
 7162 0c96 B30C 0000 		.long	0xcb3
 7163 0c9a 10        		.uleb128 0x10
GAS LISTING /tmp/ccvyM2DX.s 			page 127


 7164 0c9b 0000 0000 		.long	.LASF211
 7165 0c9f 00        		.sleb128 0
 7166 0ca0 10        		.uleb128 0x10
 7167 0ca1 0000 0000 		.long	.LASF212
 7168 0ca5 01        		.sleb128 1
 7169 0ca6 10        		.uleb128 0x10
 7170 0ca7 0000 0000 		.long	.LASF213
 7171 0cab 02        		.sleb128 2
 7172 0cac 10        		.uleb128 0x10
 7173 0cad 0000 0000 		.long	.LASF214
 7174 0cb1 03        		.sleb128 3
 7175 0cb2 00        		.byte	0x0
 7176 0cb3 11        		.uleb128 0x11
 7177 0cb4 0000 0000 		.long	.LASF215
 7178 0cb8 08        		.byte	0x8
 7179 0cb9 06        		.byte	0x6
 7180 0cba 5009      		.word	0x950
 7181 0cbc 390D 0000 		.long	0xd39
 7182 0cc0 08        		.uleb128 0x8
 7183 0cc1 0000 0000 		.long	.LASF216
 7184 0cc5 06        		.byte	0x6
 7185 0cc6 5209      		.word	0x952
 7186 0cc8 4001 0000 		.long	0x140
 7187 0ccc 02        		.byte	0x2
 7188 0ccd 23        		.byte	0x23
 7189 0cce 00        		.uleb128 0x0
 7190 0ccf 08        		.uleb128 0x8
 7191 0cd0 0000 0000 		.long	.LASF56
 7192 0cd4 06        		.byte	0x6
 7193 0cd5 5309      		.word	0x953
 7194 0cd7 4001 0000 		.long	0x140
 7195 0cdb 02        		.byte	0x2
 7196 0cdc 23        		.byte	0x23
 7197 0cdd 01        		.uleb128 0x1
 7198 0cde 08        		.uleb128 0x8
 7199 0cdf 0000 0000 		.long	.LASF217
 7200 0ce3 06        		.byte	0x6
 7201 0ce4 5409      		.word	0x954
 7202 0ce6 4001 0000 		.long	0x140
 7203 0cea 02        		.byte	0x2
 7204 0ceb 23        		.byte	0x23
 7205 0cec 02        		.uleb128 0x2
 7206 0ced 08        		.uleb128 0x8
 7207 0cee 0000 0000 		.long	.LASF153
 7208 0cf2 06        		.byte	0x6
 7209 0cf3 5509      		.word	0x955
 7210 0cf5 4001 0000 		.long	0x140
 7211 0cf9 02        		.byte	0x2
 7212 0cfa 23        		.byte	0x23
 7213 0cfb 03        		.uleb128 0x3
 7214 0cfc 08        		.uleb128 0x8
 7215 0cfd 0000 0000 		.long	.LASF154
 7216 0d01 06        		.byte	0x6
 7217 0d02 5609      		.word	0x956
 7218 0d04 4001 0000 		.long	0x140
 7219 0d08 02        		.byte	0x2
 7220 0d09 23        		.byte	0x23
GAS LISTING /tmp/ccvyM2DX.s 			page 128


 7221 0d0a 04        		.uleb128 0x4
 7222 0d0b 08        		.uleb128 0x8
 7223 0d0c 0000 0000 		.long	.LASF155
 7224 0d10 06        		.byte	0x6
 7225 0d11 5709      		.word	0x957
 7226 0d13 4001 0000 		.long	0x140
 7227 0d17 02        		.byte	0x2
 7228 0d18 23        		.byte	0x23
 7229 0d19 05        		.uleb128 0x5
 7230 0d1a 08        		.uleb128 0x8
 7231 0d1b 0000 0000 		.long	.LASF218
 7232 0d1f 06        		.byte	0x6
 7233 0d20 5809      		.word	0x958
 7234 0d22 4001 0000 		.long	0x140
 7235 0d26 02        		.byte	0x2
 7236 0d27 23        		.byte	0x23
 7237 0d28 06        		.uleb128 0x6
 7238 0d29 08        		.uleb128 0x8
 7239 0d2a 0000 0000 		.long	.LASF219
 7240 0d2e 06        		.byte	0x6
 7241 0d2f 5909      		.word	0x959
 7242 0d31 4001 0000 		.long	0x140
 7243 0d35 02        		.byte	0x2
 7244 0d36 23        		.byte	0x23
 7245 0d37 07        		.uleb128 0x7
 7246 0d38 00        		.byte	0x0
 7247 0d39 12        		.uleb128 0x12
 7248 0d3a 0000 0000 		.long	.LASF220
 7249 0d3e 06        		.byte	0x6
 7250 0d3f 5A09      		.word	0x95a
 7251 0d41 B30C 0000 		.long	0xcb3
 7252 0d45 02        		.uleb128 0x2
 7253 0d46 01        		.byte	0x1
 7254 0d47 08        		.byte	0x8
 7255 0d48 0000 0000 		.long	.LASF221
 7256 0d4c 02        		.uleb128 0x2
 7257 0d4d 01        		.byte	0x1
 7258 0d4e 08        		.byte	0x8
 7259 0d4f 0000 0000 		.long	.LASF221
 7260 0d53 05        		.uleb128 0x5
 7261 0d54 0000 0000 		.long	.LASF222
 7262 0d58 24        		.byte	0x24
 7263 0d59 01        		.byte	0x1
 7264 0d5a EB        		.byte	0xeb
 7265 0d5b 5D0E 0000 		.long	0xe5d
 7266 0d5f 07        		.uleb128 0x7
 7267 0d60 0000 0000 		.long	.LASF223
 7268 0d64 01        		.byte	0x1
 7269 0d65 EC        		.byte	0xec
 7270 0d66 3E00 0000 		.long	0x3e
 7271 0d6a 02        		.byte	0x2
 7272 0d6b 23        		.byte	0x23
 7273 0d6c 00        		.uleb128 0x0
 7274 0d6d 07        		.uleb128 0x7
 7275 0d6e 0000 0000 		.long	.LASF224
 7276 0d72 01        		.byte	0x1
 7277 0d73 ED        		.byte	0xed
GAS LISTING /tmp/ccvyM2DX.s 			page 129


 7278 0d74 3E00 0000 		.long	0x3e
 7279 0d78 02        		.byte	0x2
 7280 0d79 23        		.byte	0x23
 7281 0d7a 02        		.uleb128 0x2
 7282 0d7b 07        		.uleb128 0x7
 7283 0d7c 0000 0000 		.long	.LASF225
 7284 0d80 01        		.byte	0x1
 7285 0d81 EE        		.byte	0xee
 7286 0d82 3E00 0000 		.long	0x3e
 7287 0d86 02        		.byte	0x2
 7288 0d87 23        		.byte	0x23
 7289 0d88 04        		.uleb128 0x4
 7290 0d89 07        		.uleb128 0x7
 7291 0d8a 0000 0000 		.long	.LASF226
 7292 0d8e 01        		.byte	0x1
 7293 0d8f EF        		.byte	0xef
 7294 0d90 5E00 0000 		.long	0x5e
 7295 0d94 02        		.byte	0x2
 7296 0d95 23        		.byte	0x23
 7297 0d96 06        		.uleb128 0x6
 7298 0d97 07        		.uleb128 0x7
 7299 0d98 0000 0000 		.long	.LASF227
 7300 0d9c 01        		.byte	0x1
 7301 0d9d F0        		.byte	0xf0
 7302 0d9e 3E00 0000 		.long	0x3e
 7303 0da2 02        		.byte	0x2
 7304 0da3 23        		.byte	0x23
 7305 0da4 0A        		.uleb128 0xa
 7306 0da5 07        		.uleb128 0x7
 7307 0da6 0000 0000 		.long	.LASF228
 7308 0daa 01        		.byte	0x1
 7309 0dab F1        		.byte	0xf1
 7310 0dac 3E00 0000 		.long	0x3e
 7311 0db0 02        		.byte	0x2
 7312 0db1 23        		.byte	0x23
 7313 0db2 0C        		.uleb128 0xc
 7314 0db3 07        		.uleb128 0x7
 7315 0db4 0000 0000 		.long	.LASF229
 7316 0db8 01        		.byte	0x1
 7317 0db9 F2        		.byte	0xf2
 7318 0dba 3E00 0000 		.long	0x3e
 7319 0dbe 02        		.byte	0x2
 7320 0dbf 23        		.byte	0x23
 7321 0dc0 0E        		.uleb128 0xe
 7322 0dc1 07        		.uleb128 0x7
 7323 0dc2 0000 0000 		.long	.LASF230
 7324 0dc6 01        		.byte	0x1
 7325 0dc7 F3        		.byte	0xf3
 7326 0dc8 3E00 0000 		.long	0x3e
 7327 0dcc 02        		.byte	0x2
 7328 0dcd 23        		.byte	0x23
 7329 0dce 10        		.uleb128 0x10
 7330 0dcf 07        		.uleb128 0x7
 7331 0dd0 0000 0000 		.long	.LASF231
 7332 0dd4 01        		.byte	0x1
 7333 0dd5 F4        		.byte	0xf4
 7334 0dd6 3E00 0000 		.long	0x3e
GAS LISTING /tmp/ccvyM2DX.s 			page 130


 7335 0dda 02        		.byte	0x2
 7336 0ddb 23        		.byte	0x23
 7337 0ddc 12        		.uleb128 0x12
 7338 0ddd 07        		.uleb128 0x7
 7339 0dde 0000 0000 		.long	.LASF232
 7340 0de2 01        		.byte	0x1
 7341 0de3 F8        		.byte	0xf8
 7342 0de4 FB00 0000 		.long	0xfb
 7343 0de8 02        		.byte	0x2
 7344 0de9 23        		.byte	0x23
 7345 0dea 14        		.uleb128 0x14
 7346 0deb 07        		.uleb128 0x7
 7347 0dec 0000 0000 		.long	.LASF233
 7348 0df0 01        		.byte	0x1
 7349 0df1 F9        		.byte	0xf9
 7350 0df2 3E00 0000 		.long	0x3e
 7351 0df6 02        		.byte	0x2
 7352 0df7 23        		.byte	0x23
 7353 0df8 15        		.uleb128 0x15
 7354 0df9 07        		.uleb128 0x7
 7355 0dfa 0000 0000 		.long	.LASF234
 7356 0dfe 01        		.byte	0x1
 7357 0dff FA        		.byte	0xfa
 7358 0e00 FB00 0000 		.long	0xfb
 7359 0e04 02        		.byte	0x2
 7360 0e05 23        		.byte	0x23
 7361 0e06 17        		.uleb128 0x17
 7362 0e07 07        		.uleb128 0x7
 7363 0e08 0000 0000 		.long	.LASF235
 7364 0e0c 01        		.byte	0x1
 7365 0e0d FB        		.byte	0xfb
 7366 0e0e 3E00 0000 		.long	0x3e
 7367 0e12 02        		.byte	0x2
 7368 0e13 23        		.byte	0x23
 7369 0e14 18        		.uleb128 0x18
 7370 0e15 07        		.uleb128 0x7
 7371 0e16 0000 0000 		.long	.LASF236
 7372 0e1a 01        		.byte	0x1
 7373 0e1b FC        		.byte	0xfc
 7374 0e1c FB00 0000 		.long	0xfb
 7375 0e20 02        		.byte	0x2
 7376 0e21 23        		.byte	0x23
 7377 0e22 1A        		.uleb128 0x1a
 7378 0e23 07        		.uleb128 0x7
 7379 0e24 0000 0000 		.long	.LASF237
 7380 0e28 01        		.byte	0x1
 7381 0e29 FD        		.byte	0xfd
 7382 0e2a 3E00 0000 		.long	0x3e
 7383 0e2e 02        		.byte	0x2
 7384 0e2f 23        		.byte	0x23
 7385 0e30 1B        		.uleb128 0x1b
 7386 0e31 07        		.uleb128 0x7
 7387 0e32 0000 0000 		.long	.LASF238
 7388 0e36 01        		.byte	0x1
 7389 0e37 FE        		.byte	0xfe
 7390 0e38 FB00 0000 		.long	0xfb
 7391 0e3c 02        		.byte	0x2
GAS LISTING /tmp/ccvyM2DX.s 			page 131


 7392 0e3d 23        		.byte	0x23
 7393 0e3e 1D        		.uleb128 0x1d
 7394 0e3f 07        		.uleb128 0x7
 7395 0e40 0000 0000 		.long	.LASF239
 7396 0e44 01        		.byte	0x1
 7397 0e45 FF        		.byte	0xff
 7398 0e46 3E00 0000 		.long	0x3e
 7399 0e4a 02        		.byte	0x2
 7400 0e4b 23        		.byte	0x23
 7401 0e4c 1E        		.uleb128 0x1e
 7402 0e4d 08        		.uleb128 0x8
 7403 0e4e 0000 0000 		.long	.LASF240
 7404 0e52 01        		.byte	0x1
 7405 0e53 0101      		.word	0x101
 7406 0e55 4C00 0000 		.long	0x4c
 7407 0e59 02        		.byte	0x2
 7408 0e5a 23        		.byte	0x23
 7409 0e5b 20        		.uleb128 0x20
 7410 0e5c 00        		.byte	0x0
 7411 0e5d 1A        		.uleb128 0x1a
 7412 0e5e 0000 0000 		.long	.LASF328
 7413 0e62 03        		.byte	0x3
 7414 0e63 D2        		.byte	0xd2
 7415 0e64 01        		.byte	0x1
 7416 0e65 03        		.byte	0x3
 7417 0e66 A70E 0000 		.long	0xea7
 7418 0e6a 1B        		.uleb128 0x1b
 7419 0e6b 0000 0000 		.long	.LASF245
 7420 0e6f 03        		.byte	0x3
 7421 0e70 D2        		.byte	0xd2
 7422 0e71 A70E 0000 		.long	0xea7
 7423 0e75 1C        		.uleb128 0x1c
 7424 0e76 0000 0000 		.long	.LASF241
 7425 0e7a 03        		.byte	0x3
 7426 0e7b D4        		.byte	0xd4
 7427 0e7c 2C00 0000 		.long	0x2c
 7428 0e80 1C        		.uleb128 0x1c
 7429 0e81 0000 0000 		.long	.LASF242
 7430 0e85 03        		.byte	0x3
 7431 0e86 D5        		.byte	0xd5
 7432 0e87 A70E 0000 		.long	0xea7
 7433 0e8b 1C        		.uleb128 0x1c
 7434 0e8c 0000 0000 		.long	.LASF243
 7435 0e90 03        		.byte	0x3
 7436 0e91 D7        		.byte	0xd7
 7437 0e92 5300 0000 		.long	0x53
 7438 0e96 1D        		.uleb128 0x1d
 7439 0e97 01        		.byte	0x1
 7440 0e98 0000 0000 		.long	.LASF306
 7441 0e9c 03        		.byte	0x3
 7442 0e9d D8        		.byte	0xd8
 7443 0e9e 01        		.byte	0x1
 7444 0e9f 01        		.byte	0x1
 7445 0ea0 0C        		.uleb128 0xc
 7446 0ea1 5E00 0000 		.long	0x5e
 7447 0ea5 00        		.byte	0x0
 7448 0ea6 00        		.byte	0x0
GAS LISTING /tmp/ccvyM2DX.s 			page 132


 7449 0ea7 02        		.uleb128 0x2
 7450 0ea8 04        		.byte	0x4
 7451 0ea9 04        		.byte	0x4
 7452 0eaa 0000 0000 		.long	.LASF244
 7453 0eae 1E        		.uleb128 0x1e
 7454 0eaf 01        		.byte	0x1
 7455 0eb0 0000 0000 		.long	.LASF329
 7456 0eb4 01        		.byte	0x1
 7457 0eb5 6A        		.byte	0x6a
 7458 0eb6 01        		.byte	0x1
 7459 0eb7 4C00 0000 		.long	0x4c
 7460 0ebb 01        		.byte	0x1
 7461 0ebc 1F        		.uleb128 0x1f
 7462 0ebd 01        		.byte	0x1
 7463 0ebe 0000 0000 		.long	.LASF330
 7464 0ec2 01        		.byte	0x1
 7465 0ec3 8701      		.word	0x187
 7466 0ec5 01        		.byte	0x1
 7467 0ec6 01        		.byte	0x1
 7468 0ec7 E40E 0000 		.long	0xee4
 7469 0ecb 20        		.uleb128 0x20
 7470 0ecc 0000 0000 		.long	.LASF246
 7471 0ed0 01        		.byte	0x1
 7472 0ed1 8701      		.word	0x187
 7473 0ed3 E40E 0000 		.long	0xee4
 7474 0ed7 20        		.uleb128 0x20
 7475 0ed8 0000 0000 		.long	.LASF247
 7476 0edc 01        		.byte	0x1
 7477 0edd 8701      		.word	0x187
 7478 0edf 4C00 0000 		.long	0x4c
 7479 0ee3 00        		.byte	0x0
 7480 0ee4 0A        		.uleb128 0xa
 7481 0ee5 02        		.byte	0x2
 7482 0ee6 530D 0000 		.long	0xd53
 7483 0eea 21        		.uleb128 0x21
 7484 0eeb 01        		.byte	0x1
 7485 0eec 0000 0000 		.long	.LASF331
 7486 0ef0 01        		.byte	0x1
 7487 0ef1 5A        		.byte	0x5a
 7488 0ef2 01        		.byte	0x1
 7489 0ef3 3E00 0000 		.long	0x3e
 7490 0ef7 01        		.byte	0x1
 7491 0ef8 060F 0000 		.long	0xf06
 7492 0efc 22        		.uleb128 0x22
 7493 0efd 6E00      		.string	"n"
 7494 0eff 01        		.byte	0x1
 7495 0f00 5A        		.byte	0x5a
 7496 0f01 3E00 0000 		.long	0x3e
 7497 0f05 00        		.byte	0x0
 7498 0f06 23        		.uleb128 0x23
 7499 0f07 0000 0000 		.long	.LASF332
 7500 0f0b 01        		.byte	0x1
 7501 0f0c 4703      		.word	0x347
 7502 0f0e 01        		.byte	0x1
 7503 0f0f 01        		.byte	0x1
 7504 0f10 24        		.uleb128 0x24
 7505 0f11 0000 0000 		.long	.LASF333
GAS LISTING /tmp/ccvyM2DX.s 			page 133


 7506 0f15 01        		.byte	0x1
 7507 0f16 2D03      		.word	0x32d
 7508 0f18 01        		.byte	0x1
 7509 0f19 3E00 0000 		.long	0x3e
 7510 0f1d 0000 0000 		.long	.LFB37
 7511 0f21 0000 0000 		.long	.LFE37
 7512 0f25 03        		.byte	0x3
 7513 0f26 92        		.byte	0x92
 7514 0f27 20        		.uleb128 0x20
 7515 0f28 00        		.sleb128 0
 7516 0f29 4C0F 0000 		.long	0xf4c
 7517 0f2d 25        		.uleb128 0x25
 7518 0f2e 6300      		.string	"c"
 7519 0f30 01        		.byte	0x1
 7520 0f31 2D03      		.word	0x32d
 7521 0f33 FB00 0000 		.long	0xfb
 7522 0f37 0000 0000 		.long	.LLST0
 7523 0f3b 26        		.uleb128 0x26
 7524 0f3c 0000 0000 		.long	.LASF248
 7525 0f40 01        		.byte	0x1
 7526 0f41 2D03      		.word	0x32d
 7527 0f43 1701 0000 		.long	0x117
 7528 0f47 0000 0000 		.long	.LLST1
 7529 0f4b 00        		.byte	0x0
 7530 0f4c 27        		.uleb128 0x27
 7531 0f4d 01        		.byte	0x1
 7532 0f4e 0000 0000 		.long	.LASF253
 7533 0f52 02        		.byte	0x2
 7534 0f53 4D        		.byte	0x4d
 7535 0f54 01        		.byte	0x1
 7536 0f55 0000 0000 		.long	.LFB7
 7537 0f59 0000 0000 		.long	.LFE7
 7538 0f5d 03        		.byte	0x3
 7539 0f5e 92        		.byte	0x92
 7540 0f5f 20        		.uleb128 0x20
 7541 0f60 00        		.sleb128 0
 7542 0f61 9E0F 0000 		.long	0xf9e
 7543 0f65 28        		.uleb128 0x28
 7544 0f66 0000 0000 		.long	.LASF249
 7545 0f6a 02        		.byte	0x2
 7546 0f6b 4D        		.byte	0x4d
 7547 0f6c 9E0F 0000 		.long	0xf9e
 7548 0f70 0000 0000 		.long	.LLST2
 7549 0f74 29        		.uleb128 0x29
 7550 0f75 0000 0000 		.long	.LASF250
 7551 0f79 02        		.byte	0x2
 7552 0f7a 4D        		.byte	0x4d
 7553 0f7b 2C00 0000 		.long	0x2c
 7554 0f7f 01        		.byte	0x1
 7555 0f80 66        		.byte	0x66
 7556 0f81 2A        		.uleb128 0x2a
 7557 0f82 0000 0000 		.long	.LASF251
 7558 0f86 02        		.byte	0x2
 7559 0f87 6C        		.byte	0x6c
 7560 0f88 3B01 0000 		.long	0x13b
 7561 0f8c 01        		.byte	0x1
 7562 0f8d 62        		.byte	0x62
GAS LISTING /tmp/ccvyM2DX.s 			page 134


 7563 0f8e 2B        		.uleb128 0x2b
 7564 0f8f 0000 0000 		.long	.LASF252
 7565 0f93 02        		.byte	0x2
 7566 0f94 6D        		.byte	0x6d
 7567 0f95 9E0F 0000 		.long	0xf9e
 7568 0f99 0000 0000 		.long	.LLST3
 7569 0f9d 00        		.byte	0x0
 7570 0f9e 0A        		.uleb128 0xa
 7571 0f9f 02        		.byte	0x2
 7572 0fa0 3B01 0000 		.long	0x13b
 7573 0fa4 27        		.uleb128 0x27
 7574 0fa5 01        		.byte	0x1
 7575 0fa6 0000 0000 		.long	.LASF254
 7576 0faa 02        		.byte	0x2
 7577 0fab 8D        		.byte	0x8d
 7578 0fac 01        		.byte	0x1
 7579 0fad 0000 0000 		.long	.LFB8
 7580 0fb1 0000 0000 		.long	.LFE8
 7581 0fb5 03        		.byte	0x3
 7582 0fb6 92        		.byte	0x92
 7583 0fb7 20        		.uleb128 0x20
 7584 0fb8 00        		.sleb128 0
 7585 0fb9 E70F 0000 		.long	0xfe7
 7586 0fbd 28        		.uleb128 0x28
 7587 0fbe 0000 0000 		.long	.LASF255
 7588 0fc2 02        		.byte	0x2
 7589 0fc3 8D        		.byte	0x8d
 7590 0fc4 4703 0000 		.long	0x347
 7591 0fc8 0000 0000 		.long	.LLST4
 7592 0fcc 29        		.uleb128 0x29
 7593 0fcd 0000 0000 		.long	.LASF256
 7594 0fd1 02        		.byte	0x2
 7595 0fd2 8E        		.byte	0x8e
 7596 0fd3 E70F 0000 		.long	0xfe7
 7597 0fd7 01        		.byte	0x1
 7598 0fd8 66        		.byte	0x66
 7599 0fd9 29        		.uleb128 0x29
 7600 0fda 0000 0000 		.long	.LASF257
 7601 0fde 02        		.byte	0x2
 7602 0fdf 8F        		.byte	0x8f
 7603 0fe0 7F03 0000 		.long	0x37f
 7604 0fe4 01        		.byte	0x1
 7605 0fe5 64        		.byte	0x64
 7606 0fe6 00        		.byte	0x0
 7607 0fe7 02        		.uleb128 0x2
 7608 0fe8 01        		.byte	0x1
 7609 0fe9 02        		.byte	0x2
 7610 0fea 0000 0000 		.long	.LASF258
 7611 0fee 27        		.uleb128 0x27
 7612 0fef 01        		.byte	0x1
 7613 0ff0 0000 0000 		.long	.LASF259
 7614 0ff4 02        		.byte	0x2
 7615 0ff5 A7        		.byte	0xa7
 7616 0ff6 01        		.byte	0x1
 7617 0ff7 0000 0000 		.long	.LFB9
 7618 0ffb 0000 0000 		.long	.LFE9
 7619 0fff 03        		.byte	0x3
GAS LISTING /tmp/ccvyM2DX.s 			page 135


 7620 1000 92        		.byte	0x92
 7621 1001 20        		.uleb128 0x20
 7622 1002 00        		.sleb128 0
 7623 1003 2410 0000 		.long	0x1024
 7624 1007 29        		.uleb128 0x29
 7625 1008 0000 0000 		.long	.LASF260
 7626 100c 02        		.byte	0x2
 7627 100d A7        		.byte	0xa7
 7628 100e AD03 0000 		.long	0x3ad
 7629 1012 01        		.byte	0x1
 7630 1013 68        		.byte	0x68
 7631 1014 28        		.uleb128 0x28
 7632 1015 0000 0000 		.long	.LASF261
 7633 1019 02        		.byte	0x2
 7634 101a A7        		.byte	0xa7
 7635 101b 2C00 0000 		.long	0x2c
 7636 101f 0000 0000 		.long	.LLST5
 7637 1023 00        		.byte	0x0
 7638 1024 2C        		.uleb128 0x2c
 7639 1025 01        		.byte	0x1
 7640 1026 0000 0000 		.long	.LASF268
 7641 102a 02        		.byte	0x2
 7642 102b BB        		.byte	0xbb
 7643 102c 01        		.byte	0x1
 7644 102d 2C00 0000 		.long	0x2c
 7645 1031 0000 0000 		.long	.LFB10
 7646 1035 0000 0000 		.long	.LFE10
 7647 1039 03        		.byte	0x3
 7648 103a 92        		.byte	0x92
 7649 103b 20        		.uleb128 0x20
 7650 103c 00        		.sleb128 0
 7651 103d 6010 0000 		.long	0x1060
 7652 1041 28        		.uleb128 0x28
 7653 1042 0000 0000 		.long	.LASF262
 7654 1046 02        		.byte	0x2
 7655 1047 BB        		.byte	0xbb
 7656 1048 2C00 0000 		.long	0x2c
 7657 104c 0000 0000 		.long	.LLST6
 7658 1050 2B        		.uleb128 0x2b
 7659 1051 0000 0000 		.long	.LASF263
 7660 1055 02        		.byte	0x2
 7661 1056 BE        		.byte	0xbe
 7662 1057 2C00 0000 		.long	0x2c
 7663 105b 0000 0000 		.long	.LLST7
 7664 105f 00        		.byte	0x0
 7665 1060 27        		.uleb128 0x27
 7666 1061 01        		.byte	0x1
 7667 1062 0000 0000 		.long	.LASF264
 7668 1066 02        		.byte	0x2
 7669 1067 CE        		.byte	0xce
 7670 1068 01        		.byte	0x1
 7671 1069 0000 0000 		.long	.LFB11
 7672 106d 0000 0000 		.long	.LFE11
 7673 1071 03        		.byte	0x3
 7674 1072 92        		.byte	0x92
 7675 1073 20        		.uleb128 0x20
 7676 1074 00        		.sleb128 0
GAS LISTING /tmp/ccvyM2DX.s 			page 136


 7677 1075 A710 0000 		.long	0x10a7
 7678 1079 28        		.uleb128 0x28
 7679 107a 0000 0000 		.long	.LASF265
 7680 107e 02        		.byte	0x2
 7681 107f CE        		.byte	0xce
 7682 1080 3002 0000 		.long	0x230
 7683 1084 0000 0000 		.long	.LLST8
 7684 1088 28        		.uleb128 0x28
 7685 1089 0000 0000 		.long	.LASF266
 7686 108d 02        		.byte	0x2
 7687 108e CF        		.byte	0xcf
 7688 108f 6002 0000 		.long	0x260
 7689 1093 0000 0000 		.long	.LLST9
 7690 1097 2B        		.uleb128 0x2b
 7691 1098 0000 0000 		.long	.LASF267
 7692 109c 02        		.byte	0x2
 7693 109d D1        		.byte	0xd1
 7694 109e 2C00 0000 		.long	0x2c
 7695 10a2 0000 0000 		.long	.LLST10
 7696 10a6 00        		.byte	0x0
 7697 10a7 2C        		.uleb128 0x2c
 7698 10a8 01        		.byte	0x1
 7699 10a9 0000 0000 		.long	.LASF269
 7700 10ad 02        		.byte	0x2
 7701 10ae E1        		.byte	0xe1
 7702 10af 01        		.byte	0x1
 7703 10b0 2C00 0000 		.long	0x2c
 7704 10b4 0000 0000 		.long	.LFB12
 7705 10b8 0000 0000 		.long	.LFE12
 7706 10bc 03        		.byte	0x3
 7707 10bd 92        		.byte	0x92
 7708 10be 20        		.uleb128 0x20
 7709 10bf 00        		.sleb128 0
 7710 10c0 E310 0000 		.long	0x10e3
 7711 10c4 28        		.uleb128 0x28
 7712 10c5 0000 0000 		.long	.LASF260
 7713 10c9 02        		.byte	0x2
 7714 10ca E1        		.byte	0xe1
 7715 10cb DB01 0000 		.long	0x1db
 7716 10cf 0000 0000 		.long	.LLST11
 7717 10d3 2B        		.uleb128 0x2b
 7718 10d4 0000 0000 		.long	.LASF270
 7719 10d8 02        		.byte	0x2
 7720 10d9 E3        		.byte	0xe3
 7721 10da 2C00 0000 		.long	0x2c
 7722 10de 0000 0000 		.long	.LLST12
 7723 10e2 00        		.byte	0x0
 7724 10e3 27        		.uleb128 0x27
 7725 10e4 01        		.byte	0x1
 7726 10e5 0000 0000 		.long	.LASF271
 7727 10e9 02        		.byte	0x2
 7728 10ea F1        		.byte	0xf1
 7729 10eb 01        		.byte	0x1
 7730 10ec 0000 0000 		.long	.LFB13
 7731 10f0 0000 0000 		.long	.LFE13
 7732 10f4 03        		.byte	0x3
 7733 10f5 92        		.byte	0x92
GAS LISTING /tmp/ccvyM2DX.s 			page 137


 7734 10f6 20        		.uleb128 0x20
 7735 10f7 00        		.sleb128 0
 7736 10f8 0A11 0000 		.long	0x110a
 7737 10fc 29        		.uleb128 0x29
 7738 10fd 0000 0000 		.long	.LASF260
 7739 1101 02        		.byte	0x2
 7740 1102 F1        		.byte	0xf1
 7741 1103 9002 0000 		.long	0x290
 7742 1107 01        		.byte	0x1
 7743 1108 68        		.byte	0x68
 7744 1109 00        		.byte	0x0
 7745 110a 2D        		.uleb128 0x2d
 7746 110b 01        		.byte	0x1
 7747 110c 0000 0000 		.long	.LASF272
 7748 1110 02        		.byte	0x2
 7749 1111 0401      		.word	0x104
 7750 1113 01        		.byte	0x1
 7751 1114 0000 0000 		.long	.LFB14
 7752 1118 0000 0000 		.long	.LFE14
 7753 111c 03        		.byte	0x3
 7754 111d 92        		.byte	0x92
 7755 111e 20        		.uleb128 0x20
 7756 111f 00        		.sleb128 0
 7757 1120 4311 0000 		.long	0x1143
 7758 1124 26        		.uleb128 0x26
 7759 1125 0000 0000 		.long	.LASF273
 7760 1129 02        		.byte	0x2
 7761 112a 0401      		.word	0x104
 7762 112c 2C00 0000 		.long	0x2c
 7763 1130 0000 0000 		.long	.LLST13
 7764 1134 2E        		.uleb128 0x2e
 7765 1135 0000 0000 		.long	.LASF274
 7766 1139 02        		.byte	0x2
 7767 113a 0401      		.word	0x104
 7768 113c E70F 0000 		.long	0xfe7
 7769 1140 01        		.byte	0x1
 7770 1141 66        		.byte	0x66
 7771 1142 00        		.byte	0x0
 7772 1143 2F        		.uleb128 0x2f
 7773 1144 01        		.byte	0x1
 7774 1145 0000 0000 		.long	.LASF275
 7775 1149 02        		.byte	0x2
 7776 114a 1801      		.word	0x118
 7777 114c 01        		.byte	0x1
 7778 114d 0000 0000 		.long	.LFB15
 7779 1151 0000 0000 		.long	.LFE15
 7780 1155 03        		.byte	0x3
 7781 1156 92        		.byte	0x92
 7782 1157 20        		.uleb128 0x20
 7783 1158 00        		.sleb128 0
 7784 1159 2F        		.uleb128 0x2f
 7785 115a 01        		.byte	0x1
 7786 115b 0000 0000 		.long	.LASF276
 7787 115f 02        		.byte	0x2
 7788 1160 2401      		.word	0x124
 7789 1162 01        		.byte	0x1
 7790 1163 0000 0000 		.long	.LFB16
GAS LISTING /tmp/ccvyM2DX.s 			page 138


 7791 1167 0000 0000 		.long	.LFE16
 7792 116b 03        		.byte	0x3
 7793 116c 92        		.byte	0x92
 7794 116d 20        		.uleb128 0x20
 7795 116e 00        		.sleb128 0
 7796 116f 30        		.uleb128 0x30
 7797 1170 01        		.byte	0x1
 7798 1171 0000 0000 		.long	.LASF277
 7799 1175 01        		.byte	0x1
 7800 1176 44        		.byte	0x44
 7801 1177 01        		.byte	0x1
 7802 1178 0000 0000 		.long	.LFB17
 7803 117c 0000 0000 		.long	.LFE17
 7804 1180 03        		.byte	0x3
 7805 1181 92        		.byte	0x92
 7806 1182 20        		.uleb128 0x20
 7807 1183 00        		.sleb128 0
 7808 1184 27        		.uleb128 0x27
 7809 1185 01        		.byte	0x1
 7810 1186 0000 0000 		.long	.LASF278
 7811 118a 01        		.byte	0x1
 7812 118b 49        		.byte	0x49
 7813 118c 01        		.byte	0x1
 7814 118d 0000 0000 		.long	.LFB18
 7815 1191 0000 0000 		.long	.LFE18
 7816 1195 03        		.byte	0x3
 7817 1196 92        		.byte	0x92
 7818 1197 20        		.uleb128 0x20
 7819 1198 00        		.sleb128 0
 7820 1199 E611 0000 		.long	0x11e6
 7821 119d 31        		.uleb128 0x31
 7822 119e 6D73 00   		.string	"ms"
 7823 11a1 01        		.byte	0x1
 7824 11a2 49        		.byte	0x49
 7825 11a3 3E00 0000 		.long	0x3e
 7826 11a7 0000 0000 		.long	.LLST14
 7827 11ab 32        		.uleb128 0x32
 7828 11ac 5D0E 0000 		.long	0xe5d
 7829 11b0 0000 0000 		.long	.LBB76
 7830 11b4 0000 0000 		.long	.LBE76
 7831 11b8 01        		.byte	0x1
 7832 11b9 4C        		.byte	0x4c
 7833 11ba 33        		.uleb128 0x33
 7834 11bb 6A0E 0000 		.long	0xe6a
 7835 11bf 0000 0000 		.long	.LLST15
 7836 11c3 34        		.uleb128 0x34
 7837 11c4 0000 0000 		.long	.LBB77
 7838 11c8 0000 0000 		.long	.LBE77
 7839 11cc 35        		.uleb128 0x35
 7840 11cd 750E 0000 		.long	0xe75
 7841 11d1 36        		.uleb128 0x36
 7842 11d2 800E 0000 		.long	0xe80
 7843 11d6 0000 0000 		.long	.LLST16
 7844 11da 36        		.uleb128 0x36
 7845 11db 8B0E 0000 		.long	0xe8b
 7846 11df 0000 0000 		.long	.LLST17
 7847 11e3 00        		.byte	0x0
GAS LISTING /tmp/ccvyM2DX.s 			page 139


 7848 11e4 00        		.byte	0x0
 7849 11e5 00        		.byte	0x0
 7850 11e6 2C        		.uleb128 0x2c
 7851 11e7 01        		.byte	0x1
 7852 11e8 0000 0000 		.long	.LASF279
 7853 11ec 01        		.byte	0x1
 7854 11ed 50        		.byte	0x50
 7855 11ee 01        		.byte	0x1
 7856 11ef 3E00 0000 		.long	0x3e
 7857 11f3 0000 0000 		.long	.LFB19
 7858 11f7 0000 0000 		.long	.LFE19
 7859 11fb 03        		.byte	0x3
 7860 11fc 92        		.byte	0x92
 7861 11fd 20        		.uleb128 0x20
 7862 11fe 00        		.sleb128 0
 7863 11ff 2112 0000 		.long	0x1221
 7864 1203 31        		.uleb128 0x31
 7865 1204 6100      		.string	"a"
 7866 1206 01        		.byte	0x1
 7867 1207 50        		.byte	0x50
 7868 1208 2112 0000 		.long	0x1221
 7869 120c 0000 0000 		.long	.LLST18
 7870 1210 37        		.uleb128 0x37
 7871 1211 6200      		.string	"b"
 7872 1213 01        		.byte	0x1
 7873 1214 50        		.byte	0x50
 7874 1215 2112 0000 		.long	0x1221
 7875 1219 06        		.byte	0x6
 7876 121a 66        		.byte	0x66
 7877 121b 93        		.byte	0x93
 7878 121c 01        		.uleb128 0x1
 7879 121d 67        		.byte	0x67
 7880 121e 93        		.byte	0x93
 7881 121f 01        		.uleb128 0x1
 7882 1220 00        		.byte	0x0
 7883 1221 0A        		.uleb128 0xa
 7884 1222 02        		.byte	0x2
 7885 1223 3E00 0000 		.long	0x3e
 7886 1227 38        		.uleb128 0x38
 7887 1228 EA0E 0000 		.long	0xeea
 7888 122c 0000 0000 		.long	.LFB20
 7889 1230 0000 0000 		.long	.LFE20
 7890 1234 03        		.byte	0x3
 7891 1235 92        		.byte	0x92
 7892 1236 20        		.uleb128 0x20
 7893 1237 00        		.sleb128 0
 7894 1238 4612 0000 		.long	0x1246
 7895 123c 33        		.uleb128 0x33
 7896 123d FC0E 0000 		.long	0xefc
 7897 1241 0000 0000 		.long	.LLST19
 7898 1245 00        		.byte	0x0
 7899 1246 30        		.uleb128 0x30
 7900 1247 01        		.byte	0x1
 7901 1248 0000 0000 		.long	.LASF280
 7902 124c 01        		.byte	0x1
 7903 124d 5F        		.byte	0x5f
 7904 124e 01        		.byte	0x1
GAS LISTING /tmp/ccvyM2DX.s 			page 140


 7905 124f 0000 0000 		.long	.LFB21
 7906 1253 0000 0000 		.long	.LFE21
 7907 1257 03        		.byte	0x3
 7908 1258 92        		.byte	0x92
 7909 1259 20        		.uleb128 0x20
 7910 125a 00        		.sleb128 0
 7911 125b 39        		.uleb128 0x39
 7912 125c AE0E 0000 		.long	0xeae
 7913 1260 0000 0000 		.long	.LFB22
 7914 1264 0000 0000 		.long	.LFE22
 7915 1268 03        		.byte	0x3
 7916 1269 92        		.byte	0x92
 7917 126a 20        		.uleb128 0x20
 7918 126b 00        		.sleb128 0
 7919 126c 27        		.uleb128 0x27
 7920 126d 01        		.byte	0x1
 7921 126e 0000 0000 		.long	.LASF281
 7922 1272 01        		.byte	0x1
 7923 1273 6E        		.byte	0x6e
 7924 1274 01        		.byte	0x1
 7925 1275 0000 0000 		.long	.LFB23
 7926 1279 0000 0000 		.long	.LFE23
 7927 127d 03        		.byte	0x3
 7928 127e 92        		.byte	0x92
 7929 127f 20        		.uleb128 0x20
 7930 1280 00        		.sleb128 0
 7931 1281 9512 0000 		.long	0x1295
 7932 1285 28        		.uleb128 0x28
 7933 1286 0000 0000 		.long	.LASF282
 7934 128a 01        		.byte	0x1
 7935 128b 6E        		.byte	0x6e
 7936 128c 3E00 0000 		.long	0x3e
 7937 1290 0000 0000 		.long	.LLST20
 7938 1294 00        		.byte	0x0
 7939 1295 27        		.uleb128 0x27
 7940 1296 01        		.byte	0x1
 7941 1297 0000 0000 		.long	.LASF283
 7942 129b 01        		.byte	0x1
 7943 129c 75        		.byte	0x75
 7944 129d 01        		.byte	0x1
 7945 129e 0000 0000 		.long	.LFB24
 7946 12a2 0000 0000 		.long	.LFE24
 7947 12a6 03        		.byte	0x3
 7948 12a7 92        		.byte	0x92
 7949 12a8 20        		.uleb128 0x20
 7950 12a9 00        		.sleb128 0
 7951 12aa C912 0000 		.long	0x12c9
 7952 12ae 31        		.uleb128 0x31
 7953 12af 6E00      		.string	"n"
 7954 12b1 01        		.byte	0x1
 7955 12b2 75        		.byte	0x75
 7956 12b3 3E00 0000 		.long	0x3e
 7957 12b7 0000 0000 		.long	.LLST21
 7958 12bb 3A        		.uleb128 0x3a
 7959 12bc 6900      		.string	"i"
 7960 12be 01        		.byte	0x1
 7961 12bf 76        		.byte	0x76
GAS LISTING /tmp/ccvyM2DX.s 			page 141


 7962 12c0 3E00 0000 		.long	0x3e
 7963 12c4 0000 0000 		.long	.LLST22
 7964 12c8 00        		.byte	0x0
 7965 12c9 27        		.uleb128 0x27
 7966 12ca 01        		.byte	0x1
 7967 12cb 0000 0000 		.long	.LASF284
 7968 12cf 01        		.byte	0x1
 7969 12d0 7E        		.byte	0x7e
 7970 12d1 01        		.byte	0x1
 7971 12d2 0000 0000 		.long	.LFB25
 7972 12d6 0000 0000 		.long	.LFE25
 7973 12da 03        		.byte	0x3
 7974 12db 92        		.byte	0x92
 7975 12dc 20        		.uleb128 0x20
 7976 12dd 00        		.sleb128 0
 7977 12de 0413 0000 		.long	0x1304
 7978 12e2 28        		.uleb128 0x28
 7979 12e3 0000 0000 		.long	.LASF285
 7980 12e7 01        		.byte	0x1
 7981 12e8 7E        		.byte	0x7e
 7982 12e9 FB00 0000 		.long	0xfb
 7983 12ed 0000 0000 		.long	.LLST23
 7984 12f1 29        		.uleb128 0x29
 7985 12f2 0000 0000 		.long	.LASF286
 7986 12f6 01        		.byte	0x1
 7987 12f7 7E        		.byte	0x7e
 7988 12f8 3E00 0000 		.long	0x3e
 7989 12fc 06        		.byte	0x6
 7990 12fd 66        		.byte	0x66
 7991 12fe 93        		.byte	0x93
 7992 12ff 01        		.uleb128 0x1
 7993 1300 67        		.byte	0x67
 7994 1301 93        		.byte	0x93
 7995 1302 01        		.uleb128 0x1
 7996 1303 00        		.byte	0x0
 7997 1304 27        		.uleb128 0x27
 7998 1305 01        		.byte	0x1
 7999 1306 0000 0000 		.long	.LASF287
 8000 130a 01        		.byte	0x1
 8001 130b B5        		.byte	0xb5
 8002 130c 01        		.byte	0x1
 8003 130d 0000 0000 		.long	.LFB26
 8004 1311 0000 0000 		.long	.LFE26
 8005 1315 03        		.byte	0x3
 8006 1316 92        		.byte	0x92
 8007 1317 20        		.uleb128 0x20
 8008 1318 00        		.sleb128 0
 8009 1319 3F13 0000 		.long	0x133f
 8010 131d 28        		.uleb128 0x28
 8011 131e 0000 0000 		.long	.LASF285
 8012 1322 01        		.byte	0x1
 8013 1323 B5        		.byte	0xb5
 8014 1324 FB00 0000 		.long	0xfb
 8015 1328 0000 0000 		.long	.LLST24
 8016 132c 29        		.uleb128 0x29
 8017 132d 0000 0000 		.long	.LASF286
 8018 1331 01        		.byte	0x1
GAS LISTING /tmp/ccvyM2DX.s 			page 142


 8019 1332 B5        		.byte	0xb5
 8020 1333 3E00 0000 		.long	0x3e
 8021 1337 06        		.byte	0x6
 8022 1338 66        		.byte	0x66
 8023 1339 93        		.byte	0x93
 8024 133a 01        		.uleb128 0x1
 8025 133b 67        		.byte	0x67
 8026 133c 93        		.byte	0x93
 8027 133d 01        		.uleb128 0x1
 8028 133e 00        		.byte	0x0
 8029 133f 38        		.uleb128 0x38
 8030 1340 BC0E 0000 		.long	0xebc
 8031 1344 0000 0000 		.long	.LFB27
 8032 1348 0000 0000 		.long	.LFE27
 8033 134c 03        		.byte	0x3
 8034 134d 92        		.byte	0x92
 8035 134e 20        		.uleb128 0x20
 8036 134f 00        		.sleb128 0
 8037 1350 7313 0000 		.long	0x1373
 8038 1354 3B        		.uleb128 0x3b
 8039 1355 CB0E 0000 		.long	0xecb
 8040 1359 06        		.byte	0x6
 8041 135a 68        		.byte	0x68
 8042 135b 93        		.byte	0x93
 8043 135c 01        		.uleb128 0x1
 8044 135d 69        		.byte	0x69
 8045 135e 93        		.byte	0x93
 8046 135f 01        		.uleb128 0x1
 8047 1360 3B        		.uleb128 0x3b
 8048 1361 D70E 0000 		.long	0xed7
 8049 1365 0C        		.byte	0xc
 8050 1366 64        		.byte	0x64
 8051 1367 93        		.byte	0x93
 8052 1368 01        		.uleb128 0x1
 8053 1369 65        		.byte	0x65
 8054 136a 93        		.byte	0x93
 8055 136b 01        		.uleb128 0x1
 8056 136c 66        		.byte	0x66
 8057 136d 93        		.byte	0x93
 8058 136e 01        		.uleb128 0x1
 8059 136f 67        		.byte	0x67
 8060 1370 93        		.byte	0x93
 8061 1371 01        		.uleb128 0x1
 8062 1372 00        		.byte	0x0
 8063 1373 2D        		.uleb128 0x2d
 8064 1374 01        		.byte	0x1
 8065 1375 0000 0000 		.long	.LASF288
 8066 1379 01        		.byte	0x1
 8067 137a 8C01      		.word	0x18c
 8068 137c 01        		.byte	0x1
 8069 137d 0000 0000 		.long	.LFB28
 8070 1381 0000 0000 		.long	.LFE28
 8071 1385 03        		.byte	0x3
 8072 1386 92        		.byte	0x92
 8073 1387 20        		.uleb128 0x20
 8074 1388 00        		.sleb128 0
 8075 1389 AC13 0000 		.long	0x13ac
GAS LISTING /tmp/ccvyM2DX.s 			page 143


 8076 138d 2E        		.uleb128 0x2e
 8077 138e 0000 0000 		.long	.LASF246
 8078 1392 01        		.byte	0x1
 8079 1393 8C01      		.word	0x18c
 8080 1395 530D 0000 		.long	0xd53
 8081 1399 02        		.byte	0x2
 8082 139a 91        		.byte	0x91
 8083 139b 0E        		.sleb128 14
 8084 139c 2E        		.uleb128 0x2e
 8085 139d 0000 0000 		.long	.LASF289
 8086 13a1 01        		.byte	0x1
 8087 13a2 8C01      		.word	0x18c
 8088 13a4 3E00 0000 		.long	0x3e
 8089 13a8 02        		.byte	0x2
 8090 13a9 91        		.byte	0x91
 8091 13aa 32        		.sleb128 50
 8092 13ab 00        		.byte	0x0
 8093 13ac 2D        		.uleb128 0x2d
 8094 13ad 01        		.byte	0x1
 8095 13ae 0000 0000 		.long	.LASF290
 8096 13b2 01        		.byte	0x1
 8097 13b3 C001      		.word	0x1c0
 8098 13b5 01        		.byte	0x1
 8099 13b6 0000 0000 		.long	.LFB29
 8100 13ba 0000 0000 		.long	.LFE29
 8101 13be 03        		.byte	0x3
 8102 13bf 92        		.byte	0x92
 8103 13c0 20        		.uleb128 0x20
 8104 13c1 00        		.sleb128 0
 8105 13c2 1714 0000 		.long	0x1417
 8106 13c6 26        		.uleb128 0x26
 8107 13c7 0000 0000 		.long	.LASF246
 8108 13cb 01        		.byte	0x1
 8109 13cc C001      		.word	0x1c0
 8110 13ce E40E 0000 		.long	0xee4
 8111 13d2 0000 0000 		.long	.LLST25
 8112 13d6 26        		.uleb128 0x26
 8113 13d7 0000 0000 		.long	.LASF291
 8114 13db 01        		.byte	0x1
 8115 13dc C001      		.word	0x1c0
 8116 13de 3E00 0000 		.long	0x3e
 8117 13e2 0000 0000 		.long	.LLST26
 8118 13e6 3C        		.uleb128 0x3c
 8119 13e7 0000 0000 		.long	.LASF292
 8120 13eb 01        		.byte	0x1
 8121 13ec C101      		.word	0x1c1
 8122 13ee 3E00 0000 		.long	0x3e
 8123 13f2 0000 0000 		.long	.LLST27
 8124 13f6 3D        		.uleb128 0x3d
 8125 13f7 AE0E 0000 		.long	0xeae
 8126 13fb 0000 0000 		.long	.LBB78
 8127 13ff 0000 0000 		.long	.LBE78
 8128 1403 01        		.byte	0x1
 8129 1404 CE01      		.word	0x1ce
 8130 1406 3D        		.uleb128 0x3d
 8131 1407 AE0E 0000 		.long	0xeae
 8132 140b 0000 0000 		.long	.LBB80
GAS LISTING /tmp/ccvyM2DX.s 			page 144


 8133 140f 0000 0000 		.long	.LBE80
 8134 1413 01        		.byte	0x1
 8135 1414 D001      		.word	0x1d0
 8136 1416 00        		.byte	0x0
 8137 1417 2D        		.uleb128 0x2d
 8138 1418 01        		.byte	0x1
 8139 1419 0000 0000 		.long	.LASF293
 8140 141d 01        		.byte	0x1
 8141 141e 0102      		.word	0x201
 8142 1420 01        		.byte	0x1
 8143 1421 0000 0000 		.long	.LFB30
 8144 1425 0000 0000 		.long	.LFE30
 8145 1429 03        		.byte	0x3
 8146 142a 92        		.byte	0x92
 8147 142b 20        		.uleb128 0x20
 8148 142c 00        		.sleb128 0
 8149 142d 5214 0000 		.long	0x1452
 8150 1431 26        		.uleb128 0x26
 8151 1432 0000 0000 		.long	.LASF246
 8152 1436 01        		.byte	0x1
 8153 1437 0102      		.word	0x201
 8154 1439 E40E 0000 		.long	0xee4
 8155 143d 0000 0000 		.long	.LLST28
 8156 1441 26        		.uleb128 0x26
 8157 1442 0000 0000 		.long	.LASF294
 8158 1446 01        		.byte	0x1
 8159 1447 0102      		.word	0x201
 8160 1449 3E00 0000 		.long	0x3e
 8161 144d 0000 0000 		.long	.LLST29
 8162 1451 00        		.byte	0x0
 8163 1452 2D        		.uleb128 0x2d
 8164 1453 01        		.byte	0x1
 8165 1454 0000 0000 		.long	.LASF295
 8166 1458 01        		.byte	0x1
 8167 1459 2F02      		.word	0x22f
 8168 145b 01        		.byte	0x1
 8169 145c 0000 0000 		.long	.LFB31
 8170 1460 0000 0000 		.long	.LFE31
 8171 1464 03        		.byte	0x3
 8172 1465 92        		.byte	0x92
 8173 1466 20        		.uleb128 0x20
 8174 1467 00        		.sleb128 0
 8175 1468 CD14 0000 		.long	0x14cd
 8176 146c 26        		.uleb128 0x26
 8177 146d 0000 0000 		.long	.LASF296
 8178 1471 01        		.byte	0x1
 8179 1472 2F02      		.word	0x22f
 8180 1474 3E00 0000 		.long	0x3e
 8181 1478 0000 0000 		.long	.LLST30
 8182 147c 26        		.uleb128 0x26
 8183 147d 0000 0000 		.long	.LASF297
 8184 1481 01        		.byte	0x1
 8185 1482 2F02      		.word	0x22f
 8186 1484 3E00 0000 		.long	0x3e
 8187 1488 0000 0000 		.long	.LLST31
 8188 148c 26        		.uleb128 0x26
 8189 148d 0000 0000 		.long	.LASF298
GAS LISTING /tmp/ccvyM2DX.s 			page 145


 8190 1491 01        		.byte	0x1
 8191 1492 2F02      		.word	0x22f
 8192 1494 3E00 0000 		.long	0x3e
 8193 1498 0000 0000 		.long	.LLST32
 8194 149c 26        		.uleb128 0x26
 8195 149d 0000 0000 		.long	.LASF299
 8196 14a1 01        		.byte	0x1
 8197 14a2 2F02      		.word	0x22f
 8198 14a4 3E00 0000 		.long	0x3e
 8199 14a8 0000 0000 		.long	.LLST33
 8200 14ac 26        		.uleb128 0x26
 8201 14ad 0000 0000 		.long	.LASF300
 8202 14b1 01        		.byte	0x1
 8203 14b2 2F02      		.word	0x22f
 8204 14b4 3E00 0000 		.long	0x3e
 8205 14b8 0000 0000 		.long	.LLST34
 8206 14bc 26        		.uleb128 0x26
 8207 14bd 0000 0000 		.long	.LASF301
 8208 14c1 01        		.byte	0x1
 8209 14c2 2F02      		.word	0x22f
 8210 14c4 3E00 0000 		.long	0x3e
 8211 14c8 0000 0000 		.long	.LLST35
 8212 14cc 00        		.byte	0x0
 8213 14cd 2D        		.uleb128 0x2d
 8214 14ce 01        		.byte	0x1
 8215 14cf 0000 0000 		.long	.LASF302
 8216 14d3 01        		.byte	0x1
 8217 14d4 4C02      		.word	0x24c
 8218 14d6 01        		.byte	0x1
 8219 14d7 0000 0000 		.long	.LFB32
 8220 14db 0000 0000 		.long	.LFE32
 8221 14df 03        		.byte	0x3
 8222 14e0 92        		.byte	0x92
 8223 14e1 20        		.uleb128 0x20
 8224 14e2 00        		.sleb128 0
 8225 14e3 6917 0000 		.long	0x1769
 8226 14e7 3E        		.uleb128 0x3e
 8227 14e8 0000 0000 		.long	.LASF303
 8228 14ec 01        		.byte	0x1
 8229 14ed 4E02      		.word	0x24e
 8230 14ef 6917 0000 		.long	0x1769
 8231 14f3 02        		.byte	0x2
 8232 14f4 8C        		.byte	0x8c
 8233 14f5 01        		.sleb128 1
 8234 14f6 3C        		.uleb128 0x3c
 8235 14f7 0000 0000 		.long	.LASF304
 8236 14fb 01        		.byte	0x1
 8237 14fc 5802      		.word	0x258
 8238 14fe 3E00 0000 		.long	0x3e
 8239 1502 0000 0000 		.long	.LLST36
 8240 1506 3F        		.uleb128 0x3f
 8241 1507 6900      		.string	"i"
 8242 1509 01        		.byte	0x1
 8243 150a 5902      		.word	0x259
 8244 150c 3E00 0000 		.long	0x3e
 8245 1510 0000 0000 		.long	.LLST37
 8246 1514 40        		.uleb128 0x40
GAS LISTING /tmp/ccvyM2DX.s 			page 146


 8247 1515 BC0E 0000 		.long	0xebc
 8248 1519 0000 0000 		.long	.LBB82
 8249 151d 0000 0000 		.long	.Ldebug_ranges0+0x0
 8250 1521 01        		.byte	0x1
 8251 1522 6202      		.word	0x262
 8252 1524 3A15 0000 		.long	0x153a
 8253 1528 41        		.uleb128 0x41
 8254 1529 D70E 0000 		.long	0xed7
 8255 152d 3B        		.uleb128 0x3b
 8256 152e CB0E 0000 		.long	0xecb
 8257 1532 06        		.byte	0x6
 8258 1533 03        		.byte	0x3
 8259 1534 0000 0000 		.long	Base
 8260 1538 9F        		.byte	0x9f
 8261 1539 00        		.byte	0x0
 8262 153a 40        		.uleb128 0x40
 8263 153b BC0E 0000 		.long	0xebc
 8264 153f 0000 0000 		.long	.LBB86
 8265 1543 0000 0000 		.long	.Ldebug_ranges0+0x18
 8266 1547 01        		.byte	0x1
 8267 1548 6302      		.word	0x263
 8268 154a 6015 0000 		.long	0x1560
 8269 154e 41        		.uleb128 0x41
 8270 154f D70E 0000 		.long	0xed7
 8271 1553 3B        		.uleb128 0x3b
 8272 1554 CB0E 0000 		.long	0xecb
 8273 1558 06        		.byte	0x6
 8274 1559 03        		.byte	0x3
 8275 155a 0000 0000 		.long	Shoulder
 8276 155e 9F        		.byte	0x9f
 8277 155f 00        		.byte	0x0
 8278 1560 40        		.uleb128 0x40
 8279 1561 BC0E 0000 		.long	0xebc
 8280 1565 0000 0000 		.long	.LBB90
 8281 1569 0000 0000 		.long	.Ldebug_ranges0+0x30
 8282 156d 01        		.byte	0x1
 8283 156e 6402      		.word	0x264
 8284 1570 8615 0000 		.long	0x1586
 8285 1574 41        		.uleb128 0x41
 8286 1575 D70E 0000 		.long	0xed7
 8287 1579 3B        		.uleb128 0x3b
 8288 157a CB0E 0000 		.long	0xecb
 8289 157e 06        		.byte	0x6
 8290 157f 03        		.byte	0x3
 8291 1580 0000 0000 		.long	Elbow
 8292 1584 9F        		.byte	0x9f
 8293 1585 00        		.byte	0x0
 8294 1586 40        		.uleb128 0x40
 8295 1587 BC0E 0000 		.long	0xebc
 8296 158b 0000 0000 		.long	.LBB94
 8297 158f 0000 0000 		.long	.Ldebug_ranges0+0x48
 8298 1593 01        		.byte	0x1
 8299 1594 6502      		.word	0x265
 8300 1596 AC15 0000 		.long	0x15ac
 8301 159a 41        		.uleb128 0x41
 8302 159b D70E 0000 		.long	0xed7
 8303 159f 3B        		.uleb128 0x3b
GAS LISTING /tmp/ccvyM2DX.s 			page 147


 8304 15a0 CB0E 0000 		.long	0xecb
 8305 15a4 06        		.byte	0x6
 8306 15a5 03        		.byte	0x3
 8307 15a6 0000 0000 		.long	Right_Wrist
 8308 15aa 9F        		.byte	0x9f
 8309 15ab 00        		.byte	0x0
 8310 15ac 40        		.uleb128 0x40
 8311 15ad BC0E 0000 		.long	0xebc
 8312 15b1 0000 0000 		.long	.LBB98
 8313 15b5 0000 0000 		.long	.Ldebug_ranges0+0x60
 8314 15b9 01        		.byte	0x1
 8315 15ba 6602      		.word	0x266
 8316 15bc D215 0000 		.long	0x15d2
 8317 15c0 41        		.uleb128 0x41
 8318 15c1 D70E 0000 		.long	0xed7
 8319 15c5 3B        		.uleb128 0x3b
 8320 15c6 CB0E 0000 		.long	0xecb
 8321 15ca 06        		.byte	0x6
 8322 15cb 03        		.byte	0x3
 8323 15cc 0000 0000 		.long	Left_Wrist
 8324 15d0 9F        		.byte	0x9f
 8325 15d1 00        		.byte	0x0
 8326 15d2 40        		.uleb128 0x40
 8327 15d3 BC0E 0000 		.long	0xebc
 8328 15d7 0000 0000 		.long	.LBB102
 8329 15db 0000 0000 		.long	.Ldebug_ranges0+0x78
 8330 15df 01        		.byte	0x1
 8331 15e0 6702      		.word	0x267
 8332 15e2 F815 0000 		.long	0x15f8
 8333 15e6 41        		.uleb128 0x41
 8334 15e7 D70E 0000 		.long	0xed7
 8335 15eb 3B        		.uleb128 0x3b
 8336 15ec CB0E 0000 		.long	0xecb
 8337 15f0 06        		.byte	0x6
 8338 15f1 03        		.byte	0x3
 8339 15f2 0000 0000 		.long	Gripper
 8340 15f6 9F        		.byte	0x9f
 8341 15f7 00        		.byte	0x0
 8342 15f8 3D        		.uleb128 0x3d
 8343 15f9 AE0E 0000 		.long	0xeae
 8344 15fd 0000 0000 		.long	.LBB106
 8345 1601 0000 0000 		.long	.LBE106
 8346 1605 01        		.byte	0x1
 8347 1606 7002      		.word	0x270
 8348 1608 3D        		.uleb128 0x3d
 8349 1609 AE0E 0000 		.long	0xeae
 8350 160d 0000 0000 		.long	.LBB108
 8351 1611 0000 0000 		.long	.LBE108
 8352 1615 01        		.byte	0x1
 8353 1616 7102      		.word	0x271
 8354 1618 42        		.uleb128 0x42
 8355 1619 EA0E 0000 		.long	0xeea
 8356 161d 0000 0000 		.long	.LBB110
 8357 1621 0000 0000 		.long	.LBE110
 8358 1625 01        		.byte	0x1
 8359 1626 7202      		.word	0x272
 8360 1628 3616 0000 		.long	0x1636
GAS LISTING /tmp/ccvyM2DX.s 			page 148


 8361 162c 33        		.uleb128 0x33
 8362 162d FC0E 0000 		.long	0xefc
 8363 1631 0000 0000 		.long	.LLST38
 8364 1635 00        		.byte	0x0
 8365 1636 3D        		.uleb128 0x3d
 8366 1637 AE0E 0000 		.long	0xeae
 8367 163b 0000 0000 		.long	.LBB112
 8368 163f 0000 0000 		.long	.LBE112
 8369 1643 01        		.byte	0x1
 8370 1644 7402      		.word	0x274
 8371 1646 3D        		.uleb128 0x3d
 8372 1647 AE0E 0000 		.long	0xeae
 8373 164b 0000 0000 		.long	.LBB114
 8374 164f 0000 0000 		.long	.LBE114
 8375 1653 01        		.byte	0x1
 8376 1654 7502      		.word	0x275
 8377 1656 42        		.uleb128 0x42
 8378 1657 EA0E 0000 		.long	0xeea
 8379 165b 0000 0000 		.long	.LBB116
 8380 165f 0000 0000 		.long	.LBE116
 8381 1663 01        		.byte	0x1
 8382 1664 7602      		.word	0x276
 8383 1666 7416 0000 		.long	0x1674
 8384 166a 33        		.uleb128 0x33
 8385 166b FC0E 0000 		.long	0xefc
 8386 166f 0000 0000 		.long	.LLST39
 8387 1673 00        		.byte	0x0
 8388 1674 3D        		.uleb128 0x3d
 8389 1675 AE0E 0000 		.long	0xeae
 8390 1679 0000 0000 		.long	.LBB118
 8391 167d 0000 0000 		.long	.LBE118
 8392 1681 01        		.byte	0x1
 8393 1682 7802      		.word	0x278
 8394 1684 3D        		.uleb128 0x3d
 8395 1685 AE0E 0000 		.long	0xeae
 8396 1689 0000 0000 		.long	.LBB120
 8397 168d 0000 0000 		.long	.LBE120
 8398 1691 01        		.byte	0x1
 8399 1692 7902      		.word	0x279
 8400 1694 42        		.uleb128 0x42
 8401 1695 EA0E 0000 		.long	0xeea
 8402 1699 0000 0000 		.long	.LBB122
 8403 169d 0000 0000 		.long	.LBE122
 8404 16a1 01        		.byte	0x1
 8405 16a2 7A02      		.word	0x27a
 8406 16a4 B216 0000 		.long	0x16b2
 8407 16a8 33        		.uleb128 0x33
 8408 16a9 FC0E 0000 		.long	0xefc
 8409 16ad 0000 0000 		.long	.LLST40
 8410 16b1 00        		.byte	0x0
 8411 16b2 3D        		.uleb128 0x3d
 8412 16b3 AE0E 0000 		.long	0xeae
 8413 16b7 0000 0000 		.long	.LBB124
 8414 16bb 0000 0000 		.long	.LBE124
 8415 16bf 01        		.byte	0x1
 8416 16c0 7C02      		.word	0x27c
 8417 16c2 3D        		.uleb128 0x3d
GAS LISTING /tmp/ccvyM2DX.s 			page 149


 8418 16c3 AE0E 0000 		.long	0xeae
 8419 16c7 0000 0000 		.long	.LBB126
 8420 16cb 0000 0000 		.long	.LBE126
 8421 16cf 01        		.byte	0x1
 8422 16d0 7D02      		.word	0x27d
 8423 16d2 42        		.uleb128 0x42
 8424 16d3 EA0E 0000 		.long	0xeea
 8425 16d7 0000 0000 		.long	.LBB128
 8426 16db 0000 0000 		.long	.LBE128
 8427 16df 01        		.byte	0x1
 8428 16e0 7E02      		.word	0x27e
 8429 16e2 F016 0000 		.long	0x16f0
 8430 16e6 33        		.uleb128 0x33
 8431 16e7 FC0E 0000 		.long	0xefc
 8432 16eb 0000 0000 		.long	.LLST41
 8433 16ef 00        		.byte	0x0
 8434 16f0 3D        		.uleb128 0x3d
 8435 16f1 AE0E 0000 		.long	0xeae
 8436 16f5 0000 0000 		.long	.LBB130
 8437 16f9 0000 0000 		.long	.LBE130
 8438 16fd 01        		.byte	0x1
 8439 16fe 8002      		.word	0x280
 8440 1700 3D        		.uleb128 0x3d
 8441 1701 AE0E 0000 		.long	0xeae
 8442 1705 0000 0000 		.long	.LBB132
 8443 1709 0000 0000 		.long	.LBE132
 8444 170d 01        		.byte	0x1
 8445 170e 8102      		.word	0x281
 8446 1710 42        		.uleb128 0x42
 8447 1711 EA0E 0000 		.long	0xeea
 8448 1715 0000 0000 		.long	.LBB134
 8449 1719 0000 0000 		.long	.LBE134
 8450 171d 01        		.byte	0x1
 8451 171e 8202      		.word	0x282
 8452 1720 2E17 0000 		.long	0x172e
 8453 1724 33        		.uleb128 0x33
 8454 1725 FC0E 0000 		.long	0xefc
 8455 1729 0000 0000 		.long	.LLST42
 8456 172d 00        		.byte	0x0
 8457 172e 3D        		.uleb128 0x3d
 8458 172f AE0E 0000 		.long	0xeae
 8459 1733 0000 0000 		.long	.LBB136
 8460 1737 0000 0000 		.long	.LBE136
 8461 173b 01        		.byte	0x1
 8462 173c 8402      		.word	0x284
 8463 173e 3D        		.uleb128 0x3d
 8464 173f AE0E 0000 		.long	0xeae
 8465 1743 0000 0000 		.long	.LBB138
 8466 1747 0000 0000 		.long	.LBE138
 8467 174b 01        		.byte	0x1
 8468 174c 8502      		.word	0x285
 8469 174e 43        		.uleb128 0x43
 8470 174f EA0E 0000 		.long	0xeea
 8471 1753 0000 0000 		.long	.LBB140
 8472 1757 0000 0000 		.long	.LBE140
 8473 175b 01        		.byte	0x1
 8474 175c 8602      		.word	0x286
GAS LISTING /tmp/ccvyM2DX.s 			page 150


 8475 175e 33        		.uleb128 0x33
 8476 175f FC0E 0000 		.long	0xefc
 8477 1763 0000 0000 		.long	.LLST43
 8478 1767 00        		.byte	0x0
 8479 1768 00        		.byte	0x0
 8480 1769 44        		.uleb128 0x44
 8481 176a 3E00 0000 		.long	0x3e
 8482 176e 7917 0000 		.long	0x1779
 8483 1772 45        		.uleb128 0x45
 8484 1773 4500 0000 		.long	0x45
 8485 1777 05        		.byte	0x5
 8486 1778 00        		.byte	0x0
 8487 1779 2D        		.uleb128 0x2d
 8488 177a 01        		.byte	0x1
 8489 177b 0000 0000 		.long	.LASF305
 8490 177f 01        		.byte	0x1
 8491 1780 9E02      		.word	0x29e
 8492 1782 01        		.byte	0x1
 8493 1783 0000 0000 		.long	.LFB33
 8494 1787 0000 0000 		.long	.LFE33
 8495 178b 03        		.byte	0x3
 8496 178c 92        		.byte	0x92
 8497 178d 20        		.uleb128 0x20
 8498 178e 00        		.sleb128 0
 8499 178f B418 0000 		.long	0x18b4
 8500 1793 46        		.uleb128 0x46
 8501 1794 0000 0000 		.long	.Ldebug_ranges0+0x90
 8502 1798 AD17 0000 		.long	0x17ad
 8503 179c 47        		.uleb128 0x47
 8504 179d 01        		.byte	0x1
 8505 179e 0000 0000 		.long	.LASF307
 8506 17a2 01        		.byte	0x1
 8507 17a3 DB02      		.word	0x2db
 8508 17a5 3E00 0000 		.long	0x3e
 8509 17a9 01        		.byte	0x1
 8510 17aa 48        		.uleb128 0x48
 8511 17ab 00        		.byte	0x0
 8512 17ac 00        		.byte	0x0
 8513 17ad 40        		.uleb128 0x40
 8514 17ae BC0E 0000 		.long	0xebc
 8515 17b2 0000 0000 		.long	.LBB143
 8516 17b6 0000 0000 		.long	.Ldebug_ranges0+0xa8
 8517 17ba 01        		.byte	0x1
 8518 17bb A302      		.word	0x2a3
 8519 17bd D017 0000 		.long	0x17d0
 8520 17c1 33        		.uleb128 0x33
 8521 17c2 D70E 0000 		.long	0xed7
 8522 17c6 0000 0000 		.long	.LLST44
 8523 17ca 41        		.uleb128 0x41
 8524 17cb CB0E 0000 		.long	0xecb
 8525 17cf 00        		.byte	0x0
 8526 17d0 42        		.uleb128 0x42
 8527 17d1 BC0E 0000 		.long	0xebc
 8528 17d5 0000 0000 		.long	.LBB147
 8529 17d9 0000 0000 		.long	.LBE147
 8530 17dd 01        		.byte	0x1
 8531 17de A402      		.word	0x2a4
GAS LISTING /tmp/ccvyM2DX.s 			page 151


 8532 17e0 F317 0000 		.long	0x17f3
 8533 17e4 33        		.uleb128 0x33
 8534 17e5 D70E 0000 		.long	0xed7
 8535 17e9 0000 0000 		.long	.LLST45
 8536 17ed 41        		.uleb128 0x41
 8537 17ee CB0E 0000 		.long	0xecb
 8538 17f2 00        		.byte	0x0
 8539 17f3 42        		.uleb128 0x42
 8540 17f4 BC0E 0000 		.long	0xebc
 8541 17f8 0000 0000 		.long	.LBB149
 8542 17fc 0000 0000 		.long	.LBE149
 8543 1800 01        		.byte	0x1
 8544 1801 A502      		.word	0x2a5
 8545 1803 1618 0000 		.long	0x1816
 8546 1807 33        		.uleb128 0x33
 8547 1808 D70E 0000 		.long	0xed7
 8548 180c 0000 0000 		.long	.LLST46
 8549 1810 41        		.uleb128 0x41
 8550 1811 CB0E 0000 		.long	0xecb
 8551 1815 00        		.byte	0x0
 8552 1816 42        		.uleb128 0x42
 8553 1817 BC0E 0000 		.long	0xebc
 8554 181b 0000 0000 		.long	.LBB151
 8555 181f 0000 0000 		.long	.LBE151
 8556 1823 01        		.byte	0x1
 8557 1824 A602      		.word	0x2a6
 8558 1826 3918 0000 		.long	0x1839
 8559 182a 33        		.uleb128 0x33
 8560 182b D70E 0000 		.long	0xed7
 8561 182f 0000 0000 		.long	.LLST47
 8562 1833 41        		.uleb128 0x41
 8563 1834 CB0E 0000 		.long	0xecb
 8564 1838 00        		.byte	0x0
 8565 1839 42        		.uleb128 0x42
 8566 183a BC0E 0000 		.long	0xebc
 8567 183e 0000 0000 		.long	.LBB153
 8568 1842 0000 0000 		.long	.LBE153
 8569 1846 01        		.byte	0x1
 8570 1847 A702      		.word	0x2a7
 8571 1849 5C18 0000 		.long	0x185c
 8572 184d 33        		.uleb128 0x33
 8573 184e D70E 0000 		.long	0xed7
 8574 1852 0000 0000 		.long	.LLST48
 8575 1856 41        		.uleb128 0x41
 8576 1857 CB0E 0000 		.long	0xecb
 8577 185b 00        		.byte	0x0
 8578 185c 42        		.uleb128 0x42
 8579 185d BC0E 0000 		.long	0xebc
 8580 1861 0000 0000 		.long	.LBB155
 8581 1865 0000 0000 		.long	.LBE155
 8582 1869 01        		.byte	0x1
 8583 186a A802      		.word	0x2a8
 8584 186c 7F18 0000 		.long	0x187f
 8585 1870 33        		.uleb128 0x33
 8586 1871 D70E 0000 		.long	0xed7
 8587 1875 0000 0000 		.long	.LLST49
 8588 1879 41        		.uleb128 0x41
GAS LISTING /tmp/ccvyM2DX.s 			page 152


 8589 187a CB0E 0000 		.long	0xecb
 8590 187e 00        		.byte	0x0
 8591 187f 3D        		.uleb128 0x3d
 8592 1880 AE0E 0000 		.long	0xeae
 8593 1884 0000 0000 		.long	.LBB157
 8594 1888 0000 0000 		.long	.LBE157
 8595 188c 01        		.byte	0x1
 8596 188d B902      		.word	0x2b9
 8597 188f 3D        		.uleb128 0x3d
 8598 1890 AE0E 0000 		.long	0xeae
 8599 1894 0000 0000 		.long	.LBB159
 8600 1898 0000 0000 		.long	.LBE159
 8601 189c 01        		.byte	0x1
 8602 189d BA02      		.word	0x2ba
 8603 189f 34        		.uleb128 0x34
 8604 18a0 0000 0000 		.long	.LBB161
 8605 18a4 0000 0000 		.long	.LBE161
 8606 18a8 49        		.uleb128 0x49
 8607 18a9 6900      		.string	"i"
 8608 18ab 01        		.byte	0x1
 8609 18ac BE02      		.word	0x2be
 8610 18ae 3E00 0000 		.long	0x3e
 8611 18b2 00        		.byte	0x0
 8612 18b3 00        		.byte	0x0
 8613 18b4 2D        		.uleb128 0x2d
 8614 18b5 01        		.byte	0x1
 8615 18b6 0000 0000 		.long	.LASF308
 8616 18ba 01        		.byte	0x1
 8617 18bb 0403      		.word	0x304
 8618 18bd 01        		.byte	0x1
 8619 18be 0000 0000 		.long	.LFB35
 8620 18c2 0000 0000 		.long	.LFE35
 8621 18c6 03        		.byte	0x3
 8622 18c7 92        		.byte	0x92
 8623 18c8 20        		.uleb128 0x20
 8624 18c9 00        		.sleb128 0
 8625 18ca DF18 0000 		.long	0x18df
 8626 18ce 3D        		.uleb128 0x3d
 8627 18cf 060F 0000 		.long	0xf06
 8628 18d3 0000 0000 		.long	.LBB163
 8629 18d7 0000 0000 		.long	.LBE163
 8630 18db 01        		.byte	0x1
 8631 18dc 1E03      		.word	0x31e
 8632 18de 00        		.byte	0x0
 8633 18df 4A        		.uleb128 0x4a
 8634 18e0 01        		.byte	0x1
 8635 18e1 0000 0000 		.long	.LASF309
 8636 18e5 01        		.byte	0x1
 8637 18e6 2103      		.word	0x321
 8638 18e8 01        		.byte	0x1
 8639 18e9 3E00 0000 		.long	0x3e
 8640 18ed 0000 0000 		.long	.LFB36
 8641 18f1 0000 0000 		.long	.LFE36
 8642 18f5 03        		.byte	0x3
 8643 18f6 92        		.byte	0x92
 8644 18f7 20        		.uleb128 0x20
 8645 18f8 00        		.sleb128 0
GAS LISTING /tmp/ccvyM2DX.s 			page 153


 8646 18f9 4A        		.uleb128 0x4a
 8647 18fa 01        		.byte	0x1
 8648 18fb 0000 0000 		.long	.LASF310
 8649 18ff 01        		.byte	0x1
 8650 1900 3A03      		.word	0x33a
 8651 1902 01        		.byte	0x1
 8652 1903 3E00 0000 		.long	0x3e
 8653 1907 0000 0000 		.long	.LFB38
 8654 190b 0000 0000 		.long	.LFE38
 8655 190f 03        		.byte	0x3
 8656 1910 92        		.byte	0x92
 8657 1911 20        		.uleb128 0x20
 8658 1912 00        		.sleb128 0
 8659 1913 2D        		.uleb128 0x2d
 8660 1914 01        		.byte	0x1
 8661 1915 0000 0000 		.long	.LASF307
 8662 1919 01        		.byte	0x1
 8663 191a EE02      		.word	0x2ee
 8664 191c 01        		.byte	0x1
 8665 191d 0000 0000 		.long	.LFB34
 8666 1921 0000 0000 		.long	.LFE34
 8667 1925 03        		.byte	0x3
 8668 1926 92        		.byte	0x92
 8669 1927 20        		.uleb128 0x20
 8670 1928 00        		.sleb128 0
 8671 1929 7319 0000 		.long	0x1973
 8672 192d 3E        		.uleb128 0x3e
 8673 192e 0000 0000 		.long	.LASF311
 8674 1932 01        		.byte	0x1
 8675 1933 F002      		.word	0x2f0
 8676 1935 6917 0000 		.long	0x1769
 8677 1939 02        		.byte	0x2
 8678 193a 8C        		.byte	0x8c
 8679 193b 01        		.sleb128 1
 8680 193c 3F        		.uleb128 0x3f
 8681 193d 6300      		.string	"c"
 8682 193f 01        		.byte	0x1
 8683 1940 F102      		.word	0x2f1
 8684 1942 3E00 0000 		.long	0x3e
 8685 1946 0000 0000 		.long	.LLST50
 8686 194a 3F        		.uleb128 0x3f
 8687 194b 6900      		.string	"i"
 8688 194d 01        		.byte	0x1
 8689 194e F202      		.word	0x2f2
 8690 1950 3E00 0000 		.long	0x3e
 8691 1954 0000 0000 		.long	.LLST51
 8692 1958 34        		.uleb128 0x34
 8693 1959 0000 0000 		.long	.LBB165
 8694 195d 0000 0000 		.long	.LBE165
 8695 1961 47        		.uleb128 0x47
 8696 1962 01        		.byte	0x1
 8697 1963 0000 0000 		.long	.LASF310
 8698 1967 01        		.byte	0x1
 8699 1968 F502      		.word	0x2f5
 8700 196a 3E00 0000 		.long	0x3e
 8701 196e 01        		.byte	0x1
 8702 196f 48        		.uleb128 0x48
GAS LISTING /tmp/ccvyM2DX.s 			page 154


 8703 1970 00        		.byte	0x0
 8704 1971 00        		.byte	0x0
 8705 1972 00        		.byte	0x0
 8706 1973 44        		.uleb128 0x44
 8707 1974 1701 0000 		.long	0x117
 8708 1978 7E19 0000 		.long	0x197e
 8709 197c 4B        		.uleb128 0x4b
 8710 197d 00        		.byte	0x0
 8711 197e 4C        		.uleb128 0x4c
 8712 197f 0000 0000 		.long	.LASF312
 8713 1983 05        		.byte	0x5
 8714 1984 9501      		.word	0x195
 8715 1986 7319 0000 		.long	0x1973
 8716 198a 01        		.byte	0x1
 8717 198b 01        		.byte	0x1
 8718 198c 4D        		.uleb128 0x4d
 8719 198d 0000 0000 		.long	.LASF313
 8720 1991 01        		.byte	0x1
 8721 1992 37        		.byte	0x37
 8722 1993 3E00 0000 		.long	0x3e
 8723 1997 01        		.byte	0x1
 8724 1998 01        		.byte	0x1
 8725 1999 4D        		.uleb128 0x4d
 8726 199a 0000 0000 		.long	.LASF314
 8727 199e 01        		.byte	0x1
 8728 199f 39        		.byte	0x39
 8729 19a0 6917 0000 		.long	0x1769
 8730 19a4 01        		.byte	0x1
 8731 19a5 01        		.byte	0x1
 8732 19a6 4D        		.uleb128 0x4d
 8733 19a7 0000 0000 		.long	.LASF315
 8734 19ab 01        		.byte	0x1
 8735 19ac 3A        		.byte	0x3a
 8736 19ad 6917 0000 		.long	0x1769
 8737 19b1 01        		.byte	0x1
 8738 19b2 01        		.byte	0x1
 8739 19b3 4D        		.uleb128 0x4d
 8740 19b4 0000 0000 		.long	.LASF316
 8741 19b8 01        		.byte	0x1
 8742 19b9 3B        		.byte	0x3b
 8743 19ba C019 0000 		.long	0x19c0
 8744 19be 01        		.byte	0x1
 8745 19bf 01        		.byte	0x1
 8746 19c0 0E        		.uleb128 0xe
 8747 19c1 5E00 0000 		.long	0x5e
 8748 19c5 2A        		.uleb128 0x2a
 8749 19c6 0000 0000 		.long	.LASF317
 8750 19ca 01        		.byte	0x1
 8751 19cb 41        		.byte	0x41
 8752 19cc 7300 0000 		.long	0x73
 8753 19d0 05        		.byte	0x5
 8754 19d1 03        		.byte	0x3
 8755 19d2 0000 0000 		.long	mystdout
 8756 19d6 4C        		.uleb128 0x4c
 8757 19d7 0000 0000 		.long	.LASF318
 8758 19db 01        		.byte	0x1
 8759 19dc 0201      		.word	0x102
GAS LISTING /tmp/ccvyM2DX.s 			page 155


 8760 19de 530D 0000 		.long	0xd53
 8761 19e2 01        		.byte	0x1
 8762 19e3 01        		.byte	0x1
 8763 19e4 4C        		.uleb128 0x4c
 8764 19e5 0000 0000 		.long	.LASF319
 8765 19e9 01        		.byte	0x1
 8766 19ea 0201      		.word	0x102
 8767 19ec 530D 0000 		.long	0xd53
 8768 19f0 01        		.byte	0x1
 8769 19f1 01        		.byte	0x1
 8770 19f2 4C        		.uleb128 0x4c
 8771 19f3 0000 0000 		.long	.LASF320
 8772 19f7 01        		.byte	0x1
 8773 19f8 0201      		.word	0x102
 8774 19fa 530D 0000 		.long	0xd53
 8775 19fe 01        		.byte	0x1
 8776 19ff 01        		.byte	0x1
 8777 1a00 4C        		.uleb128 0x4c
 8778 1a01 0000 0000 		.long	.LASF321
 8779 1a05 01        		.byte	0x1
 8780 1a06 0201      		.word	0x102
 8781 1a08 530D 0000 		.long	0xd53
 8782 1a0c 01        		.byte	0x1
 8783 1a0d 01        		.byte	0x1
 8784 1a0e 4C        		.uleb128 0x4c
 8785 1a0f 0000 0000 		.long	.LASF322
 8786 1a13 01        		.byte	0x1
 8787 1a14 0201      		.word	0x102
 8788 1a16 530D 0000 		.long	0xd53
 8789 1a1a 01        		.byte	0x1
 8790 1a1b 01        		.byte	0x1
 8791 1a1c 4C        		.uleb128 0x4c
 8792 1a1d 0000 0000 		.long	.LASF323
 8793 1a21 01        		.byte	0x1
 8794 1a22 0201      		.word	0x102
 8795 1a24 530D 0000 		.long	0xd53
 8796 1a28 01        		.byte	0x1
 8797 1a29 01        		.byte	0x1
 8798 1a2a 4C        		.uleb128 0x4c
 8799 1a2b 0000 0000 		.long	.LASF312
 8800 1a2f 05        		.byte	0x5
 8801 1a30 9501      		.word	0x195
 8802 1a32 7319 0000 		.long	0x1973
 8803 1a36 01        		.byte	0x1
 8804 1a37 01        		.byte	0x1
 8805 1a38 4E        		.uleb128 0x4e
 8806 1a39 0000 0000 		.long	.LASF313
 8807 1a3d 01        		.byte	0x1
 8808 1a3e 37        		.byte	0x37
 8809 1a3f 3E00 0000 		.long	0x3e
 8810 1a43 01        		.byte	0x1
 8811 1a44 05        		.byte	0x5
 8812 1a45 03        		.byte	0x3
 8813 1a46 0000 0000 		.long	state
 8814 1a4a 4E        		.uleb128 0x4e
 8815 1a4b 0000 0000 		.long	.LASF324
 8816 1a4f 01        		.byte	0x1
GAS LISTING /tmp/ccvyM2DX.s 			page 156


 8817 1a50 38        		.byte	0x38
 8818 1a51 3E00 0000 		.long	0x3e
 8819 1a55 01        		.byte	0x1
 8820 1a56 05        		.byte	0x5
 8821 1a57 03        		.byte	0x3
 8822 1a58 0000 0000 		.long	debugFlag
 8823 1a5c 4E        		.uleb128 0x4e
 8824 1a5d 0000 0000 		.long	.LASF314
 8825 1a61 01        		.byte	0x1
 8826 1a62 39        		.byte	0x39
 8827 1a63 6917 0000 		.long	0x1769
 8828 1a67 01        		.byte	0x1
 8829 1a68 05        		.byte	0x5
 8830 1a69 03        		.byte	0x3
 8831 1a6a 0000 0000 		.long	goal
 8832 1a6e 4E        		.uleb128 0x4e
 8833 1a6f 0000 0000 		.long	.LASF315
 8834 1a73 01        		.byte	0x1
 8835 1a74 3A        		.byte	0x3a
 8836 1a75 6917 0000 		.long	0x1769
 8837 1a79 01        		.byte	0x1
 8838 1a7a 05        		.byte	0x5
 8839 1a7b 03        		.byte	0x3
 8840 1a7c 0000 0000 		.long	pose
 8841 1a80 4E        		.uleb128 0x4e
 8842 1a81 0000 0000 		.long	.LASF316
 8843 1a85 01        		.byte	0x1
 8844 1a86 3B        		.byte	0x3b
 8845 1a87 C019 0000 		.long	0x19c0
 8846 1a8b 01        		.byte	0x1
 8847 1a8c 05        		.byte	0x5
 8848 1a8d 03        		.byte	0x3
 8849 1a8e 0000 0000 		.long	elapsedMillis
 8850 1a92 4F        		.uleb128 0x4f
 8851 1a93 0000 0000 		.long	.LASF318
 8852 1a97 01        		.byte	0x1
 8853 1a98 0F01      		.word	0x10f
 8854 1a9a 530D 0000 		.long	0xd53
 8855 1a9e 01        		.byte	0x1
 8856 1a9f 05        		.byte	0x5
 8857 1aa0 03        		.byte	0x3
 8858 1aa1 0000 0000 		.long	Base
 8859 1aa5 4F        		.uleb128 0x4f
 8860 1aa6 0000 0000 		.long	.LASF319
 8861 1aaa 01        		.byte	0x1
 8862 1aab 2301      		.word	0x123
 8863 1aad 530D 0000 		.long	0xd53
 8864 1ab1 01        		.byte	0x1
 8865 1ab2 05        		.byte	0x5
 8866 1ab3 03        		.byte	0x3
 8867 1ab4 0000 0000 		.long	Shoulder
 8868 1ab8 4F        		.uleb128 0x4f
 8869 1ab9 0000 0000 		.long	.LASF320
 8870 1abd 01        		.byte	0x1
 8871 1abe 3601      		.word	0x136
 8872 1ac0 530D 0000 		.long	0xd53
 8873 1ac4 01        		.byte	0x1
GAS LISTING /tmp/ccvyM2DX.s 			page 157


 8874 1ac5 05        		.byte	0x5
 8875 1ac6 03        		.byte	0x3
 8876 1ac7 0000 0000 		.long	Elbow
 8877 1acb 4F        		.uleb128 0x4f
 8878 1acc 0000 0000 		.long	.LASF321
 8879 1ad0 01        		.byte	0x1
 8880 1ad1 5C01      		.word	0x15c
 8881 1ad3 530D 0000 		.long	0xd53
 8882 1ad7 01        		.byte	0x1
 8883 1ad8 05        		.byte	0x5
 8884 1ad9 03        		.byte	0x3
 8885 1ada 0000 0000 		.long	Left_Wrist
 8886 1ade 4F        		.uleb128 0x4f
 8887 1adf 0000 0000 		.long	.LASF322
 8888 1ae3 01        		.byte	0x1
 8889 1ae4 4901      		.word	0x149
 8890 1ae6 530D 0000 		.long	0xd53
 8891 1aea 01        		.byte	0x1
 8892 1aeb 05        		.byte	0x5
 8893 1aec 03        		.byte	0x3
 8894 1aed 0000 0000 		.long	Right_Wrist
 8895 1af1 4F        		.uleb128 0x4f
 8896 1af2 0000 0000 		.long	.LASF323
 8897 1af6 01        		.byte	0x1
 8898 1af7 7001      		.word	0x170
 8899 1af9 530D 0000 		.long	0xd53
 8900 1afd 01        		.byte	0x1
 8901 1afe 05        		.byte	0x5
 8902 1aff 03        		.byte	0x3
 8903 1b00 0000 0000 		.long	Gripper
 8904 1b04 00        		.byte	0x0
 8905               		.section	.debug_abbrev
 8906 0000 01        		.uleb128 0x1
 8907 0001 11        		.uleb128 0x11
 8908 0002 01        		.byte	0x1
 8909 0003 25        		.uleb128 0x25
 8910 0004 0E        		.uleb128 0xe
 8911 0005 13        		.uleb128 0x13
 8912 0006 0B        		.uleb128 0xb
 8913 0007 03        		.uleb128 0x3
 8914 0008 0E        		.uleb128 0xe
 8915 0009 1B        		.uleb128 0x1b
 8916 000a 0E        		.uleb128 0xe
 8917 000b 11        		.uleb128 0x11
 8918 000c 01        		.uleb128 0x1
 8919 000d 12        		.uleb128 0x12
 8920 000e 01        		.uleb128 0x1
 8921 000f 10        		.uleb128 0x10
 8922 0010 06        		.uleb128 0x6
 8923 0011 00        		.byte	0x0
 8924 0012 00        		.byte	0x0
 8925 0013 02        		.uleb128 0x2
 8926 0014 24        		.uleb128 0x24
 8927 0015 00        		.byte	0x0
 8928 0016 0B        		.uleb128 0xb
 8929 0017 0B        		.uleb128 0xb
 8930 0018 3E        		.uleb128 0x3e
GAS LISTING /tmp/ccvyM2DX.s 			page 158


 8931 0019 0B        		.uleb128 0xb
 8932 001a 03        		.uleb128 0x3
 8933 001b 0E        		.uleb128 0xe
 8934 001c 00        		.byte	0x0
 8935 001d 00        		.byte	0x0
 8936 001e 03        		.uleb128 0x3
 8937 001f 16        		.uleb128 0x16
 8938 0020 00        		.byte	0x0
 8939 0021 03        		.uleb128 0x3
 8940 0022 0E        		.uleb128 0xe
 8941 0023 3A        		.uleb128 0x3a
 8942 0024 0B        		.uleb128 0xb
 8943 0025 3B        		.uleb128 0x3b
 8944 0026 0B        		.uleb128 0xb
 8945 0027 49        		.uleb128 0x49
 8946 0028 13        		.uleb128 0x13
 8947 0029 00        		.byte	0x0
 8948 002a 00        		.byte	0x0
 8949 002b 04        		.uleb128 0x4
 8950 002c 24        		.uleb128 0x24
 8951 002d 00        		.byte	0x0
 8952 002e 0B        		.uleb128 0xb
 8953 002f 0B        		.uleb128 0xb
 8954 0030 3E        		.uleb128 0x3e
 8955 0031 0B        		.uleb128 0xb
 8956 0032 03        		.uleb128 0x3
 8957 0033 08        		.uleb128 0x8
 8958 0034 00        		.byte	0x0
 8959 0035 00        		.byte	0x0
 8960 0036 05        		.uleb128 0x5
 8961 0037 13        		.uleb128 0x13
 8962 0038 01        		.byte	0x1
 8963 0039 03        		.uleb128 0x3
 8964 003a 0E        		.uleb128 0xe
 8965 003b 0B        		.uleb128 0xb
 8966 003c 0B        		.uleb128 0xb
 8967 003d 3A        		.uleb128 0x3a
 8968 003e 0B        		.uleb128 0xb
 8969 003f 3B        		.uleb128 0x3b
 8970 0040 0B        		.uleb128 0xb
 8971 0041 01        		.uleb128 0x1
 8972 0042 13        		.uleb128 0x13
 8973 0043 00        		.byte	0x0
 8974 0044 00        		.byte	0x0
 8975 0045 06        		.uleb128 0x6
 8976 0046 0D        		.uleb128 0xd
 8977 0047 00        		.byte	0x0
 8978 0048 03        		.uleb128 0x3
 8979 0049 08        		.uleb128 0x8
 8980 004a 3A        		.uleb128 0x3a
 8981 004b 0B        		.uleb128 0xb
 8982 004c 3B        		.uleb128 0x3b
 8983 004d 0B        		.uleb128 0xb
 8984 004e 49        		.uleb128 0x49
 8985 004f 13        		.uleb128 0x13
 8986 0050 38        		.uleb128 0x38
 8987 0051 0A        		.uleb128 0xa
GAS LISTING /tmp/ccvyM2DX.s 			page 159


 8988 0052 00        		.byte	0x0
 8989 0053 00        		.byte	0x0
 8990 0054 07        		.uleb128 0x7
 8991 0055 0D        		.uleb128 0xd
 8992 0056 00        		.byte	0x0
 8993 0057 03        		.uleb128 0x3
 8994 0058 0E        		.uleb128 0xe
 8995 0059 3A        		.uleb128 0x3a
 8996 005a 0B        		.uleb128 0xb
 8997 005b 3B        		.uleb128 0x3b
 8998 005c 0B        		.uleb128 0xb
 8999 005d 49        		.uleb128 0x49
 9000 005e 13        		.uleb128 0x13
 9001 005f 38        		.uleb128 0x38
 9002 0060 0A        		.uleb128 0xa
 9003 0061 00        		.byte	0x0
 9004 0062 00        		.byte	0x0
 9005 0063 08        		.uleb128 0x8
 9006 0064 0D        		.uleb128 0xd
 9007 0065 00        		.byte	0x0
 9008 0066 03        		.uleb128 0x3
 9009 0067 0E        		.uleb128 0xe
 9010 0068 3A        		.uleb128 0x3a
 9011 0069 0B        		.uleb128 0xb
 9012 006a 3B        		.uleb128 0x3b
 9013 006b 05        		.uleb128 0x5
 9014 006c 49        		.uleb128 0x49
 9015 006d 13        		.uleb128 0x13
 9016 006e 38        		.uleb128 0x38
 9017 006f 0A        		.uleb128 0xa
 9018 0070 00        		.byte	0x0
 9019 0071 00        		.byte	0x0
 9020 0072 09        		.uleb128 0x9
 9021 0073 0D        		.uleb128 0xd
 9022 0074 00        		.byte	0x0
 9023 0075 03        		.uleb128 0x3
 9024 0076 08        		.uleb128 0x8
 9025 0077 3A        		.uleb128 0x3a
 9026 0078 0B        		.uleb128 0xb
 9027 0079 3B        		.uleb128 0x3b
 9028 007a 05        		.uleb128 0x5
 9029 007b 49        		.uleb128 0x49
 9030 007c 13        		.uleb128 0x13
 9031 007d 38        		.uleb128 0x38
 9032 007e 0A        		.uleb128 0xa
 9033 007f 00        		.byte	0x0
 9034 0080 00        		.byte	0x0
 9035 0081 0A        		.uleb128 0xa
 9036 0082 0F        		.uleb128 0xf
 9037 0083 00        		.byte	0x0
 9038 0084 0B        		.uleb128 0xb
 9039 0085 0B        		.uleb128 0xb
 9040 0086 49        		.uleb128 0x49
 9041 0087 13        		.uleb128 0x13
 9042 0088 00        		.byte	0x0
 9043 0089 00        		.byte	0x0
 9044 008a 0B        		.uleb128 0xb
GAS LISTING /tmp/ccvyM2DX.s 			page 160


 9045 008b 15        		.uleb128 0x15
 9046 008c 01        		.byte	0x1
 9047 008d 27        		.uleb128 0x27
 9048 008e 0C        		.uleb128 0xc
 9049 008f 49        		.uleb128 0x49
 9050 0090 13        		.uleb128 0x13
 9051 0091 01        		.uleb128 0x1
 9052 0092 13        		.uleb128 0x13
 9053 0093 00        		.byte	0x0
 9054 0094 00        		.byte	0x0
 9055 0095 0C        		.uleb128 0xc
 9056 0096 05        		.uleb128 0x5
 9057 0097 00        		.byte	0x0
 9058 0098 49        		.uleb128 0x49
 9059 0099 13        		.uleb128 0x13
 9060 009a 00        		.byte	0x0
 9061 009b 00        		.byte	0x0
 9062 009c 0D        		.uleb128 0xd
 9063 009d 0F        		.uleb128 0xf
 9064 009e 00        		.byte	0x0
 9065 009f 0B        		.uleb128 0xb
 9066 00a0 0B        		.uleb128 0xb
 9067 00a1 00        		.byte	0x0
 9068 00a2 00        		.byte	0x0
 9069 00a3 0E        		.uleb128 0xe
 9070 00a4 35        		.uleb128 0x35
 9071 00a5 00        		.byte	0x0
 9072 00a6 49        		.uleb128 0x49
 9073 00a7 13        		.uleb128 0x13
 9074 00a8 00        		.byte	0x0
 9075 00a9 00        		.byte	0x0
 9076 00aa 0F        		.uleb128 0xf
 9077 00ab 04        		.uleb128 0x4
 9078 00ac 01        		.byte	0x1
 9079 00ad 03        		.uleb128 0x3
 9080 00ae 0E        		.uleb128 0xe
 9081 00af 0B        		.uleb128 0xb
 9082 00b0 0B        		.uleb128 0xb
 9083 00b1 3A        		.uleb128 0x3a
 9084 00b2 0B        		.uleb128 0xb
 9085 00b3 3B        		.uleb128 0x3b
 9086 00b4 0B        		.uleb128 0xb
 9087 00b5 01        		.uleb128 0x1
 9088 00b6 13        		.uleb128 0x13
 9089 00b7 00        		.byte	0x0
 9090 00b8 00        		.byte	0x0
 9091 00b9 10        		.uleb128 0x10
 9092 00ba 28        		.uleb128 0x28
 9093 00bb 00        		.byte	0x0
 9094 00bc 03        		.uleb128 0x3
 9095 00bd 0E        		.uleb128 0xe
 9096 00be 1C        		.uleb128 0x1c
 9097 00bf 0D        		.uleb128 0xd
 9098 00c0 00        		.byte	0x0
 9099 00c1 00        		.byte	0x0
 9100 00c2 11        		.uleb128 0x11
 9101 00c3 13        		.uleb128 0x13
GAS LISTING /tmp/ccvyM2DX.s 			page 161


 9102 00c4 01        		.byte	0x1
 9103 00c5 03        		.uleb128 0x3
 9104 00c6 0E        		.uleb128 0xe
 9105 00c7 0B        		.uleb128 0xb
 9106 00c8 0B        		.uleb128 0xb
 9107 00c9 3A        		.uleb128 0x3a
 9108 00ca 0B        		.uleb128 0xb
 9109 00cb 3B        		.uleb128 0x3b
 9110 00cc 05        		.uleb128 0x5
 9111 00cd 01        		.uleb128 0x1
 9112 00ce 13        		.uleb128 0x13
 9113 00cf 00        		.byte	0x0
 9114 00d0 00        		.byte	0x0
 9115 00d1 12        		.uleb128 0x12
 9116 00d2 16        		.uleb128 0x16
 9117 00d3 00        		.byte	0x0
 9118 00d4 03        		.uleb128 0x3
 9119 00d5 0E        		.uleb128 0xe
 9120 00d6 3A        		.uleb128 0x3a
 9121 00d7 0B        		.uleb128 0xb
 9122 00d8 3B        		.uleb128 0x3b
 9123 00d9 05        		.uleb128 0x5
 9124 00da 49        		.uleb128 0x49
 9125 00db 13        		.uleb128 0x13
 9126 00dc 00        		.byte	0x0
 9127 00dd 00        		.byte	0x0
 9128 00de 13        		.uleb128 0x13
 9129 00df 04        		.uleb128 0x4
 9130 00e0 01        		.byte	0x1
 9131 00e1 03        		.uleb128 0x3
 9132 00e2 0E        		.uleb128 0xe
 9133 00e3 0B        		.uleb128 0xb
 9134 00e4 0B        		.uleb128 0xb
 9135 00e5 3A        		.uleb128 0x3a
 9136 00e6 0B        		.uleb128 0xb
 9137 00e7 3B        		.uleb128 0x3b
 9138 00e8 05        		.uleb128 0x5
 9139 00e9 01        		.uleb128 0x1
 9140 00ea 13        		.uleb128 0x13
 9141 00eb 00        		.byte	0x0
 9142 00ec 00        		.byte	0x0
 9143 00ed 14        		.uleb128 0x14
 9144 00ee 13        		.uleb128 0x13
 9145 00ef 01        		.byte	0x1
 9146 00f0 0B        		.uleb128 0xb
 9147 00f1 0B        		.uleb128 0xb
 9148 00f2 3A        		.uleb128 0x3a
 9149 00f3 0B        		.uleb128 0xb
 9150 00f4 3B        		.uleb128 0x3b
 9151 00f5 05        		.uleb128 0x5
 9152 00f6 01        		.uleb128 0x1
 9153 00f7 13        		.uleb128 0x13
 9154 00f8 00        		.byte	0x0
 9155 00f9 00        		.byte	0x0
 9156 00fa 15        		.uleb128 0x15
 9157 00fb 17        		.uleb128 0x17
 9158 00fc 01        		.byte	0x1
GAS LISTING /tmp/ccvyM2DX.s 			page 162


 9159 00fd 0B        		.uleb128 0xb
 9160 00fe 0B        		.uleb128 0xb
 9161 00ff 3A        		.uleb128 0x3a
 9162 0100 0B        		.uleb128 0xb
 9163 0101 3B        		.uleb128 0x3b
 9164 0102 05        		.uleb128 0x5
 9165 0103 01        		.uleb128 0x1
 9166 0104 13        		.uleb128 0x13
 9167 0105 00        		.byte	0x0
 9168 0106 00        		.byte	0x0
 9169 0107 16        		.uleb128 0x16
 9170 0108 0D        		.uleb128 0xd
 9171 0109 00        		.byte	0x0
 9172 010a 03        		.uleb128 0x3
 9173 010b 08        		.uleb128 0x8
 9174 010c 3A        		.uleb128 0x3a
 9175 010d 0B        		.uleb128 0xb
 9176 010e 3B        		.uleb128 0x3b
 9177 010f 05        		.uleb128 0x5
 9178 0110 49        		.uleb128 0x49
 9179 0111 13        		.uleb128 0x13
 9180 0112 00        		.byte	0x0
 9181 0113 00        		.byte	0x0
 9182 0114 17        		.uleb128 0x17
 9183 0115 0D        		.uleb128 0xd
 9184 0116 00        		.byte	0x0
 9185 0117 49        		.uleb128 0x49
 9186 0118 13        		.uleb128 0x13
 9187 0119 00        		.byte	0x0
 9188 011a 00        		.byte	0x0
 9189 011b 18        		.uleb128 0x18
 9190 011c 0D        		.uleb128 0xd
 9191 011d 00        		.byte	0x0
 9192 011e 03        		.uleb128 0x3
 9193 011f 0E        		.uleb128 0xe
 9194 0120 3A        		.uleb128 0x3a
 9195 0121 0B        		.uleb128 0xb
 9196 0122 3B        		.uleb128 0x3b
 9197 0123 05        		.uleb128 0x5
 9198 0124 49        		.uleb128 0x49
 9199 0125 13        		.uleb128 0x13
 9200 0126 00        		.byte	0x0
 9201 0127 00        		.byte	0x0
 9202 0128 19        		.uleb128 0x19
 9203 0129 0D        		.uleb128 0xd
 9204 012a 00        		.byte	0x0
 9205 012b 49        		.uleb128 0x49
 9206 012c 13        		.uleb128 0x13
 9207 012d 38        		.uleb128 0x38
 9208 012e 0A        		.uleb128 0xa
 9209 012f 00        		.byte	0x0
 9210 0130 00        		.byte	0x0
 9211 0131 1A        		.uleb128 0x1a
 9212 0132 2E        		.uleb128 0x2e
 9213 0133 01        		.byte	0x1
 9214 0134 03        		.uleb128 0x3
 9215 0135 0E        		.uleb128 0xe
GAS LISTING /tmp/ccvyM2DX.s 			page 163


 9216 0136 3A        		.uleb128 0x3a
 9217 0137 0B        		.uleb128 0xb
 9218 0138 3B        		.uleb128 0x3b
 9219 0139 0B        		.uleb128 0xb
 9220 013a 27        		.uleb128 0x27
 9221 013b 0C        		.uleb128 0xc
 9222 013c 20        		.uleb128 0x20
 9223 013d 0B        		.uleb128 0xb
 9224 013e 01        		.uleb128 0x1
 9225 013f 13        		.uleb128 0x13
 9226 0140 00        		.byte	0x0
 9227 0141 00        		.byte	0x0
 9228 0142 1B        		.uleb128 0x1b
 9229 0143 05        		.uleb128 0x5
 9230 0144 00        		.byte	0x0
 9231 0145 03        		.uleb128 0x3
 9232 0146 0E        		.uleb128 0xe
 9233 0147 3A        		.uleb128 0x3a
 9234 0148 0B        		.uleb128 0xb
 9235 0149 3B        		.uleb128 0x3b
 9236 014a 0B        		.uleb128 0xb
 9237 014b 49        		.uleb128 0x49
 9238 014c 13        		.uleb128 0x13
 9239 014d 00        		.byte	0x0
 9240 014e 00        		.byte	0x0
 9241 014f 1C        		.uleb128 0x1c
 9242 0150 34        		.uleb128 0x34
 9243 0151 00        		.byte	0x0
 9244 0152 03        		.uleb128 0x3
 9245 0153 0E        		.uleb128 0xe
 9246 0154 3A        		.uleb128 0x3a
 9247 0155 0B        		.uleb128 0xb
 9248 0156 3B        		.uleb128 0x3b
 9249 0157 0B        		.uleb128 0xb
 9250 0158 49        		.uleb128 0x49
 9251 0159 13        		.uleb128 0x13
 9252 015a 00        		.byte	0x0
 9253 015b 00        		.byte	0x0
 9254 015c 1D        		.uleb128 0x1d
 9255 015d 2E        		.uleb128 0x2e
 9256 015e 01        		.byte	0x1
 9257 015f 3F        		.uleb128 0x3f
 9258 0160 0C        		.uleb128 0xc
 9259 0161 03        		.uleb128 0x3
 9260 0162 0E        		.uleb128 0xe
 9261 0163 3A        		.uleb128 0x3a
 9262 0164 0B        		.uleb128 0xb
 9263 0165 3B        		.uleb128 0x3b
 9264 0166 0B        		.uleb128 0xb
 9265 0167 27        		.uleb128 0x27
 9266 0168 0C        		.uleb128 0xc
 9267 0169 3C        		.uleb128 0x3c
 9268 016a 0C        		.uleb128 0xc
 9269 016b 00        		.byte	0x0
 9270 016c 00        		.byte	0x0
 9271 016d 1E        		.uleb128 0x1e
 9272 016e 2E        		.uleb128 0x2e
GAS LISTING /tmp/ccvyM2DX.s 			page 164


 9273 016f 00        		.byte	0x0
 9274 0170 3F        		.uleb128 0x3f
 9275 0171 0C        		.uleb128 0xc
 9276 0172 03        		.uleb128 0x3
 9277 0173 0E        		.uleb128 0xe
 9278 0174 3A        		.uleb128 0x3a
 9279 0175 0B        		.uleb128 0xb
 9280 0176 3B        		.uleb128 0x3b
 9281 0177 0B        		.uleb128 0xb
 9282 0178 27        		.uleb128 0x27
 9283 0179 0C        		.uleb128 0xc
 9284 017a 49        		.uleb128 0x49
 9285 017b 13        		.uleb128 0x13
 9286 017c 20        		.uleb128 0x20
 9287 017d 0B        		.uleb128 0xb
 9288 017e 00        		.byte	0x0
 9289 017f 00        		.byte	0x0
 9290 0180 1F        		.uleb128 0x1f
 9291 0181 2E        		.uleb128 0x2e
 9292 0182 01        		.byte	0x1
 9293 0183 3F        		.uleb128 0x3f
 9294 0184 0C        		.uleb128 0xc
 9295 0185 03        		.uleb128 0x3
 9296 0186 0E        		.uleb128 0xe
 9297 0187 3A        		.uleb128 0x3a
 9298 0188 0B        		.uleb128 0xb
 9299 0189 3B        		.uleb128 0x3b
 9300 018a 05        		.uleb128 0x5
 9301 018b 27        		.uleb128 0x27
 9302 018c 0C        		.uleb128 0xc
 9303 018d 20        		.uleb128 0x20
 9304 018e 0B        		.uleb128 0xb
 9305 018f 01        		.uleb128 0x1
 9306 0190 13        		.uleb128 0x13
 9307 0191 00        		.byte	0x0
 9308 0192 00        		.byte	0x0
 9309 0193 20        		.uleb128 0x20
 9310 0194 05        		.uleb128 0x5
 9311 0195 00        		.byte	0x0
 9312 0196 03        		.uleb128 0x3
 9313 0197 0E        		.uleb128 0xe
 9314 0198 3A        		.uleb128 0x3a
 9315 0199 0B        		.uleb128 0xb
 9316 019a 3B        		.uleb128 0x3b
 9317 019b 05        		.uleb128 0x5
 9318 019c 49        		.uleb128 0x49
 9319 019d 13        		.uleb128 0x13
 9320 019e 00        		.byte	0x0
 9321 019f 00        		.byte	0x0
 9322 01a0 21        		.uleb128 0x21
 9323 01a1 2E        		.uleb128 0x2e
 9324 01a2 01        		.byte	0x1
 9325 01a3 3F        		.uleb128 0x3f
 9326 01a4 0C        		.uleb128 0xc
 9327 01a5 03        		.uleb128 0x3
 9328 01a6 0E        		.uleb128 0xe
 9329 01a7 3A        		.uleb128 0x3a
GAS LISTING /tmp/ccvyM2DX.s 			page 165


 9330 01a8 0B        		.uleb128 0xb
 9331 01a9 3B        		.uleb128 0x3b
 9332 01aa 0B        		.uleb128 0xb
 9333 01ab 27        		.uleb128 0x27
 9334 01ac 0C        		.uleb128 0xc
 9335 01ad 49        		.uleb128 0x49
 9336 01ae 13        		.uleb128 0x13
 9337 01af 20        		.uleb128 0x20
 9338 01b0 0B        		.uleb128 0xb
 9339 01b1 01        		.uleb128 0x1
 9340 01b2 13        		.uleb128 0x13
 9341 01b3 00        		.byte	0x0
 9342 01b4 00        		.byte	0x0
 9343 01b5 22        		.uleb128 0x22
 9344 01b6 05        		.uleb128 0x5
 9345 01b7 00        		.byte	0x0
 9346 01b8 03        		.uleb128 0x3
 9347 01b9 08        		.uleb128 0x8
 9348 01ba 3A        		.uleb128 0x3a
 9349 01bb 0B        		.uleb128 0xb
 9350 01bc 3B        		.uleb128 0x3b
 9351 01bd 0B        		.uleb128 0xb
 9352 01be 49        		.uleb128 0x49
 9353 01bf 13        		.uleb128 0x13
 9354 01c0 00        		.byte	0x0
 9355 01c1 00        		.byte	0x0
 9356 01c2 23        		.uleb128 0x23
 9357 01c3 2E        		.uleb128 0x2e
 9358 01c4 00        		.byte	0x0
 9359 01c5 03        		.uleb128 0x3
 9360 01c6 0E        		.uleb128 0xe
 9361 01c7 3A        		.uleb128 0x3a
 9362 01c8 0B        		.uleb128 0xb
 9363 01c9 3B        		.uleb128 0x3b
 9364 01ca 05        		.uleb128 0x5
 9365 01cb 27        		.uleb128 0x27
 9366 01cc 0C        		.uleb128 0xc
 9367 01cd 20        		.uleb128 0x20
 9368 01ce 0B        		.uleb128 0xb
 9369 01cf 00        		.byte	0x0
 9370 01d0 00        		.byte	0x0
 9371 01d1 24        		.uleb128 0x24
 9372 01d2 2E        		.uleb128 0x2e
 9373 01d3 01        		.byte	0x1
 9374 01d4 03        		.uleb128 0x3
 9375 01d5 0E        		.uleb128 0xe
 9376 01d6 3A        		.uleb128 0x3a
 9377 01d7 0B        		.uleb128 0xb
 9378 01d8 3B        		.uleb128 0x3b
 9379 01d9 05        		.uleb128 0x5
 9380 01da 27        		.uleb128 0x27
 9381 01db 0C        		.uleb128 0xc
 9382 01dc 49        		.uleb128 0x49
 9383 01dd 13        		.uleb128 0x13
 9384 01de 11        		.uleb128 0x11
 9385 01df 01        		.uleb128 0x1
 9386 01e0 12        		.uleb128 0x12
GAS LISTING /tmp/ccvyM2DX.s 			page 166


 9387 01e1 01        		.uleb128 0x1
 9388 01e2 40        		.uleb128 0x40
 9389 01e3 0A        		.uleb128 0xa
 9390 01e4 01        		.uleb128 0x1
 9391 01e5 13        		.uleb128 0x13
 9392 01e6 00        		.byte	0x0
 9393 01e7 00        		.byte	0x0
 9394 01e8 25        		.uleb128 0x25
 9395 01e9 05        		.uleb128 0x5
 9396 01ea 00        		.byte	0x0
 9397 01eb 03        		.uleb128 0x3
 9398 01ec 08        		.uleb128 0x8
 9399 01ed 3A        		.uleb128 0x3a
 9400 01ee 0B        		.uleb128 0xb
 9401 01ef 3B        		.uleb128 0x3b
 9402 01f0 05        		.uleb128 0x5
 9403 01f1 49        		.uleb128 0x49
 9404 01f2 13        		.uleb128 0x13
 9405 01f3 02        		.uleb128 0x2
 9406 01f4 06        		.uleb128 0x6
 9407 01f5 00        		.byte	0x0
 9408 01f6 00        		.byte	0x0
 9409 01f7 26        		.uleb128 0x26
 9410 01f8 05        		.uleb128 0x5
 9411 01f9 00        		.byte	0x0
 9412 01fa 03        		.uleb128 0x3
 9413 01fb 0E        		.uleb128 0xe
 9414 01fc 3A        		.uleb128 0x3a
 9415 01fd 0B        		.uleb128 0xb
 9416 01fe 3B        		.uleb128 0x3b
 9417 01ff 05        		.uleb128 0x5
 9418 0200 49        		.uleb128 0x49
 9419 0201 13        		.uleb128 0x13
 9420 0202 02        		.uleb128 0x2
 9421 0203 06        		.uleb128 0x6
 9422 0204 00        		.byte	0x0
 9423 0205 00        		.byte	0x0
 9424 0206 27        		.uleb128 0x27
 9425 0207 2E        		.uleb128 0x2e
 9426 0208 01        		.byte	0x1
 9427 0209 3F        		.uleb128 0x3f
 9428 020a 0C        		.uleb128 0xc
 9429 020b 03        		.uleb128 0x3
 9430 020c 0E        		.uleb128 0xe
 9431 020d 3A        		.uleb128 0x3a
 9432 020e 0B        		.uleb128 0xb
 9433 020f 3B        		.uleb128 0x3b
 9434 0210 0B        		.uleb128 0xb
 9435 0211 27        		.uleb128 0x27
 9436 0212 0C        		.uleb128 0xc
 9437 0213 11        		.uleb128 0x11
 9438 0214 01        		.uleb128 0x1
 9439 0215 12        		.uleb128 0x12
 9440 0216 01        		.uleb128 0x1
 9441 0217 40        		.uleb128 0x40
 9442 0218 0A        		.uleb128 0xa
 9443 0219 01        		.uleb128 0x1
GAS LISTING /tmp/ccvyM2DX.s 			page 167


 9444 021a 13        		.uleb128 0x13
 9445 021b 00        		.byte	0x0
 9446 021c 00        		.byte	0x0
 9447 021d 28        		.uleb128 0x28
 9448 021e 05        		.uleb128 0x5
 9449 021f 00        		.byte	0x0
 9450 0220 03        		.uleb128 0x3
 9451 0221 0E        		.uleb128 0xe
 9452 0222 3A        		.uleb128 0x3a
 9453 0223 0B        		.uleb128 0xb
 9454 0224 3B        		.uleb128 0x3b
 9455 0225 0B        		.uleb128 0xb
 9456 0226 49        		.uleb128 0x49
 9457 0227 13        		.uleb128 0x13
 9458 0228 02        		.uleb128 0x2
 9459 0229 06        		.uleb128 0x6
 9460 022a 00        		.byte	0x0
 9461 022b 00        		.byte	0x0
 9462 022c 29        		.uleb128 0x29
 9463 022d 05        		.uleb128 0x5
 9464 022e 00        		.byte	0x0
 9465 022f 03        		.uleb128 0x3
 9466 0230 0E        		.uleb128 0xe
 9467 0231 3A        		.uleb128 0x3a
 9468 0232 0B        		.uleb128 0xb
 9469 0233 3B        		.uleb128 0x3b
 9470 0234 0B        		.uleb128 0xb
 9471 0235 49        		.uleb128 0x49
 9472 0236 13        		.uleb128 0x13
 9473 0237 02        		.uleb128 0x2
 9474 0238 0A        		.uleb128 0xa
 9475 0239 00        		.byte	0x0
 9476 023a 00        		.byte	0x0
 9477 023b 2A        		.uleb128 0x2a
 9478 023c 34        		.uleb128 0x34
 9479 023d 00        		.byte	0x0
 9480 023e 03        		.uleb128 0x3
 9481 023f 0E        		.uleb128 0xe
 9482 0240 3A        		.uleb128 0x3a
 9483 0241 0B        		.uleb128 0xb
 9484 0242 3B        		.uleb128 0x3b
 9485 0243 0B        		.uleb128 0xb
 9486 0244 49        		.uleb128 0x49
 9487 0245 13        		.uleb128 0x13
 9488 0246 02        		.uleb128 0x2
 9489 0247 0A        		.uleb128 0xa
 9490 0248 00        		.byte	0x0
 9491 0249 00        		.byte	0x0
 9492 024a 2B        		.uleb128 0x2b
 9493 024b 34        		.uleb128 0x34
 9494 024c 00        		.byte	0x0
 9495 024d 03        		.uleb128 0x3
 9496 024e 0E        		.uleb128 0xe
 9497 024f 3A        		.uleb128 0x3a
 9498 0250 0B        		.uleb128 0xb
 9499 0251 3B        		.uleb128 0x3b
 9500 0252 0B        		.uleb128 0xb
GAS LISTING /tmp/ccvyM2DX.s 			page 168


 9501 0253 49        		.uleb128 0x49
 9502 0254 13        		.uleb128 0x13
 9503 0255 02        		.uleb128 0x2
 9504 0256 06        		.uleb128 0x6
 9505 0257 00        		.byte	0x0
 9506 0258 00        		.byte	0x0
 9507 0259 2C        		.uleb128 0x2c
 9508 025a 2E        		.uleb128 0x2e
 9509 025b 01        		.byte	0x1
 9510 025c 3F        		.uleb128 0x3f
 9511 025d 0C        		.uleb128 0xc
 9512 025e 03        		.uleb128 0x3
 9513 025f 0E        		.uleb128 0xe
 9514 0260 3A        		.uleb128 0x3a
 9515 0261 0B        		.uleb128 0xb
 9516 0262 3B        		.uleb128 0x3b
 9517 0263 0B        		.uleb128 0xb
 9518 0264 27        		.uleb128 0x27
 9519 0265 0C        		.uleb128 0xc
 9520 0266 49        		.uleb128 0x49
 9521 0267 13        		.uleb128 0x13
 9522 0268 11        		.uleb128 0x11
 9523 0269 01        		.uleb128 0x1
 9524 026a 12        		.uleb128 0x12
 9525 026b 01        		.uleb128 0x1
 9526 026c 40        		.uleb128 0x40
 9527 026d 0A        		.uleb128 0xa
 9528 026e 01        		.uleb128 0x1
 9529 026f 13        		.uleb128 0x13
 9530 0270 00        		.byte	0x0
 9531 0271 00        		.byte	0x0
 9532 0272 2D        		.uleb128 0x2d
 9533 0273 2E        		.uleb128 0x2e
 9534 0274 01        		.byte	0x1
 9535 0275 3F        		.uleb128 0x3f
 9536 0276 0C        		.uleb128 0xc
 9537 0277 03        		.uleb128 0x3
 9538 0278 0E        		.uleb128 0xe
 9539 0279 3A        		.uleb128 0x3a
 9540 027a 0B        		.uleb128 0xb
 9541 027b 3B        		.uleb128 0x3b
 9542 027c 05        		.uleb128 0x5
 9543 027d 27        		.uleb128 0x27
 9544 027e 0C        		.uleb128 0xc
 9545 027f 11        		.uleb128 0x11
 9546 0280 01        		.uleb128 0x1
 9547 0281 12        		.uleb128 0x12
 9548 0282 01        		.uleb128 0x1
 9549 0283 40        		.uleb128 0x40
 9550 0284 0A        		.uleb128 0xa
 9551 0285 01        		.uleb128 0x1
 9552 0286 13        		.uleb128 0x13
 9553 0287 00        		.byte	0x0
 9554 0288 00        		.byte	0x0
 9555 0289 2E        		.uleb128 0x2e
 9556 028a 05        		.uleb128 0x5
 9557 028b 00        		.byte	0x0
GAS LISTING /tmp/ccvyM2DX.s 			page 169


 9558 028c 03        		.uleb128 0x3
 9559 028d 0E        		.uleb128 0xe
 9560 028e 3A        		.uleb128 0x3a
 9561 028f 0B        		.uleb128 0xb
 9562 0290 3B        		.uleb128 0x3b
 9563 0291 05        		.uleb128 0x5
 9564 0292 49        		.uleb128 0x49
 9565 0293 13        		.uleb128 0x13
 9566 0294 02        		.uleb128 0x2
 9567 0295 0A        		.uleb128 0xa
 9568 0296 00        		.byte	0x0
 9569 0297 00        		.byte	0x0
 9570 0298 2F        		.uleb128 0x2f
 9571 0299 2E        		.uleb128 0x2e
 9572 029a 00        		.byte	0x0
 9573 029b 3F        		.uleb128 0x3f
 9574 029c 0C        		.uleb128 0xc
 9575 029d 03        		.uleb128 0x3
 9576 029e 0E        		.uleb128 0xe
 9577 029f 3A        		.uleb128 0x3a
 9578 02a0 0B        		.uleb128 0xb
 9579 02a1 3B        		.uleb128 0x3b
 9580 02a2 05        		.uleb128 0x5
 9581 02a3 27        		.uleb128 0x27
 9582 02a4 0C        		.uleb128 0xc
 9583 02a5 11        		.uleb128 0x11
 9584 02a6 01        		.uleb128 0x1
 9585 02a7 12        		.uleb128 0x12
 9586 02a8 01        		.uleb128 0x1
 9587 02a9 40        		.uleb128 0x40
 9588 02aa 0A        		.uleb128 0xa
 9589 02ab 00        		.byte	0x0
 9590 02ac 00        		.byte	0x0
 9591 02ad 30        		.uleb128 0x30
 9592 02ae 2E        		.uleb128 0x2e
 9593 02af 00        		.byte	0x0
 9594 02b0 3F        		.uleb128 0x3f
 9595 02b1 0C        		.uleb128 0xc
 9596 02b2 03        		.uleb128 0x3
 9597 02b3 0E        		.uleb128 0xe
 9598 02b4 3A        		.uleb128 0x3a
 9599 02b5 0B        		.uleb128 0xb
 9600 02b6 3B        		.uleb128 0x3b
 9601 02b7 0B        		.uleb128 0xb
 9602 02b8 27        		.uleb128 0x27
 9603 02b9 0C        		.uleb128 0xc
 9604 02ba 11        		.uleb128 0x11
 9605 02bb 01        		.uleb128 0x1
 9606 02bc 12        		.uleb128 0x12
 9607 02bd 01        		.uleb128 0x1
 9608 02be 40        		.uleb128 0x40
 9609 02bf 0A        		.uleb128 0xa
 9610 02c0 00        		.byte	0x0
 9611 02c1 00        		.byte	0x0
 9612 02c2 31        		.uleb128 0x31
 9613 02c3 05        		.uleb128 0x5
 9614 02c4 00        		.byte	0x0
GAS LISTING /tmp/ccvyM2DX.s 			page 170


 9615 02c5 03        		.uleb128 0x3
 9616 02c6 08        		.uleb128 0x8
 9617 02c7 3A        		.uleb128 0x3a
 9618 02c8 0B        		.uleb128 0xb
 9619 02c9 3B        		.uleb128 0x3b
 9620 02ca 0B        		.uleb128 0xb
 9621 02cb 49        		.uleb128 0x49
 9622 02cc 13        		.uleb128 0x13
 9623 02cd 02        		.uleb128 0x2
 9624 02ce 06        		.uleb128 0x6
 9625 02cf 00        		.byte	0x0
 9626 02d0 00        		.byte	0x0
 9627 02d1 32        		.uleb128 0x32
 9628 02d2 1D        		.uleb128 0x1d
 9629 02d3 01        		.byte	0x1
 9630 02d4 31        		.uleb128 0x31
 9631 02d5 13        		.uleb128 0x13
 9632 02d6 11        		.uleb128 0x11
 9633 02d7 01        		.uleb128 0x1
 9634 02d8 12        		.uleb128 0x12
 9635 02d9 01        		.uleb128 0x1
 9636 02da 58        		.uleb128 0x58
 9637 02db 0B        		.uleb128 0xb
 9638 02dc 59        		.uleb128 0x59
 9639 02dd 0B        		.uleb128 0xb
 9640 02de 00        		.byte	0x0
 9641 02df 00        		.byte	0x0
 9642 02e0 33        		.uleb128 0x33
 9643 02e1 05        		.uleb128 0x5
 9644 02e2 00        		.byte	0x0
 9645 02e3 31        		.uleb128 0x31
 9646 02e4 13        		.uleb128 0x13
 9647 02e5 02        		.uleb128 0x2
 9648 02e6 06        		.uleb128 0x6
 9649 02e7 00        		.byte	0x0
 9650 02e8 00        		.byte	0x0
 9651 02e9 34        		.uleb128 0x34
 9652 02ea 0B        		.uleb128 0xb
 9653 02eb 01        		.byte	0x1
 9654 02ec 11        		.uleb128 0x11
 9655 02ed 01        		.uleb128 0x1
 9656 02ee 12        		.uleb128 0x12
 9657 02ef 01        		.uleb128 0x1
 9658 02f0 00        		.byte	0x0
 9659 02f1 00        		.byte	0x0
 9660 02f2 35        		.uleb128 0x35
 9661 02f3 34        		.uleb128 0x34
 9662 02f4 00        		.byte	0x0
 9663 02f5 31        		.uleb128 0x31
 9664 02f6 13        		.uleb128 0x13
 9665 02f7 00        		.byte	0x0
 9666 02f8 00        		.byte	0x0
 9667 02f9 36        		.uleb128 0x36
 9668 02fa 34        		.uleb128 0x34
 9669 02fb 00        		.byte	0x0
 9670 02fc 31        		.uleb128 0x31
 9671 02fd 13        		.uleb128 0x13
GAS LISTING /tmp/ccvyM2DX.s 			page 171


 9672 02fe 02        		.uleb128 0x2
 9673 02ff 06        		.uleb128 0x6
 9674 0300 00        		.byte	0x0
 9675 0301 00        		.byte	0x0
 9676 0302 37        		.uleb128 0x37
 9677 0303 05        		.uleb128 0x5
 9678 0304 00        		.byte	0x0
 9679 0305 03        		.uleb128 0x3
 9680 0306 08        		.uleb128 0x8
 9681 0307 3A        		.uleb128 0x3a
 9682 0308 0B        		.uleb128 0xb
 9683 0309 3B        		.uleb128 0x3b
 9684 030a 0B        		.uleb128 0xb
 9685 030b 49        		.uleb128 0x49
 9686 030c 13        		.uleb128 0x13
 9687 030d 02        		.uleb128 0x2
 9688 030e 0A        		.uleb128 0xa
 9689 030f 00        		.byte	0x0
 9690 0310 00        		.byte	0x0
 9691 0311 38        		.uleb128 0x38
 9692 0312 2E        		.uleb128 0x2e
 9693 0313 01        		.byte	0x1
 9694 0314 31        		.uleb128 0x31
 9695 0315 13        		.uleb128 0x13
 9696 0316 11        		.uleb128 0x11
 9697 0317 01        		.uleb128 0x1
 9698 0318 12        		.uleb128 0x12
 9699 0319 01        		.uleb128 0x1
 9700 031a 40        		.uleb128 0x40
 9701 031b 0A        		.uleb128 0xa
 9702 031c 01        		.uleb128 0x1
 9703 031d 13        		.uleb128 0x13
 9704 031e 00        		.byte	0x0
 9705 031f 00        		.byte	0x0
 9706 0320 39        		.uleb128 0x39
 9707 0321 2E        		.uleb128 0x2e
 9708 0322 00        		.byte	0x0
 9709 0323 31        		.uleb128 0x31
 9710 0324 13        		.uleb128 0x13
 9711 0325 11        		.uleb128 0x11
 9712 0326 01        		.uleb128 0x1
 9713 0327 12        		.uleb128 0x12
 9714 0328 01        		.uleb128 0x1
 9715 0329 40        		.uleb128 0x40
 9716 032a 0A        		.uleb128 0xa
 9717 032b 00        		.byte	0x0
 9718 032c 00        		.byte	0x0
 9719 032d 3A        		.uleb128 0x3a
 9720 032e 34        		.uleb128 0x34
 9721 032f 00        		.byte	0x0
 9722 0330 03        		.uleb128 0x3
 9723 0331 08        		.uleb128 0x8
 9724 0332 3A        		.uleb128 0x3a
 9725 0333 0B        		.uleb128 0xb
 9726 0334 3B        		.uleb128 0x3b
 9727 0335 0B        		.uleb128 0xb
 9728 0336 49        		.uleb128 0x49
GAS LISTING /tmp/ccvyM2DX.s 			page 172


 9729 0337 13        		.uleb128 0x13
 9730 0338 02        		.uleb128 0x2
 9731 0339 06        		.uleb128 0x6
 9732 033a 00        		.byte	0x0
 9733 033b 00        		.byte	0x0
 9734 033c 3B        		.uleb128 0x3b
 9735 033d 05        		.uleb128 0x5
 9736 033e 00        		.byte	0x0
 9737 033f 31        		.uleb128 0x31
 9738 0340 13        		.uleb128 0x13
 9739 0341 02        		.uleb128 0x2
 9740 0342 0A        		.uleb128 0xa
 9741 0343 00        		.byte	0x0
 9742 0344 00        		.byte	0x0
 9743 0345 3C        		.uleb128 0x3c
 9744 0346 34        		.uleb128 0x34
 9745 0347 00        		.byte	0x0
 9746 0348 03        		.uleb128 0x3
 9747 0349 0E        		.uleb128 0xe
 9748 034a 3A        		.uleb128 0x3a
 9749 034b 0B        		.uleb128 0xb
 9750 034c 3B        		.uleb128 0x3b
 9751 034d 05        		.uleb128 0x5
 9752 034e 49        		.uleb128 0x49
 9753 034f 13        		.uleb128 0x13
 9754 0350 02        		.uleb128 0x2
 9755 0351 06        		.uleb128 0x6
 9756 0352 00        		.byte	0x0
 9757 0353 00        		.byte	0x0
 9758 0354 3D        		.uleb128 0x3d
 9759 0355 1D        		.uleb128 0x1d
 9760 0356 00        		.byte	0x0
 9761 0357 31        		.uleb128 0x31
 9762 0358 13        		.uleb128 0x13
 9763 0359 11        		.uleb128 0x11
 9764 035a 01        		.uleb128 0x1
 9765 035b 12        		.uleb128 0x12
 9766 035c 01        		.uleb128 0x1
 9767 035d 58        		.uleb128 0x58
 9768 035e 0B        		.uleb128 0xb
 9769 035f 59        		.uleb128 0x59
 9770 0360 05        		.uleb128 0x5
 9771 0361 00        		.byte	0x0
 9772 0362 00        		.byte	0x0
 9773 0363 3E        		.uleb128 0x3e
 9774 0364 34        		.uleb128 0x34
 9775 0365 00        		.byte	0x0
 9776 0366 03        		.uleb128 0x3
 9777 0367 0E        		.uleb128 0xe
 9778 0368 3A        		.uleb128 0x3a
 9779 0369 0B        		.uleb128 0xb
 9780 036a 3B        		.uleb128 0x3b
 9781 036b 05        		.uleb128 0x5
 9782 036c 49        		.uleb128 0x49
 9783 036d 13        		.uleb128 0x13
 9784 036e 02        		.uleb128 0x2
 9785 036f 0A        		.uleb128 0xa
GAS LISTING /tmp/ccvyM2DX.s 			page 173


 9786 0370 00        		.byte	0x0
 9787 0371 00        		.byte	0x0
 9788 0372 3F        		.uleb128 0x3f
 9789 0373 34        		.uleb128 0x34
 9790 0374 00        		.byte	0x0
 9791 0375 03        		.uleb128 0x3
 9792 0376 08        		.uleb128 0x8
 9793 0377 3A        		.uleb128 0x3a
 9794 0378 0B        		.uleb128 0xb
 9795 0379 3B        		.uleb128 0x3b
 9796 037a 05        		.uleb128 0x5
 9797 037b 49        		.uleb128 0x49
 9798 037c 13        		.uleb128 0x13
 9799 037d 02        		.uleb128 0x2
 9800 037e 06        		.uleb128 0x6
 9801 037f 00        		.byte	0x0
 9802 0380 00        		.byte	0x0
 9803 0381 40        		.uleb128 0x40
 9804 0382 1D        		.uleb128 0x1d
 9805 0383 01        		.byte	0x1
 9806 0384 31        		.uleb128 0x31
 9807 0385 13        		.uleb128 0x13
 9808 0386 52        		.uleb128 0x52
 9809 0387 01        		.uleb128 0x1
 9810 0388 55        		.uleb128 0x55
 9811 0389 06        		.uleb128 0x6
 9812 038a 58        		.uleb128 0x58
 9813 038b 0B        		.uleb128 0xb
 9814 038c 59        		.uleb128 0x59
 9815 038d 05        		.uleb128 0x5
 9816 038e 01        		.uleb128 0x1
 9817 038f 13        		.uleb128 0x13
 9818 0390 00        		.byte	0x0
 9819 0391 00        		.byte	0x0
 9820 0392 41        		.uleb128 0x41
 9821 0393 05        		.uleb128 0x5
 9822 0394 00        		.byte	0x0
 9823 0395 31        		.uleb128 0x31
 9824 0396 13        		.uleb128 0x13
 9825 0397 00        		.byte	0x0
 9826 0398 00        		.byte	0x0
 9827 0399 42        		.uleb128 0x42
 9828 039a 1D        		.uleb128 0x1d
 9829 039b 01        		.byte	0x1
 9830 039c 31        		.uleb128 0x31
 9831 039d 13        		.uleb128 0x13
 9832 039e 11        		.uleb128 0x11
 9833 039f 01        		.uleb128 0x1
 9834 03a0 12        		.uleb128 0x12
 9835 03a1 01        		.uleb128 0x1
 9836 03a2 58        		.uleb128 0x58
 9837 03a3 0B        		.uleb128 0xb
 9838 03a4 59        		.uleb128 0x59
 9839 03a5 05        		.uleb128 0x5
 9840 03a6 01        		.uleb128 0x1
 9841 03a7 13        		.uleb128 0x13
 9842 03a8 00        		.byte	0x0
GAS LISTING /tmp/ccvyM2DX.s 			page 174


 9843 03a9 00        		.byte	0x0
 9844 03aa 43        		.uleb128 0x43
 9845 03ab 1D        		.uleb128 0x1d
 9846 03ac 01        		.byte	0x1
 9847 03ad 31        		.uleb128 0x31
 9848 03ae 13        		.uleb128 0x13
 9849 03af 11        		.uleb128 0x11
 9850 03b0 01        		.uleb128 0x1
 9851 03b1 12        		.uleb128 0x12
 9852 03b2 01        		.uleb128 0x1
 9853 03b3 58        		.uleb128 0x58
 9854 03b4 0B        		.uleb128 0xb
 9855 03b5 59        		.uleb128 0x59
 9856 03b6 05        		.uleb128 0x5
 9857 03b7 00        		.byte	0x0
 9858 03b8 00        		.byte	0x0
 9859 03b9 44        		.uleb128 0x44
 9860 03ba 01        		.uleb128 0x1
 9861 03bb 01        		.byte	0x1
 9862 03bc 49        		.uleb128 0x49
 9863 03bd 13        		.uleb128 0x13
 9864 03be 01        		.uleb128 0x1
 9865 03bf 13        		.uleb128 0x13
 9866 03c0 00        		.byte	0x0
 9867 03c1 00        		.byte	0x0
 9868 03c2 45        		.uleb128 0x45
 9869 03c3 21        		.uleb128 0x21
 9870 03c4 00        		.byte	0x0
 9871 03c5 49        		.uleb128 0x49
 9872 03c6 13        		.uleb128 0x13
 9873 03c7 2F        		.uleb128 0x2f
 9874 03c8 0B        		.uleb128 0xb
 9875 03c9 00        		.byte	0x0
 9876 03ca 00        		.byte	0x0
 9877 03cb 46        		.uleb128 0x46
 9878 03cc 0B        		.uleb128 0xb
 9879 03cd 01        		.byte	0x1
 9880 03ce 55        		.uleb128 0x55
 9881 03cf 06        		.uleb128 0x6
 9882 03d0 01        		.uleb128 0x1
 9883 03d1 13        		.uleb128 0x13
 9884 03d2 00        		.byte	0x0
 9885 03d3 00        		.byte	0x0
 9886 03d4 47        		.uleb128 0x47
 9887 03d5 2E        		.uleb128 0x2e
 9888 03d6 01        		.byte	0x1
 9889 03d7 3F        		.uleb128 0x3f
 9890 03d8 0C        		.uleb128 0xc
 9891 03d9 03        		.uleb128 0x3
 9892 03da 0E        		.uleb128 0xe
 9893 03db 3A        		.uleb128 0x3a
 9894 03dc 0B        		.uleb128 0xb
 9895 03dd 3B        		.uleb128 0x3b
 9896 03de 05        		.uleb128 0x5
 9897 03df 49        		.uleb128 0x49
 9898 03e0 13        		.uleb128 0x13
 9899 03e1 3C        		.uleb128 0x3c
GAS LISTING /tmp/ccvyM2DX.s 			page 175


 9900 03e2 0C        		.uleb128 0xc
 9901 03e3 00        		.byte	0x0
 9902 03e4 00        		.byte	0x0
 9903 03e5 48        		.uleb128 0x48
 9904 03e6 18        		.uleb128 0x18
 9905 03e7 00        		.byte	0x0
 9906 03e8 00        		.byte	0x0
 9907 03e9 00        		.byte	0x0
 9908 03ea 49        		.uleb128 0x49
 9909 03eb 34        		.uleb128 0x34
 9910 03ec 00        		.byte	0x0
 9911 03ed 03        		.uleb128 0x3
 9912 03ee 08        		.uleb128 0x8
 9913 03ef 3A        		.uleb128 0x3a
 9914 03f0 0B        		.uleb128 0xb
 9915 03f1 3B        		.uleb128 0x3b
 9916 03f2 05        		.uleb128 0x5
 9917 03f3 49        		.uleb128 0x49
 9918 03f4 13        		.uleb128 0x13
 9919 03f5 00        		.byte	0x0
 9920 03f6 00        		.byte	0x0
 9921 03f7 4A        		.uleb128 0x4a
 9922 03f8 2E        		.uleb128 0x2e
 9923 03f9 00        		.byte	0x0
 9924 03fa 3F        		.uleb128 0x3f
 9925 03fb 0C        		.uleb128 0xc
 9926 03fc 03        		.uleb128 0x3
 9927 03fd 0E        		.uleb128 0xe
 9928 03fe 3A        		.uleb128 0x3a
 9929 03ff 0B        		.uleb128 0xb
 9930 0400 3B        		.uleb128 0x3b
 9931 0401 05        		.uleb128 0x5
 9932 0402 27        		.uleb128 0x27
 9933 0403 0C        		.uleb128 0xc
 9934 0404 49        		.uleb128 0x49
 9935 0405 13        		.uleb128 0x13
 9936 0406 11        		.uleb128 0x11
 9937 0407 01        		.uleb128 0x1
 9938 0408 12        		.uleb128 0x12
 9939 0409 01        		.uleb128 0x1
 9940 040a 40        		.uleb128 0x40
 9941 040b 0A        		.uleb128 0xa
 9942 040c 00        		.byte	0x0
 9943 040d 00        		.byte	0x0
 9944 040e 4B        		.uleb128 0x4b
 9945 040f 21        		.uleb128 0x21
 9946 0410 00        		.byte	0x0
 9947 0411 00        		.byte	0x0
 9948 0412 00        		.byte	0x0
 9949 0413 4C        		.uleb128 0x4c
 9950 0414 34        		.uleb128 0x34
 9951 0415 00        		.byte	0x0
 9952 0416 03        		.uleb128 0x3
 9953 0417 0E        		.uleb128 0xe
 9954 0418 3A        		.uleb128 0x3a
 9955 0419 0B        		.uleb128 0xb
 9956 041a 3B        		.uleb128 0x3b
GAS LISTING /tmp/ccvyM2DX.s 			page 176


 9957 041b 05        		.uleb128 0x5
 9958 041c 49        		.uleb128 0x49
 9959 041d 13        		.uleb128 0x13
 9960 041e 3F        		.uleb128 0x3f
 9961 041f 0C        		.uleb128 0xc
 9962 0420 3C        		.uleb128 0x3c
 9963 0421 0C        		.uleb128 0xc
 9964 0422 00        		.byte	0x0
 9965 0423 00        		.byte	0x0
 9966 0424 4D        		.uleb128 0x4d
 9967 0425 34        		.uleb128 0x34
 9968 0426 00        		.byte	0x0
 9969 0427 03        		.uleb128 0x3
 9970 0428 0E        		.uleb128 0xe
 9971 0429 3A        		.uleb128 0x3a
 9972 042a 0B        		.uleb128 0xb
 9973 042b 3B        		.uleb128 0x3b
 9974 042c 0B        		.uleb128 0xb
 9975 042d 49        		.uleb128 0x49
 9976 042e 13        		.uleb128 0x13
 9977 042f 3F        		.uleb128 0x3f
 9978 0430 0C        		.uleb128 0xc
 9979 0431 3C        		.uleb128 0x3c
 9980 0432 0C        		.uleb128 0xc
 9981 0433 00        		.byte	0x0
 9982 0434 00        		.byte	0x0
 9983 0435 4E        		.uleb128 0x4e
 9984 0436 34        		.uleb128 0x34
 9985 0437 00        		.byte	0x0
 9986 0438 03        		.uleb128 0x3
 9987 0439 0E        		.uleb128 0xe
 9988 043a 3A        		.uleb128 0x3a
 9989 043b 0B        		.uleb128 0xb
 9990 043c 3B        		.uleb128 0x3b
 9991 043d 0B        		.uleb128 0xb
 9992 043e 49        		.uleb128 0x49
 9993 043f 13        		.uleb128 0x13
 9994 0440 3F        		.uleb128 0x3f
 9995 0441 0C        		.uleb128 0xc
 9996 0442 02        		.uleb128 0x2
 9997 0443 0A        		.uleb128 0xa
 9998 0444 00        		.byte	0x0
 9999 0445 00        		.byte	0x0
 10000 0446 4F        		.uleb128 0x4f
 10001 0447 34        		.uleb128 0x34
 10002 0448 00        		.byte	0x0
 10003 0449 03        		.uleb128 0x3
 10004 044a 0E        		.uleb128 0xe
 10005 044b 3A        		.uleb128 0x3a
 10006 044c 0B        		.uleb128 0xb
 10007 044d 3B        		.uleb128 0x3b
 10008 044e 05        		.uleb128 0x5
 10009 044f 49        		.uleb128 0x49
 10010 0450 13        		.uleb128 0x13
 10011 0451 3F        		.uleb128 0x3f
 10012 0452 0C        		.uleb128 0xc
 10013 0453 02        		.uleb128 0x2
GAS LISTING /tmp/ccvyM2DX.s 			page 177


 10014 0454 0A        		.uleb128 0xa
 10015 0455 00        		.byte	0x0
 10016 0456 00        		.byte	0x0
 10017 0457 00        		.byte	0x0
 10018               		.section	.debug_pubnames,"",@progbits
 10019 0000 BB02 0000 		.long	0x2bb
 10020 0004 0200      		.word	0x2
 10021 0006 0000 0000 		.long	.Ldebug_info0
 10022 000a 051B 0000 		.long	0x1b05
 10023 000e 4C0F 0000 		.long	0xf4c
 10024 0012 4343 5057 		.string	"CCPWrite"
 10024      7269 7465 
 10024      00
 10025 001b A40F 0000 		.long	0xfa4
 10026 001f 434C 4B53 		.string	"CLKSYS_XOSC_Config"
 10026      5953 5F58 
 10026      4F53 435F 
 10026      436F 6E66 
 10026      6967 00
 10027 0032 EE0F 0000 		.long	0xfee
 10028 0036 434C 4B53 		.string	"CLKSYS_PLL_Config"
 10028      5953 5F50 
 10028      4C4C 5F43 
 10028      6F6E 6669 
 10028      6700 
 10029 0048 2410 0000 		.long	0x1024
 10030 004c 434C 4B53 		.string	"CLKSYS_Disable"
 10030      5953 5F44 
 10030      6973 6162 
 10030      6C65 00
 10031 005b 6010 0000 		.long	0x1060
 10032 005f 434C 4B53 		.string	"CLKSYS_Prescalers_Config"
 10032      5953 5F50 
 10032      7265 7363 
 10032      616C 6572 
 10032      735F 436F 
 10033 0078 A710 0000 		.long	0x10a7
 10034 007c 434C 4B53 		.string	"CLKSYS_Main_ClockSource_Select"
 10034      5953 5F4D 
 10034      6169 6E5F 
 10034      436C 6F63 
 10034      6B53 6F75 
 10035 009b E310 0000 		.long	0x10e3
 10036 009f 434C 4B53 		.string	"CLKSYS_RTC_ClockSource_Enable"
 10036      5953 5F52 
 10036      5443 5F43 
 10036      6C6F 636B 
 10036      536F 7572 
 10037 00bd 0A11 0000 		.long	0x110a
 10038 00c1 434C 4B53 		.string	"CLKSYS_AutoCalibration_Enable"
 10038      5953 5F41 
 10038      7574 6F43 
 10038      616C 6962 
 10038      7261 7469 
 10039 00df 4311 0000 		.long	0x1143
 10040 00e3 434C 4B53 		.string	"CLKSYS_XOSC_FailureDetection_Enable"
 10040      5953 5F58 
GAS LISTING /tmp/ccvyM2DX.s 			page 178


 10040      4F53 435F 
 10040      4661 696C 
 10040      7572 6544 
 10041 0107 5911 0000 		.long	0x1159
 10042 010b 434C 4B53 		.string	"CLKSYS_Configuration_Lock"
 10042      5953 5F43 
 10042      6F6E 6669 
 10042      6775 7261 
 10042      7469 6F6E 
 10043 0125 6F11 0000 		.long	0x116f
 10044 0129 5F5F 7665 		.string	"__vector_14"
 10044      6374 6F72 
 10044      5F31 3400 
 10045 0135 8411 0000 		.long	0x1184
 10046 0139 6465 6C61 		.string	"delay_ms"
 10046      795F 6D73 
 10046      00
 10047 0142 E611 0000 		.long	0x11e6
 10048 0146 636F 6D70 		.string	"compareArray"
 10048      6172 6541 
 10048      7272 6179 
 10048      00
 10049 0153 2712 0000 		.long	0x1227
 10050 0157 7369 676E 		.string	"signum"
 10050      756D 00
 10051 015e 4612 0000 		.long	0x1246
 10052 0162 436F 6E66 		.string	"Config32MHzClock"
 10052      6967 3332 
 10052      4D48 7A43 
 10052      6C6F 636B 
 10052      00
 10053 0173 5B12 0000 		.long	0x125b
 10054 0177 6D69 6C6C 		.string	"millis"
 10054      6973 00
 10055 017e 6C12 0000 		.long	0x126c
 10056 0182 626C 696E 		.string	"blink"
 10056      6B00 
 10057 0188 9512 0000 		.long	0x1295
 10058 018c 626C 696E 		.string	"blinkN"
 10058      6B4E 00
 10059 0193 C912 0000 		.long	0x12c9
 10060 0197 7365 7450 		.string	"setPin"
 10060      696E 00
 10061 019e 0413 0000 		.long	0x1304
 10062 01a2 636C 6561 		.string	"clearPin"
 10062      7250 696E 
 10062      00
 10063 01ab 3F13 0000 		.long	0x133f
 10064 01af 7365 7453 		.string	"setSpeed"
 10064      7065 6564 
 10064      00
 10065 01b8 7313 0000 		.long	0x1373
 10066 01bc 7374 6570 		.string	"stepMotor"
 10066      4D6F 746F 
 10066      7200 
 10067 01c6 AC13 0000 		.long	0x13ac
 10068 01ca 7374 6570 		.string	"step"
GAS LISTING /tmp/ccvyM2DX.s 			page 179


 10068      00
 10069 01cf 1714 0000 		.long	0x1417
 10070 01d3 7374 6570 		.string	"stepOne"
 10070      4F6E 6500 
 10071 01db 5214 0000 		.long	0x1452
 10072 01df 6368 616E 		.string	"changeGoal"
 10072      6765 476F 
 10072      616C 00
 10073 01ea CD14 0000 		.long	0x14cd
 10074 01ee 6D6F 7665 		.string	"moveToGoal"
 10074      546F 476F 
 10074      616C 00
 10075 01f9 7917 0000 		.long	0x1779
 10076 01fd 6D61 696E 		.string	"mainLoop"
 10076      4C6F 6F70 
 10076      00
 10077 0206 B418 0000 		.long	0x18b4
 10078 020a 696E 6974 		.string	"init"
 10078      00
 10079 020f DF18 0000 		.long	0x18df
 10080 0213 6D61 696E 		.string	"main"
 10080      00
 10081 0218 F918 0000 		.long	0x18f9
 10082 021c 7561 7274 		.string	"uart_getchar"
 10082      5F67 6574 
 10082      6368 6172 
 10082      00
 10083 0229 1319 0000 		.long	0x1913
 10084 022d 7570 6461 		.string	"update"
 10084      7465 00
 10085 0234 381A 0000 		.long	0x1a38
 10086 0238 7374 6174 		.string	"state"
 10086      6500 
 10087 023e 4A1A 0000 		.long	0x1a4a
 10088 0242 6465 6275 		.string	"debugFlag"
 10088      6746 6C61 
 10088      6700 
 10089 024c 5C1A 0000 		.long	0x1a5c
 10090 0250 676F 616C 		.string	"goal"
 10090      00
 10091 0255 6E1A 0000 		.long	0x1a6e
 10092 0259 706F 7365 		.string	"pose"
 10092      00
 10093 025e 801A 0000 		.long	0x1a80
 10094 0262 656C 6170 		.string	"elapsedMillis"
 10094      7365 644D 
 10094      696C 6C69 
 10094      7300 
 10095 0270 921A 0000 		.long	0x1a92
 10096 0274 4261 7365 		.string	"Base"
 10096      00
 10097 0279 A51A 0000 		.long	0x1aa5
 10098 027d 5368 6F75 		.string	"Shoulder"
 10098      6C64 6572 
 10098      00
 10099 0286 B81A 0000 		.long	0x1ab8
 10100 028a 456C 626F 		.string	"Elbow"
GAS LISTING /tmp/ccvyM2DX.s 			page 180


 10100      7700 
 10101 0290 CB1A 0000 		.long	0x1acb
 10102 0294 4C65 6674 		.string	"Left_Wrist"
 10102      5F57 7269 
 10102      7374 00
 10103 029f DE1A 0000 		.long	0x1ade
 10104 02a3 5269 6768 		.string	"Right_Wrist"
 10104      745F 5772 
 10104      6973 7400 
 10105 02af F11A 0000 		.long	0x1af1
 10106 02b3 4772 6970 		.string	"Gripper"
 10106      7065 7200 
 10107 02bb 0000 0000 		.long	0x0
 10108               		.section	.debug_pubtypes,"",@progbits
 10109 0000 4C02 0000 		.long	0x24c
 10110 0004 0200      		.word	0x2
 10111 0006 0000 0000 		.long	.Ldebug_info0
 10112 000a 051B 0000 		.long	0x1b05
 10113 000e 2C00 0000 		.long	0x2c
 10114 0012 7569 6E74 		.string	"uint8_t"
 10114      385F 7400 
 10115 001a 5300 0000 		.long	0x53
 10116 001e 7569 6E74 		.string	"uint32_t"
 10116      3332 5F74 
 10116      00
 10117 0027 7300 0000 		.long	0x73
 10118 002b 5F5F 6669 		.string	"__file"
 10118      6C65 00
 10119 0032 4501 0000 		.long	0x145
 10120 0036 4343 505F 		.string	"CCP_enum"
 10120      656E 756D 
 10120      00
 10121 003f 6001 0000 		.long	0x160
 10122 0043 434C 4B5F 		.string	"CLK_struct"
 10122      7374 7275 
 10122      6374 00
 10123 004e A501 0000 		.long	0x1a5
 10124 0052 434C 4B5F 		.string	"CLK_t"
 10124      7400 
 10125 0058 B001 0000 		.long	0x1b0
 10126 005c 434C 4B5F 		.string	"CLK_SCLKSEL_enum"
 10126      5343 4C4B 
 10126      5345 4C5F 
 10126      656E 756D 
 10126      00
 10127 006d DB01 0000 		.long	0x1db
 10128 0071 434C 4B5F 		.string	"CLK_SCLKSEL_t"
 10128      5343 4C4B 
 10128      5345 4C5F 
 10128      7400 
 10129 007f E601 0000 		.long	0x1e6
 10130 0083 434C 4B5F 		.string	"CLK_PSADIV_enum"
 10130      5053 4144 
 10130      4956 5F65 
 10130      6E75 6D00 
 10131 0093 3002 0000 		.long	0x230
 10132 0097 434C 4B5F 		.string	"CLK_PSADIV_t"
GAS LISTING /tmp/ccvyM2DX.s 			page 181


 10132      5053 4144 
 10132      4956 5F74 
 10132      00
 10133 00a4 3B02 0000 		.long	0x23b
 10134 00a8 434C 4B5F 		.string	"CLK_PSBCDIV_enum"
 10134      5053 4243 
 10134      4449 565F 
 10134      656E 756D 
 10134      00
 10135 00b9 6002 0000 		.long	0x260
 10136 00bd 434C 4B5F 		.string	"CLK_PSBCDIV_t"
 10136      5053 4243 
 10136      4449 565F 
 10136      7400 
 10137 00cb 6B02 0000 		.long	0x26b
 10138 00cf 434C 4B5F 		.string	"CLK_RTCSRC_enum"
 10138      5254 4353 
 10138      5243 5F65 
 10138      6E75 6D00 
 10139 00df 9002 0000 		.long	0x290
 10140 00e3 434C 4B5F 		.string	"CLK_RTCSRC_t"
 10140      5254 4353 
 10140      5243 5F74 
 10140      00
 10141 00f0 9B02 0000 		.long	0x29b
 10142 00f4 4F53 435F 		.string	"OSC_struct"
 10142      7374 7275 
 10142      6374 00
 10143 00ff 1203 0000 		.long	0x312
 10144 0103 4F53 435F 		.string	"OSC_t"
 10144      7400 
 10145 0109 1E03 0000 		.long	0x31e
 10146 010d 4F53 435F 		.string	"OSC_FRQRANGE_enum"
 10146      4652 5152 
 10146      414E 4745 
 10146      5F65 6E75 
 10146      6D00 
 10147 011f 4703 0000 		.long	0x347
 10148 0123 4F53 435F 		.string	"OSC_FRQRANGE_t"
 10148      4652 5152 
 10148      414E 4745 
 10148      5F74 00
 10149 0132 5303 0000 		.long	0x353
 10150 0136 4F53 435F 		.string	"OSC_XOSCSEL_enum"
 10150      584F 5343 
 10150      5345 4C5F 
 10150      656E 756D 
 10150      00
 10151 0147 7F03 0000 		.long	0x37f
 10152 014b 4F53 435F 		.string	"OSC_XOSCSEL_t"
 10152      584F 5343 
 10152      5345 4C5F 
 10152      7400 
 10153 0159 8B03 0000 		.long	0x38b
 10154 015d 4F53 435F 		.string	"OSC_PLLSRC_enum"
 10154      504C 4C53 
 10154      5243 5F65 
GAS LISTING /tmp/ccvyM2DX.s 			page 182


 10154      6E75 6D00 
 10155 016d AD03 0000 		.long	0x3ad
 10156 0171 4F53 435F 		.string	"OSC_PLLSRC_t"
 10156      504C 4C53 
 10156      5243 5F74 
 10156      00
 10157 017e B903 0000 		.long	0x3b9
 10158 0182 4446 4C4C 		.string	"DFLL_struct"
 10158      5F73 7472 
 10158      7563 7400 
 10159 018e 3F04 0000 		.long	0x43f
 10160 0192 4446 4C4C 		.string	"DFLL_t"
 10160      5F74 00
 10161 0199 4B04 0000 		.long	0x44b
 10162 019d 504D 4943 		.string	"PMIC_struct"
 10162      5F73 7472 
 10162      7563 7400 
 10163 01a9 8604 0000 		.long	0x486
 10164 01ad 504D 4943 		.string	"PMIC_t"
 10164      5F74 00
 10165 01b4 9704 0000 		.long	0x497
 10166 01b8 504F 5254 		.string	"PORT_struct"
 10166      5F73 7472 
 10166      7563 7400 
 10167 01c4 0C06 0000 		.long	0x60c
 10168 01c8 504F 5254 		.string	"PORT_t"
 10168      5F74 00
 10169 01cf 1806 0000 		.long	0x618
 10170 01d3 504F 5254 		.string	"PORT_OPC_enum"
 10170      5F4F 5043 
 10170      5F65 6E75 
 10170      6D00 
 10171 01e1 3709 0000 		.long	0x937
 10172 01e5 5443 305F 		.string	"TC0_struct"
 10172      7374 7275 
 10172      6374 00
 10173 01f0 130C 0000 		.long	0xc13
 10174 01f4 5443 305F 		.string	"TC0_t"
 10174      7400 
 10175 01fa 1F0C 0000 		.long	0xc1f
 10176 01fe 5443 5F43 		.string	"TC_CLKSEL_enum"
 10176      4C4B 5345 
 10176      4C5F 656E 
 10176      756D 00
 10177 020d 8D0C 0000 		.long	0xc8d
 10178 0211 5443 5F4F 		.string	"TC_OVFINTLVL_enum"
 10178      5646 494E 
 10178      544C 564C 
 10178      5F65 6E75 
 10178      6D00 
 10179 0223 B30C 0000 		.long	0xcb3
 10180 0227 5553 4152 		.string	"USART_struct"
 10180      545F 7374 
 10180      7275 6374 
 10180      00
 10181 0234 390D 0000 		.long	0xd39
 10182 0238 5553 4152 		.string	"USART_t"
GAS LISTING /tmp/ccvyM2DX.s 			page 183


 10182      545F 7400 
 10183 0240 530D 0000 		.long	0xd53
 10184 0244 5374 6570 		.string	"Stepper"
 10184      7065 7200 
 10185 024c 0000 0000 		.long	0x0
 10186               		.section	.debug_aranges,"",@progbits
 10187 0000 1C00 0000 		.long	0x1c
 10188 0004 0200      		.word	0x2
 10189 0006 0000 0000 		.long	.Ldebug_info0
 10190 000a 04        		.byte	0x4
 10191 000b 00        		.byte	0x0
 10192 000c 0000      		.word	0x0
 10193 000e 0000      		.word	0x0
 10194 0010 0000 0000 		.long	.Ltext0
 10195 0014 1A18 0000 		.long	.Letext0-.Ltext0
 10196 0018 0000 0000 		.long	0x0
 10197 001c 0000 0000 		.long	0x0
 10198               		.section	.debug_ranges,"",@progbits
 10199               	.Ldebug_ranges0:
 10200 0000 A40D 0000 		.long	.LBB82-.Ltext0
 10201 0004 C40D 0000 		.long	.LBE82-.Ltext0
 10202 0008 000E 0000 		.long	.LBB85-.Ltext0
 10203 000c 200E 0000 		.long	.LBE85-.Ltext0
 10204 0010 0000 0000 		.long	0x0
 10205 0014 0000 0000 		.long	0x0
 10206 0018 200E 0000 		.long	.LBB86-.Ltext0
 10207 001c 400E 0000 		.long	.LBE86-.Ltext0
 10208 0020 7C0E 0000 		.long	.LBB89-.Ltext0
 10209 0024 940E 0000 		.long	.LBE89-.Ltext0
 10210 0028 0000 0000 		.long	0x0
 10211 002c 0000 0000 		.long	0x0
 10212 0030 940E 0000 		.long	.LBB90-.Ltext0
 10213 0034 B40E 0000 		.long	.LBE90-.Ltext0
 10214 0038 F00E 0000 		.long	.LBB93-.Ltext0
 10215 003c 080F 0000 		.long	.LBE93-.Ltext0
 10216 0040 0000 0000 		.long	0x0
 10217 0044 0000 0000 		.long	0x0
 10218 0048 080F 0000 		.long	.LBB94-.Ltext0
 10219 004c 280F 0000 		.long	.LBE94-.Ltext0
 10220 0050 640F 0000 		.long	.LBB97-.Ltext0
 10221 0054 7C0F 0000 		.long	.LBE97-.Ltext0
 10222 0058 0000 0000 		.long	0x0
 10223 005c 0000 0000 		.long	0x0
 10224 0060 7C0F 0000 		.long	.LBB98-.Ltext0
 10225 0064 9C0F 0000 		.long	.LBE98-.Ltext0
 10226 0068 DC0F 0000 		.long	.LBB101-.Ltext0
 10227 006c F40F 0000 		.long	.LBE101-.Ltext0
 10228 0070 0000 0000 		.long	0x0
 10229 0074 0000 0000 		.long	0x0
 10230 0078 F40F 0000 		.long	.LBB102-.Ltext0
 10231 007c 1410 0000 		.long	.LBE102-.Ltext0
 10232 0080 5410 0000 		.long	.LBB105-.Ltext0
 10233 0084 7A10 0000 		.long	.LBE105-.Ltext0
 10234 0088 0000 0000 		.long	0x0
 10235 008c 0000 0000 		.long	0x0
 10236 0090 0414 0000 		.long	.LBB142-.Ltext0
 10237 0094 0A14 0000 		.long	.LBE142-.Ltext0
GAS LISTING /tmp/ccvyM2DX.s 			page 184


 10238 0098 5016 0000 		.long	.LBB162-.Ltext0
 10239 009c 7816 0000 		.long	.LBE162-.Ltext0
 10240 00a0 0000 0000 		.long	0x0
 10241 00a4 0000 0000 		.long	0x0
 10242 00a8 0A14 0000 		.long	.LBB143-.Ltext0
 10243 00ac 2014 0000 		.long	.LBE143-.Ltext0
 10244 00b0 3614 0000 		.long	.LBB146-.Ltext0
 10245 00b4 6A14 0000 		.long	.LBE146-.Ltext0
 10246 00b8 0000 0000 		.long	0x0
 10247 00bc 0000 0000 		.long	0x0
 10248               		.section	.debug_line
 10249 0000 EA0E 0000 		.long	.LELT0-.LSLT0
 10250               	.LSLT0:
 10251 0004 0200      		.word	0x2
 10252 0006 0001 0000 		.long	.LELTP0-.LASLTP0
 10253               	.LASLTP0:
 10254 000a 01        		.byte	0x1
 10255 000b 01        		.byte	0x1
 10256 000c F6        		.byte	0xf6
 10257 000d F5        		.byte	0xf5
 10258 000e 0A        		.byte	0xa
 10259 000f 00        		.byte	0x0
 10260 0010 01        		.byte	0x1
 10261 0011 01        		.byte	0x1
 10262 0012 01        		.byte	0x1
 10263 0013 01        		.byte	0x1
 10264 0014 00        		.byte	0x0
 10265 0015 00        		.byte	0x0
 10266 0016 00        		.byte	0x0
 10267 0017 01        		.byte	0x1
 10268 0018 7265 7175 		.ascii	"requiredFiles"
 10268      6972 6564 
 10268      4669 6C65 
 10268      73
 10269 0025 00        		.byte	0
 10270 0026 2F75 7372 		.ascii	"/usr/lib/gcc/avr/4.5.3/../../../avr/include"
 10270      2F6C 6962 
 10270      2F67 6363 
 10270      2F61 7672 
 10270      2F34 2E35 
 10271 0051 00        		.byte	0
 10272 0052 2F75 7372 		.ascii	"/usr/lib/gcc/avr/4.5.3/../../../avr/include/avr"
 10272      2F6C 6962 
 10272      2F67 6363 
 10272      2F61 7672 
 10272      2F34 2E35 
 10273 0081 00        		.byte	0
 10274 0082 2F75 7372 		.ascii	"/usr/lib/gcc/avr/4.5.3/../../../avr/include/util"
 10274      2F6C 6962 
 10274      2F67 6363 
 10274      2F61 7672 
 10274      2F34 2E35 
 10275 00b2 00        		.byte	0
 10276 00b3 00        		.byte	0x0
 10277 00b4 6D61 696E 		.string	"main.c"
 10277      2E63 00
 10278 00bb 00        		.uleb128 0x0
GAS LISTING /tmp/ccvyM2DX.s 			page 185


 10279 00bc 00        		.uleb128 0x0
 10280 00bd 00        		.uleb128 0x0
 10281 00be 636C 6B73 		.string	"clksys_driver.c"
 10281      7973 5F64 
 10281      7269 7665 
 10281      722E 6300 
 10282 00ce 01        		.uleb128 0x1
 10283 00cf 00        		.uleb128 0x0
 10284 00d0 00        		.uleb128 0x0
 10285 00d1 7574 696C 		.string	"util/delay.h"
 10285      2F64 656C 
 10285      6179 2E68 
 10285      00
 10286 00de 02        		.uleb128 0x2
 10287 00df 00        		.uleb128 0x0
 10288 00e0 00        		.uleb128 0x0
 10289 00e1 7374 6469 		.string	"stdint.h"
 10289      6E74 2E68 
 10289      00
 10290 00ea 02        		.uleb128 0x2
 10291 00eb 00        		.uleb128 0x0
 10292 00ec 00        		.uleb128 0x0
 10293 00ed 7374 6469 		.string	"stdio.h"
 10293      6F2E 6800 
 10294 00f5 02        		.uleb128 0x2
 10295 00f6 00        		.uleb128 0x0
 10296 00f7 00        		.uleb128 0x0
 10297 00f8 6176 722F 		.string	"avr/iox16a4.h"
 10297      696F 7831 
 10297      3661 342E 
 10297      6800 
 10298 0106 02        		.uleb128 0x2
 10299 0107 00        		.uleb128 0x0
 10300 0108 00        		.uleb128 0x0
 10301 0109 00        		.byte	0x0
 10302               	.LELTP0:
 10303 010a 00        		.byte	0x0
 10304 010b 05        		.uleb128 0x5
 10305 010c 02        		.byte	0x2
 10306 010d 0000 0000 		.long	.LM1
 10307 0111 03        		.byte	0x3
 10308 0112 AC06      		.sleb128 812
 10309 0114 01        		.byte	0x1
 10310 0115 00        		.byte	0x0
 10311 0116 05        		.uleb128 0x5
 10312 0117 02        		.byte	0x2
 10313 0118 0000 0000 		.long	.LM2
 10314 011c 15        		.byte	0x15
 10315 011d 00        		.byte	0x0
 10316 011e 05        		.uleb128 0x5
 10317 011f 02        		.byte	0x2
 10318 0120 0000 0000 		.long	.LM3
 10319 0124 15        		.byte	0x15
 10320 0125 00        		.byte	0x0
 10321 0126 05        		.uleb128 0x5
 10322 0127 02        		.byte	0x2
 10323 0128 0000 0000 		.long	.LM4
GAS LISTING /tmp/ccvyM2DX.s 			page 186


 10324 012c 17        		.byte	0x17
 10325 012d 00        		.byte	0x0
 10326 012e 05        		.uleb128 0x5
 10327 012f 02        		.byte	0x2
 10328 0130 0000 0000 		.long	.LM5
 10329 0134 17        		.byte	0x17
 10330 0135 00        		.byte	0x0
 10331 0136 05        		.uleb128 0x5
 10332 0137 02        		.byte	0x2
 10333 0138 0000 0000 		.long	.LM6
 10334 013c 17        		.byte	0x17
 10335 013d 00        		.byte	0x0
 10336 013e 05        		.uleb128 0x5
 10337 013f 02        		.byte	0x2
 10338 0140 0000 0000 		.long	.LM7
 10339 0144 04        		.byte	0x4
 10340 0145 02        		.uleb128 0x2
 10341 0146 03        		.byte	0x3
 10342 0147 967A      		.sleb128 -746
 10343 0149 01        		.byte	0x1
 10344 014a 00        		.byte	0x0
 10345 014b 05        		.uleb128 0x5
 10346 014c 02        		.byte	0x2
 10347 014d 0000 0000 		.long	.LM8
 10348 0151 32        		.byte	0x32
 10349 0152 00        		.byte	0x0
 10350 0153 05        		.uleb128 0x5
 10351 0154 02        		.byte	0x2
 10352 0155 0000 0000 		.long	.LM9
 10353 0159 17        		.byte	0x17
 10354 015a 00        		.byte	0x0
 10355 015b 05        		.uleb128 0x5
 10356 015c 02        		.byte	0x2
 10357 015d 0000 0000 		.long	.LM10
 10358 0161 16        		.byte	0x16
 10359 0162 00        		.byte	0x0
 10360 0163 05        		.uleb128 0x5
 10361 0164 02        		.byte	0x2
 10362 0165 0000 0000 		.long	.LM11
 10363 0169 1E        		.byte	0x1e
 10364 016a 00        		.byte	0x0
 10365 016b 05        		.uleb128 0x5
 10366 016c 02        		.byte	0x2
 10367 016d 0000 0000 		.long	.LM12
 10368 0171 16        		.byte	0x16
 10369 0172 00        		.byte	0x0
 10370 0173 05        		.uleb128 0x5
 10371 0174 02        		.byte	0x2
 10372 0175 0000 0000 		.long	.LM13
 10373 0179 27        		.byte	0x27
 10374 017a 00        		.byte	0x0
 10375 017b 05        		.uleb128 0x5
 10376 017c 02        		.byte	0x2
 10377 017d 0000 0000 		.long	.LM14
 10378 0181 15        		.byte	0x15
 10379 0182 00        		.byte	0x0
 10380 0183 05        		.uleb128 0x5
GAS LISTING /tmp/ccvyM2DX.s 			page 187


 10381 0184 02        		.byte	0x2
 10382 0185 0000 0000 		.long	.LM15
 10383 0189 01        		.byte	0x1
 10384 018a 00        		.byte	0x0
 10385 018b 05        		.uleb128 0x5
 10386 018c 02        		.byte	0x2
 10387 018d 0000 0000 		.long	.LM16
 10388 0191 17        		.byte	0x17
 10389 0192 00        		.byte	0x0
 10390 0193 05        		.uleb128 0x5
 10391 0194 02        		.byte	0x2
 10392 0195 0000 0000 		.long	.LM17
 10393 0199 28        		.byte	0x28
 10394 019a 00        		.byte	0x0
 10395 019b 05        		.uleb128 0x5
 10396 019c 02        		.byte	0x2
 10397 019d 0000 0000 		.long	.LM18
 10398 01a1 15        		.byte	0x15
 10399 01a2 00        		.byte	0x0
 10400 01a3 05        		.uleb128 0x5
 10401 01a4 02        		.byte	0x2
 10402 01a5 0000 0000 		.long	.LM19
 10403 01a9 15        		.byte	0x15
 10404 01aa 00        		.byte	0x0
 10405 01ab 05        		.uleb128 0x5
 10406 01ac 02        		.byte	0x2
 10407 01ad 0000 0000 		.long	.LM20
 10408 01b1 15        		.byte	0x15
 10409 01b2 00        		.byte	0x0
 10410 01b3 05        		.uleb128 0x5
 10411 01b4 02        		.byte	0x2
 10412 01b5 0000 0000 		.long	.LM21
 10413 01b9 25        		.byte	0x25
 10414 01ba 00        		.byte	0x0
 10415 01bb 05        		.uleb128 0x5
 10416 01bc 02        		.byte	0x2
 10417 01bd 0000 0000 		.long	.LM22
 10418 01c1 15        		.byte	0x15
 10419 01c2 00        		.byte	0x0
 10420 01c3 05        		.uleb128 0x5
 10421 01c4 02        		.byte	0x2
 10422 01c5 0000 0000 		.long	.LM23
 10423 01c9 15        		.byte	0x15
 10424 01ca 00        		.byte	0x0
 10425 01cb 05        		.uleb128 0x5
 10426 01cc 02        		.byte	0x2
 10427 01cd 0000 0000 		.long	.LM24
 10428 01d1 16        		.byte	0x16
 10429 01d2 00        		.byte	0x0
 10430 01d3 05        		.uleb128 0x5
 10431 01d4 02        		.byte	0x2
 10432 01d5 0000 0000 		.long	.LM25
 10433 01d9 24        		.byte	0x24
 10434 01da 00        		.byte	0x0
 10435 01db 05        		.uleb128 0x5
 10436 01dc 02        		.byte	0x2
 10437 01dd 0000 0000 		.long	.LM26
GAS LISTING /tmp/ccvyM2DX.s 			page 188


 10438 01e1 15        		.byte	0x15
 10439 01e2 00        		.byte	0x0
 10440 01e3 05        		.uleb128 0x5
 10441 01e4 02        		.byte	0x2
 10442 01e5 0000 0000 		.long	.LM27
 10443 01e9 15        		.byte	0x15
 10444 01ea 00        		.byte	0x0
 10445 01eb 05        		.uleb128 0x5
 10446 01ec 02        		.byte	0x2
 10447 01ed 0000 0000 		.long	.LM28
 10448 01f1 15        		.byte	0x15
 10449 01f2 00        		.byte	0x0
 10450 01f3 05        		.uleb128 0x5
 10451 01f4 02        		.byte	0x2
 10452 01f5 0000 0000 		.long	.LM29
 10453 01f9 23        		.byte	0x23
 10454 01fa 00        		.byte	0x0
 10455 01fb 05        		.uleb128 0x5
 10456 01fc 02        		.byte	0x2
 10457 01fd 0000 0000 		.long	.LM30
 10458 0201 15        		.byte	0x15
 10459 0202 00        		.byte	0x0
 10460 0203 05        		.uleb128 0x5
 10461 0204 02        		.byte	0x2
 10462 0205 0000 0000 		.long	.LM31
 10463 0209 15        		.byte	0x15
 10464 020a 00        		.byte	0x0
 10465 020b 05        		.uleb128 0x5
 10466 020c 02        		.byte	0x2
 10467 020d 0000 0000 		.long	.LM32
 10468 0211 15        		.byte	0x15
 10469 0212 00        		.byte	0x0
 10470 0213 05        		.uleb128 0x5
 10471 0214 02        		.byte	0x2
 10472 0215 0000 0000 		.long	.LM33
 10473 0219 16        		.byte	0x16
 10474 021a 00        		.byte	0x0
 10475 021b 05        		.uleb128 0x5
 10476 021c 02        		.byte	0x2
 10477 021d 0000 0000 		.long	.LM34
 10478 0221 1F        		.byte	0x1f
 10479 0222 00        		.byte	0x0
 10480 0223 05        		.uleb128 0x5
 10481 0224 02        		.byte	0x2
 10482 0225 0000 0000 		.long	.LM35
 10483 0229 15        		.byte	0x15
 10484 022a 00        		.byte	0x0
 10485 022b 05        		.uleb128 0x5
 10486 022c 02        		.byte	0x2
 10487 022d 0000 0000 		.long	.LM36
 10488 0231 17        		.byte	0x17
 10489 0232 00        		.byte	0x0
 10490 0233 05        		.uleb128 0x5
 10491 0234 02        		.byte	0x2
 10492 0235 0000 0000 		.long	.LM37
 10493 0239 23        		.byte	0x23
 10494 023a 00        		.byte	0x0
GAS LISTING /tmp/ccvyM2DX.s 			page 189


 10495 023b 05        		.uleb128 0x5
 10496 023c 02        		.byte	0x2
 10497 023d 0000 0000 		.long	.LM38
 10498 0241 15        		.byte	0x15
 10499 0242 00        		.byte	0x0
 10500 0243 05        		.uleb128 0x5
 10501 0244 02        		.byte	0x2
 10502 0245 0000 0000 		.long	.LM39
 10503 0249 01        		.byte	0x1
 10504 024a 00        		.byte	0x0
 10505 024b 05        		.uleb128 0x5
 10506 024c 02        		.byte	0x2
 10507 024d 0000 0000 		.long	.LM40
 10508 0251 16        		.byte	0x16
 10509 0252 00        		.byte	0x0
 10510 0253 05        		.uleb128 0x5
 10511 0254 02        		.byte	0x2
 10512 0255 0000 0000 		.long	.LM41
 10513 0259 15        		.byte	0x15
 10514 025a 00        		.byte	0x0
 10515 025b 05        		.uleb128 0x5
 10516 025c 02        		.byte	0x2
 10517 025d 0000 0000 		.long	.LM42
 10518 0261 15        		.byte	0x15
 10519 0262 00        		.byte	0x0
 10520 0263 05        		.uleb128 0x5
 10521 0264 02        		.byte	0x2
 10522 0265 0000 0000 		.long	.LM43
 10523 0269 15        		.byte	0x15
 10524 026a 00        		.byte	0x0
 10525 026b 05        		.uleb128 0x5
 10526 026c 02        		.byte	0x2
 10527 026d 0000 0000 		.long	.LM44
 10528 0271 22        		.byte	0x22
 10529 0272 00        		.byte	0x0
 10530 0273 05        		.uleb128 0x5
 10531 0274 02        		.byte	0x2
 10532 0275 0000 0000 		.long	.LM45
 10533 0279 15        		.byte	0x15
 10534 027a 00        		.byte	0x0
 10535 027b 05        		.uleb128 0x5
 10536 027c 02        		.byte	0x2
 10537 027d 0000 0000 		.long	.LM46
 10538 0281 15        		.byte	0x15
 10539 0282 00        		.byte	0x0
 10540 0283 05        		.uleb128 0x5
 10541 0284 02        		.byte	0x2
 10542 0285 0000 0000 		.long	.LM47
 10543 0289 1E        		.byte	0x1e
 10544 028a 00        		.byte	0x0
 10545 028b 05        		.uleb128 0x5
 10546 028c 02        		.byte	0x2
 10547 028d 0000 0000 		.long	.LM48
 10548 0291 15        		.byte	0x15
 10549 0292 00        		.byte	0x0
 10550 0293 05        		.uleb128 0x5
 10551 0294 02        		.byte	0x2
GAS LISTING /tmp/ccvyM2DX.s 			page 190


 10552 0295 0000 0000 		.long	.LM49
 10553 0299 15        		.byte	0x15
 10554 029a 00        		.byte	0x0
 10555 029b 05        		.uleb128 0x5
 10556 029c 02        		.byte	0x2
 10557 029d 0000 0000 		.long	.LM50
 10558 02a1 04        		.byte	0x4
 10559 02a2 01        		.uleb128 0x1
 10560 02a3 03        		.byte	0x3
 10561 02a4 9D7E      		.sleb128 -227
 10562 02a6 01        		.byte	0x1
 10563 02a7 00        		.byte	0x0
 10564 02a8 05        		.uleb128 0x5
 10565 02a9 02        		.byte	0x2
 10566 02aa 0000 0000 		.long	.LM51
 10567 02ae 15        		.byte	0x15
 10568 02af 00        		.byte	0x0
 10569 02b0 05        		.uleb128 0x5
 10570 02b1 02        		.byte	0x2
 10571 02b2 0000 0000 		.long	.LM52
 10572 02b6 15        		.byte	0x15
 10573 02b7 00        		.byte	0x0
 10574 02b8 05        		.uleb128 0x5
 10575 02b9 02        		.byte	0x2
 10576 02ba 0000 0000 		.long	.LM53
 10577 02be 18        		.byte	0x18
 10578 02bf 00        		.byte	0x0
 10579 02c0 05        		.uleb128 0x5
 10580 02c1 02        		.byte	0x2
 10581 02c2 0000 0000 		.long	.LM54
 10582 02c6 01        		.byte	0x1
 10583 02c7 00        		.byte	0x0
 10584 02c8 05        		.uleb128 0x5
 10585 02c9 02        		.byte	0x2
 10586 02ca 0000 0000 		.long	.LM55
 10587 02ce 15        		.byte	0x15
 10588 02cf 00        		.byte	0x0
 10589 02d0 05        		.uleb128 0x5
 10590 02d1 02        		.byte	0x2
 10591 02d2 0000 0000 		.long	.LM56
 10592 02d6 04        		.byte	0x4
 10593 02d7 03        		.uleb128 0x3
 10594 02d8 AF        		.byte	0xaf
 10595 02d9 00        		.byte	0x0
 10596 02da 05        		.uleb128 0x5
 10597 02db 02        		.byte	0x2
 10598 02dc 0000 0000 		.long	.LM57
 10599 02e0 04        		.byte	0x4
 10600 02e1 01        		.uleb128 0x1
 10601 02e2 03        		.byte	0x3
 10602 02e3 E57E      		.sleb128 -155
 10603 02e5 01        		.byte	0x1
 10604 02e6 00        		.byte	0x0
 10605 02e7 05        		.uleb128 0x5
 10606 02e8 02        		.byte	0x2
 10607 02e9 0000 0000 		.long	.LM58
 10608 02ed 16        		.byte	0x16
GAS LISTING /tmp/ccvyM2DX.s 			page 191


 10609 02ee 00        		.byte	0x0
 10610 02ef 05        		.uleb128 0x5
 10611 02f0 02        		.byte	0x2
 10612 02f1 0000 0000 		.long	.LM59
 10613 02f5 17        		.byte	0x17
 10614 02f6 00        		.byte	0x0
 10615 02f7 05        		.uleb128 0x5
 10616 02f8 02        		.byte	0x2
 10617 02f9 0000 0000 		.long	.LM60
 10618 02fd 15        		.byte	0x15
 10619 02fe 00        		.byte	0x0
 10620 02ff 05        		.uleb128 0x5
 10621 0300 02        		.byte	0x2
 10622 0301 0000 0000 		.long	.LM61
 10623 0305 01        		.byte	0x1
 10624 0306 00        		.byte	0x0
 10625 0307 05        		.uleb128 0x5
 10626 0308 02        		.byte	0x2
 10627 0309 0000 0000 		.long	.LM62
 10628 030d 15        		.byte	0x15
 10629 030e 00        		.byte	0x0
 10630 030f 05        		.uleb128 0x5
 10631 0310 02        		.byte	0x2
 10632 0311 0000 0000 		.long	.LM63
 10633 0315 15        		.byte	0x15
 10634 0316 00        		.byte	0x0
 10635 0317 05        		.uleb128 0x5
 10636 0318 02        		.byte	0x2
 10637 0319 0000 0000 		.long	.LM64
 10638 031d 15        		.byte	0x15
 10639 031e 00        		.byte	0x0
 10640 031f 05        		.uleb128 0x5
 10641 0320 02        		.byte	0x2
 10642 0321 0000 0000 		.long	.LM65
 10643 0325 10        		.byte	0x10
 10644 0326 00        		.byte	0x0
 10645 0327 05        		.uleb128 0x5
 10646 0328 02        		.byte	0x2
 10647 0329 0000 0000 		.long	.LM66
 10648 032d 15        		.byte	0x15
 10649 032e 00        		.byte	0x0
 10650 032f 05        		.uleb128 0x5
 10651 0330 02        		.byte	0x2
 10652 0331 0000 0000 		.long	.LM67
 10653 0335 1A        		.byte	0x1a
 10654 0336 00        		.byte	0x0
 10655 0337 05        		.uleb128 0x5
 10656 0338 02        		.byte	0x2
 10657 0339 0000 0000 		.long	.LM68
 10658 033d 17        		.byte	0x17
 10659 033e 00        		.byte	0x0
 10660 033f 05        		.uleb128 0x5
 10661 0340 02        		.byte	0x2
 10662 0341 0000 0000 		.long	.LM69
 10663 0345 15        		.byte	0x15
 10664 0346 00        		.byte	0x0
 10665 0347 05        		.uleb128 0x5
GAS LISTING /tmp/ccvyM2DX.s 			page 192


 10666 0348 02        		.byte	0x2
 10667 0349 0000 0000 		.long	.LM70
 10668 034d 01        		.byte	0x1
 10669 034e 00        		.byte	0x0
 10670 034f 05        		.uleb128 0x5
 10671 0350 02        		.byte	0x2
 10672 0351 0000 0000 		.long	.LM71
 10673 0355 01        		.byte	0x1
 10674 0356 00        		.byte	0x0
 10675 0357 05        		.uleb128 0x5
 10676 0358 02        		.byte	0x2
 10677 0359 0000 0000 		.long	.LM72
 10678 035d 15        		.byte	0x15
 10679 035e 00        		.byte	0x0
 10680 035f 05        		.uleb128 0x5
 10681 0360 02        		.byte	0x2
 10682 0361 0000 0000 		.long	.LM73
 10683 0365 18        		.byte	0x18
 10684 0366 00        		.byte	0x0
 10685 0367 05        		.uleb128 0x5
 10686 0368 02        		.byte	0x2
 10687 0369 0000 0000 		.long	.LM74
 10688 036d 15        		.byte	0x15
 10689 036e 00        		.byte	0x0
 10690 036f 05        		.uleb128 0x5
 10691 0370 02        		.byte	0x2
 10692 0371 0000 0000 		.long	.LM75
 10693 0375 16        		.byte	0x16
 10694 0376 00        		.byte	0x0
 10695 0377 05        		.uleb128 0x5
 10696 0378 02        		.byte	0x2
 10697 0379 0000 0000 		.long	.LM76
 10698 037d 15        		.byte	0x15
 10699 037e 00        		.byte	0x0
 10700 037f 05        		.uleb128 0x5
 10701 0380 02        		.byte	0x2
 10702 0381 0000 0000 		.long	.LM77
 10703 0385 15        		.byte	0x15
 10704 0386 00        		.byte	0x0
 10705 0387 05        		.uleb128 0x5
 10706 0388 02        		.byte	0x2
 10707 0389 0000 0000 		.long	.LM78
 10708 038d 15        		.byte	0x15
 10709 038e 00        		.byte	0x0
 10710 038f 05        		.uleb128 0x5
 10711 0390 02        		.byte	0x2
 10712 0391 0000 0000 		.long	.LM79
 10713 0395 15        		.byte	0x15
 10714 0396 00        		.byte	0x0
 10715 0397 05        		.uleb128 0x5
 10716 0398 02        		.byte	0x2
 10717 0399 0000 0000 		.long	.LM80
 10718 039d 17        		.byte	0x17
 10719 039e 00        		.byte	0x0
 10720 039f 05        		.uleb128 0x5
 10721 03a0 02        		.byte	0x2
 10722 03a1 0000 0000 		.long	.LM81
GAS LISTING /tmp/ccvyM2DX.s 			page 193


 10723 03a5 15        		.byte	0x15
 10724 03a6 00        		.byte	0x0
 10725 03a7 05        		.uleb128 0x5
 10726 03a8 02        		.byte	0x2
 10727 03a9 0000 0000 		.long	.LM82
 10728 03ad 15        		.byte	0x15
 10729 03ae 00        		.byte	0x0
 10730 03af 05        		.uleb128 0x5
 10731 03b0 02        		.byte	0x2
 10732 03b1 0000 0000 		.long	.LM83
 10733 03b5 16        		.byte	0x16
 10734 03b6 00        		.byte	0x0
 10735 03b7 05        		.uleb128 0x5
 10736 03b8 02        		.byte	0x2
 10737 03b9 0000 0000 		.long	.LM84
 10738 03bd 15        		.byte	0x15
 10739 03be 00        		.byte	0x0
 10740 03bf 05        		.uleb128 0x5
 10741 03c0 02        		.byte	0x2
 10742 03c1 0000 0000 		.long	.LM85
 10743 03c5 15        		.byte	0x15
 10744 03c6 00        		.byte	0x0
 10745 03c7 05        		.uleb128 0x5
 10746 03c8 02        		.byte	0x2
 10747 03c9 0000 0000 		.long	.LM86
 10748 03cd 15        		.byte	0x15
 10749 03ce 00        		.byte	0x0
 10750 03cf 05        		.uleb128 0x5
 10751 03d0 02        		.byte	0x2
 10752 03d1 0000 0000 		.long	.LM87
 10753 03d5 15        		.byte	0x15
 10754 03d6 00        		.byte	0x0
 10755 03d7 05        		.uleb128 0x5
 10756 03d8 02        		.byte	0x2
 10757 03d9 0000 0000 		.long	.LM88
 10758 03dd 15        		.byte	0x15
 10759 03de 00        		.byte	0x0
 10760 03df 05        		.uleb128 0x5
 10761 03e0 02        		.byte	0x2
 10762 03e1 0000 0000 		.long	.LM89
 10763 03e5 16        		.byte	0x16
 10764 03e6 00        		.byte	0x0
 10765 03e7 05        		.uleb128 0x5
 10766 03e8 02        		.byte	0x2
 10767 03e9 0000 0000 		.long	.LM90
 10768 03ed 16        		.byte	0x16
 10769 03ee 00        		.byte	0x0
 10770 03ef 05        		.uleb128 0x5
 10771 03f0 02        		.byte	0x2
 10772 03f1 0000 0000 		.long	.LM91
 10773 03f5 15        		.byte	0x15
 10774 03f6 00        		.byte	0x0
 10775 03f7 05        		.uleb128 0x5
 10776 03f8 02        		.byte	0x2
 10777 03f9 0000 0000 		.long	.LM92
 10778 03fd 13        		.byte	0x13
 10779 03fe 00        		.byte	0x0
GAS LISTING /tmp/ccvyM2DX.s 			page 194


 10780 03ff 05        		.uleb128 0x5
 10781 0400 02        		.byte	0x2
 10782 0401 0000 0000 		.long	.LM93
 10783 0405 01        		.byte	0x1
 10784 0406 00        		.byte	0x0
 10785 0407 05        		.uleb128 0x5
 10786 0408 02        		.byte	0x2
 10787 0409 0000 0000 		.long	.LM94
 10788 040d 17        		.byte	0x17
 10789 040e 00        		.byte	0x0
 10790 040f 05        		.uleb128 0x5
 10791 0410 02        		.byte	0x2
 10792 0411 0000 0000 		.long	.LM95
 10793 0415 18        		.byte	0x18
 10794 0416 00        		.byte	0x0
 10795 0417 05        		.uleb128 0x5
 10796 0418 02        		.byte	0x2
 10797 0419 0000 0000 		.long	.LM96
 10798 041d 15        		.byte	0x15
 10799 041e 00        		.byte	0x0
 10800 041f 05        		.uleb128 0x5
 10801 0420 02        		.byte	0x2
 10802 0421 0000 0000 		.long	.LM97
 10803 0425 17        		.byte	0x17
 10804 0426 00        		.byte	0x0
 10805 0427 05        		.uleb128 0x5
 10806 0428 02        		.byte	0x2
 10807 0429 0000 0000 		.long	.LM98
 10808 042d 15        		.byte	0x15
 10809 042e 00        		.byte	0x0
 10810 042f 05        		.uleb128 0x5
 10811 0430 02        		.byte	0x2
 10812 0431 0000 0000 		.long	.LM99
 10813 0435 15        		.byte	0x15
 10814 0436 00        		.byte	0x0
 10815 0437 05        		.uleb128 0x5
 10816 0438 02        		.byte	0x2
 10817 0439 0000 0000 		.long	.LM100
 10818 043d 15        		.byte	0x15
 10819 043e 00        		.byte	0x0
 10820 043f 05        		.uleb128 0x5
 10821 0440 02        		.byte	0x2
 10822 0441 0000 0000 		.long	.LM101
 10823 0445 15        		.byte	0x15
 10824 0446 00        		.byte	0x0
 10825 0447 05        		.uleb128 0x5
 10826 0448 02        		.byte	0x2
 10827 0449 0000 0000 		.long	.LM102
 10828 044d 15        		.byte	0x15
 10829 044e 00        		.byte	0x0
 10830 044f 05        		.uleb128 0x5
 10831 0450 02        		.byte	0x2
 10832 0451 0000 0000 		.long	.LM103
 10833 0455 15        		.byte	0x15
 10834 0456 00        		.byte	0x0
 10835 0457 05        		.uleb128 0x5
 10836 0458 02        		.byte	0x2
GAS LISTING /tmp/ccvyM2DX.s 			page 195


 10837 0459 0000 0000 		.long	.LM104
 10838 045d 15        		.byte	0x15
 10839 045e 00        		.byte	0x0
 10840 045f 05        		.uleb128 0x5
 10841 0460 02        		.byte	0x2
 10842 0461 0000 0000 		.long	.LM105
 10843 0465 15        		.byte	0x15
 10844 0466 00        		.byte	0x0
 10845 0467 05        		.uleb128 0x5
 10846 0468 02        		.byte	0x2
 10847 0469 0000 0000 		.long	.LM106
 10848 046d 1A        		.byte	0x1a
 10849 046e 00        		.byte	0x0
 10850 046f 05        		.uleb128 0x5
 10851 0470 02        		.byte	0x2
 10852 0471 0000 0000 		.long	.LM107
 10853 0475 15        		.byte	0x15
 10854 0476 00        		.byte	0x0
 10855 0477 05        		.uleb128 0x5
 10856 0478 02        		.byte	0x2
 10857 0479 0000 0000 		.long	.LM108
 10858 047d 15        		.byte	0x15
 10859 047e 00        		.byte	0x0
 10860 047f 05        		.uleb128 0x5
 10861 0480 02        		.byte	0x2
 10862 0481 0000 0000 		.long	.LM109
 10863 0485 15        		.byte	0x15
 10864 0486 00        		.byte	0x0
 10865 0487 05        		.uleb128 0x5
 10866 0488 02        		.byte	0x2
 10867 0489 0000 0000 		.long	.LM110
 10868 048d 15        		.byte	0x15
 10869 048e 00        		.byte	0x0
 10870 048f 05        		.uleb128 0x5
 10871 0490 02        		.byte	0x2
 10872 0491 0000 0000 		.long	.LM111
 10873 0495 1A        		.byte	0x1a
 10874 0496 00        		.byte	0x0
 10875 0497 05        		.uleb128 0x5
 10876 0498 02        		.byte	0x2
 10877 0499 0000 0000 		.long	.LM112
 10878 049d 15        		.byte	0x15
 10879 049e 00        		.byte	0x0
 10880 049f 05        		.uleb128 0x5
 10881 04a0 02        		.byte	0x2
 10882 04a1 0000 0000 		.long	.LM113
 10883 04a5 15        		.byte	0x15
 10884 04a6 00        		.byte	0x0
 10885 04a7 05        		.uleb128 0x5
 10886 04a8 02        		.byte	0x2
 10887 04a9 0000 0000 		.long	.LM114
 10888 04ad 15        		.byte	0x15
 10889 04ae 00        		.byte	0x0
 10890 04af 05        		.uleb128 0x5
 10891 04b0 02        		.byte	0x2
 10892 04b1 0000 0000 		.long	.LM115
 10893 04b5 15        		.byte	0x15
GAS LISTING /tmp/ccvyM2DX.s 			page 196


 10894 04b6 00        		.byte	0x0
 10895 04b7 05        		.uleb128 0x5
 10896 04b8 02        		.byte	0x2
 10897 04b9 0000 0000 		.long	.LM116
 10898 04bd 15        		.byte	0x15
 10899 04be 00        		.byte	0x0
 10900 04bf 05        		.uleb128 0x5
 10901 04c0 02        		.byte	0x2
 10902 04c1 0000 0000 		.long	.LM117
 10903 04c5 15        		.byte	0x15
 10904 04c6 00        		.byte	0x0
 10905 04c7 05        		.uleb128 0x5
 10906 04c8 02        		.byte	0x2
 10907 04c9 0000 0000 		.long	.LM118
 10908 04cd 15        		.byte	0x15
 10909 04ce 00        		.byte	0x0
 10910 04cf 05        		.uleb128 0x5
 10911 04d0 02        		.byte	0x2
 10912 04d1 0000 0000 		.long	.LM119
 10913 04d5 15        		.byte	0x15
 10914 04d6 00        		.byte	0x0
 10915 04d7 05        		.uleb128 0x5
 10916 04d8 02        		.byte	0x2
 10917 04d9 0000 0000 		.long	.LM120
 10918 04dd 1A        		.byte	0x1a
 10919 04de 00        		.byte	0x0
 10920 04df 05        		.uleb128 0x5
 10921 04e0 02        		.byte	0x2
 10922 04e1 0000 0000 		.long	.LM121
 10923 04e5 15        		.byte	0x15
 10924 04e6 00        		.byte	0x0
 10925 04e7 05        		.uleb128 0x5
 10926 04e8 02        		.byte	0x2
 10927 04e9 0000 0000 		.long	.LM122
 10928 04ed 15        		.byte	0x15
 10929 04ee 00        		.byte	0x0
 10930 04ef 05        		.uleb128 0x5
 10931 04f0 02        		.byte	0x2
 10932 04f1 0000 0000 		.long	.LM123
 10933 04f5 15        		.byte	0x15
 10934 04f6 00        		.byte	0x0
 10935 04f7 05        		.uleb128 0x5
 10936 04f8 02        		.byte	0x2
 10937 04f9 0000 0000 		.long	.LM124
 10938 04fd 15        		.byte	0x15
 10939 04fe 00        		.byte	0x0
 10940 04ff 05        		.uleb128 0x5
 10941 0500 02        		.byte	0x2
 10942 0501 0000 0000 		.long	.LM125
 10943 0505 1D        		.byte	0x1d
 10944 0506 00        		.byte	0x0
 10945 0507 05        		.uleb128 0x5
 10946 0508 02        		.byte	0x2
 10947 0509 0000 0000 		.long	.LM126
 10948 050d 15        		.byte	0x15
 10949 050e 00        		.byte	0x0
 10950 050f 05        		.uleb128 0x5
GAS LISTING /tmp/ccvyM2DX.s 			page 197


 10951 0510 02        		.byte	0x2
 10952 0511 0000 0000 		.long	.LM127
 10953 0515 17        		.byte	0x17
 10954 0516 00        		.byte	0x0
 10955 0517 05        		.uleb128 0x5
 10956 0518 02        		.byte	0x2
 10957 0519 0000 0000 		.long	.LM128
 10958 051d 15        		.byte	0x15
 10959 051e 00        		.byte	0x0
 10960 051f 05        		.uleb128 0x5
 10961 0520 02        		.byte	0x2
 10962 0521 0000 0000 		.long	.LM129
 10963 0525 15        		.byte	0x15
 10964 0526 00        		.byte	0x0
 10965 0527 05        		.uleb128 0x5
 10966 0528 02        		.byte	0x2
 10967 0529 0000 0000 		.long	.LM130
 10968 052d 15        		.byte	0x15
 10969 052e 00        		.byte	0x0
 10970 052f 05        		.uleb128 0x5
 10971 0530 02        		.byte	0x2
 10972 0531 0000 0000 		.long	.LM131
 10973 0535 15        		.byte	0x15
 10974 0536 00        		.byte	0x0
 10975 0537 05        		.uleb128 0x5
 10976 0538 02        		.byte	0x2
 10977 0539 0000 0000 		.long	.LM132
 10978 053d 15        		.byte	0x15
 10979 053e 00        		.byte	0x0
 10980 053f 05        		.uleb128 0x5
 10981 0540 02        		.byte	0x2
 10982 0541 0000 0000 		.long	.LM133
 10983 0545 15        		.byte	0x15
 10984 0546 00        		.byte	0x0
 10985 0547 05        		.uleb128 0x5
 10986 0548 02        		.byte	0x2
 10987 0549 0000 0000 		.long	.LM134
 10988 054d 15        		.byte	0x15
 10989 054e 00        		.byte	0x0
 10990 054f 05        		.uleb128 0x5
 10991 0550 02        		.byte	0x2
 10992 0551 0000 0000 		.long	.LM135
 10993 0555 15        		.byte	0x15
 10994 0556 00        		.byte	0x0
 10995 0557 05        		.uleb128 0x5
 10996 0558 02        		.byte	0x2
 10997 0559 0000 0000 		.long	.LM136
 10998 055d 1A        		.byte	0x1a
 10999 055e 00        		.byte	0x0
 11000 055f 05        		.uleb128 0x5
 11001 0560 02        		.byte	0x2
 11002 0561 0000 0000 		.long	.LM137
 11003 0565 15        		.byte	0x15
 11004 0566 00        		.byte	0x0
 11005 0567 05        		.uleb128 0x5
 11006 0568 02        		.byte	0x2
 11007 0569 0000 0000 		.long	.LM138
GAS LISTING /tmp/ccvyM2DX.s 			page 198


 11008 056d 15        		.byte	0x15
 11009 056e 00        		.byte	0x0
 11010 056f 05        		.uleb128 0x5
 11011 0570 02        		.byte	0x2
 11012 0571 0000 0000 		.long	.LM139
 11013 0575 15        		.byte	0x15
 11014 0576 00        		.byte	0x0
 11015 0577 05        		.uleb128 0x5
 11016 0578 02        		.byte	0x2
 11017 0579 0000 0000 		.long	.LM140
 11018 057d 15        		.byte	0x15
 11019 057e 00        		.byte	0x0
 11020 057f 05        		.uleb128 0x5
 11021 0580 02        		.byte	0x2
 11022 0581 0000 0000 		.long	.LM141
 11023 0585 1A        		.byte	0x1a
 11024 0586 00        		.byte	0x0
 11025 0587 05        		.uleb128 0x5
 11026 0588 02        		.byte	0x2
 11027 0589 0000 0000 		.long	.LM142
 11028 058d 15        		.byte	0x15
 11029 058e 00        		.byte	0x0
 11030 058f 05        		.uleb128 0x5
 11031 0590 02        		.byte	0x2
 11032 0591 0000 0000 		.long	.LM143
 11033 0595 15        		.byte	0x15
 11034 0596 00        		.byte	0x0
 11035 0597 05        		.uleb128 0x5
 11036 0598 02        		.byte	0x2
 11037 0599 0000 0000 		.long	.LM144
 11038 059d 15        		.byte	0x15
 11039 059e 00        		.byte	0x0
 11040 059f 05        		.uleb128 0x5
 11041 05a0 02        		.byte	0x2
 11042 05a1 0000 0000 		.long	.LM145
 11043 05a5 15        		.byte	0x15
 11044 05a6 00        		.byte	0x0
 11045 05a7 05        		.uleb128 0x5
 11046 05a8 02        		.byte	0x2
 11047 05a9 0000 0000 		.long	.LM146
 11048 05ad 15        		.byte	0x15
 11049 05ae 00        		.byte	0x0
 11050 05af 05        		.uleb128 0x5
 11051 05b0 02        		.byte	0x2
 11052 05b1 0000 0000 		.long	.LM147
 11053 05b5 15        		.byte	0x15
 11054 05b6 00        		.byte	0x0
 11055 05b7 05        		.uleb128 0x5
 11056 05b8 02        		.byte	0x2
 11057 05b9 0000 0000 		.long	.LM148
 11058 05bd 15        		.byte	0x15
 11059 05be 00        		.byte	0x0
 11060 05bf 05        		.uleb128 0x5
 11061 05c0 02        		.byte	0x2
 11062 05c1 0000 0000 		.long	.LM149
 11063 05c5 15        		.byte	0x15
 11064 05c6 00        		.byte	0x0
GAS LISTING /tmp/ccvyM2DX.s 			page 199


 11065 05c7 05        		.uleb128 0x5
 11066 05c8 02        		.byte	0x2
 11067 05c9 0000 0000 		.long	.LM150
 11068 05cd 1A        		.byte	0x1a
 11069 05ce 00        		.byte	0x0
 11070 05cf 05        		.uleb128 0x5
 11071 05d0 02        		.byte	0x2
 11072 05d1 0000 0000 		.long	.LM151
 11073 05d5 15        		.byte	0x15
 11074 05d6 00        		.byte	0x0
 11075 05d7 05        		.uleb128 0x5
 11076 05d8 02        		.byte	0x2
 11077 05d9 0000 0000 		.long	.LM152
 11078 05dd 15        		.byte	0x15
 11079 05de 00        		.byte	0x0
 11080 05df 05        		.uleb128 0x5
 11081 05e0 02        		.byte	0x2
 11082 05e1 0000 0000 		.long	.LM153
 11083 05e5 15        		.byte	0x15
 11084 05e6 00        		.byte	0x0
 11085 05e7 05        		.uleb128 0x5
 11086 05e8 02        		.byte	0x2
 11087 05e9 0000 0000 		.long	.LM154
 11088 05ed 15        		.byte	0x15
 11089 05ee 00        		.byte	0x0
 11090 05ef 05        		.uleb128 0x5
 11091 05f0 02        		.byte	0x2
 11092 05f1 0000 0000 		.long	.LM155
 11093 05f5 B8        		.byte	0xb8
 11094 05f6 00        		.byte	0x0
 11095 05f7 05        		.uleb128 0x5
 11096 05f8 02        		.byte	0x2
 11097 05f9 0000 0000 		.long	.LM156
 11098 05fd 15        		.byte	0x15
 11099 05fe 00        		.byte	0x0
 11100 05ff 05        		.uleb128 0x5
 11101 0600 02        		.byte	0x2
 11102 0601 0000 0000 		.long	.LM157
 11103 0605 15        		.byte	0x15
 11104 0606 00        		.byte	0x0
 11105 0607 05        		.uleb128 0x5
 11106 0608 02        		.byte	0x2
 11107 0609 0000 0000 		.long	.LM158
 11108 060d 17        		.byte	0x17
 11109 060e 00        		.byte	0x0
 11110 060f 05        		.uleb128 0x5
 11111 0610 02        		.byte	0x2
 11112 0611 0000 0000 		.long	.LM159
 11113 0615 01        		.byte	0x1
 11114 0616 00        		.byte	0x0
 11115 0617 05        		.uleb128 0x5
 11116 0618 02        		.byte	0x2
 11117 0619 0000 0000 		.long	.LM160
 11118 061d 15        		.byte	0x15
 11119 061e 00        		.byte	0x0
 11120 061f 05        		.uleb128 0x5
 11121 0620 02        		.byte	0x2
GAS LISTING /tmp/ccvyM2DX.s 			page 200


 11122 0621 0000 0000 		.long	.LM161
 11123 0625 15        		.byte	0x15
 11124 0626 00        		.byte	0x0
 11125 0627 05        		.uleb128 0x5
 11126 0628 02        		.byte	0x2
 11127 0629 0000 0000 		.long	.LM162
 11128 062d 16        		.byte	0x16
 11129 062e 00        		.byte	0x0
 11130 062f 05        		.uleb128 0x5
 11131 0630 02        		.byte	0x2
 11132 0631 0000 0000 		.long	.LM163
 11133 0635 18        		.byte	0x18
 11134 0636 00        		.byte	0x0
 11135 0637 05        		.uleb128 0x5
 11136 0638 02        		.byte	0x2
 11137 0639 0000 0000 		.long	.LM164
 11138 063d 15        		.byte	0x15
 11139 063e 00        		.byte	0x0
 11140 063f 05        		.uleb128 0x5
 11141 0640 02        		.byte	0x2
 11142 0641 0000 0000 		.long	.LM165
 11143 0645 17        		.byte	0x17
 11144 0646 00        		.byte	0x0
 11145 0647 05        		.uleb128 0x5
 11146 0648 02        		.byte	0x2
 11147 0649 0000 0000 		.long	.LM166
 11148 064d 18        		.byte	0x18
 11149 064e 00        		.byte	0x0
 11150 064f 05        		.uleb128 0x5
 11151 0650 02        		.byte	0x2
 11152 0651 0000 0000 		.long	.LM167
 11153 0655 15        		.byte	0x15
 11154 0656 00        		.byte	0x0
 11155 0657 05        		.uleb128 0x5
 11156 0658 02        		.byte	0x2
 11157 0659 0000 0000 		.long	.LM168
 11158 065d 18        		.byte	0x18
 11159 065e 00        		.byte	0x0
 11160 065f 05        		.uleb128 0x5
 11161 0660 02        		.byte	0x2
 11162 0661 0000 0000 		.long	.LM169
 11163 0665 15        		.byte	0x15
 11164 0666 00        		.byte	0x0
 11165 0667 05        		.uleb128 0x5
 11166 0668 02        		.byte	0x2
 11167 0669 0000 0000 		.long	.LM170
 11168 066d 16        		.byte	0x16
 11169 066e 00        		.byte	0x0
 11170 066f 05        		.uleb128 0x5
 11171 0670 02        		.byte	0x2
 11172 0671 0000 0000 		.long	.LM171
 11173 0675 15        		.byte	0x15
 11174 0676 00        		.byte	0x0
 11175 0677 05        		.uleb128 0x5
 11176 0678 02        		.byte	0x2
 11177 0679 0000 0000 		.long	.LM172
 11178 067d 19        		.byte	0x19
GAS LISTING /tmp/ccvyM2DX.s 			page 201


 11179 067e 00        		.byte	0x0
 11180 067f 05        		.uleb128 0x5
 11181 0680 02        		.byte	0x2
 11182 0681 0000 0000 		.long	.LM173
 11183 0685 15        		.byte	0x15
 11184 0686 00        		.byte	0x0
 11185 0687 05        		.uleb128 0x5
 11186 0688 02        		.byte	0x2
 11187 0689 0000 0000 		.long	.LM174
 11188 068d 15        		.byte	0x15
 11189 068e 00        		.byte	0x0
 11190 068f 05        		.uleb128 0x5
 11191 0690 02        		.byte	0x2
 11192 0691 0000 0000 		.long	.LM175
 11193 0695 15        		.byte	0x15
 11194 0696 00        		.byte	0x0
 11195 0697 05        		.uleb128 0x5
 11196 0698 02        		.byte	0x2
 11197 0699 0000 0000 		.long	.LM176
 11198 069d 15        		.byte	0x15
 11199 069e 00        		.byte	0x0
 11200 069f 05        		.uleb128 0x5
 11201 06a0 02        		.byte	0x2
 11202 06a1 0000 0000 		.long	.LM177
 11203 06a5 16        		.byte	0x16
 11204 06a6 00        		.byte	0x0
 11205 06a7 05        		.uleb128 0x5
 11206 06a8 02        		.byte	0x2
 11207 06a9 0000 0000 		.long	.LM178
 11208 06ad 15        		.byte	0x15
 11209 06ae 00        		.byte	0x0
 11210 06af 05        		.uleb128 0x5
 11211 06b0 02        		.byte	0x2
 11212 06b1 0000 0000 		.long	.LM179
 11213 06b5 19        		.byte	0x19
 11214 06b6 00        		.byte	0x0
 11215 06b7 05        		.uleb128 0x5
 11216 06b8 02        		.byte	0x2
 11217 06b9 0000 0000 		.long	.LM180
 11218 06bd 15        		.byte	0x15
 11219 06be 00        		.byte	0x0
 11220 06bf 05        		.uleb128 0x5
 11221 06c0 02        		.byte	0x2
 11222 06c1 0000 0000 		.long	.LM181
 11223 06c5 15        		.byte	0x15
 11224 06c6 00        		.byte	0x0
 11225 06c7 05        		.uleb128 0x5
 11226 06c8 02        		.byte	0x2
 11227 06c9 0000 0000 		.long	.LM182
 11228 06cd 15        		.byte	0x15
 11229 06ce 00        		.byte	0x0
 11230 06cf 05        		.uleb128 0x5
 11231 06d0 02        		.byte	0x2
 11232 06d1 0000 0000 		.long	.LM183
 11233 06d5 18        		.byte	0x18
 11234 06d6 00        		.byte	0x0
 11235 06d7 05        		.uleb128 0x5
GAS LISTING /tmp/ccvyM2DX.s 			page 202


 11236 06d8 02        		.byte	0x2
 11237 06d9 0000 0000 		.long	.LM184
 11238 06dd 17        		.byte	0x17
 11239 06de 00        		.byte	0x0
 11240 06df 05        		.uleb128 0x5
 11241 06e0 02        		.byte	0x2
 11242 06e1 0000 0000 		.long	.LM185
 11243 06e5 17        		.byte	0x17
 11244 06e6 00        		.byte	0x0
 11245 06e7 05        		.uleb128 0x5
 11246 06e8 02        		.byte	0x2
 11247 06e9 0000 0000 		.long	.LM186
 11248 06ed 16        		.byte	0x16
 11249 06ee 00        		.byte	0x0
 11250 06ef 05        		.uleb128 0x5
 11251 06f0 02        		.byte	0x2
 11252 06f1 0000 0000 		.long	.LM187
 11253 06f5 17        		.byte	0x17
 11254 06f6 00        		.byte	0x0
 11255 06f7 05        		.uleb128 0x5
 11256 06f8 02        		.byte	0x2
 11257 06f9 0000 0000 		.long	.LM188
 11258 06fd 15        		.byte	0x15
 11259 06fe 00        		.byte	0x0
 11260 06ff 05        		.uleb128 0x5
 11261 0700 02        		.byte	0x2
 11262 0701 0000 0000 		.long	.LM189
 11263 0705 03        		.byte	0x3
 11264 0706 A27D      		.sleb128 -350
 11265 0708 01        		.byte	0x1
 11266 0709 00        		.byte	0x0
 11267 070a 05        		.uleb128 0x5
 11268 070b 02        		.byte	0x2
 11269 070c 0000 0000 		.long	.LM190
 11270 0710 03        		.byte	0x3
 11271 0711 E302      		.sleb128 355
 11272 0713 01        		.byte	0x1
 11273 0714 00        		.byte	0x0
 11274 0715 05        		.uleb128 0x5
 11275 0716 02        		.byte	0x2
 11276 0717 0000 0000 		.long	.LM191
 11277 071b 03        		.byte	0x3
 11278 071c 9D7D      		.sleb128 -355
 11279 071e 01        		.byte	0x1
 11280 071f 00        		.byte	0x0
 11281 0720 05        		.uleb128 0x5
 11282 0721 02        		.byte	0x2
 11283 0722 0000 0000 		.long	.LM192
 11284 0726 03        		.byte	0x3
 11285 0727 E502      		.sleb128 357
 11286 0729 01        		.byte	0x1
 11287 072a 00        		.byte	0x0
 11288 072b 05        		.uleb128 0x5
 11289 072c 02        		.byte	0x2
 11290 072d 0000 0000 		.long	.LM193
 11291 0731 16        		.byte	0x16
 11292 0732 00        		.byte	0x0
GAS LISTING /tmp/ccvyM2DX.s 			page 203


 11293 0733 05        		.uleb128 0x5
 11294 0734 02        		.byte	0x2
 11295 0735 0000 0000 		.long	.LM194
 11296 0739 15        		.byte	0x15
 11297 073a 00        		.byte	0x0
 11298 073b 05        		.uleb128 0x5
 11299 073c 02        		.byte	0x2
 11300 073d 0000 0000 		.long	.LM195
 11301 0741 15        		.byte	0x15
 11302 0742 00        		.byte	0x0
 11303 0743 05        		.uleb128 0x5
 11304 0744 02        		.byte	0x2
 11305 0745 0000 0000 		.long	.LM196
 11306 0749 15        		.byte	0x15
 11307 074a 00        		.byte	0x0
 11308 074b 05        		.uleb128 0x5
 11309 074c 02        		.byte	0x2
 11310 074d 0000 0000 		.long	.LM197
 11311 0751 15        		.byte	0x15
 11312 0752 00        		.byte	0x0
 11313 0753 05        		.uleb128 0x5
 11314 0754 02        		.byte	0x2
 11315 0755 0000 0000 		.long	.LM198
 11316 0759 18        		.byte	0x18
 11317 075a 00        		.byte	0x0
 11318 075b 05        		.uleb128 0x5
 11319 075c 02        		.byte	0x2
 11320 075d 0000 0000 		.long	.LM199
 11321 0761 15        		.byte	0x15
 11322 0762 00        		.byte	0x0
 11323 0763 05        		.uleb128 0x5
 11324 0764 02        		.byte	0x2
 11325 0765 0000 0000 		.long	.LM200
 11326 0769 16        		.byte	0x16
 11327 076a 00        		.byte	0x0
 11328 076b 05        		.uleb128 0x5
 11329 076c 02        		.byte	0x2
 11330 076d 0000 0000 		.long	.LM201
 11331 0771 15        		.byte	0x15
 11332 0772 00        		.byte	0x0
 11333 0773 05        		.uleb128 0x5
 11334 0774 02        		.byte	0x2
 11335 0775 0000 0000 		.long	.LM202
 11336 0779 17        		.byte	0x17
 11337 077a 00        		.byte	0x0
 11338 077b 05        		.uleb128 0x5
 11339 077c 02        		.byte	0x2
 11340 077d 0000 0000 		.long	.LM203
 11341 0781 17        		.byte	0x17
 11342 0782 00        		.byte	0x0
 11343 0783 05        		.uleb128 0x5
 11344 0784 02        		.byte	0x2
 11345 0785 0000 0000 		.long	.LM204
 11346 0789 17        		.byte	0x17
 11347 078a 00        		.byte	0x0
 11348 078b 05        		.uleb128 0x5
 11349 078c 02        		.byte	0x2
GAS LISTING /tmp/ccvyM2DX.s 			page 204


 11350 078d 0000 0000 		.long	.LM205
 11351 0791 16        		.byte	0x16
 11352 0792 00        		.byte	0x0
 11353 0793 05        		.uleb128 0x5
 11354 0794 02        		.byte	0x2
 11355 0795 0000 0000 		.long	.LM206
 11356 0799 16        		.byte	0x16
 11357 079a 00        		.byte	0x0
 11358 079b 05        		.uleb128 0x5
 11359 079c 02        		.byte	0x2
 11360 079d 0000 0000 		.long	.LM207
 11361 07a1 15        		.byte	0x15
 11362 07a2 00        		.byte	0x0
 11363 07a3 05        		.uleb128 0x5
 11364 07a4 02        		.byte	0x2
 11365 07a5 0000 0000 		.long	.LM208
 11366 07a9 15        		.byte	0x15
 11367 07aa 00        		.byte	0x0
 11368 07ab 05        		.uleb128 0x5
 11369 07ac 02        		.byte	0x2
 11370 07ad 0000 0000 		.long	.LM209
 11371 07b1 15        		.byte	0x15
 11372 07b2 00        		.byte	0x0
 11373 07b3 05        		.uleb128 0x5
 11374 07b4 02        		.byte	0x2
 11375 07b5 0000 0000 		.long	.LM210
 11376 07b9 18        		.byte	0x18
 11377 07ba 00        		.byte	0x0
 11378 07bb 05        		.uleb128 0x5
 11379 07bc 02        		.byte	0x2
 11380 07bd 0000 0000 		.long	.LM211
 11381 07c1 15        		.byte	0x15
 11382 07c2 00        		.byte	0x0
 11383 07c3 05        		.uleb128 0x5
 11384 07c4 02        		.byte	0x2
 11385 07c5 0000 0000 		.long	.LM212
 11386 07c9 16        		.byte	0x16
 11387 07ca 00        		.byte	0x0
 11388 07cb 05        		.uleb128 0x5
 11389 07cc 02        		.byte	0x2
 11390 07cd 0000 0000 		.long	.LM213
 11391 07d1 17        		.byte	0x17
 11392 07d2 00        		.byte	0x0
 11393 07d3 05        		.uleb128 0x5
 11394 07d4 02        		.byte	0x2
 11395 07d5 0000 0000 		.long	.LM214
 11396 07d9 03        		.byte	0x3
 11397 07da 6C        		.sleb128 -20
 11398 07db 01        		.byte	0x1
 11399 07dc 00        		.byte	0x0
 11400 07dd 05        		.uleb128 0x5
 11401 07de 02        		.byte	0x2
 11402 07df 0000 0000 		.long	.LM215
 11403 07e3 03        		.byte	0x3
 11404 07e4 68        		.sleb128 -24
 11405 07e5 01        		.byte	0x1
 11406 07e6 00        		.byte	0x0
GAS LISTING /tmp/ccvyM2DX.s 			page 205


 11407 07e7 05        		.uleb128 0x5
 11408 07e8 02        		.byte	0x2
 11409 07e9 0000 0000 		.long	.LM216
 11410 07ed 16        		.byte	0x16
 11411 07ee 00        		.byte	0x0
 11412 07ef 05        		.uleb128 0x5
 11413 07f0 02        		.byte	0x2
 11414 07f1 0000 0000 		.long	.LM217
 11415 07f5 42        		.byte	0x42
 11416 07f6 00        		.byte	0x0
 11417 07f7 05        		.uleb128 0x5
 11418 07f8 02        		.byte	0x2
 11419 07f9 0000 0000 		.long	.LM218
 11420 07fd 19        		.byte	0x19
 11421 07fe 00        		.byte	0x0
 11422 07ff 05        		.uleb128 0x5
 11423 0800 02        		.byte	0x2
 11424 0801 0000 0000 		.long	.LM219
 11425 0805 15        		.byte	0x15
 11426 0806 00        		.byte	0x0
 11427 0807 05        		.uleb128 0x5
 11428 0808 02        		.byte	0x2
 11429 0809 0000 0000 		.long	.LM220
 11430 080d 17        		.byte	0x17
 11431 080e 00        		.byte	0x0
 11432 080f 05        		.uleb128 0x5
 11433 0810 02        		.byte	0x2
 11434 0811 0000 0000 		.long	.LM221
 11435 0815 15        		.byte	0x15
 11436 0816 00        		.byte	0x0
 11437 0817 05        		.uleb128 0x5
 11438 0818 02        		.byte	0x2
 11439 0819 0000 0000 		.long	.LM222
 11440 081d 15        		.byte	0x15
 11441 081e 00        		.byte	0x0
 11442 081f 05        		.uleb128 0x5
 11443 0820 02        		.byte	0x2
 11444 0821 0000 0000 		.long	.LM223
 11445 0825 15        		.byte	0x15
 11446 0826 00        		.byte	0x0
 11447 0827 05        		.uleb128 0x5
 11448 0828 02        		.byte	0x2
 11449 0829 0000 0000 		.long	.LM224
 11450 082d 15        		.byte	0x15
 11451 082e 00        		.byte	0x0
 11452 082f 05        		.uleb128 0x5
 11453 0830 02        		.byte	0x2
 11454 0831 0000 0000 		.long	.LM225
 11455 0835 17        		.byte	0x17
 11456 0836 00        		.byte	0x0
 11457 0837 05        		.uleb128 0x5
 11458 0838 02        		.byte	0x2
 11459 0839 0000 0000 		.long	.LM226
 11460 083d 17        		.byte	0x17
 11461 083e 00        		.byte	0x0
 11462 083f 05        		.uleb128 0x5
 11463 0840 02        		.byte	0x2
GAS LISTING /tmp/ccvyM2DX.s 			page 206


 11464 0841 0000 0000 		.long	.LM227
 11465 0845 15        		.byte	0x15
 11466 0846 00        		.byte	0x0
 11467 0847 05        		.uleb128 0x5
 11468 0848 02        		.byte	0x2
 11469 0849 0000 0000 		.long	.LM228
 11470 084d 16        		.byte	0x16
 11471 084e 00        		.byte	0x0
 11472 084f 05        		.uleb128 0x5
 11473 0850 02        		.byte	0x2
 11474 0851 0000 0000 		.long	.LM229
 11475 0855 15        		.byte	0x15
 11476 0856 00        		.byte	0x0
 11477 0857 05        		.uleb128 0x5
 11478 0858 02        		.byte	0x2
 11479 0859 0000 0000 		.long	.LM230
 11480 085d 17        		.byte	0x17
 11481 085e 00        		.byte	0x0
 11482 085f 05        		.uleb128 0x5
 11483 0860 02        		.byte	0x2
 11484 0861 0000 0000 		.long	.LM231
 11485 0865 17        		.byte	0x17
 11486 0866 00        		.byte	0x0
 11487 0867 05        		.uleb128 0x5
 11488 0868 02        		.byte	0x2
 11489 0869 0000 0000 		.long	.LM232
 11490 086d 16        		.byte	0x16
 11491 086e 00        		.byte	0x0
 11492 086f 05        		.uleb128 0x5
 11493 0870 02        		.byte	0x2
 11494 0871 0000 0000 		.long	.LM233
 11495 0875 16        		.byte	0x16
 11496 0876 00        		.byte	0x0
 11497 0877 05        		.uleb128 0x5
 11498 0878 02        		.byte	0x2
 11499 0879 0000 0000 		.long	.LM234
 11500 087d 15        		.byte	0x15
 11501 087e 00        		.byte	0x0
 11502 087f 05        		.uleb128 0x5
 11503 0880 02        		.byte	0x2
 11504 0881 0000 0000 		.long	.LM235
 11505 0885 15        		.byte	0x15
 11506 0886 00        		.byte	0x0
 11507 0887 05        		.uleb128 0x5
 11508 0888 02        		.byte	0x2
 11509 0889 0000 0000 		.long	.LM236
 11510 088d 15        		.byte	0x15
 11511 088e 00        		.byte	0x0
 11512 088f 05        		.uleb128 0x5
 11513 0890 02        		.byte	0x2
 11514 0891 0000 0000 		.long	.LM237
 11515 0895 16        		.byte	0x16
 11516 0896 00        		.byte	0x0
 11517 0897 05        		.uleb128 0x5
 11518 0898 02        		.byte	0x2
 11519 0899 0000 0000 		.long	.LM238
 11520 089d 17        		.byte	0x17
GAS LISTING /tmp/ccvyM2DX.s 			page 207


 11521 089e 00        		.byte	0x0
 11522 089f 05        		.uleb128 0x5
 11523 08a0 02        		.byte	0x2
 11524 08a1 0000 0000 		.long	.LM239
 11525 08a5 15        		.byte	0x15
 11526 08a6 00        		.byte	0x0
 11527 08a7 05        		.uleb128 0x5
 11528 08a8 02        		.byte	0x2
 11529 08a9 0000 0000 		.long	.LM240
 11530 08ad 16        		.byte	0x16
 11531 08ae 00        		.byte	0x0
 11532 08af 05        		.uleb128 0x5
 11533 08b0 02        		.byte	0x2
 11534 08b1 0000 0000 		.long	.LM241
 11535 08b5 17        		.byte	0x17
 11536 08b6 00        		.byte	0x0
 11537 08b7 05        		.uleb128 0x5
 11538 08b8 02        		.byte	0x2
 11539 08b9 0000 0000 		.long	.LM242
 11540 08bd 16        		.byte	0x16
 11541 08be 00        		.byte	0x0
 11542 08bf 05        		.uleb128 0x5
 11543 08c0 02        		.byte	0x2
 11544 08c1 0000 0000 		.long	.LM243
 11545 08c5 16        		.byte	0x16
 11546 08c6 00        		.byte	0x0
 11547 08c7 05        		.uleb128 0x5
 11548 08c8 02        		.byte	0x2
 11549 08c9 0000 0000 		.long	.LM244
 11550 08cd 16        		.byte	0x16
 11551 08ce 00        		.byte	0x0
 11552 08cf 05        		.uleb128 0x5
 11553 08d0 02        		.byte	0x2
 11554 08d1 0000 0000 		.long	.LM245
 11555 08d5 15        		.byte	0x15
 11556 08d6 00        		.byte	0x0
 11557 08d7 05        		.uleb128 0x5
 11558 08d8 02        		.byte	0x2
 11559 08d9 0000 0000 		.long	.LM246
 11560 08dd 16        		.byte	0x16
 11561 08de 00        		.byte	0x0
 11562 08df 05        		.uleb128 0x5
 11563 08e0 02        		.byte	0x2
 11564 08e1 0000 0000 		.long	.LM247
 11565 08e5 15        		.byte	0x15
 11566 08e6 00        		.byte	0x0
 11567 08e7 05        		.uleb128 0x5
 11568 08e8 02        		.byte	0x2
 11569 08e9 0000 0000 		.long	.LM248
 11570 08ed 18        		.byte	0x18
 11571 08ee 00        		.byte	0x0
 11572 08ef 05        		.uleb128 0x5
 11573 08f0 02        		.byte	0x2
 11574 08f1 0000 0000 		.long	.LM249
 11575 08f5 15        		.byte	0x15
 11576 08f6 00        		.byte	0x0
 11577 08f7 05        		.uleb128 0x5
GAS LISTING /tmp/ccvyM2DX.s 			page 208


 11578 08f8 02        		.byte	0x2
 11579 08f9 0000 0000 		.long	.LM250
 11580 08fd 17        		.byte	0x17
 11581 08fe 00        		.byte	0x0
 11582 08ff 05        		.uleb128 0x5
 11583 0900 02        		.byte	0x2
 11584 0901 0000 0000 		.long	.LM251
 11585 0905 15        		.byte	0x15
 11586 0906 00        		.byte	0x0
 11587 0907 05        		.uleb128 0x5
 11588 0908 02        		.byte	0x2
 11589 0909 0000 0000 		.long	.LM252
 11590 090d 15        		.byte	0x15
 11591 090e 00        		.byte	0x0
 11592 090f 05        		.uleb128 0x5
 11593 0910 02        		.byte	0x2
 11594 0911 0000 0000 		.long	.LM253
 11595 0915 17        		.byte	0x17
 11596 0916 00        		.byte	0x0
 11597 0917 05        		.uleb128 0x5
 11598 0918 02        		.byte	0x2
 11599 0919 0000 0000 		.long	.LM254
 11600 091d 15        		.byte	0x15
 11601 091e 00        		.byte	0x0
 11602 091f 05        		.uleb128 0x5
 11603 0920 02        		.byte	0x2
 11604 0921 0000 0000 		.long	.LM255
 11605 0925 15        		.byte	0x15
 11606 0926 00        		.byte	0x0
 11607 0927 05        		.uleb128 0x5
 11608 0928 02        		.byte	0x2
 11609 0929 0000 0000 		.long	.LM256
 11610 092d 15        		.byte	0x15
 11611 092e 00        		.byte	0x0
 11612 092f 05        		.uleb128 0x5
 11613 0930 02        		.byte	0x2
 11614 0931 0000 0000 		.long	.LM257
 11615 0935 15        		.byte	0x15
 11616 0936 00        		.byte	0x0
 11617 0937 05        		.uleb128 0x5
 11618 0938 02        		.byte	0x2
 11619 0939 0000 0000 		.long	.LM258
 11620 093d 15        		.byte	0x15
 11621 093e 00        		.byte	0x0
 11622 093f 05        		.uleb128 0x5
 11623 0940 02        		.byte	0x2
 11624 0941 0000 0000 		.long	.LM259
 11625 0945 15        		.byte	0x15
 11626 0946 00        		.byte	0x0
 11627 0947 05        		.uleb128 0x5
 11628 0948 02        		.byte	0x2
 11629 0949 0000 0000 		.long	.LM260
 11630 094d 15        		.byte	0x15
 11631 094e 00        		.byte	0x0
 11632 094f 05        		.uleb128 0x5
 11633 0950 02        		.byte	0x2
 11634 0951 0000 0000 		.long	.LM261
GAS LISTING /tmp/ccvyM2DX.s 			page 209


 11635 0955 15        		.byte	0x15
 11636 0956 00        		.byte	0x0
 11637 0957 05        		.uleb128 0x5
 11638 0958 02        		.byte	0x2
 11639 0959 0000 0000 		.long	.LM262
 11640 095d 16        		.byte	0x16
 11641 095e 00        		.byte	0x0
 11642 095f 05        		.uleb128 0x5
 11643 0960 02        		.byte	0x2
 11644 0961 0000 0000 		.long	.LM263
 11645 0965 17        		.byte	0x17
 11646 0966 00        		.byte	0x0
 11647 0967 05        		.uleb128 0x5
 11648 0968 02        		.byte	0x2
 11649 0969 0000 0000 		.long	.LM264
 11650 096d 15        		.byte	0x15
 11651 096e 00        		.byte	0x0
 11652 096f 05        		.uleb128 0x5
 11653 0970 02        		.byte	0x2
 11654 0971 0000 0000 		.long	.LM265
 11655 0975 15        		.byte	0x15
 11656 0976 00        		.byte	0x0
 11657 0977 05        		.uleb128 0x5
 11658 0978 02        		.byte	0x2
 11659 0979 0000 0000 		.long	.LM266
 11660 097d 15        		.byte	0x15
 11661 097e 00        		.byte	0x0
 11662 097f 05        		.uleb128 0x5
 11663 0980 02        		.byte	0x2
 11664 0981 0000 0000 		.long	.LM267
 11665 0985 15        		.byte	0x15
 11666 0986 00        		.byte	0x0
 11667 0987 05        		.uleb128 0x5
 11668 0988 02        		.byte	0x2
 11669 0989 0000 0000 		.long	.LM268
 11670 098d 15        		.byte	0x15
 11671 098e 00        		.byte	0x0
 11672 098f 05        		.uleb128 0x5
 11673 0990 02        		.byte	0x2
 11674 0991 0000 0000 		.long	.LM269
 11675 0995 0E        		.byte	0xe
 11676 0996 00        		.byte	0x0
 11677 0997 05        		.uleb128 0x5
 11678 0998 02        		.byte	0x2
 11679 0999 0000 0000 		.long	.LM270
 11680 099d 12        		.byte	0x12
 11681 099e 00        		.byte	0x0
 11682 099f 05        		.uleb128 0x5
 11683 09a0 02        		.byte	0x2
 11684 09a1 0000 0000 		.long	.LM271
 11685 09a5 20        		.byte	0x20
 11686 09a6 00        		.byte	0x0
 11687 09a7 05        		.uleb128 0x5
 11688 09a8 02        		.byte	0x2
 11689 09a9 0000 0000 		.long	.LM272
 11690 09ad 17        		.byte	0x17
 11691 09ae 00        		.byte	0x0
GAS LISTING /tmp/ccvyM2DX.s 			page 210


 11692 09af 05        		.uleb128 0x5
 11693 09b0 02        		.byte	0x2
 11694 09b1 0000 0000 		.long	.LM273
 11695 09b5 15        		.byte	0x15
 11696 09b6 00        		.byte	0x0
 11697 09b7 05        		.uleb128 0x5
 11698 09b8 02        		.byte	0x2
 11699 09b9 0000 0000 		.long	.LM274
 11700 09bd 12        		.byte	0x12
 11701 09be 00        		.byte	0x0
 11702 09bf 05        		.uleb128 0x5
 11703 09c0 02        		.byte	0x2
 11704 09c1 0000 0000 		.long	.LM275
 11705 09c5 1C        		.byte	0x1c
 11706 09c6 00        		.byte	0x0
 11707 09c7 05        		.uleb128 0x5
 11708 09c8 02        		.byte	0x2
 11709 09c9 0000 0000 		.long	.LM276
 11710 09cd 03        		.byte	0x3
 11711 09ce A67E      		.sleb128 -218
 11712 09d0 01        		.byte	0x1
 11713 09d1 00        		.byte	0x0
 11714 09d2 05        		.uleb128 0x5
 11715 09d3 02        		.byte	0x2
 11716 09d4 0000 0000 		.long	.LM277
 11717 09d8 EE        		.byte	0xee
 11718 09d9 00        		.byte	0x0
 11719 09da 05        		.uleb128 0x5
 11720 09db 02        		.byte	0x2
 11721 09dc 0000 0000 		.long	.LM278
 11722 09e0 03        		.byte	0x3
 11723 09e1 A67E      		.sleb128 -218
 11724 09e3 01        		.byte	0x1
 11725 09e4 00        		.byte	0x0
 11726 09e5 05        		.uleb128 0x5
 11727 09e6 02        		.byte	0x2
 11728 09e7 0000 0000 		.long	.LM279
 11729 09eb EF        		.byte	0xef
 11730 09ec 00        		.byte	0x0
 11731 09ed 05        		.uleb128 0x5
 11732 09ee 02        		.byte	0x2
 11733 09ef 0000 0000 		.long	.LM280
 11734 09f3 03        		.byte	0x3
 11735 09f4 A57E      		.sleb128 -219
 11736 09f6 01        		.byte	0x1
 11737 09f7 00        		.byte	0x0
 11738 09f8 05        		.uleb128 0x5
 11739 09f9 02        		.byte	0x2
 11740 09fa 0000 0000 		.long	.LM281
 11741 09fe F0        		.byte	0xf0
 11742 09ff 00        		.byte	0x0
 11743 0a00 05        		.uleb128 0x5
 11744 0a01 02        		.byte	0x2
 11745 0a02 0000 0000 		.long	.LM282
 11746 0a06 03        		.byte	0x3
 11747 0a07 A47E      		.sleb128 -220
 11748 0a09 01        		.byte	0x1
GAS LISTING /tmp/ccvyM2DX.s 			page 211


 11749 0a0a 00        		.byte	0x0
 11750 0a0b 05        		.uleb128 0x5
 11751 0a0c 02        		.byte	0x2
 11752 0a0d 0000 0000 		.long	.LM283
 11753 0a11 F1        		.byte	0xf1
 11754 0a12 00        		.byte	0x0
 11755 0a13 05        		.uleb128 0x5
 11756 0a14 02        		.byte	0x2
 11757 0a15 0000 0000 		.long	.LM284
 11758 0a19 03        		.byte	0x3
 11759 0a1a A37E      		.sleb128 -221
 11760 0a1c 01        		.byte	0x1
 11761 0a1d 00        		.byte	0x0
 11762 0a1e 05        		.uleb128 0x5
 11763 0a1f 02        		.byte	0x2
 11764 0a20 0000 0000 		.long	.LM285
 11765 0a24 F2        		.byte	0xf2
 11766 0a25 00        		.byte	0x0
 11767 0a26 05        		.uleb128 0x5
 11768 0a27 02        		.byte	0x2
 11769 0a28 0000 0000 		.long	.LM286
 11770 0a2c 03        		.byte	0x3
 11771 0a2d A27E      		.sleb128 -222
 11772 0a2f 01        		.byte	0x1
 11773 0a30 00        		.byte	0x0
 11774 0a31 05        		.uleb128 0x5
 11775 0a32 02        		.byte	0x2
 11776 0a33 0000 0000 		.long	.LM287
 11777 0a37 F3        		.byte	0xf3
 11778 0a38 00        		.byte	0x0
 11779 0a39 05        		.uleb128 0x5
 11780 0a3a 02        		.byte	0x2
 11781 0a3b 0000 0000 		.long	.LM288
 11782 0a3f 03        		.byte	0x3
 11783 0a40 A17E      		.sleb128 -223
 11784 0a42 01        		.byte	0x1
 11785 0a43 00        		.byte	0x0
 11786 0a44 05        		.uleb128 0x5
 11787 0a45 02        		.byte	0x2
 11788 0a46 0000 0000 		.long	.LM289
 11789 0a4a F9        		.byte	0xf9
 11790 0a4b 00        		.byte	0x0
 11791 0a4c 05        		.uleb128 0x5
 11792 0a4d 02        		.byte	0x2
 11793 0a4e 0000 0000 		.long	.LM290
 11794 0a52 13        		.byte	0x13
 11795 0a53 00        		.byte	0x0
 11796 0a54 05        		.uleb128 0x5
 11797 0a55 02        		.byte	0x2
 11798 0a56 0000 0000 		.long	.LM291
 11799 0a5a 03        		.byte	0x3
 11800 0a5b FF7B      		.sleb128 -513
 11801 0a5d 01        		.byte	0x1
 11802 0a5e 00        		.byte	0x0
 11803 0a5f 05        		.uleb128 0x5
 11804 0a60 02        		.byte	0x2
 11805 0a61 0000 0000 		.long	.LM292
GAS LISTING /tmp/ccvyM2DX.s 			page 212


 11806 0a65 03        		.byte	0x3
 11807 0a66 8504      		.sleb128 517
 11808 0a68 01        		.byte	0x1
 11809 0a69 00        		.byte	0x0
 11810 0a6a 05        		.uleb128 0x5
 11811 0a6b 02        		.byte	0x2
 11812 0a6c 0000 0000 		.long	.LM293
 11813 0a70 03        		.byte	0x3
 11814 0a71 FB7B      		.sleb128 -517
 11815 0a73 01        		.byte	0x1
 11816 0a74 00        		.byte	0x0
 11817 0a75 05        		.uleb128 0x5
 11818 0a76 02        		.byte	0x2
 11819 0a77 0000 0000 		.long	.LM294
 11820 0a7b 03        		.byte	0x3
 11821 0a7c 8604      		.sleb128 518
 11822 0a7e 01        		.byte	0x1
 11823 0a7f 00        		.byte	0x0
 11824 0a80 05        		.uleb128 0x5
 11825 0a81 02        		.byte	0x2
 11826 0a82 0000 0000 		.long	.LM295
 11827 0a86 15        		.byte	0x15
 11828 0a87 00        		.byte	0x0
 11829 0a88 05        		.uleb128 0x5
 11830 0a89 02        		.byte	0x2
 11831 0a8a 0000 0000 		.long	.LM296
 11832 0a8e 03        		.byte	0x3
 11833 0a8f E97B      		.sleb128 -535
 11834 0a91 01        		.byte	0x1
 11835 0a92 00        		.byte	0x0
 11836 0a93 05        		.uleb128 0x5
 11837 0a94 02        		.byte	0x2
 11838 0a95 0000 0000 		.long	.LM297
 11839 0a99 03        		.byte	0x3
 11840 0a9a 9704      		.sleb128 535
 11841 0a9c 01        		.byte	0x1
 11842 0a9d 00        		.byte	0x0
 11843 0a9e 05        		.uleb128 0x5
 11844 0a9f 02        		.byte	0x2
 11845 0aa0 0000 0000 		.long	.LM298
 11846 0aa4 03        		.byte	0x3
 11847 0aa5 F97B      		.sleb128 -519
 11848 0aa7 01        		.byte	0x1
 11849 0aa8 00        		.byte	0x0
 11850 0aa9 05        		.uleb128 0x5
 11851 0aaa 02        		.byte	0x2
 11852 0aab 0000 0000 		.long	.LM299
 11853 0aaf 03        		.byte	0x3
 11854 0ab0 8904      		.sleb128 521
 11855 0ab2 01        		.byte	0x1
 11856 0ab3 00        		.byte	0x0
 11857 0ab4 05        		.uleb128 0x5
 11858 0ab5 02        		.byte	0x2
 11859 0ab6 0000 0000 		.long	.LM300
 11860 0aba 03        		.byte	0x3
 11861 0abb F77B      		.sleb128 -521
 11862 0abd 01        		.byte	0x1
GAS LISTING /tmp/ccvyM2DX.s 			page 213


 11863 0abe 00        		.byte	0x0
 11864 0abf 05        		.uleb128 0x5
 11865 0ac0 02        		.byte	0x2
 11866 0ac1 0000 0000 		.long	.LM301
 11867 0ac5 03        		.byte	0x3
 11868 0ac6 8A04      		.sleb128 522
 11869 0ac8 01        		.byte	0x1
 11870 0ac9 00        		.byte	0x0
 11871 0aca 05        		.uleb128 0x5
 11872 0acb 02        		.byte	0x2
 11873 0acc 0000 0000 		.long	.LM302
 11874 0ad0 15        		.byte	0x15
 11875 0ad1 00        		.byte	0x0
 11876 0ad2 05        		.uleb128 0x5
 11877 0ad3 02        		.byte	0x2
 11878 0ad4 0000 0000 		.long	.LM303
 11879 0ad8 03        		.byte	0x3
 11880 0ad9 E57B      		.sleb128 -539
 11881 0adb 01        		.byte	0x1
 11882 0adc 00        		.byte	0x0
 11883 0add 05        		.uleb128 0x5
 11884 0ade 02        		.byte	0x2
 11885 0adf 0000 0000 		.long	.LM304
 11886 0ae3 03        		.byte	0x3
 11887 0ae4 9B04      		.sleb128 539
 11888 0ae6 01        		.byte	0x1
 11889 0ae7 00        		.byte	0x0
 11890 0ae8 05        		.uleb128 0x5
 11891 0ae9 02        		.byte	0x2
 11892 0aea 0000 0000 		.long	.LM305
 11893 0aee 03        		.byte	0x3
 11894 0aef F57B      		.sleb128 -523
 11895 0af1 01        		.byte	0x1
 11896 0af2 00        		.byte	0x0
 11897 0af3 05        		.uleb128 0x5
 11898 0af4 02        		.byte	0x2
 11899 0af5 0000 0000 		.long	.LM306
 11900 0af9 03        		.byte	0x3
 11901 0afa 8D04      		.sleb128 525
 11902 0afc 01        		.byte	0x1
 11903 0afd 00        		.byte	0x0
 11904 0afe 05        		.uleb128 0x5
 11905 0aff 02        		.byte	0x2
 11906 0b00 0000 0000 		.long	.LM307
 11907 0b04 03        		.byte	0x3
 11908 0b05 F37B      		.sleb128 -525
 11909 0b07 01        		.byte	0x1
 11910 0b08 00        		.byte	0x0
 11911 0b09 05        		.uleb128 0x5
 11912 0b0a 02        		.byte	0x2
 11913 0b0b 0000 0000 		.long	.LM308
 11914 0b0f 03        		.byte	0x3
 11915 0b10 8E04      		.sleb128 526
 11916 0b12 01        		.byte	0x1
 11917 0b13 00        		.byte	0x0
 11918 0b14 05        		.uleb128 0x5
 11919 0b15 02        		.byte	0x2
GAS LISTING /tmp/ccvyM2DX.s 			page 214


 11920 0b16 0000 0000 		.long	.LM309
 11921 0b1a 15        		.byte	0x15
 11922 0b1b 00        		.byte	0x0
 11923 0b1c 05        		.uleb128 0x5
 11924 0b1d 02        		.byte	0x2
 11925 0b1e 0000 0000 		.long	.LM310
 11926 0b22 03        		.byte	0x3
 11927 0b23 E17B      		.sleb128 -543
 11928 0b25 01        		.byte	0x1
 11929 0b26 00        		.byte	0x0
 11930 0b27 05        		.uleb128 0x5
 11931 0b28 02        		.byte	0x2
 11932 0b29 0000 0000 		.long	.LM311
 11933 0b2d 03        		.byte	0x3
 11934 0b2e 9F04      		.sleb128 543
 11935 0b30 01        		.byte	0x1
 11936 0b31 00        		.byte	0x0
 11937 0b32 05        		.uleb128 0x5
 11938 0b33 02        		.byte	0x2
 11939 0b34 0000 0000 		.long	.LM312
 11940 0b38 03        		.byte	0x3
 11941 0b39 F17B      		.sleb128 -527
 11942 0b3b 01        		.byte	0x1
 11943 0b3c 00        		.byte	0x0
 11944 0b3d 05        		.uleb128 0x5
 11945 0b3e 02        		.byte	0x2
 11946 0b3f 0000 0000 		.long	.LM313
 11947 0b43 03        		.byte	0x3
 11948 0b44 9104      		.sleb128 529
 11949 0b46 01        		.byte	0x1
 11950 0b47 00        		.byte	0x0
 11951 0b48 05        		.uleb128 0x5
 11952 0b49 02        		.byte	0x2
 11953 0b4a 0000 0000 		.long	.LM314
 11954 0b4e 03        		.byte	0x3
 11955 0b4f EF7B      		.sleb128 -529
 11956 0b51 01        		.byte	0x1
 11957 0b52 00        		.byte	0x0
 11958 0b53 05        		.uleb128 0x5
 11959 0b54 02        		.byte	0x2
 11960 0b55 0000 0000 		.long	.LM315
 11961 0b59 03        		.byte	0x3
 11962 0b5a 9204      		.sleb128 530
 11963 0b5c 01        		.byte	0x1
 11964 0b5d 00        		.byte	0x0
 11965 0b5e 05        		.uleb128 0x5
 11966 0b5f 02        		.byte	0x2
 11967 0b60 0000 0000 		.long	.LM316
 11968 0b64 15        		.byte	0x15
 11969 0b65 00        		.byte	0x0
 11970 0b66 05        		.uleb128 0x5
 11971 0b67 02        		.byte	0x2
 11972 0b68 0000 0000 		.long	.LM317
 11973 0b6c 03        		.byte	0x3
 11974 0b6d DD7B      		.sleb128 -547
 11975 0b6f 01        		.byte	0x1
 11976 0b70 00        		.byte	0x0
GAS LISTING /tmp/ccvyM2DX.s 			page 215


 11977 0b71 05        		.uleb128 0x5
 11978 0b72 02        		.byte	0x2
 11979 0b73 0000 0000 		.long	.LM318
 11980 0b77 03        		.byte	0x3
 11981 0b78 A304      		.sleb128 547
 11982 0b7a 01        		.byte	0x1
 11983 0b7b 00        		.byte	0x0
 11984 0b7c 05        		.uleb128 0x5
 11985 0b7d 02        		.byte	0x2
 11986 0b7e 0000 0000 		.long	.LM319
 11987 0b82 03        		.byte	0x3
 11988 0b83 ED7B      		.sleb128 -531
 11989 0b85 01        		.byte	0x1
 11990 0b86 00        		.byte	0x0
 11991 0b87 05        		.uleb128 0x5
 11992 0b88 02        		.byte	0x2
 11993 0b89 0000 0000 		.long	.LM320
 11994 0b8d 03        		.byte	0x3
 11995 0b8e 9504      		.sleb128 533
 11996 0b90 01        		.byte	0x1
 11997 0b91 00        		.byte	0x0
 11998 0b92 05        		.uleb128 0x5
 11999 0b93 02        		.byte	0x2
 12000 0b94 0000 0000 		.long	.LM321
 12001 0b98 03        		.byte	0x3
 12002 0b99 EB7B      		.sleb128 -533
 12003 0b9b 01        		.byte	0x1
 12004 0b9c 00        		.byte	0x0
 12005 0b9d 05        		.uleb128 0x5
 12006 0b9e 02        		.byte	0x2
 12007 0b9f 0000 0000 		.long	.LM322
 12008 0ba3 03        		.byte	0x3
 12009 0ba4 9604      		.sleb128 534
 12010 0ba6 01        		.byte	0x1
 12011 0ba7 00        		.byte	0x0
 12012 0ba8 05        		.uleb128 0x5
 12013 0ba9 02        		.byte	0x2
 12014 0baa 0000 0000 		.long	.LM323
 12015 0bae 15        		.byte	0x15
 12016 0baf 00        		.byte	0x0
 12017 0bb0 05        		.uleb128 0x5
 12018 0bb1 02        		.byte	0x2
 12019 0bb2 0000 0000 		.long	.LM324
 12020 0bb6 03        		.byte	0x3
 12021 0bb7 D97B      		.sleb128 -551
 12022 0bb9 01        		.byte	0x1
 12023 0bba 00        		.byte	0x0
 12024 0bbb 05        		.uleb128 0x5
 12025 0bbc 02        		.byte	0x2
 12026 0bbd 0000 0000 		.long	.LM325
 12027 0bc1 03        		.byte	0x3
 12028 0bc2 A704      		.sleb128 551
 12029 0bc4 01        		.byte	0x1
 12030 0bc5 00        		.byte	0x0
 12031 0bc6 05        		.uleb128 0x5
 12032 0bc7 02        		.byte	0x2
 12033 0bc8 0000 0000 		.long	.LM326
GAS LISTING /tmp/ccvyM2DX.s 			page 216


 12034 0bcc 03        		.byte	0x3
 12035 0bcd E97B      		.sleb128 -535
 12036 0bcf 01        		.byte	0x1
 12037 0bd0 00        		.byte	0x0
 12038 0bd1 05        		.uleb128 0x5
 12039 0bd2 02        		.byte	0x2
 12040 0bd3 0000 0000 		.long	.LM327
 12041 0bd7 03        		.byte	0x3
 12042 0bd8 9904      		.sleb128 537
 12043 0bda 01        		.byte	0x1
 12044 0bdb 00        		.byte	0x0
 12045 0bdc 05        		.uleb128 0x5
 12046 0bdd 02        		.byte	0x2
 12047 0bde 0000 0000 		.long	.LM328
 12048 0be2 03        		.byte	0x3
 12049 0be3 E77B      		.sleb128 -537
 12050 0be5 01        		.byte	0x1
 12051 0be6 00        		.byte	0x0
 12052 0be7 05        		.uleb128 0x5
 12053 0be8 02        		.byte	0x2
 12054 0be9 0000 0000 		.long	.LM329
 12055 0bed 03        		.byte	0x3
 12056 0bee 9A04      		.sleb128 538
 12057 0bf0 01        		.byte	0x1
 12058 0bf1 00        		.byte	0x0
 12059 0bf2 05        		.uleb128 0x5
 12060 0bf3 02        		.byte	0x2
 12061 0bf4 0000 0000 		.long	.LM330
 12062 0bf8 15        		.byte	0x15
 12063 0bf9 00        		.byte	0x0
 12064 0bfa 05        		.uleb128 0x5
 12065 0bfb 02        		.byte	0x2
 12066 0bfc 0000 0000 		.long	.LM331
 12067 0c00 03        		.byte	0x3
 12068 0c01 D57B      		.sleb128 -555
 12069 0c03 01        		.byte	0x1
 12070 0c04 00        		.byte	0x0
 12071 0c05 05        		.uleb128 0x5
 12072 0c06 02        		.byte	0x2
 12073 0c07 0000 0000 		.long	.LM332
 12074 0c0b 03        		.byte	0x3
 12075 0c0c AB04      		.sleb128 555
 12076 0c0e 01        		.byte	0x1
 12077 0c0f 00        		.byte	0x0
 12078 0c10 05        		.uleb128 0x5
 12079 0c11 02        		.byte	0x2
 12080 0c12 0000 0000 		.long	.LM333
 12081 0c16 18        		.byte	0x18
 12082 0c17 00        		.byte	0x0
 12083 0c18 05        		.uleb128 0x5
 12084 0c19 02        		.byte	0x2
 12085 0c1a 0000 0000 		.long	.LM334
 12086 0c1e 28        		.byte	0x28
 12087 0c1f 00        		.byte	0x0
 12088 0c20 05        		.uleb128 0x5
 12089 0c21 02        		.byte	0x2
 12090 0c22 0000 0000 		.long	.LM335
GAS LISTING /tmp/ccvyM2DX.s 			page 217


 12091 0c26 5C        		.byte	0x5c
 12092 0c27 00        		.byte	0x0
 12093 0c28 05        		.uleb128 0x5
 12094 0c29 02        		.byte	0x2
 12095 0c2a 0000 0000 		.long	.LM336
 12096 0c2e 0B        		.byte	0xb
 12097 0c2f 00        		.byte	0x0
 12098 0c30 05        		.uleb128 0x5
 12099 0c31 02        		.byte	0x2
 12100 0c32 0000 0000 		.long	.LM337
 12101 0c36 03        		.byte	0x3
 12102 0c37 AB7D      		.sleb128 -341
 12103 0c39 01        		.byte	0x1
 12104 0c3a 00        		.byte	0x0
 12105 0c3b 05        		.uleb128 0x5
 12106 0c3c 02        		.byte	0x2
 12107 0c3d 0000 0000 		.long	.LM338
 12108 0c41 03        		.byte	0x3
 12109 0c42 9802      		.sleb128 280
 12110 0c44 01        		.byte	0x1
 12111 0c45 00        		.byte	0x0
 12112 0c46 05        		.uleb128 0x5
 12113 0c47 02        		.byte	0x2
 12114 0c48 0000 0000 		.long	.LM339
 12115 0c4c 16        		.byte	0x16
 12116 0c4d 00        		.byte	0x0
 12117 0c4e 05        		.uleb128 0x5
 12118 0c4f 02        		.byte	0x2
 12119 0c50 0000 0000 		.long	.LM340
 12120 0c54 03        		.byte	0x3
 12121 0c55 E67D      		.sleb128 -282
 12122 0c57 01        		.byte	0x1
 12123 0c58 00        		.byte	0x0
 12124 0c59 05        		.uleb128 0x5
 12125 0c5a 02        		.byte	0x2
 12126 0c5b 0000 0000 		.long	.LM341
 12127 0c5f 03        		.byte	0x3
 12128 0c60 A102      		.sleb128 289
 12129 0c62 01        		.byte	0x1
 12130 0c63 00        		.byte	0x0
 12131 0c64 05        		.uleb128 0x5
 12132 0c65 02        		.byte	0x2
 12133 0c66 0000 0000 		.long	.LM342
 12134 0c6a 17        		.byte	0x17
 12135 0c6b 00        		.byte	0x0
 12136 0c6c 05        		.uleb128 0x5
 12137 0c6d 02        		.byte	0x2
 12138 0c6e 0000 0000 		.long	.LM343
 12139 0c72 15        		.byte	0x15
 12140 0c73 00        		.byte	0x0
 12141 0c74 05        		.uleb128 0x5
 12142 0c75 02        		.byte	0x2
 12143 0c76 0000 0000 		.long	.LM344
 12144 0c7a 18        		.byte	0x18
 12145 0c7b 00        		.byte	0x0
 12146 0c7c 05        		.uleb128 0x5
 12147 0c7d 02        		.byte	0x2
GAS LISTING /tmp/ccvyM2DX.s 			page 218


 12148 0c7e 0000 0000 		.long	.LM345
 12149 0c82 16        		.byte	0x16
 12150 0c83 00        		.byte	0x0
 12151 0c84 05        		.uleb128 0x5
 12152 0c85 02        		.byte	0x2
 12153 0c86 0000 0000 		.long	.LM346
 12154 0c8a 17        		.byte	0x17
 12155 0c8b 00        		.byte	0x0
 12156 0c8c 05        		.uleb128 0x5
 12157 0c8d 02        		.byte	0x2
 12158 0c8e 0000 0000 		.long	.LM347
 12159 0c92 03        		.byte	0x3
 12160 0c93 B57B      		.sleb128 -587
 12161 0c95 01        		.byte	0x1
 12162 0c96 00        		.byte	0x0
 12163 0c97 05        		.uleb128 0x5
 12164 0c98 02        		.byte	0x2
 12165 0c99 0000 0000 		.long	.LM348
 12166 0c9d 03        		.byte	0x3
 12167 0c9e CE04      		.sleb128 590
 12168 0ca0 01        		.byte	0x1
 12169 0ca1 00        		.byte	0x0
 12170 0ca2 05        		.uleb128 0x5
 12171 0ca3 02        		.byte	0x2
 12172 0ca4 0000 0000 		.long	.LM349
 12173 0ca8 03        		.byte	0x3
 12174 0ca9 B27B      		.sleb128 -590
 12175 0cab 01        		.byte	0x1
 12176 0cac 00        		.byte	0x0
 12177 0cad 05        		.uleb128 0x5
 12178 0cae 02        		.byte	0x2
 12179 0caf 0000 0000 		.long	.LM350
 12180 0cb3 03        		.byte	0x3
 12181 0cb4 CF04      		.sleb128 591
 12182 0cb6 01        		.byte	0x1
 12183 0cb7 00        		.byte	0x0
 12184 0cb8 05        		.uleb128 0x5
 12185 0cb9 02        		.byte	0x2
 12186 0cba 0000 0000 		.long	.LM351
 12187 0cbe 15        		.byte	0x15
 12188 0cbf 00        		.byte	0x0
 12189 0cc0 05        		.uleb128 0x5
 12190 0cc1 02        		.byte	0x2
 12191 0cc2 0000 0000 		.long	.LM352
 12192 0cc6 16        		.byte	0x16
 12193 0cc7 00        		.byte	0x0
 12194 0cc8 05        		.uleb128 0x5
 12195 0cc9 02        		.byte	0x2
 12196 0cca 0000 0000 		.long	.LM353
 12197 0cce 01        		.byte	0x1
 12198 0ccf 00        		.byte	0x0
 12199 0cd0 05        		.uleb128 0x5
 12200 0cd1 02        		.byte	0x2
 12201 0cd2 0000 0000 		.long	.LM354
 12202 0cd6 17        		.byte	0x17
 12203 0cd7 00        		.byte	0x0
 12204 0cd8 05        		.uleb128 0x5
GAS LISTING /tmp/ccvyM2DX.s 			page 219


 12205 0cd9 02        		.byte	0x2
 12206 0cda 0000 0000 		.long	.LM355
 12207 0cde 15        		.byte	0x15
 12208 0cdf 00        		.byte	0x0
 12209 0ce0 05        		.uleb128 0x5
 12210 0ce1 02        		.byte	0x2
 12211 0ce2 0000 0000 		.long	.LM356
 12212 0ce6 12        		.byte	0x12
 12213 0ce7 00        		.byte	0x0
 12214 0ce8 05        		.uleb128 0x5
 12215 0ce9 02        		.byte	0x2
 12216 0cea 0000 0000 		.long	.LM357
 12217 0cee 1B        		.byte	0x1b
 12218 0cef 00        		.byte	0x0
 12219 0cf0 05        		.uleb128 0x5
 12220 0cf1 02        		.byte	0x2
 12221 0cf2 0000 0000 		.long	.LM358
 12222 0cf6 16        		.byte	0x16
 12223 0cf7 00        		.byte	0x0
 12224 0cf8 05        		.uleb128 0x5
 12225 0cf9 02        		.byte	0x2
 12226 0cfa 0000 0000 		.long	.LM359
 12227 0cfe 20        		.byte	0x20
 12228 0cff 00        		.byte	0x0
 12229 0d00 05        		.uleb128 0x5
 12230 0d01 02        		.byte	0x2
 12231 0d02 0000 0000 		.long	.LM360
 12232 0d06 15        		.byte	0x15
 12233 0d07 00        		.byte	0x0
 12234 0d08 05        		.uleb128 0x5
 12235 0d09 02        		.byte	0x2
 12236 0d0a 0000 0000 		.long	.LM361
 12237 0d0e 16        		.byte	0x16
 12238 0d0f 00        		.byte	0x0
 12239 0d10 05        		.uleb128 0x5
 12240 0d11 02        		.byte	0x2
 12241 0d12 0000 0000 		.long	.LM362
 12242 0d16 16        		.byte	0x16
 12243 0d17 00        		.byte	0x0
 12244 0d18 05        		.uleb128 0x5
 12245 0d19 02        		.byte	0x2
 12246 0d1a 0000 0000 		.long	.LM363
 12247 0d1e 16        		.byte	0x16
 12248 0d1f 00        		.byte	0x0
 12249 0d20 05        		.uleb128 0x5
 12250 0d21 02        		.byte	0x2
 12251 0d22 0000 0000 		.long	.LM364
 12252 0d26 15        		.byte	0x15
 12253 0d27 00        		.byte	0x0
 12254 0d28 05        		.uleb128 0x5
 12255 0d29 02        		.byte	0x2
 12256 0d2a 0000 0000 		.long	.LM365
 12257 0d2e 15        		.byte	0x15
 12258 0d2f 00        		.byte	0x0
 12259 0d30 05        		.uleb128 0x5
 12260 0d31 02        		.byte	0x2
 12261 0d32 0000 0000 		.long	.LM366
GAS LISTING /tmp/ccvyM2DX.s 			page 220


 12262 0d36 15        		.byte	0x15
 12263 0d37 00        		.byte	0x0
 12264 0d38 05        		.uleb128 0x5
 12265 0d39 02        		.byte	0x2
 12266 0d3a 0000 0000 		.long	.LM367
 12267 0d3e 16        		.byte	0x16
 12268 0d3f 00        		.byte	0x0
 12269 0d40 05        		.uleb128 0x5
 12270 0d41 02        		.byte	0x2
 12271 0d42 0000 0000 		.long	.LM368
 12272 0d46 16        		.byte	0x16
 12273 0d47 00        		.byte	0x0
 12274 0d48 05        		.uleb128 0x5
 12275 0d49 02        		.byte	0x2
 12276 0d4a 0000 0000 		.long	.LM369
 12277 0d4e 15        		.byte	0x15
 12278 0d4f 00        		.byte	0x0
 12279 0d50 05        		.uleb128 0x5
 12280 0d51 02        		.byte	0x2
 12281 0d52 0000 0000 		.long	.LM370
 12282 0d56 16        		.byte	0x16
 12283 0d57 00        		.byte	0x0
 12284 0d58 05        		.uleb128 0x5
 12285 0d59 02        		.byte	0x2
 12286 0d5a 0000 0000 		.long	.LM371
 12287 0d5e 15        		.byte	0x15
 12288 0d5f 00        		.byte	0x0
 12289 0d60 05        		.uleb128 0x5
 12290 0d61 02        		.byte	0x2
 12291 0d62 0000 0000 		.long	.LM372
 12292 0d66 32        		.byte	0x32
 12293 0d67 00        		.byte	0x0
 12294 0d68 05        		.uleb128 0x5
 12295 0d69 02        		.byte	0x2
 12296 0d6a 0000 0000 		.long	.LM373
 12297 0d6e 16        		.byte	0x16
 12298 0d6f 00        		.byte	0x0
 12299 0d70 05        		.uleb128 0x5
 12300 0d71 02        		.byte	0x2
 12301 0d72 0000 0000 		.long	.LM374
 12302 0d76 19        		.byte	0x19
 12303 0d77 00        		.byte	0x0
 12304 0d78 05        		.uleb128 0x5
 12305 0d79 02        		.byte	0x2
 12306 0d7a 0000 0000 		.long	.LM375
 12307 0d7e 15        		.byte	0x15
 12308 0d7f 00        		.byte	0x0
 12309 0d80 05        		.uleb128 0x5
 12310 0d81 02        		.byte	0x2
 12311 0d82 0000 0000 		.long	.LM376
 12312 0d86 15        		.byte	0x15
 12313 0d87 00        		.byte	0x0
 12314 0d88 05        		.uleb128 0x5
 12315 0d89 02        		.byte	0x2
 12316 0d8a 0000 0000 		.long	.LM377
 12317 0d8e 16        		.byte	0x16
 12318 0d8f 00        		.byte	0x0
GAS LISTING /tmp/ccvyM2DX.s 			page 221


 12319 0d90 05        		.uleb128 0x5
 12320 0d91 02        		.byte	0x2
 12321 0d92 0000 0000 		.long	.LM378
 12322 0d96 15        		.byte	0x15
 12323 0d97 00        		.byte	0x0
 12324 0d98 05        		.uleb128 0x5
 12325 0d99 02        		.byte	0x2
 12326 0d9a 0000 0000 		.long	.LM379
 12327 0d9e 17        		.byte	0x17
 12328 0d9f 00        		.byte	0x0
 12329 0da0 05        		.uleb128 0x5
 12330 0da1 02        		.byte	0x2
 12331 0da2 0000 0000 		.long	.LM380
 12332 0da6 15        		.byte	0x15
 12333 0da7 00        		.byte	0x0
 12334 0da8 05        		.uleb128 0x5
 12335 0da9 02        		.byte	0x2
 12336 0daa 0000 0000 		.long	.LM381
 12337 0dae 15        		.byte	0x15
 12338 0daf 00        		.byte	0x0
 12339 0db0 05        		.uleb128 0x5
 12340 0db1 02        		.byte	0x2
 12341 0db2 0000 0000 		.long	.LM382
 12342 0db6 15        		.byte	0x15
 12343 0db7 00        		.byte	0x0
 12344 0db8 05        		.uleb128 0x5
 12345 0db9 02        		.byte	0x2
 12346 0dba 0000 0000 		.long	.LM383
 12347 0dbe 16        		.byte	0x16
 12348 0dbf 00        		.byte	0x0
 12349 0dc0 05        		.uleb128 0x5
 12350 0dc1 02        		.byte	0x2
 12351 0dc2 0000 0000 		.long	.LM384
 12352 0dc6 15        		.byte	0x15
 12353 0dc7 00        		.byte	0x0
 12354 0dc8 05        		.uleb128 0x5
 12355 0dc9 02        		.byte	0x2
 12356 0dca 0000 0000 		.long	.LM385
 12357 0dce 16        		.byte	0x16
 12358 0dcf 00        		.byte	0x0
 12359 0dd0 05        		.uleb128 0x5
 12360 0dd1 02        		.byte	0x2
 12361 0dd2 0000 0000 		.long	.LM386
 12362 0dd6 15        		.byte	0x15
 12363 0dd7 00        		.byte	0x0
 12364 0dd8 05        		.uleb128 0x5
 12365 0dd9 02        		.byte	0x2
 12366 0dda 0000 0000 		.long	.LM387
 12367 0dde 15        		.byte	0x15
 12368 0ddf 00        		.byte	0x0
 12369 0de0 05        		.uleb128 0x5
 12370 0de1 02        		.byte	0x2
 12371 0de2 0000 0000 		.long	.LM388
 12372 0de6 40        		.byte	0x40
 12373 0de7 00        		.byte	0x0
 12374 0de8 05        		.uleb128 0x5
 12375 0de9 02        		.byte	0x2
GAS LISTING /tmp/ccvyM2DX.s 			page 222


 12376 0dea 0000 0000 		.long	.LM389
 12377 0dee 17        		.byte	0x17
 12378 0def 00        		.byte	0x0
 12379 0df0 05        		.uleb128 0x5
 12380 0df1 02        		.byte	0x2
 12381 0df2 0000 0000 		.long	.LM390
 12382 0df6 18        		.byte	0x18
 12383 0df7 00        		.byte	0x0
 12384 0df8 05        		.uleb128 0x5
 12385 0df9 02        		.byte	0x2
 12386 0dfa 0000 0000 		.long	.LM391
 12387 0dfe 15        		.byte	0x15
 12388 0dff 00        		.byte	0x0
 12389 0e00 05        		.uleb128 0x5
 12390 0e01 02        		.byte	0x2
 12391 0e02 0000 0000 		.long	.LM392
 12392 0e06 17        		.byte	0x17
 12393 0e07 00        		.byte	0x0
 12394 0e08 05        		.uleb128 0x5
 12395 0e09 02        		.byte	0x2
 12396 0e0a 0000 0000 		.long	.LM393
 12397 0e0e 15        		.byte	0x15
 12398 0e0f 00        		.byte	0x0
 12399 0e10 05        		.uleb128 0x5
 12400 0e11 02        		.byte	0x2
 12401 0e12 0000 0000 		.long	.LM394
 12402 0e16 17        		.byte	0x17
 12403 0e17 00        		.byte	0x0
 12404 0e18 05        		.uleb128 0x5
 12405 0e19 02        		.byte	0x2
 12406 0e1a 0000 0000 		.long	.LM395
 12407 0e1e 03        		.byte	0x3
 12408 0e1f 47        		.sleb128 -57
 12409 0e20 01        		.byte	0x1
 12410 0e21 00        		.byte	0x0
 12411 0e22 05        		.uleb128 0x5
 12412 0e23 02        		.byte	0x2
 12413 0e24 0000 0000 		.long	.LM396
 12414 0e28 16        		.byte	0x16
 12415 0e29 00        		.byte	0x0
 12416 0e2a 05        		.uleb128 0x5
 12417 0e2b 02        		.byte	0x2
 12418 0e2c 0000 0000 		.long	.LM397
 12419 0e30 15        		.byte	0x15
 12420 0e31 00        		.byte	0x0
 12421 0e32 05        		.uleb128 0x5
 12422 0e33 02        		.byte	0x2
 12423 0e34 0000 0000 		.long	.LM398
 12424 0e38 18        		.byte	0x18
 12425 0e39 00        		.byte	0x0
 12426 0e3a 05        		.uleb128 0x5
 12427 0e3b 02        		.byte	0x2
 12428 0e3c 0000 0000 		.long	.LM399
 12429 0e40 15        		.byte	0x15
 12430 0e41 00        		.byte	0x0
 12431 0e42 05        		.uleb128 0x5
 12432 0e43 02        		.byte	0x2
GAS LISTING /tmp/ccvyM2DX.s 			page 223


 12433 0e44 0000 0000 		.long	.LM400
 12434 0e48 16        		.byte	0x16
 12435 0e49 00        		.byte	0x0
 12436 0e4a 05        		.uleb128 0x5
 12437 0e4b 02        		.byte	0x2
 12438 0e4c 0000 0000 		.long	.LM401
 12439 0e50 16        		.byte	0x16
 12440 0e51 00        		.byte	0x0
 12441 0e52 05        		.uleb128 0x5
 12442 0e53 02        		.byte	0x2
 12443 0e54 0000 0000 		.long	.LM402
 12444 0e58 23        		.byte	0x23
 12445 0e59 00        		.byte	0x0
 12446 0e5a 05        		.uleb128 0x5
 12447 0e5b 02        		.byte	0x2
 12448 0e5c 0000 0000 		.long	.LM403
 12449 0e60 15        		.byte	0x15
 12450 0e61 00        		.byte	0x0
 12451 0e62 05        		.uleb128 0x5
 12452 0e63 02        		.byte	0x2
 12453 0e64 0000 0000 		.long	.LM404
 12454 0e68 17        		.byte	0x17
 12455 0e69 00        		.byte	0x0
 12456 0e6a 05        		.uleb128 0x5
 12457 0e6b 02        		.byte	0x2
 12458 0e6c 0000 0000 		.long	.LM405
 12459 0e70 15        		.byte	0x15
 12460 0e71 00        		.byte	0x0
 12461 0e72 05        		.uleb128 0x5
 12462 0e73 02        		.byte	0x2
 12463 0e74 0000 0000 		.long	.LM406
 12464 0e78 15        		.byte	0x15
 12465 0e79 00        		.byte	0x0
 12466 0e7a 05        		.uleb128 0x5
 12467 0e7b 02        		.byte	0x2
 12468 0e7c 0000 0000 		.long	.LM407
 12469 0e80 03        		.byte	0x3
 12470 0e81 AE7F      		.sleb128 -82
 12471 0e83 01        		.byte	0x1
 12472 0e84 00        		.byte	0x0
 12473 0e85 05        		.uleb128 0x5
 12474 0e86 02        		.byte	0x2
 12475 0e87 0000 0000 		.long	.LM408
 12476 0e8b 15        		.byte	0x15
 12477 0e8c 00        		.byte	0x0
 12478 0e8d 05        		.uleb128 0x5
 12479 0e8e 02        		.byte	0x2
 12480 0e8f 0000 0000 		.long	.LM409
 12481 0e93 15        		.byte	0x15
 12482 0e94 00        		.byte	0x0
 12483 0e95 05        		.uleb128 0x5
 12484 0e96 02        		.byte	0x2
 12485 0e97 0000 0000 		.long	.LM410
 12486 0e9b 12        		.byte	0x12
 12487 0e9c 00        		.byte	0x0
 12488 0e9d 05        		.uleb128 0x5
 12489 0e9e 02        		.byte	0x2
GAS LISTING /tmp/ccvyM2DX.s 			page 224


 12490 0e9f 0000 0000 		.long	.LM411
 12491 0ea3 1B        		.byte	0x1b
 12492 0ea4 00        		.byte	0x0
 12493 0ea5 05        		.uleb128 0x5
 12494 0ea6 02        		.byte	0x2
 12495 0ea7 0000 0000 		.long	.LM412
 12496 0eab 15        		.byte	0x15
 12497 0eac 00        		.byte	0x0
 12498 0ead 05        		.uleb128 0x5
 12499 0eae 02        		.byte	0x2
 12500 0eaf 0000 0000 		.long	.LM413
 12501 0eb3 16        		.byte	0x16
 12502 0eb4 00        		.byte	0x0
 12503 0eb5 05        		.uleb128 0x5
 12504 0eb6 02        		.byte	0x2
 12505 0eb7 0000 0000 		.long	.LM414
 12506 0ebb 17        		.byte	0x17
 12507 0ebc 00        		.byte	0x0
 12508 0ebd 05        		.uleb128 0x5
 12509 0ebe 02        		.byte	0x2
 12510 0ebf 0000 0000 		.long	.LM415
 12511 0ec3 16        		.byte	0x16
 12512 0ec4 00        		.byte	0x0
 12513 0ec5 05        		.uleb128 0x5
 12514 0ec6 02        		.byte	0x2
 12515 0ec7 0000 0000 		.long	.LM416
 12516 0ecb 0A        		.byte	0xa
 12517 0ecc 00        		.byte	0x0
 12518 0ecd 05        		.uleb128 0x5
 12519 0ece 02        		.byte	0x2
 12520 0ecf 0000 0000 		.long	.LM417
 12521 0ed3 20        		.byte	0x20
 12522 0ed4 00        		.byte	0x0
 12523 0ed5 05        		.uleb128 0x5
 12524 0ed6 02        		.byte	0x2
 12525 0ed7 0000 0000 		.long	.LM418
 12526 0edb 15        		.byte	0x15
 12527 0edc 00        		.byte	0x0
 12528 0edd 05        		.uleb128 0x5
 12529 0ede 02        		.byte	0x2
 12530 0edf 0000 0000 		.long	.LM419
 12531 0ee3 16        		.byte	0x16
 12532 0ee4 00        		.byte	0x0
 12533 0ee5 05        		.uleb128 0x5
 12534 0ee6 02        		.byte	0x2
 12535 0ee7 0000 0000 		.long	.Letext0
 12536 0eeb 00        		.byte	0x0
 12537 0eec 01        		.uleb128 0x1
 12538 0eed 01        		.byte	0x1
 12539               	.LELT0:
 12540 0eee 1600 0000 		.section	.debug_str,"MS",@progbits,1
 12540      0200 1000 
 12540      0000 0101 
 12540      FB0E 0A00 
 12540      0101 0101 
 12541               	.LASF224:
 12542 0000 6469 7265 		.string	"direction"
GAS LISTING /tmp/ccvyM2DX.s 			page 225


 12542      6374 696F 
 12542      6E00 
 12543               	.LASF127:
 12544 000a 5045 524C 		.string	"PERL"
 12544      00
 12545               	.LASF139:
 12546 000f 5045 5242 		.string	"PERBUF"
 12546      5546 00
 12547               	.LASF15:
 12548 0016 4343 505F 		.string	"CCP_IOREG_gc"
 12548      494F 5245 
 12548      475F 6763 
 12548      00
 12549               	.LASF196:
 12550 0023 5443 5F43 		.string	"TC_CLKSEL_DIV2_gc"
 12550      4C4B 5345 
 12550      4C5F 4449 
 12550      5632 5F67 
 12550      6300 
 12551               	.LASF239:
 12552 0035 6D6F 746F 		.string	"motor_pin_4"
 12552      725F 7069 
 12552      6E5F 3400 
 12553               	.LASF326:
 12554 0041 6D61 696E 		.string	"main.c"
 12554      2E63 00
 12555               	.LASF85:
 12556 0048 434F 4D50 		.string	"COMP0"
 12556      3000 
 12557               	.LASF182:
 12558 004e 7265 7365 		.string	"reserved_0x22"
 12558      7276 6564 
 12558      5F30 7832 
 12558      3200 
 12559               	.LASF183:
 12560 005c 7265 7365 		.string	"reserved_0x23"
 12560      7276 6564 
 12560      5F30 7832 
 12560      3300 
 12561               	.LASF184:
 12562 006a 7265 7365 		.string	"reserved_0x24"
 12562      7276 6564 
 12562      5F30 7832 
 12562      3400 
 12563               	.LASF185:
 12564 0078 7265 7365 		.string	"reserved_0x25"
 12564      7276 6564 
 12564      5F30 7832 
 12564      3500 
 12565               	.LASF60:
 12566 0086 504C 4C43 		.string	"PLLCTRL"
 12566      5452 4C00 
 12567               	.LASF102:
 12568 008e 494E 5431 		.string	"INT1MASK"
 12568      4D41 534B 
 12568      00
 12569               	.LASF270:
GAS LISTING /tmp/ccvyM2DX.s 			page 226


 12570 0097 636C 6B43 		.string	"clkCtrl"
 12570      7472 6C00 
 12571               	.LASF142:
 12572 009f 4343 4142 		.string	"CCABUF"
 12572      5546 00
 12573               	.LASF158:
 12574 00a6 7265 7365 		.string	"reserved_0x05"
 12574      7276 6564 
 12574      5F30 7830 
 12574      3500 
 12575               	.LASF27:
 12576 00b4 434C 4B5F 		.string	"CLK_SCLKSEL_RC32K_gc"
 12576      5343 4C4B 
 12576      5345 4C5F 
 12576      5243 3332 
 12576      4B5F 6763 
 12577               	.LASF83:
 12578 00c9 4341 4C41 		.string	"CALA"
 12578      00
 12579               	.LASF84:
 12580 00ce 4341 4C42 		.string	"CALB"
 12580      00
 12581               	.LASF52:
 12582 00d3 434C 4B5F 		.string	"CLK_RTCSRC_RCOSC_gc"
 12582      5254 4353 
 12582      5243 5F52 
 12582      434F 5343 
 12582      5F67 6300 
 12583               	.LASF30:
 12584 00e7 434C 4B5F 		.string	"CLK_SCLKSEL_t"
 12584      5343 4C4B 
 12584      5345 4C5F 
 12584      7400 
 12585               	.LASF159:
 12586 00f5 494E 5443 		.string	"INTCTRLA"
 12586      5452 4C41 
 12586      00
 12587               	.LASF160:
 12588 00fe 494E 5443 		.string	"INTCTRLB"
 12588      5452 4C42 
 12588      00
 12589               	.LASF113:
 12590 0107 5049 4E36 		.string	"PIN6CTRL"
 12590      4354 524C 
 12590      00
 12591               	.LASF327:
 12592 0110 2F68      		.ascii	"/h"
 12593 0112 6F6D 652F 		.string	"ome/dgonz/projects/gitHome/TinyArmTroller/tinyArmTrollerFirmware"
 12593      6467 6F6E 
 12593      7A2F 7072 
 12593      6F6A 6563 
 12593      7473 2F67 
 12594               	.LASF106:
 12595 0153 7265 7365 		.string	"reserved_0x0F"
 12595      7276 6564 
 12595      5F30 7830 
 12595      4600 
GAS LISTING /tmp/ccvyM2DX.s 			page 227


 12596               	.LASF281:
 12597 0161 626C 696E 		.string	"blink"
 12597      6B00 
 12598               	.LASF54:
 12599 0167 434C 4B5F 		.string	"CLK_RTCSRC_t"
 12599      5254 4353 
 12599      5243 5F74 
 12599      00
 12600               	.LASF243:
 12601 0174 5F5F 7469 		.string	"__ticks_dc"
 12601      636B 735F 
 12601      6463 00
 12602               	.LASF215:
 12603 017f 5553 4152 		.string	"USART_struct"
 12603      545F 7374 
 12603      7275 6374 
 12603      00
 12604               	.LASF186:
 12605 018c 7265 7365 		.string	"reserved_0x30"
 12605      7276 6564 
 12605      5F30 7833 
 12605      3000 
 12606               	.LASF187:
 12607 019a 7265 7365 		.string	"reserved_0x31"
 12607      7276 6564 
 12607      5F30 7833 
 12607      3100 
 12608               	.LASF188:
 12609 01a8 7265 7365 		.string	"reserved_0x32"
 12609      7276 6564 
 12609      5F30 7833 
 12609      3200 
 12610               	.LASF189:
 12611 01b6 7265 7365 		.string	"reserved_0x33"
 12611      7276 6564 
 12611      5F30 7833 
 12611      3300 
 12612               	.LASF307:
 12613 01c4 7570 6461 		.string	"update"
 12613      7465 00
 12614               	.LASF191:
 12615 01cb 7265 7365 		.string	"reserved_0x35"
 12615      7276 6564 
 12615      5F30 7833 
 12615      3500 
 12616               	.LASF81:
 12617 01d9 4446 4C4C 		.string	"DFLL_struct"
 12617      5F73 7472 
 12617      7563 7400 
 12618               	.LASF116:
 12619 01e5 504F 5254 		.string	"PORT_OPC_enum"
 12619      5F4F 5043 
 12619      5F65 6E75 
 12619      6D00 
 12620               	.LASF37:
 12621 01f3 434C 4B5F 		.string	"CLK_PSADIV_32_gc"
 12621      5053 4144 
GAS LISTING /tmp/ccvyM2DX.s 			page 228


 12621      4956 5F33 
 12621      325F 6763 
 12621      00
 12622               	.LASF36:
 12623 0204 434C 4B5F 		.string	"CLK_PSADIV_16_gc"
 12623      5053 4144 
 12623      4956 5F31 
 12623      365F 6763 
 12623      00
 12624               	.LASF225:
 12625 0215 7370 6565 		.string	"speed"
 12625      6400 
 12626               	.LASF24:
 12627 021b 434C 4B5F 		.string	"CLK_SCLKSEL_enum"
 12627      5343 4C4B 
 12627      5345 4C5F 
 12627      656E 756D 
 12627      00
 12628               	.LASF9:
 12629 022c 756E 6765 		.string	"unget"
 12629      7400 
 12630               	.LASF240:
 12631 0232 6C61 7374 		.string	"last_step_time"
 12631      5F73 7465 
 12631      705F 7469 
 12631      6D65 00
 12632               	.LASF304:
 12633 0241 6D61 7845 		.string	"maxError"
 12633      7272 6F72 
 12633      00
 12634               	.LASF130:
 12635 024a 4343 4148 		.string	"CCAH"
 12635      00
 12636               	.LASF303:
 12637 024f 6572 726F 		.string	"error"
 12637      7200 
 12638               	.LASF74:
 12639 0255 4F53 435F 		.string	"OSC_XOSCSEL_XTAL_16KCLK_gc"
 12639      584F 5343 
 12639      5345 4C5F 
 12639      5854 414C 
 12639      5F31 364B 
 12640               	.LASF129:
 12641 0270 4343 414C 		.string	"CCAL"
 12641      00
 12642               	.LASF199:
 12643 0275 5443 5F43 		.string	"TC_CLKSEL_DIV64_gc"
 12643      4C4B 5345 
 12643      4C5F 4449 
 12643      5636 345F 
 12643      6763 00
 12644               	.LASF91:
 12645 0288 494E 5450 		.string	"INTPRI"
 12645      5249 00
 12646               	.LASF120:
 12647 028f 504F 5254 		.string	"PORT_OPC_PULLUP_gc"
 12647      5F4F 5043 
GAS LISTING /tmp/ccvyM2DX.s 			page 229


 12647      5F50 554C 
 12647      4C55 505F 
 12647      6763 00
 12648               	.LASF296:
 12649 02a2 7661 6C30 		.string	"val0"
 12649      00
 12650               	.LASF297:
 12651 02a7 7661 6C31 		.string	"val1"
 12651      00
 12652               	.LASF298:
 12653 02ac 7661 6C32 		.string	"val2"
 12653      00
 12654               	.LASF299:
 12655 02b1 7661 6C33 		.string	"val3"
 12655      00
 12656               	.LASF300:
 12657 02b6 7661 6C34 		.string	"val4"
 12657      00
 12658               	.LASF301:
 12659 02bb 7661 6C35 		.string	"val5"
 12659      00
 12660               	.LASF23:
 12661 02c0 4343 505F 		.string	"CCP_enum"
 12661      656E 756D 
 12661      00
 12662               	.LASF216:
 12663 02c9 4441 5441 		.string	"DATA"
 12663      00
 12664               	.LASF55:
 12665 02ce 4F53 435F 		.string	"OSC_struct"
 12665      7374 7275 
 12665      6374 00
 12666               	.LASF107:
 12667 02d9 5049 4E30 		.string	"PIN0CTRL"
 12667      4354 524C 
 12667      00
 12668               	.LASF79:
 12669 02e2 4F53 435F 		.string	"OSC_PLLSRC_XOSC_gc"
 12669      504C 4C53 
 12669      5243 5F58 
 12669      4F53 435F 
 12669      6763 00
 12670               	.LASF39:
 12671 02f5 434C 4B5F 		.string	"CLK_PSADIV_128_gc"
 12671      5053 4144 
 12671      4956 5F31 
 12671      3238 5F67 
 12671      6300 
 12672               	.LASF42:
 12673 0307 434C 4B5F 		.string	"CLK_PSADIV_t"
 12673      5053 4144 
 12673      4956 5F74 
 12673      00
 12674               	.LASF48:
 12675 0314 434C 4B5F 		.string	"CLK_PSBCDIV_t"
 12675      5053 4243 
 12675      4449 565F 
GAS LISTING /tmp/ccvyM2DX.s 			page 230


 12675      7400 
 12676               	.LASF171:
 12677 0322 7265 7365 		.string	"reserved_0x15"
 12677      7276 6564 
 12677      5F30 7831 
 12677      3500 
 12678               	.LASF269:
 12679 0330 434C 4B53 		.string	"CLKSYS_Main_ClockSource_Select"
 12679      5953 5F4D 
 12679      6169 6E5F 
 12679      436C 6F63 
 12679      6B53 6F75 
 12680               	.LASF285:
 12681 034f 706F 7274 		.string	"portNum"
 12681      4E75 6D00 
 12682               	.LASF63:
 12683 0357 4F53 435F 		.string	"OSC_FRQRANGE_enum"
 12683      4652 5152 
 12683      414E 4745 
 12683      5F65 6E75 
 12683      6D00 
 12684               	.LASF226:
 12685 0369 7374 6570 		.string	"step_delay"
 12685      5F64 656C 
 12685      6179 00
 12686               	.LASF277:
 12687 0374 5F5F 7665 		.string	"__vector_14"
 12687      6374 6F72 
 12687      5F31 3400 
 12688               	.LASF99:
 12689 0380 4F55 5454 		.string	"OUTTGL"
 12689      474C 00
 12690               	.LASF21:
 12691 0387 5254 4343 		.string	"RTCCTRL"
 12691      5452 4C00 
 12692               	.LASF51:
 12693 038f 434C 4B5F 		.string	"CLK_RTCSRC_TOSC_gc"
 12693      5254 4353 
 12693      5243 5F54 
 12693      4F53 435F 
 12693      6763 00
 12694               	.LASF5:
 12695 03a2 7569 6E74 		.string	"uint32_t"
 12695      3332 5F74 
 12695      00
 12696               	.LASF132:
 12697 03ab 4343 4248 		.string	"CCBH"
 12697      00
 12698               	.LASF273:
 12699 03b0 636C 6B53 		.string	"clkSource"
 12699      6F75 7263 
 12699      6500 
 12700               	.LASF180:
 12701 03ba 7265 7365 		.string	"reserved_0x1E"
 12701      7276 6564 
 12701      5F30 7831 
 12701      4500 
GAS LISTING /tmp/ccvyM2DX.s 			page 231


 12702               	.LASF131:
 12703 03c8 4343 424C 		.string	"CCBL"
 12703      00
 12704               	.LASF68:
 12705 03cd 4F53 435F 		.string	"OSC_FRQRANGE_t"
 12705      4652 5152 
 12705      414E 4745 
 12705      5F74 00
 12706               	.LASF95:
 12707 03dc 4449 5243 		.string	"DIRCLR"
 12707      4C52 00
 12708               	.LASF17:
 12709 03e3 434C 4B5F 		.string	"CLK_struct"
 12709      7374 7275 
 12709      6374 00
 12710               	.LASF311:
 12711 03ee 7661 6C73 		.string	"vals"
 12711      00
 12712               	.LASF317:
 12713 03f3 6D79 7374 		.string	"mystdout"
 12713      646F 7574 
 12713      00
 12714               	.LASF306:
 12715 03fc 5F5F 6275 		.string	"__builtin_avr_delay_cycles"
 12715      696C 7469 
 12715      6E5F 6176 
 12715      725F 6465 
 12715      6C61 795F 
 12716               	.LASF20:
 12717 0417 4C4F 434B 		.string	"LOCK"
 12717      00
 12718               	.LASF330:
 12719 041c 7365 7453 		.string	"setSpeed"
 12719      7065 6564 
 12719      00
 12720               	.LASF38:
 12721 0425 434C 4B5F 		.string	"CLK_PSADIV_64_gc"
 12721      5053 4144 
 12721      4956 5F36 
 12721      345F 6763 
 12721      00
 12722               	.LASF251:
 12723 0436 7361 7665 		.string	"saved_sreg"
 12723      645F 7372 
 12723      6567 00
 12724               	.LASF105:
 12725 0441 7265 7365 		.string	"reserved_0x0E"
 12725      7276 6564 
 12725      5F30 7830 
 12725      4500 
 12726               	.LASF141:
 12727 044f 4343 4142 		.string	"CCABUFH"
 12727      5546 4800 
 12728               	.LASF28:
 12729 0457 434C 4B5F 		.string	"CLK_SCLKSEL_XOSC_gc"
 12729      5343 4C4B 
 12729      5345 4C5F 
GAS LISTING /tmp/ccvyM2DX.s 			page 232


 12729      584F 5343 
 12729      5F67 6300 
 12730               	.LASF140:
 12731 046b 4343 4142 		.string	"CCABUFL"
 12731      5546 4C00 
 12732               	.LASF203:
 12733 0473 5443 5F43 		.string	"TC_CLKSEL_EVCH1_gc"
 12733      4C4B 5345 
 12733      4C5F 4556 
 12733      4348 315F 
 12733      6763 00
 12734               	.LASF310:
 12735 0486 7561 7274 		.string	"uart_getchar"
 12735      5F67 6574 
 12735      6368 6172 
 12735      00
 12736               	.LASF272:
 12737 0493 434C 4B53 		.string	"CLKSYS_AutoCalibration_Enable"
 12737      5953 5F41 
 12737      7574 6F43 
 12737      616C 6962 
 12737      7261 7469 
 12738               	.LASF8:
 12739 04b1 6C6F 6E67 		.string	"long long unsigned int"
 12739      206C 6F6E 
 12739      6720 756E 
 12739      7369 676E 
 12739      6564 2069 
 12740               	.LASF321:
 12741 04c8 4C65 6674 		.string	"Left_Wrist"
 12741      5F57 7269 
 12741      7374 00
 12742               	.LASF45:
 12743 04d3 434C 4B5F 		.string	"CLK_PSBCDIV_1_2_gc"
 12743      5053 4243 
 12743      4449 565F 
 12743      315F 325F 
 12743      6763 00
 12744               	.LASF76:
 12745 04e6 4F53 435F 		.string	"OSC_PLLSRC_enum"
 12745      504C 4C53 
 12745      5243 5F65 
 12745      6E75 6D00 
 12746               	.LASF134:
 12747 04f6 4343 4348 		.string	"CCCH"
 12747      00
 12748               	.LASF33:
 12749 04fb 434C 4B5F 		.string	"CLK_PSADIV_2_gc"
 12749      5053 4144 
 12749      4956 5F32 
 12749      5F67 6300 
 12750               	.LASF133:
 12751 050b 4343 434C 		.string	"CCCL"
 12751      00
 12752               	.LASF255:
 12753 0510 6672 6571 		.string	"freqRange"
 12753      5261 6E67 
GAS LISTING /tmp/ccvyM2DX.s 			page 233


 12753      6500 
 12754               	.LASF53:
 12755 051a 434C 4B5F 		.string	"CLK_RTCSRC_TOSC32_gc"
 12755      5254 4353 
 12755      5243 5F54 
 12755      4F53 4333 
 12755      325F 6763 
 12756               	.LASF229:
 12757 052f 7374 6570 		.string	"step_number"
 12757      5F6E 756D 
 12757      6265 7200 
 12758               	.LASF323:
 12759 053b 4772 6970 		.string	"Gripper"
 12759      7065 7200 
 12760               	.LASF92:
 12761 0543 504D 4943 		.string	"PMIC_t"
 12761      5F74 00
 12762               	.LASF250:
 12763 054a 7661 6C75 		.string	"value"
 12763      6500 
 12764               	.LASF59:
 12765 0550 5243 3332 		.string	"RC32KCAL"
 12765      4B43 414C 
 12765      00
 12766               	.LASF274:
 12767 0559 6578 7452 		.string	"extReference"
 12767      6566 6572 
 12767      656E 6365 
 12767      00
 12768               	.LASF72:
 12769 0566 4F53 435F 		.string	"OSC_XOSCSEL_XTAL_256CLK_gc"
 12769      584F 5343 
 12769      5345 4C5F 
 12769      5854 414C 
 12769      5F32 3536 
 12770               	.LASF231:
 12771 0581 6D61 7853 		.string	"maxSteps"
 12771      7465 7073 
 12771      00
 12772               	.LASF312:
 12773 058a 5F5F 696F 		.string	"__iob"
 12773      6200 
 12774               	.LASF136:
 12775 0590 4343 4448 		.string	"CCDH"
 12775      00
 12776               	.LASF233:
 12777 0595 6D6F 746F 		.string	"motor_pin_1"
 12777      725F 7069 
 12777      6E5F 3100 
 12778               	.LASF235:
 12779 05a1 6D6F 746F 		.string	"motor_pin_2"
 12779      725F 7069 
 12779      6E5F 3200 
 12780               	.LASF237:
 12781 05ad 6D6F 746F 		.string	"motor_pin_3"
 12781      725F 7069 
 12781      6E5F 3300 
GAS LISTING /tmp/ccvyM2DX.s 			page 234


 12782               	.LASF135:
 12783 05b9 4343 444C 		.string	"CCDL"
 12783      00
 12784               	.LASF258:
 12785 05be 5F42 6F6F 		.string	"_Bool"
 12785      6C00 
 12786               	.LASF259:
 12787 05c4 434C 4B53 		.string	"CLKSYS_PLL_Config"
 12787      5953 5F50 
 12787      4C4C 5F43 
 12787      6F6E 6669 
 12787      6700 
 12788               	.LASF164:
 12789 05d6 4354 524C 		.string	"CTRLGSET"
 12789      4753 4554 
 12789      00
 12790               	.LASF94:
 12791 05df 4449 5253 		.string	"DIRSET"
 12791      4554 00
 12792               	.LASF282:
 12793 05e6 6D79 5661 		.string	"myVal"
 12793      6C00 
 12794               	.LASF103:
 12795 05ec 494E 5446 		.string	"INTFLAGS"
 12795      4C41 4753 
 12795      00
 12796               	.LASF10:
 12797 05f5 666C 6167 		.string	"flags"
 12797      7300 
 12798               	.LASF61:
 12799 05fb 4446 4C4C 		.string	"DFLLCTRL"
 12799      4354 524C 
 12799      00
 12800               	.LASF246:
 12801 0604 7374 6570 		.string	"stepper"
 12801      7065 7200 
 12802               	.LASF331:
 12803 060c 7369 676E 		.string	"signum"
 12803      756D 00
 12804               	.LASF223:
 12805 0613 6D6F 746F 		.string	"motorNumber"
 12805      724E 756D 
 12805      6265 7200 
 12806               	.LASF319:
 12807 061f 5368 6F75 		.string	"Shoulder"
 12807      6C64 6572 
 12807      00
 12808               	.LASF150:
 12809 0628 4343 4442 		.string	"CCDBUFH"
 12809      5546 4800 
 12810               	.LASF278:
 12811 0630 6465 6C61 		.string	"delay_ms"
 12811      795F 6D73 
 12811      00
 12812               	.LASF118:
 12813 0639 504F 5254 		.string	"PORT_OPC_BUSKEEPER_gc"
 12813      5F4F 5043 
GAS LISTING /tmp/ccvyM2DX.s 			page 235


 12813      5F42 5553 
 12813      4B45 4550 
 12813      4552 5F67 
 12814               	.LASF101:
 12815 064f 494E 5430 		.string	"INT0MASK"
 12815      4D41 534B 
 12815      00
 12816               	.LASF115:
 12817 0658 504F 5254 		.string	"PORT_t"
 12817      5F74 00
 12818               	.LASF149:
 12819 065f 4343 4442 		.string	"CCDBUFL"
 12819      5546 4C00 
 12820               	.LASF253:
 12821 0667 4343 5057 		.string	"CCPWrite"
 12821      7269 7465 
 12821      00
 12822               	.LASF228:
 12823 0670 7069 6E5F 		.string	"pin_count"
 12823      636F 756E 
 12823      7400 
 12824               	.LASF205:
 12825 067a 5443 5F43 		.string	"TC_CLKSEL_EVCH3_gc"
 12825      4C4B 5345 
 12825      4C5F 4556 
 12825      4348 335F 
 12825      6763 00
 12826               	.LASF58:
 12827 068d 584F 5343 		.string	"XOSCFAIL"
 12827      4641 494C 
 12827      00
 12828               	.LASF73:
 12829 0696 4F53 435F 		.string	"OSC_XOSCSEL_XTAL_1KCLK_gc"
 12829      584F 5343 
 12829      5345 4C5F 
 12829      5854 414C 
 12829      5F31 4B43 
 12830               	.LASF208:
 12831 06b0 5443 5F43 		.string	"TC_CLKSEL_EVCH6_gc"
 12831      4C4B 5345 
 12831      4C5F 4556 
 12831      4348 365F 
 12831      6763 00
 12832               	.LASF117:
 12833 06c3 504F 5254 		.string	"PORT_OPC_TOTEM_gc"
 12833      5F4F 5043 
 12833      5F54 4F54 
 12833      454D 5F67 
 12833      6300 
 12834               	.LASF13:
 12835 06d5 6368 6172 		.string	"char"
 12835      00
 12836               	.LASF276:
 12837 06da 434C 4B53 		.string	"CLKSYS_Configuration_Lock"
 12837      5953 5F43 
 12837      6F6E 6669 
 12837      6775 7261 
GAS LISTING /tmp/ccvyM2DX.s 			page 236


 12837      7469 6F6E 
 12838               	.LASF325:
 12839 06f4 474E 5520 		.string	"GNU C 4.5.3"
 12839      4320 342E 
 12839      352E 3300 
 12840               	.LASF112:
 12841 0700 5049 4E35 		.string	"PIN5CTRL"
 12841      4354 524C 
 12841      00
 12842               	.LASF34:
 12843 0709 434C 4B5F 		.string	"CLK_PSADIV_4_gc"
 12843      5053 4144 
 12843      4956 5F34 
 12843      5F67 6300 
 12844               	.LASF179:
 12845 0719 7265 7365 		.string	"reserved_0x1D"
 12845      7276 6564 
 12845      5F30 7831 
 12845      4400 
 12846               	.LASF190:
 12847 0727 7265 7365 		.string	"reserved_0x34"
 12847      7276 6564 
 12847      5F30 7833 
 12847      3400 
 12848               	.LASF262:
 12849 0735 6F73 6353 		.string	"oscSel"
 12849      656C 00
 12850               	.LASF287:
 12851 073c 636C 6561 		.string	"clearPin"
 12851      7250 696E 
 12851      00
 12852               	.LASF265:
 12853 0745 5053 4166 		.string	"PSAfactor"
 12853      6163 746F 
 12853      7200 
 12854               	.LASF19:
 12855 074f 5053 4354 		.string	"PSCTRL"
 12855      524C 00
 12856               	.LASF7:
 12857 0756 6C6F 6E67 		.string	"long long int"
 12857      206C 6F6E 
 12857      6720 696E 
 12857      7400 
 12858               	.LASF93:
 12859 0764 504F 5254 		.string	"PORT_struct"
 12859      5F73 7472 
 12859      7563 7400 
 12860               	.LASF4:
 12861 0770 7569 6E74 		.string	"uint8_t"
 12861      385F 7400 
 12862               	.LASF163:
 12863 0778 4354 524C 		.string	"CTRLGCLR"
 12863      4743 4C52 
 12863      00
 12864               	.LASF283:
 12865 0781 626C 696E 		.string	"blinkN"
 12865      6B4E 00
GAS LISTING /tmp/ccvyM2DX.s 			page 237


 12866               	.LASF66:
 12867 0788 4F53 435F 		.string	"OSC_FRQRANGE_9TO12_gc"
 12867      4652 5152 
 12867      414E 4745 
 12867      5F39 544F 
 12867      3132 5F67 
 12868               	.LASF109:
 12869 079e 5049 4E32 		.string	"PIN2CTRL"
 12869      4354 524C 
 12869      00
 12870               	.LASF268:
 12871 07a7 434C 4B53 		.string	"CLKSYS_Disable"
 12871      5953 5F44 
 12871      6973 6162 
 12871      6C65 00
 12872               	.LASF279:
 12873 07b6 636F 6D70 		.string	"compareArray"
 12873      6172 6541 
 12873      7272 6179 
 12873      00
 12874               	.LASF41:
 12875 07c3 434C 4B5F 		.string	"CLK_PSADIV_512_gc"
 12875      5053 4144 
 12875      4956 5F35 
 12875      3132 5F67 
 12875      6300 
 12876               	.LASF194:
 12877 07d5 5443 5F43 		.string	"TC_CLKSEL_OFF_gc"
 12877      4C4B 5345 
 12877      4C5F 4F46 
 12877      465F 6763 
 12877      00
 12878               	.LASF193:
 12879 07e6 5443 5F43 		.string	"TC_CLKSEL_enum"
 12879      4C4B 5345 
 12879      4C5F 656E 
 12879      756D 00
 12880               	.LASF241:
 12881 07f5 5F5F 7469 		.string	"__ticks"
 12881      636B 7300 
 12882               	.LASF220:
 12883 07fd 5553 4152 		.string	"USART_t"
 12883      545F 7400 
 12884               	.LASF320:
 12885 0805 456C 626F 		.string	"Elbow"
 12885      7700 
 12886               	.LASF314:
 12887 080b 676F 616C 		.string	"goal"
 12887      00
 12888               	.LASF121:
 12889 0810 504F 5254 		.string	"PORT_OPC_WIREDOR_gc"
 12889      5F4F 5043 
 12889      5F57 4952 
 12889      4544 4F52 
 12889      5F67 6300 
 12890               	.LASF26:
 12891 0824 434C 4B5F 		.string	"CLK_SCLKSEL_RC32M_gc"
GAS LISTING /tmp/ccvyM2DX.s 			page 238


 12891      5343 4C4B 
 12891      5345 4C5F 
 12891      5243 3332 
 12891      4D5F 6763 
 12892               	.LASF80:
 12893 0839 4F53 435F 		.string	"OSC_PLLSRC_t"
 12893      504C 4C53 
 12893      5243 5F74 
 12893      00
 12894               	.LASF315:
 12895 0846 706F 7365 		.string	"pose"
 12895      00
 12896               	.LASF316:
 12897 084b 656C 6170 		.string	"elapsedMillis"
 12897      7365 644D 
 12897      696C 6C69 
 12897      7300 
 12898               	.LASF227:
 12899 0859 6E75 6D62 		.string	"number_of_steps"
 12899      6572 5F6F 
 12899      665F 7374 
 12899      6570 7300 
 12900               	.LASF222:
 12901 0869 5374 6570 		.string	"Stepper"
 12901      7065 7200 
 12902               	.LASF47:
 12903 0871 434C 4B5F 		.string	"CLK_PSBCDIV_2_2_gc"
 12903      5053 4243 
 12903      4449 565F 
 12903      325F 325F 
 12903      6763 00
 12904               	.LASF165:
 12905 0884 5445 4D50 		.string	"TEMP"
 12905      00
 12906               	.LASF147:
 12907 0889 4343 4342 		.string	"CCCBUFH"
 12907      5546 4800 
 12908               	.LASF146:
 12909 0891 4343 4342 		.string	"CCCBUFL"
 12909      5546 4C00 
 12910               	.LASF128:
 12911 0899 5045 5248 		.string	"PERH"
 12911      00
 12912               	.LASF86:
 12913 089e 434F 4D50 		.string	"COMP1"
 12913      3100 
 12914               	.LASF87:
 12915 08a4 434F 4D50 		.string	"COMP2"
 12915      3200 
 12916               	.LASF207:
 12917 08aa 5443 5F43 		.string	"TC_CLKSEL_EVCH5_gc"
 12917      4C4B 5345 
 12917      4C5F 4556 
 12917      4348 355F 
 12917      6763 00
 12918               	.LASF22:
 12919 08bd 434C 4B5F 		.string	"CLK_t"
GAS LISTING /tmp/ccvyM2DX.s 			page 239


 12919      7400 
 12920               	.LASF275:
 12921 08c3 434C 4B53 		.string	"CLKSYS_XOSC_FailureDetection_Enable"
 12921      5953 5F58 
 12921      4F53 435F 
 12921      4661 696C 
 12921      7572 6544 
 12922               	.LASF290:
 12923 08e7 7374 6570 		.string	"step"
 12923      00
 12924               	.LASF16:
 12925 08ec 5F5F 6669 		.string	"__file"
 12925      6C65 00
 12926               	.LASF11:
 12927 08f3 7369 7A65 		.string	"size"
 12927      00
 12928               	.LASF305:
 12929 08f8 6D61 696E 		.string	"mainLoop"
 12929      4C6F 6F70 
 12929      00
 12930               	.LASF100:
 12931 0901 494E 5443 		.string	"INTCTRL"
 12931      5452 4C00 
 12932               	.LASF31:
 12933 0909 434C 4B5F 		.string	"CLK_PSADIV_enum"
 12933      5053 4144 
 12933      4956 5F65 
 12933      6E75 6D00 
 12934               	.LASF284:
 12935 0919 7365 7450 		.string	"setPin"
 12935      696E 00
 12936               	.LASF221:
 12937 0920 5F5F 756E 		.string	"__unknown__"
 12937      6B6E 6F77 
 12937      6E5F 5F00 
 12938               	.LASF67:
 12939 092c 4F53 435F 		.string	"OSC_FRQRANGE_12TO16_gc"
 12939      4652 5152 
 12939      414E 4745 
 12939      5F31 3254 
 12939      4F31 365F 
 12940               	.LASF40:
 12941 0943 434C 4B5F 		.string	"CLK_PSADIV_256_gc"
 12941      5053 4144 
 12941      4956 5F32 
 12941      3536 5F67 
 12941      6300 
 12942               	.LASF201:
 12943 0955 5443 5F43 		.string	"TC_CLKSEL_DIV1024_gc"
 12943      4C4B 5345 
 12943      4C5F 4449 
 12943      5631 3032 
 12943      345F 6763 
 12944               	.LASF213:
 12945 096a 5443 5F4F 		.string	"TC_OVFINTLVL_MED_gc"
 12945      5646 494E 
 12945      544C 564C 
GAS LISTING /tmp/ccvyM2DX.s 			page 240


 12945      5F4D 4544 
 12945      5F67 6300 
 12946               	.LASF46:
 12947 097e 434C 4B5F 		.string	"CLK_PSBCDIV_4_1_gc"
 12947      5053 4243 
 12947      4449 565F 
 12947      345F 315F 
 12947      6763 00
 12948               	.LASF197:
 12949 0991 5443 5F43 		.string	"TC_CLKSEL_DIV4_gc"
 12949      4C4B 5345 
 12949      4C5F 4449 
 12949      5634 5F67 
 12949      6300 
 12950               	.LASF145:
 12951 09a3 4343 4242 		.string	"CCBBUF"
 12951      5546 00
 12952               	.LASF96:
 12953 09aa 4449 5254 		.string	"DIRTGL"
 12953      474C 00
 12954               	.LASF43:
 12955 09b1 434C 4B5F 		.string	"CLK_PSBCDIV_enum"
 12955      5053 4243 
 12955      4449 565F 
 12955      656E 756D 
 12955      00
 12956               	.LASF260:
 12957 09c2 636C 6F63 		.string	"clockSource"
 12957      6B53 6F75 
 12957      7263 6500 
 12958               	.LASF153:
 12959 09ce 4354 524C 		.string	"CTRLA"
 12959      4100 
 12960               	.LASF154:
 12961 09d4 4354 524C 		.string	"CTRLB"
 12961      4200 
 12962               	.LASF155:
 12963 09da 4354 524C 		.string	"CTRLC"
 12963      4300 
 12964               	.LASF156:
 12965 09e0 4354 524C 		.string	"CTRLD"
 12965      4400 
 12966               	.LASF157:
 12967 09e6 4354 524C 		.string	"CTRLE"
 12967      4500 
 12968               	.LASF292:
 12969 09ec 7374 6570 		.string	"steps_left"
 12969      735F 6C65 
 12969      6674 00
 12970               	.LASF119:
 12971 09f7 504F 5254 		.string	"PORT_OPC_PULLDOWN_gc"
 12971      5F4F 5043 
 12971      5F50 554C 
 12971      4C44 4F57 
 12971      4E5F 6763 
 12972               	.LASF289:
 12973 0a0c 7468 6973 		.string	"thisStep"
GAS LISTING /tmp/ccvyM2DX.s 			page 241


 12973      5374 6570 
 12973      00
 12974               	.LASF29:
 12975 0a15 434C 4B5F 		.string	"CLK_SCLKSEL_PLL_gc"
 12975      5343 4C4B 
 12975      5345 4C5F 
 12975      504C 4C5F 
 12975      6763 00
 12976               	.LASF202:
 12977 0a28 5443 5F43 		.string	"TC_CLKSEL_EVCH0_gc"
 12977      4C4B 5345 
 12977      4C5F 4556 
 12977      4348 305F 
 12977      6763 00
 12978               	.LASF97:
 12979 0a3b 4F55 5453 		.string	"OUTSET"
 12979      4554 00
 12980               	.LASF211:
 12981 0a42 5443 5F4F 		.string	"TC_OVFINTLVL_OFF_gc"
 12981      5646 494E 
 12981      544C 564C 
 12981      5F4F 4646 
 12981      5F67 6300 
 12982               	.LASF302:
 12983 0a56 6D6F 7665 		.string	"moveToGoal"
 12983      546F 476F 
 12983      616C 00
 12984               	.LASF90:
 12985 0a61 504D 4943 		.string	"PMIC_struct"
 12985      5F73 7472 
 12985      7563 7400 
 12986               	.LASF332:
 12987 0a6d 7561 7274 		.string	"uart_init"
 12987      5F69 6E69 
 12987      7400 
 12988               	.LASF44:
 12989 0a77 434C 4B5F 		.string	"CLK_PSBCDIV_1_1_gc"
 12989      5053 4243 
 12989      4449 565F 
 12989      315F 315F 
 12989      6763 00
 12990               	.LASF3:
 12991 0a8a 6C6F 6E67 		.string	"long int"
 12991      2069 6E74 
 12991      00
 12992               	.LASF32:
 12993 0a93 434C 4B5F 		.string	"CLK_PSADIV_1_gc"
 12993      5053 4144 
 12993      4956 5F31 
 12993      5F67 6300 
 12994               	.LASF236:
 12995 0aa3 6D6F 746F 		.string	"motor_port_3"
 12995      725F 706F 
 12995      7274 5F33 
 12995      00
 12996               	.LASF257:
 12997 0ab0 786F 7363 		.string	"xoscModeSelection"
GAS LISTING /tmp/ccvyM2DX.s 			page 242


 12997      4D6F 6465 
 12997      5365 6C65 
 12997      6374 696F 
 12997      6E00 
 12998               	.LASF209:
 12999 0ac2 5443 5F43 		.string	"TC_CLKSEL_EVCH7_gc"
 12999      4C4B 5345 
 12999      4C5F 4556 
 12999      4348 375F 
 12999      6763 00
 13000               	.LASF89:
 13001 0ad5 4446 4C4C 		.string	"DFLL_t"
 13001      5F74 00
 13002               	.LASF324:
 13003 0adc 6465 6275 		.string	"debugFlag"
 13003      6746 6C61 
 13003      6700 
 13004               	.LASF261:
 13005 0ae6 6661 6374 		.string	"factor"
 13005      6F72 00
 13006               	.LASF192:
 13007 0aed 5443 305F 		.string	"TC0_t"
 13007      7400 
 13008               	.LASF114:
 13009 0af3 5049 4E37 		.string	"PIN7CTRL"
 13009      4354 524C 
 13009      00
 13010               	.LASF200:
 13011 0afc 5443 5F43 		.string	"TC_CLKSEL_DIV256_gc"
 13011      4C4B 5345 
 13011      4C5F 4449 
 13011      5632 3536 
 13011      5F67 6300 
 13012               	.LASF210:
 13013 0b10 5443 5F4F 		.string	"TC_OVFINTLVL_enum"
 13013      5646 494E 
 13013      544C 564C 
 13013      5F65 6E75 
 13013      6D00 
 13014               	.LASF35:
 13015 0b22 434C 4B5F 		.string	"CLK_PSADIV_8_gc"
 13015      5053 4144 
 13015      4956 5F38 
 13015      5F67 6300 
 13016               	.LASF65:
 13017 0b32 4F53 435F 		.string	"OSC_FRQRANGE_2TO9_gc"
 13017      4652 5152 
 13017      414E 4745 
 13017      5F32 544F 
 13017      395F 6763 
 13018               	.LASF75:
 13019 0b47 4F53 435F 		.string	"OSC_XOSCSEL_t"
 13019      584F 5343 
 13019      5345 4C5F 
 13019      7400 
 13020               	.LASF328:
 13021 0b55 5F64 656C 		.string	"_delay_us"
GAS LISTING /tmp/ccvyM2DX.s 			page 243


 13021      6179 5F75 
 13021      7300 
 13022               	.LASF294:
 13023 0b5f 6D79 4469 		.string	"myDir"
 13023      7200 
 13024               	.LASF214:
 13025 0b65 5443 5F4F 		.string	"TC_OVFINTLVL_HI_gc"
 13025      5646 494E 
 13025      544C 564C 
 13025      5F48 495F 
 13025      6763 00
 13026               	.LASF125:
 13027 0b78 434E 544C 		.string	"CNTL"
 13027      00
 13028               	.LASF14:
 13029 0b7d 4343 505F 		.string	"CCP_SPM_gc"
 13029      5350 4D5F 
 13029      6763 00
 13030               	.LASF230:
 13031 0b88 6D69 6E53 		.string	"minSteps"
 13031      7465 7073 
 13031      00
 13032               	.LASF2:
 13033 0b91 756E 7369 		.string	"unsigned int"
 13033      676E 6564 
 13033      2069 6E74 
 13033      00
 13034               	.LASF318:
 13035 0b9e 4261 7365 		.string	"Base"
 13035      00
 13036               	.LASF111:
 13037 0ba3 5049 4E34 		.string	"PIN4CTRL"
 13037      4354 524C 
 13037      00
 13038               	.LASF151:
 13039 0bac 4343 4442 		.string	"CCDBUF"
 13039      5546 00
 13040               	.LASF247:
 13041 0bb3 7768 6174 		.string	"whatSpeed"
 13041      5370 6565 
 13041      6400 
 13042               	.LASF162:
 13043 0bbd 4354 524C 		.string	"CTRLFSET"
 13043      4653 4554 
 13043      00
 13044               	.LASF308:
 13045 0bc6 696E 6974 		.string	"init"
 13045      00
 13046               	.LASF98:
 13047 0bcb 4F55 5443 		.string	"OUTCLR"
 13047      4C52 00
 13048               	.LASF122:
 13049 0bd2 504F 5254 		.string	"PORT_OPC_WIREDAND_gc"
 13049      5F4F 5043 
 13049      5F57 4952 
 13049      4544 414E 
 13049      445F 6763 
GAS LISTING /tmp/ccvyM2DX.s 			page 244


 13050               	.LASF152:
 13051 0be7 5443 305F 		.string	"TC0_struct"
 13051      7374 7275 
 13051      6374 00
 13052               	.LASF6:
 13053 0bf2 6C6F 6E67 		.string	"long unsigned int"
 13053      2075 6E73 
 13053      6967 6E65 
 13053      6420 696E 
 13053      7400 
 13054               	.LASF256:
 13055 0c04 6C6F 7750 		.string	"lowPower32kHz"
 13055      6F77 6572 
 13055      3332 6B48 
 13055      7A00 
 13056               	.LASF249:
 13057 0c12 6164 6472 		.string	"address"
 13057      6573 7300 
 13058               	.LASF295:
 13059 0c1a 6368 616E 		.string	"changeGoal"
 13059      6765 476F 
 13059      616C 00
 13060               	.LASF204:
 13061 0c25 5443 5F43 		.string	"TC_CLKSEL_EVCH2_gc"
 13061      4C4B 5345 
 13061      4C5F 4556 
 13061      4348 325F 
 13061      6763 00
 13062               	.LASF57:
 13063 0c38 584F 5343 		.string	"XOSCCTRL"
 13063      4354 524C 
 13063      00
 13064               	.LASF69:
 13065 0c41 4F53 435F 		.string	"OSC_XOSCSEL_enum"
 13065      584F 5343 
 13065      5345 4C5F 
 13065      656E 756D 
 13065      00
 13066               	.LASF322:
 13067 0c52 5269 6768 		.string	"Right_Wrist"
 13067      745F 5772 
 13067      6973 7400 
 13068               	.LASF25:
 13069 0c5e 434C 4B5F 		.string	"CLK_SCLKSEL_RC2M_gc"
 13069      5343 4C4B 
 13069      5345 4C5F 
 13069      5243 324D 
 13069      5F67 6300 
 13070               	.LASF271:
 13071 0c72 434C 4B53 		.string	"CLKSYS_RTC_ClockSource_Enable"
 13071      5953 5F52 
 13071      5443 5F43 
 13071      6C6F 636B 
 13071      536F 7572 
 13072               	.LASF70:
 13073 0c90 4F53 435F 		.string	"OSC_XOSCSEL_EXTCLK_gc"
 13073      584F 5343 
GAS LISTING /tmp/ccvyM2DX.s 			page 245


 13073      5345 4C5F 
 13073      4558 5443 
 13073      4C4B 5F67 
 13074               	.LASF212:
 13075 0ca6 5443 5F4F 		.string	"TC_OVFINTLVL_LO_gc"
 13075      5646 494E 
 13075      544C 564C 
 13075      5F4C 4F5F 
 13075      6763 00
 13076               	.LASF138:
 13077 0cb9 5045 5242 		.string	"PERBUFH"
 13077      5546 4800 
 13078               	.LASF254:
 13079 0cc1 434C 4B53 		.string	"CLKSYS_XOSC_Config"
 13079      5953 5F58 
 13079      4F53 435F 
 13079      436F 6E66 
 13079      6967 00
 13080               	.LASF137:
 13081 0cd4 5045 5242 		.string	"PERBUFL"
 13081      5546 4C00 
 13082               	.LASF110:
 13083 0cdc 5049 4E33 		.string	"PIN3CTRL"
 13083      4354 524C 
 13083      00
 13084               	.LASF1:
 13085 0ce5 756E 7369 		.string	"unsigned char"
 13085      676E 6564 
 13085      2063 6861 
 13085      7200 
 13086               	.LASF62:
 13087 0cf3 4F53 435F 		.string	"OSC_t"
 13087      7400 
 13088               	.LASF71:
 13089 0cf9 4F53 435F 		.string	"OSC_XOSCSEL_32KHz_gc"
 13089      584F 5343 
 13089      5345 4C5F 
 13089      3332 4B48 
 13089      7A5F 6763 
 13090               	.LASF280:
 13091 0d0e 436F 6E66 		.string	"Config32MHzClock"
 13091      6967 3332 
 13091      4D48 7A43 
 13091      6C6F 636B 
 13091      00
 13092               	.LASF218:
 13093 0d1f 4241 5544 		.string	"BAUDCTRLA"
 13093      4354 524C 
 13093      4100 
 13094               	.LASF219:
 13095 0d29 4241 5544 		.string	"BAUDCTRLB"
 13095      4354 524C 
 13095      4200 
 13096               	.LASF245:
 13097 0d33 5F5F 7573 		.string	"__us"
 13097      00
 13098               	.LASF293:
GAS LISTING /tmp/ccvyM2DX.s 			page 246


 13099 0d38 7374 6570 		.string	"stepOne"
 13099      4F6E 6500 
 13100               	.LASF329:
 13101 0d40 6D69 6C6C 		.string	"millis"
 13101      6973 00
 13102               	.LASF288:
 13103 0d47 7374 6570 		.string	"stepMotor"
 13103      4D6F 746F 
 13103      7200 
 13104               	.LASF123:
 13105 0d51 504F 5254 		.string	"PORT_OPC_WIREDORPULL_gc"
 13105      5F4F 5043 
 13105      5F57 4952 
 13105      4544 4F52 
 13105      5055 4C4C 
 13106               	.LASF313:
 13107 0d69 7374 6174 		.string	"state"
 13107      6500 
 13108               	.LASF195:
 13109 0d6f 5443 5F43 		.string	"TC_CLKSEL_DIV1_gc"
 13109      4C4B 5345 
 13109      4C5F 4449 
 13109      5631 5F67 
 13109      6300 
 13110               	.LASF77:
 13111 0d81 4F53 435F 		.string	"OSC_PLLSRC_RC2M_gc"
 13111      504C 4C53 
 13111      5243 5F52 
 13111      4332 4D5F 
 13111      6763 00
 13112               	.LASF161:
 13113 0d94 4354 524C 		.string	"CTRLFCLR"
 13113      4643 4C52 
 13113      00
 13114               	.LASF144:
 13115 0d9d 4343 4242 		.string	"CCBBUFH"
 13115      5546 4800 
 13116               	.LASF232:
 13117 0da5 6D6F 746F 		.string	"motor_port_1"
 13117      725F 706F 
 13117      7274 5F31 
 13117      00
 13118               	.LASF143:
 13119 0db2 4343 4242 		.string	"CCBBUFL"
 13119      5546 4C00 
 13120               	.LASF234:
 13121 0dba 6D6F 746F 		.string	"motor_port_2"
 13121      725F 706F 
 13121      7274 5F32 
 13121      00
 13122               	.LASF82:
 13123 0dc7 7265 7365 		.string	"reserved_0x01"
 13123      7276 6564 
 13123      5F30 7830 
 13123      3100 
 13124               	.LASF217:
 13125 0dd5 7265 7365 		.string	"reserved_0x02"
GAS LISTING /tmp/ccvyM2DX.s 			page 247


 13125      7276 6564 
 13125      5F30 7830 
 13125      3200 
 13126               	.LASF238:
 13127 0de3 6D6F 746F 		.string	"motor_port_4"
 13127      725F 706F 
 13127      7274 5F34 
 13127      00
 13128               	.LASF148:
 13129 0df0 4343 4342 		.string	"CCCBUF"
 13129      5546 00
 13130               	.LASF88:
 13131 0df7 7265 7365 		.string	"reserved_0x07"
 13131      7276 6564 
 13131      5F30 7830 
 13131      3700 
 13132               	.LASF333:
 13133 0e05 7561 7274 		.string	"uart_putchar"
 13133      5F70 7574 
 13133      6368 6172 
 13133      00
 13134               	.LASF286:
 13135 0e12 7069 6E4E 		.string	"pinNum"
 13135      756D 00
 13136               	.LASF266:
 13137 0e19 5053 4243 		.string	"PSBCfactor"
 13137      6661 6374 
 13137      6F72 00
 13138               	.LASF104:
 13139 0e24 7265 7365 		.string	"reserved_0x0D"
 13139      7276 6564 
 13139      5F30 7830 
 13139      4400 
 13140               	.LASF0:
 13141 0e32 7369 676E 		.string	"signed char"
 13141      6564 2063 
 13141      6861 7200 
 13142               	.LASF198:
 13143 0e3e 5443 5F43 		.string	"TC_CLKSEL_DIV8_gc"
 13143      4C4B 5345 
 13143      4C5F 4449 
 13143      5638 5F67 
 13143      6300 
 13144               	.LASF309:
 13145 0e50 6D61 696E 		.string	"main"
 13145      00
 13146               	.LASF242:
 13147 0e55 5F5F 746D 		.string	"__tmp"
 13147      7000 
 13148               	.LASF50:
 13149 0e5b 434C 4B5F 		.string	"CLK_RTCSRC_ULP_gc"
 13149      5254 4353 
 13149      5243 5F55 
 13149      4C50 5F67 
 13149      6300 
 13150               	.LASF264:
 13151 0e6d 434C 4B53 		.string	"CLKSYS_Prescalers_Config"
GAS LISTING /tmp/ccvyM2DX.s 			page 248


 13151      5953 5F50 
 13151      7265 7363 
 13151      616C 6572 
 13151      735F 436F 
 13152               	.LASF206:
 13153 0e86 5443 5F43 		.string	"TC_CLKSEL_EVCH4_gc"
 13153      4C4B 5345 
 13153      4C5F 4556 
 13153      4348 345F 
 13153      6763 00
 13154               	.LASF12:
 13155 0e99 7564 6174 		.string	"udata"
 13155      6100 
 13156               	.LASF244:
 13157 0e9f 646F 7562 		.string	"double"
 13157      6C65 00
 13158               	.LASF78:
 13159 0ea6 4F53 435F 		.string	"OSC_PLLSRC_RC32M_gc"
 13159      504C 4C53 
 13159      5243 5F52 
 13159      4333 324D 
 13159      5F67 6300 
 13160               	.LASF49:
 13161 0eba 434C 4B5F 		.string	"CLK_RTCSRC_enum"
 13161      5254 4353 
 13161      5243 5F65 
 13161      6E75 6D00 
 13162               	.LASF56:
 13163 0eca 5354 4154 		.string	"STATUS"
 13163      5553 00
 13164               	.LASF166:
 13165 0ed1 7265 7365 		.string	"reserved_0x10"
 13165      7276 6564 
 13165      5F30 7831 
 13165      3000 
 13166               	.LASF167:
 13167 0edf 7265 7365 		.string	"reserved_0x11"
 13167      7276 6564 
 13167      5F30 7831 
 13167      3100 
 13168               	.LASF168:
 13169 0eed 7265 7365 		.string	"reserved_0x12"
 13169      7276 6564 
 13169      5F30 7831 
 13169      3200 
 13170               	.LASF169:
 13171 0efb 7265 7365 		.string	"reserved_0x13"
 13171      7276 6564 
 13171      5F30 7831 
 13171      3300 
 13172               	.LASF170:
 13173 0f09 7265 7365 		.string	"reserved_0x14"
 13173      7276 6564 
 13173      5F30 7831 
 13173      3400 
 13174               	.LASF263:
 13175 0f17 636C 6B45 		.string	"clkEnabled"
GAS LISTING /tmp/ccvyM2DX.s 			page 249


 13175      6E61 626C 
 13175      6564 00
 13176               	.LASF172:
 13177 0f22 7265 7365 		.string	"reserved_0x16"
 13177      7276 6564 
 13177      5F30 7831 
 13177      3600 
 13178               	.LASF173:
 13179 0f30 7265 7365 		.string	"reserved_0x17"
 13179      7276 6564 
 13179      5F30 7831 
 13179      3700 
 13180               	.LASF174:
 13181 0f3e 7265 7365 		.string	"reserved_0x18"
 13181      7276 6564 
 13181      5F30 7831 
 13181      3800 
 13182               	.LASF175:
 13183 0f4c 7265 7365 		.string	"reserved_0x19"
 13183      7276 6564 
 13183      5F30 7831 
 13183      3900 
 13184               	.LASF108:
 13185 0f5a 5049 4E31 		.string	"PIN1CTRL"
 13185      4354 524C 
 13185      00
 13186               	.LASF126:
 13187 0f63 434E 5448 		.string	"CNTH"
 13187      00
 13188               	.LASF176:
 13189 0f68 7265 7365 		.string	"reserved_0x1A"
 13189      7276 6564 
 13189      5F30 7831 
 13189      4100 
 13190               	.LASF177:
 13191 0f76 7265 7365 		.string	"reserved_0x1B"
 13191      7276 6564 
 13191      5F30 7831 
 13191      4200 
 13192               	.LASF178:
 13193 0f84 7265 7365 		.string	"reserved_0x1C"
 13193      7276 6564 
 13193      5F30 7831 
 13193      4300 
 13194               	.LASF124:
 13195 0f92 504F 5254 		.string	"PORT_OPC_WIREDANDPULL_gc"
 13195      5F4F 5043 
 13195      5F57 4952 
 13195      4544 414E 
 13195      4450 554C 
 13196               	.LASF181:
 13197 0fab 7265 7365 		.string	"reserved_0x1F"
 13197      7276 6564 
 13197      5F30 7831 
 13197      4600 
 13198               	.LASF64:
 13199 0fb9 4F53 435F 		.string	"OSC_FRQRANGE_04TO2_gc"
GAS LISTING /tmp/ccvyM2DX.s 			page 250


 13199      4652 5152 
 13199      414E 4745 
 13199      5F30 3454 
 13199      4F32 5F67 
 13200               	.LASF291:
 13201 0fcf 7374 6570 		.string	"steps_to_move"
 13201      735F 746F 
 13201      5F6D 6F76 
 13201      6500 
 13202               	.LASF267:
 13203 0fdd 5053 636F 		.string	"PSconfig"
 13203      6E66 6967 
 13203      00
 13204               	.LASF248:
 13205 0fe6 7374 7265 		.string	"stream"
 13205      616D 00
 13206               	.LASF18:
 13207 0fed 4354 524C 		.string	"CTRL"
 13207      00
 13208               	.LASF252:
 13209 0ff2 746D 7041 		.string	"tmpAddr"
 13209      6464 7200 
 13210               	.global __do_copy_data
 13211               	.global __do_clear_bss
GAS LISTING /tmp/ccvyM2DX.s 			page 251


DEFINED SYMBOLS
                            *ABS*:00000000 main.c
     /tmp/ccvyM2DX.s:2      *ABS*:0000003f __SREG__
     /tmp/ccvyM2DX.s:3      *ABS*:0000003e __SP_H__
     /tmp/ccvyM2DX.s:4      *ABS*:0000003d __SP_L__
     /tmp/ccvyM2DX.s:5      *ABS*:00000034 __CCP__
     /tmp/ccvyM2DX.s:6      *ABS*:00000000 __tmp_reg__
     /tmp/ccvyM2DX.s:7      *ABS*:00000001 __zero_reg__
     /tmp/ccvyM2DX.s:17     .text:00000000 uart_putchar
     /tmp/ccvyM2DX.s:53     .text:00000022 CCPWrite
     /tmp/ccvyM2DX.s:104    .text:0000004c CLKSYS_XOSC_Config
     /tmp/ccvyM2DX.s:134    .text:00000062 CLKSYS_PLL_Config
     /tmp/ccvyM2DX.s:158    .text:0000006e CLKSYS_Disable
     /tmp/ccvyM2DX.s:186    .text:00000082 CLKSYS_Prescalers_Config
     /tmp/ccvyM2DX.s:210    .text:0000008e CLKSYS_Main_ClockSource_Select
     /tmp/ccvyM2DX.s:253    .text:000000b4 CLKSYS_RTC_ClockSource_Enable
     /tmp/ccvyM2DX.s:276    .text:000000c4 CLKSYS_AutoCalibration_Enable
     /tmp/ccvyM2DX.s:326    .text:000000fe CLKSYS_XOSC_FailureDetection_Enable
     /tmp/ccvyM2DX.s:345    .text:0000010a CLKSYS_Configuration_Lock
     /tmp/ccvyM2DX.s:364    .text:00000116 __vector_14
     /tmp/ccvyM2DX.s:4033   .bss:0000001a elapsedMillis
     /tmp/ccvyM2DX.s:407    .text:00000160 delay_ms
     /tmp/ccvyM2DX.s:448    .text:0000017c compareArray
     /tmp/ccvyM2DX.s:533    .text:000001f6 signum
     /tmp/ccvyM2DX.s:567    .text:00000212 Config32MHzClock
     /tmp/ccvyM2DX.s:598    .text:00000230 millis
     /tmp/ccvyM2DX.s:619    .text:00000246 blink
     /tmp/ccvyM2DX.s:662    .text:00000278 blinkN
     /tmp/ccvyM2DX.s:707    .text:000002a2 setPin
     /tmp/ccvyM2DX.s:995    .text:000003f0 clearPin
     /tmp/ccvyM2DX.s:1283   .text:0000053e setSpeed
     /tmp/ccvyM2DX.s:1334   .text:0000058a stepMotor
     /tmp/ccvyM2DX.s:1515   .text:000006a4 step
     /tmp/ccvyM2DX.s:4027   .bss:0000000e pose
     /tmp/ccvyM2DX.s:4164   .data:00000130 Gripper
     /tmp/ccvyM2DX.s:1829   .text:000008c0 stepOne
     /tmp/ccvyM2DX.s:2057   .text:00000a4c changeGoal
     /tmp/ccvyM2DX.s:4021   .bss:00000002 goal
     /tmp/ccvyM2DX.s:2367   .text:00000c8c moveToGoal
     /tmp/ccvyM2DX.s:4039   .data:0000007c Base
     /tmp/ccvyM2DX.s:4064   .data:000000a0 Shoulder
     /tmp/ccvyM2DX.s:4089   .data:000000c4 Elbow
     /tmp/ccvyM2DX.s:4114   .data:000000e8 Right_Wrist
     /tmp/ccvyM2DX.s:4139   .data:0000010c Left_Wrist
     /tmp/ccvyM2DX.s:3354   .text:000013e2 mainLoop
     /tmp/ccvyM2DX.s:4008   .data:0000007a state
     /tmp/ccvyM2DX.s:3889   .text:00001768 update
     /tmp/ccvyM2DX.s:3715   .text:000016aa init
     /tmp/ccvyM2DX.s:3827   .text:0000172e main
     /tmp/ccvyM2DX.s:4188   .data:00000154 mystdout
     /tmp/ccvyM2DX.s:3856   .text:00001750 uart_getchar
     /tmp/ccvyM2DX.s:4015   .bss:00000000 debugFlag

UNDEFINED SYMBOLS
__divmodsi4
__divmodhi4
__floatsisf
GAS LISTING /tmp/ccvyM2DX.s 			page 252


__mulsf3
__subsf3
__gtsf2
__ltsf2
__fixsfsi
__addsf3
puts
printf
__divsf3
__iob
__do_copy_data
__do_clear_bss
