GAS LISTING /tmp/ccjciOO6.s 			page 1


   1               		.file	"main.c"
   2               	__SP_H__ = 0x3e
   3               	__SP_L__ = 0x3d
   4               	__SREG__ = 0x3f
   5               	__CCP__ = 0x34
   6               	__tmp_reg__ = 0
   7               	__zero_reg__ = 1
   8               		.text
   9               	.Ltext0:
  10               		.cfi_sections	.debug_frame
  11               		.type	uart_putchar, @function
  12               	uart_putchar:
  13               	.LFB23:
  14               		.file 1 "main.c"
   1:main.c        **** /* TinyArmTroller Firmware v0.02
   2:main.c        ****  * by Daniel J. Gonzalez and Azureviolin, modified from Arduino stepper.cpp V.04
   3:main.c        ****  * July 2012, yameb.blogspot.com
   4:main.c        ****  * 
   5:main.c        ****  * TODO: 
   6:main.c        ****  *  - Finish mainLoop() implementation
   7:main.c        ****  *  - - Initialization/localize State
   8:main.c        ****  *  - - - Use single switch, don't mount
   9:main.c        ****  *  - - - mount multiple switches
  10:main.c        ****  *  - - - Finish kinematic characterization
  11:main.c        ****  *  - Implement USB
  12:main.c        ****  * 
  13:main.c        ****  * Configuration:
  14:main.c        ****  *  - Port A0-D3 are Stepper Outputs
  15:main.c        ****  *  - Port D4 is Gripper Limit Switch Input. 
  16:main.c        ****  *  - Port D6 is USB D-
  17:main.c        ****  *  - Port D7 is USB D+
  18:main.c        ****  *  - Port D5, E0 - E3 Unused I/O
  19:main.c        ****  */
  20:main.c        **** 
  21:main.c        **** #include "main.h"
  22:main.c        **** 
  23:main.c        **** ISR(TCC0_OVF_vect){
  24:main.c        **** 	elapsedMillis++;
  25:main.c        **** }
  26:main.c        **** 
  27:main.c        **** static int uart_putchar (char c, FILE *stream) { 
  15               		.loc 1 27 0
  16               		.cfi_startproc
  17               	.LVL0:
  18 0000 CF93      		push r28
  19               	.LCFI0:
  20               		.cfi_def_cfa_offset 3
  21               		.cfi_offset 28, -2
  22               	/* prologue: function */
  23               	/* frame size = 0 */
  24               	/* stack size = 1 */
  25               	.L__stack_usage = 1
  26 0002 C82F      		mov r28,r24
  28:main.c        ****     if (c == '\n') 
  27               		.loc 1 28 0
  28 0004 8A30      		cpi r24,lo8(10)
  29 0006 01F4      		brne .L3
GAS LISTING /tmp/ccjciOO6.s 			page 2


  29:main.c        ****         uart_putchar('\r', stream); 
  30               		.loc 1 29 0
  31 0008 8DE0      		ldi r24,lo8(13)
  32               	.LVL1:
  33 000a 0E94 0000 		call uart_putchar
  34               	.LVL2:
  35               	.L3:
  30:main.c        **** 
  31:main.c        ****     // Wait for the transmit buffer to be empty 
  32:main.c        ****     while ( !( USARTD1.STATUS & USART_DREIF_bm) ); 
  36               		.loc 1 32 0 discriminator 1
  37 000e 8091 B109 		lds r24,2481
  38 0012 85FF      		sbrs r24,5
  39 0014 00C0      		rjmp .L3
  33:main.c        **** 
  34:main.c        ****     // Put our character into the transmit buffer 
  35:main.c        ****     USARTD1.DATA = c; 
  40               		.loc 1 35 0
  41 0016 C093 B009 		sts 2480,r28
  36:main.c        **** 
  37:main.c        ****     return 0; 
  38:main.c        **** } 
  42               		.loc 1 38 0
  43 001a 80E0      		ldi r24,0
  44 001c 90E0      		ldi r25,0
  45               	/* epilogue start */
  46 001e CF91      		pop r28
  47               	.LVL3:
  48 0020 0895      		ret
  49               		.cfi_endproc
  50               	.LFE23:
  51               		.size	uart_putchar, .-uart_putchar
  52               	.global	CCPWrite
  53               		.type	CCPWrite, @function
  54               	CCPWrite:
  55               	.LFB12:
  56               		.file 2 "requiredFiles/clksys_driver.c"
   1:requiredFiles/clksys_driver.c **** /* This file has been prepared for Doxygen automatic documentation generation.*/
   2:requiredFiles/clksys_driver.c **** /*! \file *********************************************************************
   3:requiredFiles/clksys_driver.c ****  *
   4:requiredFiles/clksys_driver.c ****  * \brief  XMEGA Clock System driver source file.
   5:requiredFiles/clksys_driver.c ****  *
   6:requiredFiles/clksys_driver.c ****  *      This file contains the function implementations for the XMEGA Clock
   7:requiredFiles/clksys_driver.c ****  *      System driver.
   8:requiredFiles/clksys_driver.c ****  *
   9:requiredFiles/clksys_driver.c ****  *      The driver is not intended for size and/or speed critical code, since
  10:requiredFiles/clksys_driver.c ****  *      most functions are just a few lines of code, and the function call
  11:requiredFiles/clksys_driver.c ****  *      overhead would decrease code performance. The driver is intended for
  12:requiredFiles/clksys_driver.c ****  *      rapid prototyping and documentation purposes for getting started with
  13:requiredFiles/clksys_driver.c ****  *      the XMEGA Clock System.
  14:requiredFiles/clksys_driver.c ****  *
  15:requiredFiles/clksys_driver.c ****  *      For size and/or speed critical code, it is recommended to copy the
  16:requiredFiles/clksys_driver.c ****  *      function contents directly into your application instead of making
  17:requiredFiles/clksys_driver.c ****  *      a function call.
  18:requiredFiles/clksys_driver.c ****  *
  19:requiredFiles/clksys_driver.c ****  *      Several functions use the following construct:
  20:requiredFiles/clksys_driver.c ****  *          "some_register = ... | (some_parameter ? SOME_BIT_bm : 0) | ..."
GAS LISTING /tmp/ccjciOO6.s 			page 3


  21:requiredFiles/clksys_driver.c ****  *      Although the use of the ternary operator ( if ? then : else ) is
  22:requiredFiles/clksys_driver.c ****  *      discouraged, in some occasions the operator makes it possible to
  23:requiredFiles/clksys_driver.c ****  *      write pretty clean and neat code. In this driver, the construct is
  24:requiredFiles/clksys_driver.c ****  *      used to set or not set a configuration bit based on a boolean input
  25:requiredFiles/clksys_driver.c ****  *      parameter, such as the "some_parameter" in the example above.
  26:requiredFiles/clksys_driver.c ****  *
  27:requiredFiles/clksys_driver.c ****  * \par Application note:
  28:requiredFiles/clksys_driver.c ****  *      AVR1003: Using the XMEGA Clock System
  29:requiredFiles/clksys_driver.c ****  *
  30:requiredFiles/clksys_driver.c ****  * \par Documentation
  31:requiredFiles/clksys_driver.c ****  *      For comprehensive code documentation, supported compilers, compiler
  32:requiredFiles/clksys_driver.c ****  *      settings and supported devices see readme.html
  33:requiredFiles/clksys_driver.c ****  *
  34:requiredFiles/clksys_driver.c ****  * \author
  35:requiredFiles/clksys_driver.c ****  *      Atmel Corporation: http://www.atmel.com \n
  36:requiredFiles/clksys_driver.c ****  *      Support email: avr@atmel.com
  37:requiredFiles/clksys_driver.c ****  *
  38:requiredFiles/clksys_driver.c ****  * $Revision: 2771 $
  39:requiredFiles/clksys_driver.c ****  * $Date: 2009-09-11 11:54:26 +0200 (fr, 11 sep 2009) $  \n
  40:requiredFiles/clksys_driver.c ****  *
  41:requiredFiles/clksys_driver.c ****  * Copyright (c) 2008, Atmel Corporation All rights reserved.
  42:requiredFiles/clksys_driver.c ****  *
  43:requiredFiles/clksys_driver.c ****  * Redistribution and use in source and binary forms, with or without
  44:requiredFiles/clksys_driver.c ****  * modification, are permitted provided that the following conditions are met:
  45:requiredFiles/clksys_driver.c ****  *
  46:requiredFiles/clksys_driver.c ****  * 1. Redistributions of source code must retain the above copyright notice,
  47:requiredFiles/clksys_driver.c ****  * this list of conditions and the following disclaimer.
  48:requiredFiles/clksys_driver.c ****  *
  49:requiredFiles/clksys_driver.c ****  * 2. Redistributions in binary form must reproduce the above copyright notice,
  50:requiredFiles/clksys_driver.c ****  * this list of conditions and the following disclaimer in the documentation
  51:requiredFiles/clksys_driver.c ****  * and/or other materials provided with the distribution.
  52:requiredFiles/clksys_driver.c ****  *
  53:requiredFiles/clksys_driver.c ****  * 3. The name of ATMEL may not be used to endorse or promote products derived
  54:requiredFiles/clksys_driver.c ****  * from this software without specific prior written permission.
  55:requiredFiles/clksys_driver.c ****  *
  56:requiredFiles/clksys_driver.c ****  * THIS SOFTWARE IS PROVIDED BY ATMEL "AS IS" AND ANY EXPRESS OR IMPLIED
  57:requiredFiles/clksys_driver.c ****  * WARRANTIES, INCLUDING, BUT NOT LIMITED TO, THE IMPLIED WARRANTIES OF
  58:requiredFiles/clksys_driver.c ****  * MERCHANTABILITY AND FITNESS FOR A PARTICULAR PURPOSE ARE EXPRESSLY AND
  59:requiredFiles/clksys_driver.c ****  * SPECIFICALLY DISCLAIMED. IN NO EVENT SHALL ATMEL BE LIABLE FOR ANY DIRECT,
  60:requiredFiles/clksys_driver.c ****  * INDIRECT, INCIDENTAL, SPECIAL, EXEMPLARY, OR CONSEQUENTIAL DAMAGES
  61:requiredFiles/clksys_driver.c ****  * (INCLUDING, BUT NOT LIMITED TO, PROCUREMENT OF SUBSTITUTE GOODS OR SERVICES;
  62:requiredFiles/clksys_driver.c ****  * LOSS OF USE, DATA, OR PROFITS; OR BUSINESS INTERRUPTION) HOWEVER CAUSED AND
  63:requiredFiles/clksys_driver.c ****  * ON ANY THEORY OF LIABILITY, WHETHER IN CONTRACT, STRICT LIABILITY, OR TORT
  64:requiredFiles/clksys_driver.c ****  * (INCLUDING NEGLIGENCE OR OTHERWISE) ARISING IN ANY WAY OUT OF THE USE OF
  65:requiredFiles/clksys_driver.c ****  * THIS SOFTWARE, EVEN IF ADVISED OF THE POSSIBILITY OF SUCH DAMAGE.
  66:requiredFiles/clksys_driver.c ****  *****************************************************************************/
  67:requiredFiles/clksys_driver.c **** #include "clksys_driver.h"
  68:requiredFiles/clksys_driver.c **** 
  69:requiredFiles/clksys_driver.c **** /*! \brief CCP write helper function written in assembly.
  70:requiredFiles/clksys_driver.c ****  *
  71:requiredFiles/clksys_driver.c ****  *  This function is written in assembly because of the timecritial
  72:requiredFiles/clksys_driver.c ****  *  operation of writing to the registers.
  73:requiredFiles/clksys_driver.c ****  *
  74:requiredFiles/clksys_driver.c ****  *  \param address A pointer to the address to write to.
  75:requiredFiles/clksys_driver.c ****  *  \param value   The value to put in to the register.
  76:requiredFiles/clksys_driver.c ****  */
  77:requiredFiles/clksys_driver.c **** void CCPWrite( volatile uint8_t * address, uint8_t value )
GAS LISTING /tmp/ccjciOO6.s 			page 4


  78:requiredFiles/clksys_driver.c **** {
  57               		.loc 2 78 0
  58               		.cfi_startproc
  59               	.LVL4:
  60 0022 0F93      		push r16
  61               	.LCFI1:
  62               		.cfi_def_cfa_offset 3
  63               		.cfi_offset 16, -2
  64 0024 CF93      		push r28
  65               	.LCFI2:
  66               		.cfi_def_cfa_offset 4
  67               		.cfi_offset 28, -3
  68 0026 DF93      		push r29
  69               	.LCFI3:
  70               		.cfi_def_cfa_offset 5
  71               		.cfi_offset 29, -4
  72 0028 1F92      		push __zero_reg__
  73               	.LCFI4:
  74               		.cfi_def_cfa_offset 6
  75 002a CDB7      		in r28,__SP_L__
  76 002c DEB7      		in r29,__SP_H__
  77               	.LCFI5:
  78               		.cfi_def_cfa_register 28
  79               	/* prologue: function */
  80               	/* frame size = 1 */
  81               	/* stack size = 4 */
  82               	.L__stack_usage = 4
  79:requiredFiles/clksys_driver.c **** #ifdef __ICCAVR__
  80:requiredFiles/clksys_driver.c **** 
  81:requiredFiles/clksys_driver.c **** 	// Store global interrupt setting in scratch register and disable interrupts.
  82:requiredFiles/clksys_driver.c ****         asm("in  R1, 0x3F \n"
  83:requiredFiles/clksys_driver.c **** 	    "cli"
  84:requiredFiles/clksys_driver.c **** 	    );
  85:requiredFiles/clksys_driver.c **** 
  86:requiredFiles/clksys_driver.c **** 	// Move destination address pointer to Z pointer registers.
  87:requiredFiles/clksys_driver.c **** 	asm("movw r30, r16");
  88:requiredFiles/clksys_driver.c **** #ifdef RAMPZ
  89:requiredFiles/clksys_driver.c **** 	asm("ldi  R16, 0 \n"
  90:requiredFiles/clksys_driver.c ****             "out  0x3B, R16"
  91:requiredFiles/clksys_driver.c **** 	    );
  92:requiredFiles/clksys_driver.c **** 
  93:requiredFiles/clksys_driver.c **** #endif
  94:requiredFiles/clksys_driver.c **** 	asm("ldi  r16,  0xD8 \n"
  95:requiredFiles/clksys_driver.c **** 	    "out  0x34, r16  \n"
  96:requiredFiles/clksys_driver.c **** #if (__MEMORY_MODEL__ == 1)
  97:requiredFiles/clksys_driver.c **** 	    "st     Z,  r17  \n");
  98:requiredFiles/clksys_driver.c **** #elif (__MEMORY_MODEL__ == 2)
  99:requiredFiles/clksys_driver.c **** 	    "st     Z,  r18  \n");
 100:requiredFiles/clksys_driver.c **** #else /* (__MEMORY_MODEL__ == 3) || (__MEMORY_MODEL__ == 5) */
 101:requiredFiles/clksys_driver.c **** 	    "st     Z,  r19  \n");
 102:requiredFiles/clksys_driver.c **** #endif /* __MEMORY_MODEL__ */
 103:requiredFiles/clksys_driver.c **** 
 104:requiredFiles/clksys_driver.c **** 	// Restore global interrupt setting from scratch register.
 105:requiredFiles/clksys_driver.c ****         asm("out  0x3F, R1");
 106:requiredFiles/clksys_driver.c **** 
 107:requiredFiles/clksys_driver.c **** #elif defined __GNUC__
 108:requiredFiles/clksys_driver.c **** 	AVR_ENTER_CRITICAL_REGION( );
GAS LISTING /tmp/ccjciOO6.s 			page 5


  83               		.loc 2 108 0
  84 002e 2FB7      		in r18,__SREG__
  85 0030 2983      		std Y+1,r18
  86               	/* #APP */
  87               	 ;  108 "requiredFiles/clksys_driver.c" 1
  88 0032 F894      		cli
  89               	 ;  0 "" 2
  90               	.LVL5:
 109:requiredFiles/clksys_driver.c **** 	volatile uint8_t * tmpAddr = address;
 110:requiredFiles/clksys_driver.c **** #ifdef RAMPZ
 111:requiredFiles/clksys_driver.c **** 	RAMPZ = 0;
  91               		.loc 2 111 0
  92               	/* #NOAPP */
  93 0034 1BBE      		out 0x3b,__zero_reg__
 112:requiredFiles/clksys_driver.c **** #endif
 113:requiredFiles/clksys_driver.c **** 	asm volatile(
  94               		.loc 2 113 0
  95               	/* #APP */
  96               	 ;  113 "requiredFiles/clksys_driver.c" 1
  97 0036 FC01      		movw r30,  r24
  98 0038 08ED      		ldi  r16,  216
  99 003a 04BF      		out   52, r16
 100 003c 6083      		st     Z,  r22
 101               		
 102               	 ;  0 "" 2
 114:requiredFiles/clksys_driver.c **** 		"movw r30,  %0"	      "\n\t"
 115:requiredFiles/clksys_driver.c **** 		"ldi  r16,  %2"	      "\n\t"
 116:requiredFiles/clksys_driver.c **** 		"out   %3, r16"	      "\n\t"
 117:requiredFiles/clksys_driver.c **** 		"st     Z,  %1"       "\n\t"
 118:requiredFiles/clksys_driver.c **** 		:
 119:requiredFiles/clksys_driver.c **** 		: "r" (tmpAddr), "r" (value), "M" (CCP_IOREG_gc), "i" (&CCP)
 120:requiredFiles/clksys_driver.c **** 		: "r16", "r30", "r31"
 121:requiredFiles/clksys_driver.c **** 		);
 122:requiredFiles/clksys_driver.c **** 
 123:requiredFiles/clksys_driver.c **** 	AVR_LEAVE_CRITICAL_REGION( );
 103               		.loc 2 123 0
 104               	/* #NOAPP */
 105 003e 8981      		ldd r24,Y+1
 106               	.LVL6:
 107 0040 8FBF      		out __SREG__,r24
 108               	/* epilogue start */
 124:requiredFiles/clksys_driver.c **** #endif
 125:requiredFiles/clksys_driver.c **** }
 109               		.loc 2 125 0
 110 0042 0F90      		pop __tmp_reg__
 111 0044 DF91      		pop r29
 112 0046 CF91      		pop r28
 113 0048 0F91      		pop r16
 114 004a 0895      		ret
 115               		.cfi_endproc
 116               	.LFE12:
 117               		.size	CCPWrite, .-CCPWrite
 118               	.global	CLKSYS_XOSC_Config
 119               		.type	CLKSYS_XOSC_Config, @function
 120               	CLKSYS_XOSC_Config:
 121               	.LFB13:
 126:requiredFiles/clksys_driver.c **** 
GAS LISTING /tmp/ccjciOO6.s 			page 6


 127:requiredFiles/clksys_driver.c **** /*! \brief This function configures the external oscillator.
 128:requiredFiles/clksys_driver.c ****  *
 129:requiredFiles/clksys_driver.c ****  *  \note Note that the oscillator cannot be used as a main system clock
 130:requiredFiles/clksys_driver.c ****  *        source without being enabled and stable first. Check the ready flag
 131:requiredFiles/clksys_driver.c ****  *        before using the clock. The macro CLKSYS_IsReady( _oscSel )
 132:requiredFiles/clksys_driver.c ****  *        can be used to check this.
 133:requiredFiles/clksys_driver.c ****  *
 134:requiredFiles/clksys_driver.c ****  *  \param  freqRange          Frequency range for high-frequency crystal, does
 135:requiredFiles/clksys_driver.c ****  *                             not apply for external clock or 32kHz crystals.
 136:requiredFiles/clksys_driver.c ****  *  \param  lowPower32kHz      True of high-quality watch crystals are used and
 137:requiredFiles/clksys_driver.c ****  *                             low-power oscillator is desired.
 138:requiredFiles/clksys_driver.c ****  *  \param  xoscModeSelection  Combined selection of oscillator type (or
 139:requiredFiles/clksys_driver.c ****  *                             external clock) and startup times.
 140:requiredFiles/clksys_driver.c ****  */
 141:requiredFiles/clksys_driver.c **** void CLKSYS_XOSC_Config( OSC_FRQRANGE_t freqRange,
 142:requiredFiles/clksys_driver.c ****                          bool lowPower32kHz,
 143:requiredFiles/clksys_driver.c ****                          OSC_XOSCSEL_t xoscModeSelection )
 144:requiredFiles/clksys_driver.c **** {
 122               		.loc 2 144 0
 123               		.cfi_startproc
 124               	.LVL7:
 125               	/* prologue: function */
 126               	/* frame size = 0 */
 127               	/* stack size = 0 */
 128               	.L__stack_usage = 0
 145:requiredFiles/clksys_driver.c **** 	OSC.XOSCCTRL = (uint8_t) freqRange |
 129               		.loc 2 145 0
 130 004c 6111      		cpse r22,__zero_reg__
 131 004e 00C0      		rjmp .L10
 132 0050 90E0      		ldi r25,0
 133 0052 00C0      		rjmp .L9
 134               	.L10:
 135 0054 90E2      		ldi r25,lo8(32)
 136               	.L9:
 137               		.loc 2 145 0 is_stmt 0 discriminator 4
 138 0056 842B      		or r24,r20
 139               	.LVL8:
 140 0058 982B      		or r25,r24
 141 005a 9093 5200 		sts 82,r25
 142 005e 0895      		ret
 143               		.cfi_endproc
 144               	.LFE13:
 145               		.size	CLKSYS_XOSC_Config, .-CLKSYS_XOSC_Config
 146               	.global	CLKSYS_PLL_Config
 147               		.type	CLKSYS_PLL_Config, @function
 148               	CLKSYS_PLL_Config:
 149               	.LFB14:
 146:requiredFiles/clksys_driver.c **** 	               ( lowPower32kHz ? OSC_X32KLPM_bm : 0 ) |
 147:requiredFiles/clksys_driver.c **** 	               xoscModeSelection;
 148:requiredFiles/clksys_driver.c **** }
 149:requiredFiles/clksys_driver.c **** 
 150:requiredFiles/clksys_driver.c **** 
 151:requiredFiles/clksys_driver.c **** /*! \brief This function configures the internal high-frequency PLL.
 152:requiredFiles/clksys_driver.c ****  *
 153:requiredFiles/clksys_driver.c ****  *  Configuration of the internal high-frequency PLL to the correct
 154:requiredFiles/clksys_driver.c ****  *  values. It is used to define the input of the PLL and the factor of
 155:requiredFiles/clksys_driver.c ****  *  multiplication of the input clock source.
GAS LISTING /tmp/ccjciOO6.s 			page 7


 156:requiredFiles/clksys_driver.c ****  *
 157:requiredFiles/clksys_driver.c ****  *  \note Note that the oscillator cannot be used as a main system clock
 158:requiredFiles/clksys_driver.c ****  *        source without being enabled and stable first. Check the ready flag
 159:requiredFiles/clksys_driver.c ****  *        before using the clock. The macro CLKSYS_IsReady( _oscSel )
 160:requiredFiles/clksys_driver.c ****  *        can be used to check this.
 161:requiredFiles/clksys_driver.c ****  *
 162:requiredFiles/clksys_driver.c ****  *  \param  clockSource Reference clock source for the PLL,
 163:requiredFiles/clksys_driver.c ****  *                      must be above 0.4MHz.
 164:requiredFiles/clksys_driver.c ****  *  \param  factor      PLL multiplication factor, must be
 165:requiredFiles/clksys_driver.c ****  *                      from 1 to 31, inclusive.
 166:requiredFiles/clksys_driver.c ****  */
 167:requiredFiles/clksys_driver.c **** void CLKSYS_PLL_Config( OSC_PLLSRC_t clockSource, uint8_t factor )
 168:requiredFiles/clksys_driver.c **** {
 150               		.loc 2 168 0 is_stmt 1
 151               		.cfi_startproc
 152               	.LVL9:
 153               	/* prologue: function */
 154               	/* frame size = 0 */
 155               	/* stack size = 0 */
 156               	.L__stack_usage = 0
 169:requiredFiles/clksys_driver.c **** 	factor &= OSC_PLLFAC_gm;
 170:requiredFiles/clksys_driver.c **** 	OSC.PLLCTRL = (uint8_t) clockSource | ( factor << OSC_PLLFAC_gp );
 157               		.loc 2 170 0
 158 0060 6F71      		andi r22,lo8(31)
 159               	.LVL10:
 160 0062 862B      		or r24,r22
 161               	.LVL11:
 162 0064 8093 5500 		sts 85,r24
 163 0068 0895      		ret
 164               		.cfi_endproc
 165               	.LFE14:
 166               		.size	CLKSYS_PLL_Config, .-CLKSYS_PLL_Config
 167               	.global	CLKSYS_Disable
 168               		.type	CLKSYS_Disable, @function
 169               	CLKSYS_Disable:
 170               	.LFB15:
 171:requiredFiles/clksys_driver.c **** }
 172:requiredFiles/clksys_driver.c **** 
 173:requiredFiles/clksys_driver.c **** 
 174:requiredFiles/clksys_driver.c **** /*! \brief This function disables the selected oscillator.
 175:requiredFiles/clksys_driver.c ****  *
 176:requiredFiles/clksys_driver.c ****  *  This function will disable the selected oscillator if possible.
 177:requiredFiles/clksys_driver.c ****  *  If it is currently used as a main system clock source, hardware will
 178:requiredFiles/clksys_driver.c ****  *  disregard the disable attempt, and this function will return zero.
 179:requiredFiles/clksys_driver.c ****  *  If it fails, change to another main system clock source and try again.
 180:requiredFiles/clksys_driver.c ****  *
 181:requiredFiles/clksys_driver.c ****  *  \param oscSel  Bitmask of selected clock. Can be one of the following
 182:requiredFiles/clksys_driver.c ****  *                 OSC_RC2MEN_bm, OSC_RC32MEN_bm, OSC_RC32KEN_bm,
 183:requiredFiles/clksys_driver.c ****  *                 OSC_XOSCEN_bm, OSC_PLLEN_bm.
 184:requiredFiles/clksys_driver.c ****  *
 185:requiredFiles/clksys_driver.c ****  *  \return  Non-zero if oscillator was disabled successfully.
 186:requiredFiles/clksys_driver.c ****  */
 187:requiredFiles/clksys_driver.c **** uint8_t CLKSYS_Disable( uint8_t oscSel )
 188:requiredFiles/clksys_driver.c **** {
 171               		.loc 2 188 0
 172               		.cfi_startproc
 173               	.LVL12:
GAS LISTING /tmp/ccjciOO6.s 			page 8


 174               	/* prologue: function */
 175               	/* frame size = 0 */
 176               	/* stack size = 0 */
 177               	.L__stack_usage = 0
 189:requiredFiles/clksys_driver.c **** 	OSC.CTRL &= ~oscSel;
 178               		.loc 2 189 0
 179 006a E0E5      		ldi r30,lo8(80)
 180 006c F0E0      		ldi r31,0
 181 006e 9081      		ld r25,Z
 182 0070 282F      		mov r18,r24
 183 0072 2095      		com r18
 184 0074 9223      		and r25,r18
 185 0076 9083      		st Z,r25
 190:requiredFiles/clksys_driver.c **** 	uint8_t clkEnabled = OSC.CTRL & oscSel;
 186               		.loc 2 190 0
 187 0078 9081      		ld r25,Z
 188               	.LVL13:
 191:requiredFiles/clksys_driver.c **** 	return clkEnabled;
 192:requiredFiles/clksys_driver.c **** }
 189               		.loc 2 192 0
 190 007a 8923      		and r24,r25
 191               	.LVL14:
 192 007c 0895      		ret
 193               		.cfi_endproc
 194               	.LFE15:
 195               		.size	CLKSYS_Disable, .-CLKSYS_Disable
 196               	.global	CLKSYS_Prescalers_Config
 197               		.type	CLKSYS_Prescalers_Config, @function
 198               	CLKSYS_Prescalers_Config:
 199               	.LFB16:
 193:requiredFiles/clksys_driver.c **** 
 194:requiredFiles/clksys_driver.c **** 
 195:requiredFiles/clksys_driver.c **** /*! \brief This function changes the prescaler configuration.
 196:requiredFiles/clksys_driver.c ****  *
 197:requiredFiles/clksys_driver.c ****  *  Change the configuration of the three system clock
 198:requiredFiles/clksys_driver.c ****  *  prescaler is one single operation. The user must make sure that
 199:requiredFiles/clksys_driver.c ****  *  the main CPU clock does not exceed recommended limits.
 200:requiredFiles/clksys_driver.c ****  *
 201:requiredFiles/clksys_driver.c ****  *  \param  PSAfactor   Prescaler A division factor, OFF or 2 to 512 in
 202:requiredFiles/clksys_driver.c ****  *                      powers of two.
 203:requiredFiles/clksys_driver.c ****  *  \param  PSBCfactor  Prescaler B and C division factor, in the combination
 204:requiredFiles/clksys_driver.c ****  *                      of (1,1), (1,2), (4,1) or (2,2).
 205:requiredFiles/clksys_driver.c ****  */
 206:requiredFiles/clksys_driver.c **** void CLKSYS_Prescalers_Config( CLK_PSADIV_t PSAfactor,
 207:requiredFiles/clksys_driver.c ****                                CLK_PSBCDIV_t PSBCfactor )
 208:requiredFiles/clksys_driver.c **** {
 200               		.loc 2 208 0
 201               		.cfi_startproc
 202               	.LVL15:
 203               	/* prologue: function */
 204               	/* frame size = 0 */
 205               	/* stack size = 0 */
 206               	.L__stack_usage = 0
 209:requiredFiles/clksys_driver.c **** 	uint8_t PSconfig = (uint8_t) PSAfactor | PSBCfactor;
 210:requiredFiles/clksys_driver.c **** 	CCPWrite( &CLK.PSCTRL, PSconfig );
 207               		.loc 2 210 0
 208 007e 682B      		or r22,r24
GAS LISTING /tmp/ccjciOO6.s 			page 9


 209               	.LVL16:
 210 0080 81E4      		ldi r24,lo8(65)
 211 0082 90E0      		ldi r25,0
 212               	.LVL17:
 213 0084 0C94 0000 		jmp CCPWrite
 214               	.LVL18:
 215               		.cfi_endproc
 216               	.LFE16:
 217               		.size	CLKSYS_Prescalers_Config, .-CLKSYS_Prescalers_Config
 218               	.global	CLKSYS_Main_ClockSource_Select
 219               		.type	CLKSYS_Main_ClockSource_Select, @function
 220               	CLKSYS_Main_ClockSource_Select:
 221               	.LFB17:
 211:requiredFiles/clksys_driver.c **** }
 212:requiredFiles/clksys_driver.c **** 
 213:requiredFiles/clksys_driver.c **** 
 214:requiredFiles/clksys_driver.c **** /*! \brief This function selects the main system clock source.
 215:requiredFiles/clksys_driver.c ****  *
 216:requiredFiles/clksys_driver.c ****  *  Hardware will disregard any attempts to select a clock source that is not
 217:requiredFiles/clksys_driver.c ****  *  enabled or not stable. If the change fails, make sure the source is ready
 218:requiredFiles/clksys_driver.c ****  *  and running and try again.
 219:requiredFiles/clksys_driver.c ****  *
 220:requiredFiles/clksys_driver.c ****  *  \param  clockSource  Clock source to use as input for the system clock
 221:requiredFiles/clksys_driver.c ****  *                       prescaler block.
 222:requiredFiles/clksys_driver.c ****  *
 223:requiredFiles/clksys_driver.c ****  *  \return  Non-zero if change was successful.
 224:requiredFiles/clksys_driver.c ****  */
 225:requiredFiles/clksys_driver.c **** uint8_t CLKSYS_Main_ClockSource_Select( CLK_SCLKSEL_t clockSource )
 226:requiredFiles/clksys_driver.c **** {
 222               		.loc 2 226 0
 223               		.cfi_startproc
 224               	.LVL19:
 225 0088 0F93      		push r16
 226               	.LCFI6:
 227               		.cfi_def_cfa_offset 3
 228               		.cfi_offset 16, -2
 229 008a 1F93      		push r17
 230               	.LCFI7:
 231               		.cfi_def_cfa_offset 4
 232               		.cfi_offset 17, -3
 233 008c CF93      		push r28
 234               	.LCFI8:
 235               		.cfi_def_cfa_offset 5
 236               		.cfi_offset 28, -4
 237               	/* prologue: function */
 238               	/* frame size = 0 */
 239               	/* stack size = 3 */
 240               	.L__stack_usage = 3
 241 008e C82F      		mov r28,r24
 227:requiredFiles/clksys_driver.c **** 	uint8_t clkCtrl = ( CLK.CTRL & ~CLK_SCLKSEL_gm ) | clockSource;
 242               		.loc 2 227 0
 243 0090 00E4      		ldi r16,lo8(64)
 244 0092 10E0      		ldi r17,0
 245 0094 F801      		movw r30,r16
 246 0096 6081      		ld r22,Z
 247               	.LVL20:
 228:requiredFiles/clksys_driver.c **** 	CCPWrite( &CLK.CTRL, clkCtrl );
GAS LISTING /tmp/ccjciOO6.s 			page 10


 248               		.loc 2 228 0
 249 0098 687F      		andi r22,lo8(-8)
 250               	.LVL21:
 251 009a 682B      		or r22,r24
 252               	.LVL22:
 253 009c 80E4      		ldi r24,lo8(64)
 254 009e 90E0      		ldi r25,0
 255               	.LVL23:
 256 00a0 0E94 0000 		call CCPWrite
 257               	.LVL24:
 229:requiredFiles/clksys_driver.c **** 	clkCtrl = ( CLK.CTRL & clockSource );
 258               		.loc 2 229 0
 259 00a4 F801      		movw r30,r16
 260 00a6 8081      		ld r24,Z
 261               	.LVL25:
 230:requiredFiles/clksys_driver.c **** 	return clkCtrl;
 231:requiredFiles/clksys_driver.c **** }
 262               		.loc 2 231 0
 263 00a8 8C23      		and r24,r28
 264               	.LVL26:
 265               	/* epilogue start */
 266 00aa CF91      		pop r28
 267               	.LVL27:
 268 00ac 1F91      		pop r17
 269 00ae 0F91      		pop r16
 270 00b0 0895      		ret
 271               		.cfi_endproc
 272               	.LFE17:
 273               		.size	CLKSYS_Main_ClockSource_Select, .-CLKSYS_Main_ClockSource_Select
 274               	.global	CLKSYS_RTC_ClockSource_Enable
 275               		.type	CLKSYS_RTC_ClockSource_Enable, @function
 276               	CLKSYS_RTC_ClockSource_Enable:
 277               	.LFB18:
 232:requiredFiles/clksys_driver.c **** 
 233:requiredFiles/clksys_driver.c **** 
 234:requiredFiles/clksys_driver.c **** /*! \brief This function selects a Real-Time Counter clock source.
 235:requiredFiles/clksys_driver.c ****  *
 236:requiredFiles/clksys_driver.c ****  *  Selects the clock source for use by the Real-Time Counter (RTC)
 237:requiredFiles/clksys_driver.c ****  *  and enables clock signal routing to the RTC module.
 238:requiredFiles/clksys_driver.c ****  *
 239:requiredFiles/clksys_driver.c ****  *  \param  clockSource  Clock source to use for the RTC.
 240:requiredFiles/clksys_driver.c ****  */
 241:requiredFiles/clksys_driver.c **** void CLKSYS_RTC_ClockSource_Enable( CLK_RTCSRC_t clockSource )
 242:requiredFiles/clksys_driver.c **** {
 278               		.loc 2 242 0
 279               		.cfi_startproc
 280               	.LVL28:
 281               	/* prologue: function */
 282               	/* frame size = 0 */
 283               	/* stack size = 0 */
 284               	.L__stack_usage = 0
 243:requiredFiles/clksys_driver.c **** 	CLK.RTCCTRL = ( CLK.RTCCTRL & ~CLK_RTCSRC_gm ) |
 285               		.loc 2 243 0
 286 00b2 E0E4      		ldi r30,lo8(64)
 287 00b4 F0E0      		ldi r31,0
 288 00b6 9381      		ldd r25,Z+3
 289 00b8 917F      		andi r25,lo8(-15)
GAS LISTING /tmp/ccjciOO6.s 			page 11


 290 00ba 9160      		ori r25,lo8(1)
 291 00bc 892B      		or r24,r25
 292               	.LVL29:
 293 00be 8383      		std Z+3,r24
 294 00c0 0895      		ret
 295               		.cfi_endproc
 296               	.LFE18:
 297               		.size	CLKSYS_RTC_ClockSource_Enable, .-CLKSYS_RTC_ClockSource_Enable
 298               	.global	CLKSYS_AutoCalibration_Enable
 299               		.type	CLKSYS_AutoCalibration_Enable, @function
 300               	CLKSYS_AutoCalibration_Enable:
 301               	.LFB19:
 244:requiredFiles/clksys_driver.c **** 	              clockSource |
 245:requiredFiles/clksys_driver.c **** 	              CLK_RTCEN_bm;
 246:requiredFiles/clksys_driver.c **** }
 247:requiredFiles/clksys_driver.c **** 
 248:requiredFiles/clksys_driver.c **** 
 249:requiredFiles/clksys_driver.c **** /*! \brief This function enables automatic calibration of the selected internal
 250:requiredFiles/clksys_driver.c ****  *         oscillator.
 251:requiredFiles/clksys_driver.c ****  *
 252:requiredFiles/clksys_driver.c ****  *  Either the internal 32kHz RC oscillator or an external 32kHz
 253:requiredFiles/clksys_driver.c ****  *  crystal can be used as a calibration reference. The user must make sure
 254:requiredFiles/clksys_driver.c ****  *  that the selected reference is ready and running.
 255:requiredFiles/clksys_driver.c ****  *
 256:requiredFiles/clksys_driver.c ****  *  \param  clkSource    Clock source to calibrate, either OSC_RC2MCREF_bm or
 257:requiredFiles/clksys_driver.c ****  *                       OSC_RC32MCREF_bm.
 258:requiredFiles/clksys_driver.c ****  *  \param  extReference True if external crystal should be used as reference.
 259:requiredFiles/clksys_driver.c ****  */
 260:requiredFiles/clksys_driver.c **** void CLKSYS_AutoCalibration_Enable( uint8_t clkSource, bool extReference )
 261:requiredFiles/clksys_driver.c **** {
 302               		.loc 2 261 0
 303               		.cfi_startproc
 304               	.LVL30:
 305               	/* prologue: function */
 306               	/* frame size = 0 */
 307               	/* stack size = 0 */
 308               	.L__stack_usage = 0
 262:requiredFiles/clksys_driver.c **** 	OSC.DFLLCTRL = ( OSC.DFLLCTRL & ~clkSource ) |
 309               		.loc 2 262 0
 310 00c2 2091 5600 		lds r18,86
 311 00c6 382F      		mov r19,r24
 312 00c8 982F      		mov r25,r24
 313 00ca 9095      		com r25
 314 00cc 9223      		and r25,r18
 315 00ce 6111      		cpse r22,__zero_reg__
 316 00d0 00C0      		rjmp .L17
 317 00d2 30E0      		ldi r19,0
 318               	.L17:
 319               		.loc 2 262 0 is_stmt 0 discriminator 4
 320 00d4 932B      		or r25,r19
 321 00d6 9093 5600 		sts 86,r25
 263:requiredFiles/clksys_driver.c **** 	               ( extReference ? clkSource : 0 );
 264:requiredFiles/clksys_driver.c **** 	if (clkSource == OSC_RC2MCREF_bm) {
 322               		.loc 2 264 0 is_stmt 1 discriminator 4
 323 00da 8130      		cpi r24,lo8(1)
 324 00dc 01F4      		brne .L18
 265:requiredFiles/clksys_driver.c **** 		DFLLRC2M.CTRL |= DFLL_ENABLE_bm;
GAS LISTING /tmp/ccjciOO6.s 			page 12


 325               		.loc 2 265 0
 326 00de 8091 6800 		lds r24,104
 327               	.LVL31:
 328 00e2 8160      		ori r24,lo8(1)
 329 00e4 8093 6800 		sts 104,r24
 330 00e8 0895      		ret
 331               	.LVL32:
 332               	.L18:
 266:requiredFiles/clksys_driver.c **** 	} else if (clkSource == OSC_RC32MCREF_bm) {
 333               		.loc 2 266 0
 334 00ea 8230      		cpi r24,lo8(2)
 335 00ec 01F4      		brne .L16
 267:requiredFiles/clksys_driver.c **** 		DFLLRC32M.CTRL |= DFLL_ENABLE_bm;
 336               		.loc 2 267 0
 337 00ee 8091 6000 		lds r24,96
 338               	.LVL33:
 339 00f2 8160      		ori r24,lo8(1)
 340 00f4 8093 6000 		sts 96,r24
 341               	.L16:
 342 00f8 0895      		ret
 343               		.cfi_endproc
 344               	.LFE19:
 345               		.size	CLKSYS_AutoCalibration_Enable, .-CLKSYS_AutoCalibration_Enable
 346               	.global	CLKSYS_XOSC_FailureDetection_Enable
 347               		.type	CLKSYS_XOSC_FailureDetection_Enable, @function
 348               	CLKSYS_XOSC_FailureDetection_Enable:
 349               	.LFB20:
 268:requiredFiles/clksys_driver.c **** 	}
 269:requiredFiles/clksys_driver.c **** }
 270:requiredFiles/clksys_driver.c **** 
 271:requiredFiles/clksys_driver.c **** 
 272:requiredFiles/clksys_driver.c **** /*! \brief This function enables the External Oscillator Failure Detection
 273:requiredFiles/clksys_driver.c ****  *         (XOSCFD) feature.
 274:requiredFiles/clksys_driver.c ****  *
 275:requiredFiles/clksys_driver.c ****  *  The feature will stay enabled until next reset. Note that the
 276:requiredFiles/clksys_driver.c ****  *  XOSCFD _will_ issue the XOSCF Non-maskable Interrupt (NMI) regardless of
 277:requiredFiles/clksys_driver.c ****  *  any interrupt priorities and settings. Therefore, make sure that a handler
 278:requiredFiles/clksys_driver.c ****  *  is implemented for the XOSCF NMI when you enable it.
 279:requiredFiles/clksys_driver.c ****  */
 280:requiredFiles/clksys_driver.c **** void CLKSYS_XOSC_FailureDetection_Enable( void )
 281:requiredFiles/clksys_driver.c **** {
 350               		.loc 2 281 0
 351               		.cfi_startproc
 352               	/* prologue: function */
 353               	/* frame size = 0 */
 354               	/* stack size = 0 */
 355               	.L__stack_usage = 0
 282:requiredFiles/clksys_driver.c **** 	CCPWrite( &OSC.XOSCFAIL, ( OSC_XOSCFDIF_bm | OSC_XOSCFDEN_bm ) );
 356               		.loc 2 282 0
 357 00fa 63E0      		ldi r22,lo8(3)
 358 00fc 83E5      		ldi r24,lo8(83)
 359 00fe 90E0      		ldi r25,0
 360 0100 0C94 0000 		jmp CCPWrite
 361               	.LVL34:
 362               		.cfi_endproc
 363               	.LFE20:
 364               		.size	CLKSYS_XOSC_FailureDetection_Enable, .-CLKSYS_XOSC_FailureDetection_Enable
GAS LISTING /tmp/ccjciOO6.s 			page 13


 365               	.global	CLKSYS_Configuration_Lock
 366               		.type	CLKSYS_Configuration_Lock, @function
 367               	CLKSYS_Configuration_Lock:
 368               	.LFB21:
 283:requiredFiles/clksys_driver.c **** }
 284:requiredFiles/clksys_driver.c **** 
 285:requiredFiles/clksys_driver.c **** 
 286:requiredFiles/clksys_driver.c **** /*! \brief This function lock the entire clock system configuration.
 287:requiredFiles/clksys_driver.c ****  *
 288:requiredFiles/clksys_driver.c ****  *  This will lock the configuration until the next reset, or until the
 289:requiredFiles/clksys_driver.c ****  *  External Oscillator Failure Detections (XOSCFD) feature detects a failure
 290:requiredFiles/clksys_driver.c ****  *  and switches to internal 2MHz RC oscillator.
 291:requiredFiles/clksys_driver.c ****  */
 292:requiredFiles/clksys_driver.c **** void CLKSYS_Configuration_Lock( void )
 293:requiredFiles/clksys_driver.c **** {
 369               		.loc 2 293 0
 370               		.cfi_startproc
 371               	/* prologue: function */
 372               	/* frame size = 0 */
 373               	/* stack size = 0 */
 374               	.L__stack_usage = 0
 294:requiredFiles/clksys_driver.c **** 	CCPWrite( &CLK.LOCK, CLK_LOCK_bm );
 375               		.loc 2 294 0
 376 0104 61E0      		ldi r22,lo8(1)
 377 0106 82E4      		ldi r24,lo8(66)
 378 0108 90E0      		ldi r25,0
 379 010a 0C94 0000 		jmp CCPWrite
 380               	.LVL35:
 381               		.cfi_endproc
 382               	.LFE21:
 383               		.size	CLKSYS_Configuration_Lock, .-CLKSYS_Configuration_Lock
 384               	.global	__vector_14
 385               		.type	__vector_14, @function
 386               	__vector_14:
 387               	.LFB22:
  23:main.c        **** 	elapsedMillis++;
 388               		.loc 1 23 0
 389               		.cfi_startproc
 390 010e 1F92      		push r1
 391               	.LCFI9:
 392               		.cfi_def_cfa_offset 3
 393               		.cfi_offset 1, -2
 394 0110 0F92      		push r0
 395               	.LCFI10:
 396               		.cfi_def_cfa_offset 4
 397               		.cfi_offset 0, -3
 398 0112 0FB6      		in r0,__SREG__
 399 0114 0F92      		push r0
 400 0116 1124      		clr __zero_reg__
 401 0118 8F93      		push r24
 402               	.LCFI11:
 403               		.cfi_def_cfa_offset 5
 404               		.cfi_offset 24, -4
 405 011a 9F93      		push r25
 406               	.LCFI12:
 407               		.cfi_def_cfa_offset 6
 408               		.cfi_offset 25, -5
GAS LISTING /tmp/ccjciOO6.s 			page 14


 409 011c AF93      		push r26
 410               	.LCFI13:
 411               		.cfi_def_cfa_offset 7
 412               		.cfi_offset 26, -6
 413 011e BF93      		push r27
 414               	.LCFI14:
 415               		.cfi_def_cfa_offset 8
 416               		.cfi_offset 27, -7
 417               	/* prologue: Signal */
 418               	/* frame size = 0 */
 419               	/* stack size = 7 */
 420               	.L__stack_usage = 7
  24:main.c        **** }
 421               		.loc 1 24 0
 422 0120 8091 0000 		lds r24,elapsedMillis
 423 0124 9091 0000 		lds r25,elapsedMillis+1
 424 0128 A091 0000 		lds r26,elapsedMillis+2
 425 012c B091 0000 		lds r27,elapsedMillis+3
 426 0130 0196      		adiw r24,1
 427 0132 A11D      		adc r26,__zero_reg__
 428 0134 B11D      		adc r27,__zero_reg__
 429 0136 8093 0000 		sts elapsedMillis,r24
 430 013a 9093 0000 		sts elapsedMillis+1,r25
 431 013e A093 0000 		sts elapsedMillis+2,r26
 432 0142 B093 0000 		sts elapsedMillis+3,r27
 433               	/* epilogue start */
  25:main.c        **** 
 434               		.loc 1 25 0
 435 0146 BF91      		pop r27
 436 0148 AF91      		pop r26
 437 014a 9F91      		pop r25
 438 014c 8F91      		pop r24
 439 014e 0F90      		pop r0
 440 0150 0FBE      		out __SREG__,r0
 441 0152 0F90      		pop r0
 442 0154 1F90      		pop r1
 443 0156 1895      		reti
 444               		.cfi_endproc
 445               	.LFE22:
 446               		.size	__vector_14, .-__vector_14
 447               	.global	uart_getchar
 448               		.type	uart_getchar, @function
 449               	uart_getchar:
 450               	.LFB24:
  39:main.c        **** 
  40:main.c        **** int uart_getchar (void) { 
 451               		.loc 1 40 0
 452               		.cfi_startproc
 453               	/* prologue: function */
 454               	/* frame size = 0 */
 455               	/* stack size = 0 */
 456               	.L__stack_usage = 0
 457               	.L25:
  41:main.c        ****     while( !(USARTD1_STATUS & USART_RXCIF_bm) ){
 458               		.loc 1 41 0 discriminator 1
 459 0158 8091 B109 		lds r24,2481
 460 015c 87FF      		sbrs r24,7
GAS LISTING /tmp/ccjciOO6.s 			page 15


 461 015e 00C0      		rjmp .L25
  42:main.c        ****     //    PORTE.OUTSET = _BV(0);
  43:main.c        ****     }
  44:main.c        ****     PORTE.OUTCLR = _BV(0);
 462               		.loc 1 44 0
 463 0160 81E0      		ldi r24,lo8(1)
 464 0162 8093 8606 		sts 1670,r24
  45:main.c        ****     return USARTD1.DATA;
 465               		.loc 1 45 0
 466 0166 8091 B009 		lds r24,2480
  46:main.c        **** } 
 467               		.loc 1 46 0
 468 016a 90E0      		ldi r25,0
 469 016c 0895      		ret
 470               		.cfi_endproc
 471               	.LFE24:
 472               		.size	uart_getchar, .-uart_getchar
 473               	.global	delay_ms
 474               		.type	delay_ms, @function
 475               	delay_ms:
 476               	.LFB26:
  47:main.c        **** 
  48:main.c        **** // Init USART.  Transmit only (we're not receiving anything) 
  49:main.c        **** // We use USARTD1, transmit pin on PC7. 
  50:main.c        **** // Want 115200 baud. Have a 32 MHz clock. BSCALE = 0 
  51:main.c        **** // BSEL = ( 32000000 / (2^0 * 16*115200)) -1 = 16.361111111
  52:main.c        **** // Fbaud = 32000000 / (2^0 * 16 * (16+1))  = 117647 bits/sec 
  53:main.c        **** static void uart_init (void) { 
  54:main.c        ****     // Set the TxD pin high - set PORTD DIR register bit 7 to 1 
  55:main.c        ****     PORTD.OUTSET = PIN7_bm; 
  56:main.c        **** 
  57:main.c        ****     // Set the TxD pin as an output - set PORTC OUT register bit 3 to 1 
  58:main.c        ****     PORTD.DIRSET = PIN7_bm; 
  59:main.c        **** 
  60:main.c        ****     // Set baud rate & frame format 
  61:main.c        ****     
  62:main.c        ****     USARTD1.BAUDCTRLB = 0;                      // BSCALE = 0 as well 
  63:main.c        ****     USARTD1.BAUDCTRLA = 51; //16 for 32MHz at 115200, 12 for 2MHz at 9600, 51 for  38400 at 32MHz
  64:main.c        **** 
  65:main.c        ****     // Set mode of operation 
  66:main.c        ****     USARTD1.CTRLA = 0;                          // no interrupts please 
  67:main.c        ****     USARTD1.CTRLC = 0x03;                       // async, no parity, 8 bit data, 1 stop bit 
  68:main.c        **** 
  69:main.c        ****     // Enable transmitter only 
  70:main.c        ****     USARTD1.CTRLB =USART_RXEN_bm|USART_TXEN_bm; 
  71:main.c        ****      
  72:main.c        **** }
  73:main.c        **** 
  74:main.c        **** // My own Delay function, because the built-in _delay_ms() can delay for only a limited time
  75:main.c        **** void delay_ms(int ms) 
  76:main.c        **** { 
 477               		.loc 1 76 0
 478               		.cfi_startproc
 479               	.LVL36:
 480               	/* prologue: function */
 481               	/* frame size = 0 */
 482               	/* stack size = 0 */
GAS LISTING /tmp/ccjciOO6.s 			page 16


 483               	.L__stack_usage = 0
 484               	.L28:
  77:main.c        ****     while (ms--) 
 485               		.loc 1 77 0
 486 016e 0097      		sbiw r24,0
 487 0170 01F0      		breq .L30
 488               	.LVL37:
 489               	.LBB91:
 490               	.LBB92:
 491               		.file 3 "/usr/lib/avr/include/util/delay.h"
   1:/usr/lib/avr/include/util/delay.h **** /* Copyright (c) 2002, Marek Michalkiewicz
   2:/usr/lib/avr/include/util/delay.h ****    Copyright (c) 2004,2005,2007 Joerg Wunsch
   3:/usr/lib/avr/include/util/delay.h ****    Copyright (c) 2007  Florin-Viorel Petrov
   4:/usr/lib/avr/include/util/delay.h ****    All rights reserved.
   5:/usr/lib/avr/include/util/delay.h **** 
   6:/usr/lib/avr/include/util/delay.h ****    Redistribution and use in source and binary forms, with or without
   7:/usr/lib/avr/include/util/delay.h ****    modification, are permitted provided that the following conditions are met:
   8:/usr/lib/avr/include/util/delay.h **** 
   9:/usr/lib/avr/include/util/delay.h ****    * Redistributions of source code must retain the above copyright
  10:/usr/lib/avr/include/util/delay.h ****      notice, this list of conditions and the following disclaimer.
  11:/usr/lib/avr/include/util/delay.h **** 
  12:/usr/lib/avr/include/util/delay.h ****    * Redistributions in binary form must reproduce the above copyright
  13:/usr/lib/avr/include/util/delay.h ****      notice, this list of conditions and the following disclaimer in
  14:/usr/lib/avr/include/util/delay.h ****      the documentation and/or other materials provided with the
  15:/usr/lib/avr/include/util/delay.h ****      distribution.
  16:/usr/lib/avr/include/util/delay.h **** 
  17:/usr/lib/avr/include/util/delay.h ****    * Neither the name of the copyright holders nor the names of
  18:/usr/lib/avr/include/util/delay.h ****      contributors may be used to endorse or promote products derived
  19:/usr/lib/avr/include/util/delay.h ****      from this software without specific prior written permission.
  20:/usr/lib/avr/include/util/delay.h **** 
  21:/usr/lib/avr/include/util/delay.h ****   THIS SOFTWARE IS PROVIDED BY THE COPYRIGHT HOLDERS AND CONTRIBUTORS "AS IS"
  22:/usr/lib/avr/include/util/delay.h ****   AND ANY EXPRESS OR IMPLIED WARRANTIES, INCLUDING, BUT NOT LIMITED TO, THE
  23:/usr/lib/avr/include/util/delay.h ****   IMPLIED WARRANTIES OF MERCHANTABILITY AND FITNESS FOR A PARTICULAR PURPOSE
  24:/usr/lib/avr/include/util/delay.h ****   ARE DISCLAIMED. IN NO EVENT SHALL THE COPYRIGHT OWNER OR CONTRIBUTORS BE
  25:/usr/lib/avr/include/util/delay.h ****   LIABLE FOR ANY DIRECT, INDIRECT, INCIDENTAL, SPECIAL, EXEMPLARY, OR
  26:/usr/lib/avr/include/util/delay.h ****   CONSEQUENTIAL DAMAGES (INCLUDING, BUT NOT LIMITED TO, PROCUREMENT OF
  27:/usr/lib/avr/include/util/delay.h ****   SUBSTITUTE GOODS OR SERVICES; LOSS OF USE, DATA, OR PROFITS; OR BUSINESS
  28:/usr/lib/avr/include/util/delay.h ****   INTERRUPTION) HOWEVER CAUSED AND ON ANY THEORY OF LIABILITY, WHETHER IN
  29:/usr/lib/avr/include/util/delay.h ****   CONTRACT, STRICT LIABILITY, OR TORT (INCLUDING NEGLIGENCE OR OTHERWISE)
  30:/usr/lib/avr/include/util/delay.h ****   ARISING IN ANY WAY OUT OF THE USE OF THIS SOFTWARE, EVEN IF ADVISED OF THE
  31:/usr/lib/avr/include/util/delay.h ****   POSSIBILITY OF SUCH DAMAGE. */
  32:/usr/lib/avr/include/util/delay.h **** 
  33:/usr/lib/avr/include/util/delay.h **** /* $Id$ */
  34:/usr/lib/avr/include/util/delay.h **** 
  35:/usr/lib/avr/include/util/delay.h **** #ifndef _UTIL_DELAY_H_
  36:/usr/lib/avr/include/util/delay.h **** #define _UTIL_DELAY_H_ 1
  37:/usr/lib/avr/include/util/delay.h **** 
  38:/usr/lib/avr/include/util/delay.h **** #ifndef __DOXYGEN__
  39:/usr/lib/avr/include/util/delay.h **** #  ifndef __HAS_DELAY_CYCLES
  40:/usr/lib/avr/include/util/delay.h **** #    define __HAS_DELAY_CYCLES 1
  41:/usr/lib/avr/include/util/delay.h **** #  endif
  42:/usr/lib/avr/include/util/delay.h **** #endif  /* __DOXYGEN__ */
  43:/usr/lib/avr/include/util/delay.h **** 
  44:/usr/lib/avr/include/util/delay.h **** #include <inttypes.h>
  45:/usr/lib/avr/include/util/delay.h **** #include <util/delay_basic.h>
  46:/usr/lib/avr/include/util/delay.h **** #include <math.h>
  47:/usr/lib/avr/include/util/delay.h **** 
GAS LISTING /tmp/ccjciOO6.s 			page 17


  48:/usr/lib/avr/include/util/delay.h **** /** \file */
  49:/usr/lib/avr/include/util/delay.h **** /** \defgroup util_delay <util/delay.h>: Convenience functions for busy-wait delay loops
  50:/usr/lib/avr/include/util/delay.h ****     \code
  51:/usr/lib/avr/include/util/delay.h ****     #define F_CPU 1000000UL  // 1 MHz
  52:/usr/lib/avr/include/util/delay.h ****     //#define F_CPU 14.7456E6
  53:/usr/lib/avr/include/util/delay.h ****     #include <util/delay.h>
  54:/usr/lib/avr/include/util/delay.h ****     \endcode
  55:/usr/lib/avr/include/util/delay.h **** 
  56:/usr/lib/avr/include/util/delay.h ****     \note As an alternative method, it is possible to pass the
  57:/usr/lib/avr/include/util/delay.h ****     F_CPU macro down to the compiler from the Makefile.
  58:/usr/lib/avr/include/util/delay.h ****     Obviously, in that case, no \c \#define statement should be
  59:/usr/lib/avr/include/util/delay.h ****     used.
  60:/usr/lib/avr/include/util/delay.h **** 
  61:/usr/lib/avr/include/util/delay.h ****     The functions in this header file are wrappers around the basic
  62:/usr/lib/avr/include/util/delay.h ****     busy-wait functions from <util/delay_basic.h>.  They are meant as
  63:/usr/lib/avr/include/util/delay.h ****     convenience functions where actual time values can be specified
  64:/usr/lib/avr/include/util/delay.h ****     rather than a number of cycles to wait for.  The idea behind is
  65:/usr/lib/avr/include/util/delay.h ****     that compile-time constant expressions will be eliminated by
  66:/usr/lib/avr/include/util/delay.h ****     compiler optimization so floating-point expressions can be used
  67:/usr/lib/avr/include/util/delay.h ****     to calculate the number of delay cycles needed based on the CPU
  68:/usr/lib/avr/include/util/delay.h ****     frequency passed by the macro F_CPU.
  69:/usr/lib/avr/include/util/delay.h **** 
  70:/usr/lib/avr/include/util/delay.h ****     \note In order for these functions to work as intended, compiler
  71:/usr/lib/avr/include/util/delay.h ****     optimizations <em>must</em> be enabled, and the delay time
  72:/usr/lib/avr/include/util/delay.h ****     <em>must</em> be an expression that is a known constant at
  73:/usr/lib/avr/include/util/delay.h ****     compile-time.  If these requirements are not met, the resulting
  74:/usr/lib/avr/include/util/delay.h ****     delay will be much longer (and basically unpredictable), and
  75:/usr/lib/avr/include/util/delay.h ****     applications that otherwise do not use floating-point calculations
  76:/usr/lib/avr/include/util/delay.h ****     will experience severe code bloat by the floating-point library
  77:/usr/lib/avr/include/util/delay.h ****     routines linked into the application.
  78:/usr/lib/avr/include/util/delay.h **** 
  79:/usr/lib/avr/include/util/delay.h ****     The functions available allow the specification of microsecond, and
  80:/usr/lib/avr/include/util/delay.h ****     millisecond delays directly, using the application-supplied macro
  81:/usr/lib/avr/include/util/delay.h ****     F_CPU as the CPU clock frequency (in Hertz).
  82:/usr/lib/avr/include/util/delay.h **** 
  83:/usr/lib/avr/include/util/delay.h **** */
  84:/usr/lib/avr/include/util/delay.h **** 
  85:/usr/lib/avr/include/util/delay.h **** #if !defined(__DOXYGEN__)
  86:/usr/lib/avr/include/util/delay.h **** static __inline__ void _delay_us(double __us) __attribute__((__always_inline__));
  87:/usr/lib/avr/include/util/delay.h **** static __inline__ void _delay_ms(double __ms) __attribute__((__always_inline__));
  88:/usr/lib/avr/include/util/delay.h **** #endif
  89:/usr/lib/avr/include/util/delay.h **** 
  90:/usr/lib/avr/include/util/delay.h **** #ifndef F_CPU
  91:/usr/lib/avr/include/util/delay.h **** /* prevent compiler error by supplying a default */
  92:/usr/lib/avr/include/util/delay.h **** # warning "F_CPU not defined for <util/delay.h>"
  93:/usr/lib/avr/include/util/delay.h **** /** \ingroup util_delay
  94:/usr/lib/avr/include/util/delay.h ****     \def F_CPU
  95:/usr/lib/avr/include/util/delay.h ****     \brief CPU frequency in Hz
  96:/usr/lib/avr/include/util/delay.h **** 
  97:/usr/lib/avr/include/util/delay.h ****     The macro F_CPU specifies the CPU frequency to be considered by
  98:/usr/lib/avr/include/util/delay.h ****     the delay macros.  This macro is normally supplied by the
  99:/usr/lib/avr/include/util/delay.h ****     environment (e.g. from within a project header, or the project's
 100:/usr/lib/avr/include/util/delay.h ****     Makefile).  The value 1 MHz here is only provided as a "vanilla"
 101:/usr/lib/avr/include/util/delay.h ****     fallback if no such user-provided definition could be found.
 102:/usr/lib/avr/include/util/delay.h **** 
 103:/usr/lib/avr/include/util/delay.h ****     In terms of the delay functions, the CPU frequency can be given as
 104:/usr/lib/avr/include/util/delay.h ****     a floating-point constant (e.g. 3.6864E6 for 3.6864 MHz).
GAS LISTING /tmp/ccjciOO6.s 			page 18


 105:/usr/lib/avr/include/util/delay.h ****     However, the macros in <util/setbaud.h> require it to be an
 106:/usr/lib/avr/include/util/delay.h ****     integer value.
 107:/usr/lib/avr/include/util/delay.h ****  */
 108:/usr/lib/avr/include/util/delay.h **** # define F_CPU 1000000UL
 109:/usr/lib/avr/include/util/delay.h **** #endif
 110:/usr/lib/avr/include/util/delay.h **** 
 111:/usr/lib/avr/include/util/delay.h **** #ifndef __OPTIMIZE__
 112:/usr/lib/avr/include/util/delay.h **** # warning "Compiler optimizations disabled; functions from <util/delay.h> won't work as designed"
 113:/usr/lib/avr/include/util/delay.h **** #endif
 114:/usr/lib/avr/include/util/delay.h **** 
 115:/usr/lib/avr/include/util/delay.h **** #if __HAS_DELAY_CYCLES && defined(__OPTIMIZE__) && \
 116:/usr/lib/avr/include/util/delay.h ****   !defined(__DELAY_BACKWARD_COMPATIBLE__) &&	   \
 117:/usr/lib/avr/include/util/delay.h ****   __STDC_HOSTED__
 118:/usr/lib/avr/include/util/delay.h **** #  include <math.h>
 119:/usr/lib/avr/include/util/delay.h **** #endif
 120:/usr/lib/avr/include/util/delay.h **** 
 121:/usr/lib/avr/include/util/delay.h **** /**
 122:/usr/lib/avr/include/util/delay.h ****    \ingroup util_delay
 123:/usr/lib/avr/include/util/delay.h **** 
 124:/usr/lib/avr/include/util/delay.h ****    Perform a delay of \c __ms milliseconds, using _delay_loop_2().
 125:/usr/lib/avr/include/util/delay.h **** 
 126:/usr/lib/avr/include/util/delay.h ****    The macro F_CPU is supposed to be defined to a
 127:/usr/lib/avr/include/util/delay.h ****    constant defining the CPU clock frequency (in Hertz).
 128:/usr/lib/avr/include/util/delay.h **** 
 129:/usr/lib/avr/include/util/delay.h ****    The maximal possible delay is 262.14 ms / F_CPU in MHz.
 130:/usr/lib/avr/include/util/delay.h **** 
 131:/usr/lib/avr/include/util/delay.h ****    When the user request delay which exceed the maximum possible one,
 132:/usr/lib/avr/include/util/delay.h ****    _delay_ms() provides a decreased resolution functionality. In this
 133:/usr/lib/avr/include/util/delay.h ****    mode _delay_ms() will work with a resolution of 1/10 ms, providing
 134:/usr/lib/avr/include/util/delay.h ****    delays up to 6.5535 seconds (independent from CPU frequency).  The
 135:/usr/lib/avr/include/util/delay.h ****    user will not be informed about decreased resolution.
 136:/usr/lib/avr/include/util/delay.h **** 
 137:/usr/lib/avr/include/util/delay.h ****    If the avr-gcc toolchain has __builtin_avr_delay_cycles()
 138:/usr/lib/avr/include/util/delay.h ****    support, maximal possible delay is 4294967.295 ms/ F_CPU in MHz. For
 139:/usr/lib/avr/include/util/delay.h ****    values greater than the maximal possible delay, overflows results in
 140:/usr/lib/avr/include/util/delay.h ****    no delay i.e., 0ms.
 141:/usr/lib/avr/include/util/delay.h **** 
 142:/usr/lib/avr/include/util/delay.h ****    Conversion of \c __ms into clock cycles may not always result in
 143:/usr/lib/avr/include/util/delay.h ****    integer.  By default, the clock cycles rounded up to next
 144:/usr/lib/avr/include/util/delay.h ****    integer. This ensures that the user gets at least \c __ms
 145:/usr/lib/avr/include/util/delay.h ****    microseconds of delay.
 146:/usr/lib/avr/include/util/delay.h **** 
 147:/usr/lib/avr/include/util/delay.h ****    Alternatively, by defining the macro \c __DELAY_ROUND_DOWN__, or
 148:/usr/lib/avr/include/util/delay.h ****    \c __DELAY_ROUND_CLOSEST__, before including this header file, the
 149:/usr/lib/avr/include/util/delay.h ****    algorithm can be made to round down, or round to closest integer,
 150:/usr/lib/avr/include/util/delay.h ****    respectively.
 151:/usr/lib/avr/include/util/delay.h **** 
 152:/usr/lib/avr/include/util/delay.h ****    \note
 153:/usr/lib/avr/include/util/delay.h **** 
 154:/usr/lib/avr/include/util/delay.h ****    The implementation of _delay_ms() based on
 155:/usr/lib/avr/include/util/delay.h ****    __builtin_avr_delay_cycles() is not backward compatible with older
 156:/usr/lib/avr/include/util/delay.h ****    implementations.  In order to get functionality backward compatible
 157:/usr/lib/avr/include/util/delay.h ****    with previous versions, the macro \c "__DELAY_BACKWARD_COMPATIBLE__"
 158:/usr/lib/avr/include/util/delay.h ****    must be defined before including this header file. Also, the
 159:/usr/lib/avr/include/util/delay.h ****    backward compatible algorithm will be chosen if the code is
 160:/usr/lib/avr/include/util/delay.h ****    compiled in a <em>freestanding environment</em> (GCC option
 161:/usr/lib/avr/include/util/delay.h ****    \c -ffreestanding), as the math functions required for rounding are
GAS LISTING /tmp/ccjciOO6.s 			page 19


 162:/usr/lib/avr/include/util/delay.h ****    not available to the compiler then.
 163:/usr/lib/avr/include/util/delay.h **** 
 164:/usr/lib/avr/include/util/delay.h ****  */
 165:/usr/lib/avr/include/util/delay.h **** void
 166:/usr/lib/avr/include/util/delay.h **** _delay_ms(double __ms)
 167:/usr/lib/avr/include/util/delay.h **** {
 168:/usr/lib/avr/include/util/delay.h **** 	double __tmp ;
 169:/usr/lib/avr/include/util/delay.h **** #if __HAS_DELAY_CYCLES && defined(__OPTIMIZE__) && \
 170:/usr/lib/avr/include/util/delay.h ****   !defined(__DELAY_BACKWARD_COMPATIBLE__) &&	   \
 171:/usr/lib/avr/include/util/delay.h ****   __STDC_HOSTED__
 172:/usr/lib/avr/include/util/delay.h **** 	uint32_t __ticks_dc;
 173:/usr/lib/avr/include/util/delay.h **** 	extern void __builtin_avr_delay_cycles(unsigned long);
 174:/usr/lib/avr/include/util/delay.h **** 	__tmp = ((F_CPU) / 1e3) * __ms;
 175:/usr/lib/avr/include/util/delay.h **** 
 176:/usr/lib/avr/include/util/delay.h **** 	#if defined(__DELAY_ROUND_DOWN__)
 177:/usr/lib/avr/include/util/delay.h **** 		__ticks_dc = (uint32_t)fabs(__tmp);
 178:/usr/lib/avr/include/util/delay.h **** 
 179:/usr/lib/avr/include/util/delay.h **** 	#elif defined(__DELAY_ROUND_CLOSEST__)
 180:/usr/lib/avr/include/util/delay.h **** 		__ticks_dc = (uint32_t)(fabs(__tmp)+0.5);
 181:/usr/lib/avr/include/util/delay.h **** 
 182:/usr/lib/avr/include/util/delay.h **** 	#else
 183:/usr/lib/avr/include/util/delay.h **** 		//round up by default
 184:/usr/lib/avr/include/util/delay.h **** 		__ticks_dc = (uint32_t)(ceil(fabs(__tmp)));
 185:/usr/lib/avr/include/util/delay.h **** 	#endif
 186:/usr/lib/avr/include/util/delay.h **** 
 187:/usr/lib/avr/include/util/delay.h **** 	__builtin_avr_delay_cycles(__ticks_dc);
 188:/usr/lib/avr/include/util/delay.h **** 
 189:/usr/lib/avr/include/util/delay.h **** #else
 190:/usr/lib/avr/include/util/delay.h **** 	uint16_t __ticks;
 191:/usr/lib/avr/include/util/delay.h **** 	__tmp = ((F_CPU) / 4e3) * __ms;
 192:/usr/lib/avr/include/util/delay.h **** 	if (__tmp < 1.0)
 193:/usr/lib/avr/include/util/delay.h **** 		__ticks = 1;
 194:/usr/lib/avr/include/util/delay.h **** 	else if (__tmp > 65535)
 195:/usr/lib/avr/include/util/delay.h **** 	{
 196:/usr/lib/avr/include/util/delay.h **** 		//	__ticks = requested delay in 1/10 ms
 197:/usr/lib/avr/include/util/delay.h **** 		__ticks = (uint16_t) (__ms * 10.0);
 198:/usr/lib/avr/include/util/delay.h **** 		while(__ticks)
 199:/usr/lib/avr/include/util/delay.h **** 		{
 200:/usr/lib/avr/include/util/delay.h **** 			// wait 1/10 ms
 201:/usr/lib/avr/include/util/delay.h **** 			_delay_loop_2(((F_CPU) / 4e3) / 10);
 202:/usr/lib/avr/include/util/delay.h **** 			__ticks --;
 203:/usr/lib/avr/include/util/delay.h **** 		}
 204:/usr/lib/avr/include/util/delay.h **** 		return;
 205:/usr/lib/avr/include/util/delay.h **** 	}
 206:/usr/lib/avr/include/util/delay.h **** 	else
 207:/usr/lib/avr/include/util/delay.h **** 		__ticks = (uint16_t)__tmp;
 208:/usr/lib/avr/include/util/delay.h **** 	_delay_loop_2(__ticks);
 209:/usr/lib/avr/include/util/delay.h **** #endif
 210:/usr/lib/avr/include/util/delay.h **** }
 211:/usr/lib/avr/include/util/delay.h **** 
 212:/usr/lib/avr/include/util/delay.h **** /**
 213:/usr/lib/avr/include/util/delay.h ****    \ingroup util_delay
 214:/usr/lib/avr/include/util/delay.h **** 
 215:/usr/lib/avr/include/util/delay.h ****    Perform a delay of \c __us microseconds, using _delay_loop_1().
 216:/usr/lib/avr/include/util/delay.h **** 
 217:/usr/lib/avr/include/util/delay.h ****    The macro F_CPU is supposed to be defined to a
 218:/usr/lib/avr/include/util/delay.h ****    constant defining the CPU clock frequency (in Hertz).
GAS LISTING /tmp/ccjciOO6.s 			page 20


 219:/usr/lib/avr/include/util/delay.h **** 
 220:/usr/lib/avr/include/util/delay.h ****    The maximal possible delay is 768 us / F_CPU in MHz.
 221:/usr/lib/avr/include/util/delay.h **** 
 222:/usr/lib/avr/include/util/delay.h ****    If the user requests a delay greater than the maximal possible one,
 223:/usr/lib/avr/include/util/delay.h ****    _delay_us() will automatically call _delay_ms() instead.  The user
 224:/usr/lib/avr/include/util/delay.h ****    will not be informed about this case.
 225:/usr/lib/avr/include/util/delay.h **** 
 226:/usr/lib/avr/include/util/delay.h ****    If the avr-gcc toolchain has __builtin_avr_delay_cycles()
 227:/usr/lib/avr/include/util/delay.h ****    support, maximal possible delay is 4294967.295 us/ F_CPU in MHz. For
 228:/usr/lib/avr/include/util/delay.h ****    values greater than the maximal possible delay, overflow results in
 229:/usr/lib/avr/include/util/delay.h ****    no delay i.e., 0us.
 230:/usr/lib/avr/include/util/delay.h **** 
 231:/usr/lib/avr/include/util/delay.h ****    Conversion of \c __us into clock cycles may not always result in
 232:/usr/lib/avr/include/util/delay.h ****    integer.  By default, the clock cycles rounded up to next
 233:/usr/lib/avr/include/util/delay.h ****    integer. This ensures that the user gets at least \c __us
 234:/usr/lib/avr/include/util/delay.h ****    microseconds of delay.
 235:/usr/lib/avr/include/util/delay.h **** 
 236:/usr/lib/avr/include/util/delay.h ****    Alternatively, by defining the macro \c __DELAY_ROUND_DOWN__, or
 237:/usr/lib/avr/include/util/delay.h ****    \c __DELAY_ROUND_CLOSEST__, before including this header file, the
 238:/usr/lib/avr/include/util/delay.h ****    algorithm can be made to round down, or round to closest integer,
 239:/usr/lib/avr/include/util/delay.h ****    respectively.
 240:/usr/lib/avr/include/util/delay.h **** 
 241:/usr/lib/avr/include/util/delay.h ****    \note
 242:/usr/lib/avr/include/util/delay.h **** 
 243:/usr/lib/avr/include/util/delay.h ****    The implementation of _delay_ms() based on
 244:/usr/lib/avr/include/util/delay.h ****    __builtin_avr_delay_cycles() is not backward compatible with older
 245:/usr/lib/avr/include/util/delay.h ****    implementations.  In order to get functionality backward compatible
 246:/usr/lib/avr/include/util/delay.h ****    with previous versions, the macro \c __DELAY_BACKWARD_COMPATIBLE__
 247:/usr/lib/avr/include/util/delay.h ****    must be defined before including this header file. Also, the
 248:/usr/lib/avr/include/util/delay.h ****    backward compatible algorithm will be chosen if the code is
 249:/usr/lib/avr/include/util/delay.h ****    compiled in a <em>freestanding environment</em> (GCC option
 250:/usr/lib/avr/include/util/delay.h ****    \c -ffreestanding), as the math functions required for rounding are
 251:/usr/lib/avr/include/util/delay.h ****    not available to the compiler then.
 252:/usr/lib/avr/include/util/delay.h **** 
 253:/usr/lib/avr/include/util/delay.h ****  */
 254:/usr/lib/avr/include/util/delay.h **** void
 255:/usr/lib/avr/include/util/delay.h **** _delay_us(double __us)
 256:/usr/lib/avr/include/util/delay.h **** {
 257:/usr/lib/avr/include/util/delay.h **** 	double __tmp ;
 258:/usr/lib/avr/include/util/delay.h **** #if __HAS_DELAY_CYCLES && defined(__OPTIMIZE__) && \
 259:/usr/lib/avr/include/util/delay.h ****   !defined(__DELAY_BACKWARD_COMPATIBLE__) &&	   \
 260:/usr/lib/avr/include/util/delay.h ****   __STDC_HOSTED__
 261:/usr/lib/avr/include/util/delay.h **** 	uint32_t __ticks_dc;
 262:/usr/lib/avr/include/util/delay.h **** 	extern void __builtin_avr_delay_cycles(unsigned long);
 263:/usr/lib/avr/include/util/delay.h **** 	__tmp = ((F_CPU) / 1e6) * __us;
 264:/usr/lib/avr/include/util/delay.h **** 
 265:/usr/lib/avr/include/util/delay.h **** 	#if defined(__DELAY_ROUND_DOWN__)
 266:/usr/lib/avr/include/util/delay.h **** 		__ticks_dc = (uint32_t)fabs(__tmp);
 267:/usr/lib/avr/include/util/delay.h **** 
 268:/usr/lib/avr/include/util/delay.h **** 	#elif defined(__DELAY_ROUND_CLOSEST__)
 269:/usr/lib/avr/include/util/delay.h **** 		__ticks_dc = (uint32_t)(fabs(__tmp)+0.5);
 270:/usr/lib/avr/include/util/delay.h **** 
 271:/usr/lib/avr/include/util/delay.h **** 	#else
 272:/usr/lib/avr/include/util/delay.h **** 		//round up by default
 273:/usr/lib/avr/include/util/delay.h **** 		__ticks_dc = (uint32_t)(ceil(fabs(__tmp)));
 274:/usr/lib/avr/include/util/delay.h **** 	#endif
 275:/usr/lib/avr/include/util/delay.h **** 
GAS LISTING /tmp/ccjciOO6.s 			page 21


 276:/usr/lib/avr/include/util/delay.h **** 	__builtin_avr_delay_cycles(__ticks_dc);
 492               		.loc 3 276 0
 493 0172 EFE3      		ldi r30,lo8(7999)
 494 0174 FFE1      		ldi r31,hi8(7999)
 495 0176 3197      	1:	sbiw r30,1
 496 0178 01F4      		brne 1b
 497 017a 00C0      		rjmp .
 498 017c 0000      		nop
 499 017e 0197      		sbiw r24,1
 500               	.LVL38:
 501 0180 00C0      		rjmp .L28
 502               	.LVL39:
 503               	.L30:
 504               	/* epilogue start */
 505               	.LBE92:
 506               	.LBE91:
  78:main.c        ****         _delay_us(1000);  
  79:main.c        **** } 
 507               		.loc 1 79 0
 508 0182 0895      		ret
 509               		.cfi_endproc
 510               	.LFE26:
 511               		.size	delay_ms, .-delay_ms
 512               	.global	compareArray
 513               		.type	compareArray, @function
 514               	compareArray:
 515               	.LFB27:
  80:main.c        **** 
  81:main.c        **** // Compare two arrays
  82:main.c        **** int compareArray(int a[6], int b[6]){
 516               		.loc 1 82 0
 517               		.cfi_startproc
 518               	.LVL40:
 519               	/* prologue: function */
 520               	/* frame size = 0 */
 521               	/* stack size = 0 */
 522               	.L__stack_usage = 0
 523 0184 DC01      		movw r26,r24
 524 0186 FB01      		movw r30,r22
  83:main.c        **** 	return ((a[0]==b[0])&&
  84:main.c        **** 			(a[1]==b[1])&&
  85:main.c        **** 			(a[2]==b[2])&&
  86:main.c        **** 			(a[3]==b[3])&&
  87:main.c        **** 			(a[4]==b[4])&&
 525               		.loc 1 87 0
 526 0188 2D91      		ld r18,X+
 527 018a 3C91      		ld r19,X
 528 018c 1197      		sbiw r26,1
 529 018e 8081      		ld r24,Z
 530 0190 9181      		ldd r25,Z+1
 531               	.LVL41:
 532 0192 2817      		cp r18,r24
 533 0194 3907      		cpc r19,r25
 534 0196 01F4      		brne .L38
  83:main.c        **** 	return ((a[0]==b[0])&&
 535               		.loc 1 83 0
 536 0198 1296      		adiw r26,2
GAS LISTING /tmp/ccjciOO6.s 			page 22


 537 019a 2D91      		ld r18,X+
 538 019c 3C91      		ld r19,X
 539 019e 1397      		sbiw r26,2+1
 540 01a0 8281      		ldd r24,Z+2
 541 01a2 9381      		ldd r25,Z+3
 542 01a4 2817      		cp r18,r24
 543 01a6 3907      		cpc r19,r25
 544 01a8 01F4      		brne .L38
  84:main.c        **** 			(a[2]==b[2])&&
 545               		.loc 1 84 0
 546 01aa 1496      		adiw r26,4
 547 01ac 2D91      		ld r18,X+
 548 01ae 3C91      		ld r19,X
 549 01b0 1597      		sbiw r26,4+1
 550 01b2 8481      		ldd r24,Z+4
 551 01b4 9581      		ldd r25,Z+5
 552 01b6 2817      		cp r18,r24
 553 01b8 3907      		cpc r19,r25
 554 01ba 01F4      		brne .L38
  85:main.c        **** 			(a[3]==b[3])&&
 555               		.loc 1 85 0
 556 01bc 1696      		adiw r26,6
 557 01be 2D91      		ld r18,X+
 558 01c0 3C91      		ld r19,X
 559 01c2 1797      		sbiw r26,6+1
 560 01c4 8681      		ldd r24,Z+6
 561 01c6 9781      		ldd r25,Z+7
 562 01c8 2817      		cp r18,r24
 563 01ca 3907      		cpc r19,r25
 564 01cc 01F4      		brne .L38
  86:main.c        **** 			(a[4]==b[4])&&
 565               		.loc 1 86 0
 566 01ce 1896      		adiw r26,8
 567 01d0 2D91      		ld r18,X+
 568 01d2 3C91      		ld r19,X
 569 01d4 1997      		sbiw r26,8+1
 570 01d6 8085      		ldd r24,Z+8
 571 01d8 9185      		ldd r25,Z+9
 572 01da 2817      		cp r18,r24
 573 01dc 3907      		cpc r19,r25
 574 01de 01F4      		brne .L38
 575               		.loc 1 87 0 discriminator 3
 576 01e0 21E0      		ldi r18,lo8(1)
 577 01e2 90E0      		ldi r25,0
 578 01e4 1A96      		adiw r26,10
 579 01e6 6D91      		ld r22,X+
 580 01e8 7C91      		ld r23,X
 581 01ea 1B97      		sbiw r26,10+1
 582               	.LVL42:
 583 01ec 4285      		ldd r20,Z+10
 584 01ee 5385      		ldd r21,Z+11
 585 01f0 6417      		cp r22,r20
 586 01f2 7507      		cpc r23,r21
 587 01f4 01F0      		breq .L33
 588 01f6 20E0      		ldi r18,0
 589               	.L33:
 590 01f8 822F      		mov r24,r18
GAS LISTING /tmp/ccjciOO6.s 			page 23


 591 01fa 0895      		ret
 592               	.LVL43:
 593               	.L38:
 594               		.loc 1 87 0 is_stmt 0
 595 01fc 80E0      		ldi r24,0
 596 01fe 90E0      		ldi r25,0
  88:main.c        **** 			(a[5]==b[5]));
  89:main.c        **** }
 597               		.loc 1 89 0 is_stmt 1
 598 0200 0895      		ret
 599               		.cfi_endproc
 600               	.LFE27:
 601               		.size	compareArray, .-compareArray
 602               	.global	signum
 603               		.type	signum, @function
 604               	signum:
 605               	.LFB28:
  90:main.c        **** 
  91:main.c        **** //Return only the sign of number n: 1, -1, or 0. 
  92:main.c        **** int signum(int n) { 
 606               		.loc 1 92 0
 607               		.cfi_startproc
 608               	.LVL44:
 609               	/* prologue: function */
 610               	/* frame size = 0 */
 611               	/* stack size = 0 */
 612               	.L__stack_usage = 0
 613 0202 AC01      		movw r20,r24
  93:main.c        **** 	return (n < 0) ? -1 : (n > 0) ? +1 : 0; 
 614               		.loc 1 93 0
 615 0204 97FD      		sbrc r25,7
 616 0206 00C0      		rjmp .L42
 617               		.loc 1 93 0 is_stmt 0 discriminator 1
 618 0208 21E0      		ldi r18,lo8(1)
 619 020a 90E0      		ldi r25,0
 620 020c 1416      		cp __zero_reg__,r20
 621 020e 1506      		cpc __zero_reg__,r21
 622 0210 04F0      		brlt .L41
 623 0212 20E0      		ldi r18,0
 624               	.L41:
 625 0214 822F      		mov r24,r18
 626               	.LVL45:
 627 0216 0895      		ret
 628               	.L42:
 629               		.loc 1 93 0
 630 0218 8FEF      		ldi r24,lo8(-1)
 631 021a 9FEF      		ldi r25,lo8(-1)
  94:main.c        **** }
 632               		.loc 1 94 0 is_stmt 1
 633 021c 0895      		ret
 634               		.cfi_endproc
 635               	.LFE28:
 636               		.size	signum, .-signum
 637               	.global	Config32MHzClock
 638               		.type	Config32MHzClock, @function
 639               	Config32MHzClock:
 640               	.LFB29:
GAS LISTING /tmp/ccjciOO6.s 			page 24


  95:main.c        **** 
  96:main.c        **** // Set Clock Speed to 32MHz (XMega)
  97:main.c        **** void Config32MHzClock(void)
  98:main.c        **** { 
 641               		.loc 1 98 0
 642               		.cfi_startproc
 643               	/* prologue: function */
 644               	/* frame size = 0 */
 645               	/* stack size = 0 */
 646               	.L__stack_usage = 0
  99:main.c        **** 	CCP = CCP_IOREG_gc; //Security Signature to modify clock 
 647               		.loc 1 99 0
 648 021e 88ED      		ldi r24,lo8(-40)
 649 0220 84BF      		out __CCP__,r24
 100:main.c        **** 	// initialize clock source to be 32MHz internal oscillator (no PLL) 
 101:main.c        **** 	OSC.CTRL = OSC_RC32MEN_bm; // enable internal 32MHz oscillator 
 650               		.loc 1 101 0
 651 0222 82E0      		ldi r24,lo8(2)
 652 0224 8093 5000 		sts 80,r24
 653               	.L44:
 102:main.c        **** 	while(!(OSC.STATUS & OSC_RC32MRDY_bm)); // wait for oscillator ready 
 654               		.loc 1 102 0 discriminator 1
 655 0228 8091 5100 		lds r24,81
 656 022c 81FF      		sbrs r24,1
 657 022e 00C0      		rjmp .L44
 103:main.c        **** 	CCP = CCP_IOREG_gc; //Security Signature to modify clock 
 658               		.loc 1 103 0
 659 0230 88ED      		ldi r24,lo8(-40)
 660 0232 84BF      		out __CCP__,r24
 104:main.c        **** 	CLK.CTRL = 0x01; //select sysclock 32MHz osc 
 661               		.loc 1 104 0
 662 0234 81E0      		ldi r24,lo8(1)
 663 0236 8093 4000 		sts 64,r24
 664 023a 0895      		ret
 665               		.cfi_endproc
 666               	.LFE29:
 667               		.size	Config32MHzClock, .-Config32MHzClock
 668               	.global	millis
 669               		.type	millis, @function
 670               	millis:
 671               	.LFB30:
 105:main.c        **** }
 106:main.c        **** 
 107:main.c        **** //Get time elapsed in millis 
 108:main.c        **** long millis(void){
 672               		.loc 1 108 0
 673               		.cfi_startproc
 674               	/* prologue: function */
 675               	/* frame size = 0 */
 676               	/* stack size = 0 */
 677               	.L__stack_usage = 0
 109:main.c        **** 	return elapsedMillis;
 678               		.loc 1 109 0
 679 023c 6091 0000 		lds r22,elapsedMillis
 680 0240 7091 0000 		lds r23,elapsedMillis+1
 681 0244 8091 0000 		lds r24,elapsedMillis+2
 682 0248 9091 0000 		lds r25,elapsedMillis+3
GAS LISTING /tmp/ccjciOO6.s 			page 25


 110:main.c        **** }
 683               		.loc 1 110 0
 684 024c 0895      		ret
 685               		.cfi_endproc
 686               	.LFE30:
 687               		.size	millis, .-millis
 688               	.global	blink
 689               		.type	blink, @function
 690               	blink:
 691               	.LFB31:
 111:main.c        **** 
 112:main.c        **** void blink(int myVal){
 692               		.loc 1 112 0
 693               		.cfi_startproc
 694               	.LVL46:
 695 024e FF92      		push r15
 696               	.LCFI15:
 697               		.cfi_def_cfa_offset 3
 698               		.cfi_offset 15, -2
 699 0250 0F93      		push r16
 700               	.LCFI16:
 701               		.cfi_def_cfa_offset 4
 702               		.cfi_offset 16, -3
 703 0252 1F93      		push r17
 704               	.LCFI17:
 705               		.cfi_def_cfa_offset 5
 706               		.cfi_offset 17, -4
 707 0254 CF93      		push r28
 708               	.LCFI18:
 709               		.cfi_def_cfa_offset 6
 710               		.cfi_offset 28, -5
 711 0256 DF93      		push r29
 712               	.LCFI19:
 713               		.cfi_def_cfa_offset 7
 714               		.cfi_offset 29, -6
 715               	/* prologue: function */
 716               	/* frame size = 0 */
 717               	/* stack size = 5 */
 718               	.L__stack_usage = 5
 719 0258 EC01      		movw r28,r24
 113:main.c        **** 		PORTE.OUTSET = _BV(0);
 720               		.loc 1 113 0
 721 025a 00E8      		ldi r16,lo8(-128)
 722 025c 16E0      		ldi r17,lo8(6)
 723 025e FF24      		clr r15
 724 0260 F394      		inc r15
 725 0262 F801      		movw r30,r16
 726 0264 F582      		std Z+5,r15
 114:main.c        ****         delay_ms(myVal);
 727               		.loc 1 114 0
 728 0266 0E94 0000 		call delay_ms
 729               	.LVL47:
 115:main.c        ****         PORTE.OUTCLR = _BV(0);
 730               		.loc 1 115 0
 731 026a F801      		movw r30,r16
 732 026c F682      		std Z+6,r15
 116:main.c        ****         delay_ms(myVal);
GAS LISTING /tmp/ccjciOO6.s 			page 26


 733               		.loc 1 116 0
 734 026e CE01      		movw r24,r28
 735               	/* epilogue start */
 117:main.c        **** }
 736               		.loc 1 117 0
 737 0270 DF91      		pop r29
 738 0272 CF91      		pop r28
 739               	.LVL48:
 740 0274 1F91      		pop r17
 741 0276 0F91      		pop r16
 742 0278 FF90      		pop r15
 116:main.c        ****         delay_ms(myVal);
 743               		.loc 1 116 0
 744 027a 0C94 0000 		jmp delay_ms
 745               	.LVL49:
 746               		.cfi_endproc
 747               	.LFE31:
 748               		.size	blink, .-blink
 749               	.global	blinkN
 750               		.type	blinkN, @function
 751               	blinkN:
 752               	.LFB32:
 118:main.c        **** 
 119:main.c        **** void blinkN(int n){
 753               		.loc 1 119 0
 754               		.cfi_startproc
 755               	.LVL50:
 756 027e 0F93      		push r16
 757               	.LCFI20:
 758               		.cfi_def_cfa_offset 3
 759               		.cfi_offset 16, -2
 760 0280 1F93      		push r17
 761               	.LCFI21:
 762               		.cfi_def_cfa_offset 4
 763               		.cfi_offset 17, -3
 764 0282 CF93      		push r28
 765               	.LCFI22:
 766               		.cfi_def_cfa_offset 5
 767               		.cfi_offset 28, -4
 768 0284 DF93      		push r29
 769               	.LCFI23:
 770               		.cfi_def_cfa_offset 6
 771               		.cfi_offset 29, -5
 772               	/* prologue: function */
 773               	/* frame size = 0 */
 774               	/* stack size = 4 */
 775               	.L__stack_usage = 4
 776 0286 8C01      		movw r16,r24
 777               	.LVL51:
 120:main.c        ****     int i;
 121:main.c        **** 	for (i=0;i<n;i++){
 778               		.loc 1 121 0
 779 0288 C0E0      		ldi r28,0
 780 028a D0E0      		ldi r29,0
 781               	.LVL52:
 782               	.L50:
 783               		.loc 1 121 0 is_stmt 0 discriminator 1
GAS LISTING /tmp/ccjciOO6.s 			page 27


 784 028c C017      		cp r28,r16
 785 028e D107      		cpc r29,r17
 786 0290 04F4      		brge .L52
 122:main.c        **** 		blink(50);
 787               		.loc 1 122 0 is_stmt 1 discriminator 3
 788 0292 82E3      		ldi r24,lo8(50)
 789 0294 90E0      		ldi r25,0
 790 0296 0E94 0000 		call blink
 791               	.LVL53:
 121:main.c        **** 		blink(50);
 792               		.loc 1 121 0 discriminator 3
 793 029a 2196      		adiw r28,1
 794               	.LVL54:
 795 029c 00C0      		rjmp .L50
 796               	.L52:
 797               	/* epilogue start */
 123:main.c        **** 	}
 124:main.c        **** }
 798               		.loc 1 124 0
 799 029e DF91      		pop r29
 800 02a0 CF91      		pop r28
 801               	.LVL55:
 802 02a2 1F91      		pop r17
 803 02a4 0F91      		pop r16
 804               	.LVL56:
 805 02a6 0895      		ret
 806               		.cfi_endproc
 807               	.LFE32:
 808               		.size	blinkN, .-blinkN
 809               	.global	setPin
 810               		.type	setPin, @function
 811               	setPin:
 812               	.LFB33:
 125:main.c        **** 
 126:main.c        **** // Set selected pin to 1/HIGH 
 127:main.c        **** // TODO: rest of ports
 128:main.c        **** void setPin(char portNum, int pinNum){
 813               		.loc 1 128 0
 814               		.cfi_startproc
 815               	.LVL57:
 816               	/* prologue: function */
 817               	/* frame size = 0 */
 818               	/* stack size = 0 */
 819               	.L__stack_usage = 0
 129:main.c        **** 	switch (portNum){
 820               		.loc 1 129 0
 821 02a8 8234      		cpi r24,lo8(66)
 822 02aa 01F0      		breq .L55
 823 02ac 00F4      		brsh .L56
 824 02ae 8134      		cpi r24,lo8(65)
 825 02b0 01F0      		breq .L57
 826 02b2 0895      		ret
 827               	.L56:
 828 02b4 8334      		cpi r24,lo8(67)
 829 02b6 01F0      		breq .L58
 830 02b8 8434      		cpi r24,lo8(68)
 831 02ba 01F4      		brne .+2
GAS LISTING /tmp/ccjciOO6.s 			page 28


 832 02bc 00C0      		rjmp .L59
 833 02be 0895      		ret
 834               	.L57:
 130:main.c        **** 		//PORTA 
 131:main.c        **** 		case 'A':{
 132:main.c        **** 			switch (pinNum){
 835               		.loc 1 132 0
 836 02c0 6830      		cpi r22,8
 837 02c2 7105      		cpc r23,__zero_reg__
 838 02c4 00F0      		brlo .+2
 839 02c6 00C0      		rjmp .L53
 840 02c8 FB01      		movw r30,r22
 841 02ca E050      		subi r30,lo8(-(gs(.L61)))
 842 02cc F040      		sbci r31,hi8(-(gs(.L61)))
 843 02ce 0C94 0000 		jmp __tablejump2__
 844               		.section	.progmem.gcc_sw_table,"a",@progbits
 845               		.p2align	1
 846               	.L61:
 847 0000 0000      		.word gs(.L60)
 848 0002 0000      		.word gs(.L62)
 849 0004 0000      		.word gs(.L63)
 850 0006 0000      		.word gs(.L64)
 851 0008 0000      		.word gs(.L65)
 852 000a 0000      		.word gs(.L66)
 853 000c 0000      		.word gs(.L67)
 854 000e 0000      		.word gs(.L68)
 855               		.text
 856               	.L60:
 133:main.c        **** 				case 0: set_it(PORTA_OUTSET,BIT(0)); break; 
 857               		.loc 1 133 0
 858 02d2 81E0      		ldi r24,lo8(1)
 859               	.LVL58:
 860 02d4 00C0      		rjmp .L89
 861               	.LVL59:
 862               	.L62:
 134:main.c        **** 				case 1: set_it(PORTA_OUTSET,BIT(1)); break;
 863               		.loc 1 134 0
 864 02d6 82E0      		ldi r24,lo8(2)
 865               	.LVL60:
 866               	.L89:
 867 02d8 8093 0506 		sts 1541,r24
 868 02dc 0895      		ret
 869               	.LVL61:
 870               	.L63:
 135:main.c        **** 				case 2: set_it(PORTA_OUTSET,BIT(2)); break;
 871               		.loc 1 135 0
 872 02de 84E0      		ldi r24,lo8(4)
 873               	.LVL62:
 874 02e0 00C0      		rjmp .L89
 875               	.LVL63:
 876               	.L64:
 136:main.c        **** 				case 3: set_it(PORTA_OUTSET,BIT(3)); break;
 877               		.loc 1 136 0
 878 02e2 88E0      		ldi r24,lo8(8)
 879               	.LVL64:
 880 02e4 00C0      		rjmp .L89
 881               	.LVL65:
GAS LISTING /tmp/ccjciOO6.s 			page 29


 882               	.L65:
 137:main.c        **** 				case 4: set_it(PORTA_OUTSET,BIT(4)); break;
 883               		.loc 1 137 0
 884 02e6 80E1      		ldi r24,lo8(16)
 885               	.LVL66:
 886 02e8 00C0      		rjmp .L89
 887               	.LVL67:
 888               	.L66:
 138:main.c        **** 				case 5: set_it(PORTA_OUTSET,BIT(5)); break;
 889               		.loc 1 138 0
 890 02ea 80E2      		ldi r24,lo8(32)
 891               	.LVL68:
 892 02ec 00C0      		rjmp .L89
 893               	.LVL69:
 894               	.L67:
 139:main.c        **** 				case 6: set_it(PORTA_OUTSET,BIT(6)); break;
 895               		.loc 1 139 0
 896 02ee 80E4      		ldi r24,lo8(64)
 897               	.LVL70:
 898 02f0 00C0      		rjmp .L89
 899               	.LVL71:
 900               	.L68:
 140:main.c        **** 				case 7: set_it(PORTA_OUTSET,BIT(7)); break;
 901               		.loc 1 140 0
 902 02f2 80E8      		ldi r24,lo8(-128)
 903               	.LVL72:
 904 02f4 00C0      		rjmp .L89
 905               	.LVL73:
 906               	.L55:
 141:main.c        **** 			}
 142:main.c        **** 		break;
 143:main.c        **** 		}
 144:main.c        **** 		//PORTB
 145:main.c        **** 		case 'B':{
 146:main.c        **** 			switch (pinNum){
 907               		.loc 1 146 0
 908 02f6 6130      		cpi r22,1
 909 02f8 7105      		cpc r23,__zero_reg__
 910 02fa 01F0      		breq .L69
 911 02fc 04F4      		brge .L70
 912 02fe 672B      		or r22,r23
 913 0300 01F0      		breq .L71
 914 0302 0895      		ret
 915               	.L70:
 916 0304 6230      		cpi r22,2
 917 0306 7105      		cpc r23,__zero_reg__
 918 0308 01F0      		breq .L72
 919 030a 6330      		cpi r22,3
 920 030c 7105      		cpc r23,__zero_reg__
 921 030e 01F0      		breq .L73
 922 0310 0895      		ret
 923               	.L71:
 147:main.c        **** 				case 0: set_it(PORTB_OUTSET,BIT(0)); break;
 924               		.loc 1 147 0
 925 0312 81E0      		ldi r24,lo8(1)
 926               	.LVL74:
 927 0314 00C0      		rjmp .L91
GAS LISTING /tmp/ccjciOO6.s 			page 30


 928               	.LVL75:
 929               	.L69:
 148:main.c        **** 				case 1: set_it(PORTB_OUTSET,BIT(1)); break;
 930               		.loc 1 148 0
 931 0316 82E0      		ldi r24,lo8(2)
 932               	.LVL76:
 933 0318 00C0      		rjmp .L91
 934               	.LVL77:
 935               	.L72:
 149:main.c        **** 				case 2: set_it(PORTB_OUTSET,BIT(2)); break;
 936               		.loc 1 149 0
 937 031a 84E0      		ldi r24,lo8(4)
 938               	.LVL78:
 939 031c 00C0      		rjmp .L91
 940               	.LVL79:
 941               	.L73:
 150:main.c        **** 				case 3: set_it(PORTB_OUTSET,BIT(3)); break;
 942               		.loc 1 150 0
 943 031e 88E0      		ldi r24,lo8(8)
 944               	.LVL80:
 945               	.L91:
 946 0320 8093 2506 		sts 1573,r24
 947 0324 0895      		ret
 948               	.LVL81:
 949               	.L58:
 151:main.c        **** 			}
 152:main.c        **** 		break;
 153:main.c        **** 		}
 154:main.c        **** 		//PORTC
 155:main.c        **** 		case 'C':{
 156:main.c        **** 			switch (pinNum){
 950               		.loc 1 156 0
 951 0326 6830      		cpi r22,8
 952 0328 7105      		cpc r23,__zero_reg__
 953 032a 00F4      		brsh .L53
 954 032c FB01      		movw r30,r22
 955 032e E050      		subi r30,lo8(-(gs(.L75)))
 956 0330 F040      		sbci r31,hi8(-(gs(.L75)))
 957 0332 0C94 0000 		jmp __tablejump2__
 958               		.section	.progmem.gcc_sw_table,"a",@progbits
 959               		.p2align	1
 960               	.L75:
 961 0010 0000      		.word gs(.L74)
 962 0012 0000      		.word gs(.L76)
 963 0014 0000      		.word gs(.L77)
 964 0016 0000      		.word gs(.L78)
 965 0018 0000      		.word gs(.L79)
 966 001a 0000      		.word gs(.L80)
 967 001c 0000      		.word gs(.L81)
 968 001e 0000      		.word gs(.L82)
 969               		.text
 970               	.L74:
 157:main.c        **** 				case 0: set_it(PORTC_OUTSET,BIT(0)); break;
 971               		.loc 1 157 0
 972 0336 81E0      		ldi r24,lo8(1)
 973               	.LVL82:
 974 0338 00C0      		rjmp .L90
GAS LISTING /tmp/ccjciOO6.s 			page 31


 975               	.LVL83:
 976               	.L76:
 158:main.c        **** 				case 1: set_it(PORTC_OUTSET,BIT(1)); break;
 977               		.loc 1 158 0
 978 033a 82E0      		ldi r24,lo8(2)
 979               	.LVL84:
 980 033c 00C0      		rjmp .L90
 981               	.LVL85:
 982               	.L77:
 159:main.c        **** 				case 2: set_it(PORTC_OUTSET,BIT(2)); break;
 983               		.loc 1 159 0
 984 033e 84E0      		ldi r24,lo8(4)
 985               	.LVL86:
 986 0340 00C0      		rjmp .L90
 987               	.LVL87:
 988               	.L78:
 160:main.c        **** 				case 3: set_it(PORTC_OUTSET,BIT(3)); break;
 989               		.loc 1 160 0
 990 0342 88E0      		ldi r24,lo8(8)
 991               	.LVL88:
 992 0344 00C0      		rjmp .L90
 993               	.LVL89:
 994               	.L79:
 161:main.c        **** 				case 4: set_it(PORTC_OUTSET,BIT(4)); break;
 995               		.loc 1 161 0
 996 0346 80E1      		ldi r24,lo8(16)
 997               	.LVL90:
 998 0348 00C0      		rjmp .L90
 999               	.LVL91:
 1000               	.L80:
 162:main.c        **** 				case 5: set_it(PORTC_OUTSET,BIT(5)); break;
 1001               		.loc 1 162 0
 1002 034a 80E2      		ldi r24,lo8(32)
 1003               	.LVL92:
 1004 034c 00C0      		rjmp .L90
 1005               	.LVL93:
 1006               	.L81:
 163:main.c        **** 				case 6: set_it(PORTC_OUTSET,BIT(6)); break;
 1007               		.loc 1 163 0
 1008 034e 80E4      		ldi r24,lo8(64)
 1009               	.LVL94:
 1010 0350 00C0      		rjmp .L90
 1011               	.LVL95:
 1012               	.L82:
 164:main.c        **** 				case 7: set_it(PORTC_OUTSET,BIT(7)); break;
 1013               		.loc 1 164 0
 1014 0352 80E8      		ldi r24,lo8(-128)
 1015               	.LVL96:
 1016               	.L90:
 1017 0354 8093 4506 		sts 1605,r24
 1018 0358 0895      		ret
 1019               	.LVL97:
 1020               	.L59:
 165:main.c        **** 			}
 166:main.c        **** 		break;
 167:main.c        **** 		}
 168:main.c        **** 		//PORTD
GAS LISTING /tmp/ccjciOO6.s 			page 32


 169:main.c        **** 		case 'D':{
 170:main.c        **** 			switch (pinNum){
 1021               		.loc 1 170 0
 1022 035a 6130      		cpi r22,1
 1023 035c 7105      		cpc r23,__zero_reg__
 1024 035e 01F0      		breq .L83
 1025 0360 04F4      		brge .L84
 1026 0362 672B      		or r22,r23
 1027 0364 01F0      		breq .L85
 1028 0366 0895      		ret
 1029               	.L84:
 1030 0368 6230      		cpi r22,2
 1031 036a 7105      		cpc r23,__zero_reg__
 1032 036c 01F0      		breq .L86
 1033 036e 6330      		cpi r22,3
 1034 0370 7105      		cpc r23,__zero_reg__
 1035 0372 01F0      		breq .L87
 1036 0374 0895      		ret
 1037               	.L85:
 171:main.c        **** 				case 0: set_it(PORTD_OUTSET,BIT(0)); break;
 1038               		.loc 1 171 0
 1039 0376 81E0      		ldi r24,lo8(1)
 1040               	.LVL98:
 1041 0378 00C0      		rjmp .L88
 1042               	.LVL99:
 1043               	.L83:
 172:main.c        **** 				case 1: set_it(PORTD_OUTSET,BIT(1)); break;
 1044               		.loc 1 172 0
 1045 037a 82E0      		ldi r24,lo8(2)
 1046               	.LVL100:
 1047 037c 00C0      		rjmp .L88
 1048               	.LVL101:
 1049               	.L86:
 173:main.c        **** 				case 2: set_it(PORTD_OUTSET,BIT(2)); break;
 1050               		.loc 1 173 0
 1051 037e 84E0      		ldi r24,lo8(4)
 1052               	.LVL102:
 1053 0380 00C0      		rjmp .L88
 1054               	.LVL103:
 1055               	.L87:
 174:main.c        **** 				case 3: set_it(PORTD_OUTSET,BIT(3)); break;
 1056               		.loc 1 174 0
 1057 0382 88E0      		ldi r24,lo8(8)
 1058               	.LVL104:
 1059               	.L88:
 1060 0384 8093 6506 		sts 1637,r24
 1061               	.L53:
 1062 0388 0895      		ret
 1063               		.cfi_endproc
 1064               	.LFE33:
 1065               		.size	setPin, .-setPin
 1066               	.global	clearPin
 1067               		.type	clearPin, @function
 1068               	clearPin:
 1069               	.LFB34:
 175:main.c        **** 			}
 176:main.c        **** 		break;
GAS LISTING /tmp/ccjciOO6.s 			page 33


 177:main.c        **** 		}
 178:main.c        **** 	}
 179:main.c        **** }
 180:main.c        **** 
 181:main.c        **** // Set selected pin to 0/LOW 
 182:main.c        **** // TODO: Rest of ports
 183:main.c        **** void clearPin(char portNum, int pinNum){
 1070               		.loc 1 183 0
 1071               		.cfi_startproc
 1072               	.LVL105:
 1073               	/* prologue: function */
 1074               	/* frame size = 0 */
 1075               	/* stack size = 0 */
 1076               	.L__stack_usage = 0
 184:main.c        **** 	switch (portNum){
 1077               		.loc 1 184 0
 1078 038a 8234      		cpi r24,lo8(66)
 1079 038c 01F0      		breq .L94
 1080 038e 00F4      		brsh .L95
 1081 0390 8134      		cpi r24,lo8(65)
 1082 0392 01F0      		breq .L96
 1083 0394 0895      		ret
 1084               	.L95:
 1085 0396 8334      		cpi r24,lo8(67)
 1086 0398 01F0      		breq .L97
 1087 039a 8434      		cpi r24,lo8(68)
 1088 039c 01F4      		brne .+2
 1089 039e 00C0      		rjmp .L98
 1090 03a0 0895      		ret
 1091               	.L96:
 185:main.c        **** 		//PORTA
 186:main.c        **** 		case 'A':{
 187:main.c        **** 			switch (pinNum){
 1092               		.loc 1 187 0
 1093 03a2 6830      		cpi r22,8
 1094 03a4 7105      		cpc r23,__zero_reg__
 1095 03a6 00F0      		brlo .+2
 1096 03a8 00C0      		rjmp .L92
 1097 03aa FB01      		movw r30,r22
 1098 03ac E050      		subi r30,lo8(-(gs(.L100)))
 1099 03ae F040      		sbci r31,hi8(-(gs(.L100)))
 1100 03b0 0C94 0000 		jmp __tablejump2__
 1101               		.section	.progmem.gcc_sw_table,"a",@progbits
 1102               		.p2align	1
 1103               	.L100:
 1104 0020 0000      		.word gs(.L99)
 1105 0022 0000      		.word gs(.L101)
 1106 0024 0000      		.word gs(.L102)
 1107 0026 0000      		.word gs(.L103)
 1108 0028 0000      		.word gs(.L104)
 1109 002a 0000      		.word gs(.L105)
 1110 002c 0000      		.word gs(.L106)
 1111 002e 0000      		.word gs(.L107)
 1112               		.text
 1113               	.L99:
 188:main.c        **** 				case 0: set_it(PORTA_OUTCLR,BIT(0)); break; 
 1114               		.loc 1 188 0
GAS LISTING /tmp/ccjciOO6.s 			page 34


 1115 03b4 81E0      		ldi r24,lo8(1)
 1116               	.LVL106:
 1117 03b6 00C0      		rjmp .L128
 1118               	.LVL107:
 1119               	.L101:
 189:main.c        **** 				case 1: set_it(PORTA_OUTCLR,BIT(1)); break;
 1120               		.loc 1 189 0
 1121 03b8 82E0      		ldi r24,lo8(2)
 1122               	.LVL108:
 1123               	.L128:
 1124 03ba 8093 0606 		sts 1542,r24
 1125 03be 0895      		ret
 1126               	.LVL109:
 1127               	.L102:
 190:main.c        **** 				case 2: set_it(PORTA_OUTCLR,BIT(2)); break;
 1128               		.loc 1 190 0
 1129 03c0 84E0      		ldi r24,lo8(4)
 1130               	.LVL110:
 1131 03c2 00C0      		rjmp .L128
 1132               	.LVL111:
 1133               	.L103:
 191:main.c        **** 				case 3: set_it(PORTA_OUTCLR,BIT(3)); break;
 1134               		.loc 1 191 0
 1135 03c4 88E0      		ldi r24,lo8(8)
 1136               	.LVL112:
 1137 03c6 00C0      		rjmp .L128
 1138               	.LVL113:
 1139               	.L104:
 192:main.c        **** 				case 4: set_it(PORTA_OUTCLR,BIT(4)); break;
 1140               		.loc 1 192 0
 1141 03c8 80E1      		ldi r24,lo8(16)
 1142               	.LVL114:
 1143 03ca 00C0      		rjmp .L128
 1144               	.LVL115:
 1145               	.L105:
 193:main.c        **** 				case 5: set_it(PORTA_OUTCLR,BIT(5)); break;
 1146               		.loc 1 193 0
 1147 03cc 80E2      		ldi r24,lo8(32)
 1148               	.LVL116:
 1149 03ce 00C0      		rjmp .L128
 1150               	.LVL117:
 1151               	.L106:
 194:main.c        **** 				case 6: set_it(PORTA_OUTCLR,BIT(6)); break;
 1152               		.loc 1 194 0
 1153 03d0 80E4      		ldi r24,lo8(64)
 1154               	.LVL118:
 1155 03d2 00C0      		rjmp .L128
 1156               	.LVL119:
 1157               	.L107:
 195:main.c        **** 				case 7: set_it(PORTA_OUTCLR,BIT(7)); break;
 1158               		.loc 1 195 0
 1159 03d4 80E8      		ldi r24,lo8(-128)
 1160               	.LVL120:
 1161 03d6 00C0      		rjmp .L128
 1162               	.LVL121:
 1163               	.L94:
 196:main.c        **** 			}
GAS LISTING /tmp/ccjciOO6.s 			page 35


 197:main.c        **** 		break;
 198:main.c        **** 		}
 199:main.c        **** 				//PORTB
 200:main.c        **** 		case 'B':{
 201:main.c        **** 			switch (pinNum){
 1164               		.loc 1 201 0
 1165 03d8 6130      		cpi r22,1
 1166 03da 7105      		cpc r23,__zero_reg__
 1167 03dc 01F0      		breq .L108
 1168 03de 04F4      		brge .L109
 1169 03e0 672B      		or r22,r23
 1170 03e2 01F0      		breq .L110
 1171 03e4 0895      		ret
 1172               	.L109:
 1173 03e6 6230      		cpi r22,2
 1174 03e8 7105      		cpc r23,__zero_reg__
 1175 03ea 01F0      		breq .L111
 1176 03ec 6330      		cpi r22,3
 1177 03ee 7105      		cpc r23,__zero_reg__
 1178 03f0 01F0      		breq .L112
 1179 03f2 0895      		ret
 1180               	.L110:
 202:main.c        **** 				case 0: set_it(PORTB_OUTCLR,BIT(0)); break;
 1181               		.loc 1 202 0
 1182 03f4 81E0      		ldi r24,lo8(1)
 1183               	.LVL122:
 1184 03f6 00C0      		rjmp .L130
 1185               	.LVL123:
 1186               	.L108:
 203:main.c        **** 				case 1: set_it(PORTB_OUTCLR,BIT(1)); break;
 1187               		.loc 1 203 0
 1188 03f8 82E0      		ldi r24,lo8(2)
 1189               	.LVL124:
 1190 03fa 00C0      		rjmp .L130
 1191               	.LVL125:
 1192               	.L111:
 204:main.c        **** 				case 2: set_it(PORTB_OUTCLR,BIT(2)); break;
 1193               		.loc 1 204 0
 1194 03fc 84E0      		ldi r24,lo8(4)
 1195               	.LVL126:
 1196 03fe 00C0      		rjmp .L130
 1197               	.LVL127:
 1198               	.L112:
 205:main.c        **** 				case 3: set_it(PORTB_OUTCLR,BIT(3)); break;
 1199               		.loc 1 205 0
 1200 0400 88E0      		ldi r24,lo8(8)
 1201               	.LVL128:
 1202               	.L130:
 1203 0402 8093 2606 		sts 1574,r24
 1204 0406 0895      		ret
 1205               	.LVL129:
 1206               	.L97:
 206:main.c        **** 			}
 207:main.c        **** 		break;
 208:main.c        **** 		}
 209:main.c        **** 		//PORTC
 210:main.c        **** 		case 'C':{
GAS LISTING /tmp/ccjciOO6.s 			page 36


 211:main.c        **** 			switch (pinNum){
 1207               		.loc 1 211 0
 1208 0408 6830      		cpi r22,8
 1209 040a 7105      		cpc r23,__zero_reg__
 1210 040c 00F4      		brsh .L92
 1211 040e FB01      		movw r30,r22
 1212 0410 E050      		subi r30,lo8(-(gs(.L114)))
 1213 0412 F040      		sbci r31,hi8(-(gs(.L114)))
 1214 0414 0C94 0000 		jmp __tablejump2__
 1215               		.section	.progmem.gcc_sw_table,"a",@progbits
 1216               		.p2align	1
 1217               	.L114:
 1218 0030 0000      		.word gs(.L113)
 1219 0032 0000      		.word gs(.L115)
 1220 0034 0000      		.word gs(.L116)
 1221 0036 0000      		.word gs(.L117)
 1222 0038 0000      		.word gs(.L118)
 1223 003a 0000      		.word gs(.L119)
 1224 003c 0000      		.word gs(.L120)
 1225 003e 0000      		.word gs(.L121)
 1226               		.text
 1227               	.L113:
 212:main.c        **** 				case 0: set_it(PORTC_OUTCLR,BIT(0)); break;
 1228               		.loc 1 212 0
 1229 0418 81E0      		ldi r24,lo8(1)
 1230               	.LVL130:
 1231 041a 00C0      		rjmp .L129
 1232               	.LVL131:
 1233               	.L115:
 213:main.c        **** 				case 1: set_it(PORTC_OUTCLR,BIT(1)); break;
 1234               		.loc 1 213 0
 1235 041c 82E0      		ldi r24,lo8(2)
 1236               	.LVL132:
 1237 041e 00C0      		rjmp .L129
 1238               	.LVL133:
 1239               	.L116:
 214:main.c        **** 				case 2: set_it(PORTC_OUTCLR,BIT(2)); break;
 1240               		.loc 1 214 0
 1241 0420 84E0      		ldi r24,lo8(4)
 1242               	.LVL134:
 1243 0422 00C0      		rjmp .L129
 1244               	.LVL135:
 1245               	.L117:
 215:main.c        **** 				case 3: set_it(PORTC_OUTCLR,BIT(3)); break;
 1246               		.loc 1 215 0
 1247 0424 88E0      		ldi r24,lo8(8)
 1248               	.LVL136:
 1249 0426 00C0      		rjmp .L129
 1250               	.LVL137:
 1251               	.L118:
 216:main.c        **** 				case 4: set_it(PORTC_OUTCLR,BIT(4)); break;
 1252               		.loc 1 216 0
 1253 0428 80E1      		ldi r24,lo8(16)
 1254               	.LVL138:
 1255 042a 00C0      		rjmp .L129
 1256               	.LVL139:
 1257               	.L119:
GAS LISTING /tmp/ccjciOO6.s 			page 37


 217:main.c        **** 				case 5: set_it(PORTC_OUTCLR,BIT(5)); break;
 1258               		.loc 1 217 0
 1259 042c 80E2      		ldi r24,lo8(32)
 1260               	.LVL140:
 1261 042e 00C0      		rjmp .L129
 1262               	.LVL141:
 1263               	.L120:
 218:main.c        **** 				case 6: set_it(PORTC_OUTCLR,BIT(6)); break;
 1264               		.loc 1 218 0
 1265 0430 80E4      		ldi r24,lo8(64)
 1266               	.LVL142:
 1267 0432 00C0      		rjmp .L129
 1268               	.LVL143:
 1269               	.L121:
 219:main.c        **** 				case 7: set_it(PORTC_OUTCLR,BIT(7)); break;
 1270               		.loc 1 219 0
 1271 0434 80E8      		ldi r24,lo8(-128)
 1272               	.LVL144:
 1273               	.L129:
 1274 0436 8093 4606 		sts 1606,r24
 1275 043a 0895      		ret
 1276               	.LVL145:
 1277               	.L98:
 220:main.c        **** 			}
 221:main.c        **** 		break;
 222:main.c        **** 		}
 223:main.c        **** 		//PORTD
 224:main.c        **** 		case 'D':{
 225:main.c        **** 			switch (pinNum){
 1278               		.loc 1 225 0
 1279 043c 6130      		cpi r22,1
 1280 043e 7105      		cpc r23,__zero_reg__
 1281 0440 01F0      		breq .L122
 1282 0442 04F4      		brge .L123
 1283 0444 672B      		or r22,r23
 1284 0446 01F0      		breq .L124
 1285 0448 0895      		ret
 1286               	.L123:
 1287 044a 6230      		cpi r22,2
 1288 044c 7105      		cpc r23,__zero_reg__
 1289 044e 01F0      		breq .L125
 1290 0450 6330      		cpi r22,3
 1291 0452 7105      		cpc r23,__zero_reg__
 1292 0454 01F0      		breq .L126
 1293 0456 0895      		ret
 1294               	.L124:
 226:main.c        **** 				case 0: set_it(PORTD_OUTCLR,BIT(0)); break;
 1295               		.loc 1 226 0
 1296 0458 81E0      		ldi r24,lo8(1)
 1297               	.LVL146:
 1298 045a 00C0      		rjmp .L127
 1299               	.LVL147:
 1300               	.L122:
 227:main.c        **** 				case 1: set_it(PORTD_OUTCLR,BIT(1)); break;
 1301               		.loc 1 227 0
 1302 045c 82E0      		ldi r24,lo8(2)
 1303               	.LVL148:
GAS LISTING /tmp/ccjciOO6.s 			page 38


 1304 045e 00C0      		rjmp .L127
 1305               	.LVL149:
 1306               	.L125:
 228:main.c        **** 				case 2: set_it(PORTD_OUTCLR,BIT(2)); break;
 1307               		.loc 1 228 0
 1308 0460 84E0      		ldi r24,lo8(4)
 1309               	.LVL150:
 1310 0462 00C0      		rjmp .L127
 1311               	.LVL151:
 1312               	.L126:
 229:main.c        **** 				case 3: set_it(PORTD_OUTCLR,BIT(3)); break;
 1313               		.loc 1 229 0
 1314 0464 88E0      		ldi r24,lo8(8)
 1315               	.LVL152:
 1316               	.L127:
 1317 0466 8093 6606 		sts 1638,r24
 1318               	.L92:
 1319 046a 0895      		ret
 1320               		.cfi_endproc
 1321               	.LFE34:
 1322               		.size	clearPin, .-clearPin
 1323               	.global	setSpeed
 1324               		.type	setSpeed, @function
 1325               	setSpeed:
 1326               	.LFB35:
 230:main.c        **** 			}
 231:main.c        **** 		break;
 232:main.c        **** 		}
 233:main.c        **** 	}
 234:main.c        **** }
 235:main.c        **** 
 236:main.c        **** // struct of Stepper Motor
 237:main.c        **** struct Stepper{
 238:main.c        **** 	int motorNumber; //Which motor is this, starting at 1
 239:main.c        **** 	int direction;
 240:main.c        **** 	int speed; // RPM
 241:main.c        **** 	unsigned long step_delay; //ms
 242:main.c        **** 	int number_of_steps; 
 243:main.c        **** 	int pin_count; // 2 pin or 4 pin configuration
 244:main.c        **** 	int step_number; //which step the motor is on now
 245:main.c        **** 	int minSteps; //Upper Limit of how many steps 
 246:main.c        **** 	int maxSteps; //Lower Limit of how many steps 
 247:main.c        **** 
 248:main.c        **** 	// motor pin numbers:
 249:main.c        **** 
 250:main.c        **** 	char motor_port_1;
 251:main.c        **** 	int motor_pin_1;
 252:main.c        **** 	char motor_port_2;
 253:main.c        **** 	int motor_pin_2;
 254:main.c        **** 	char motor_port_3;
 255:main.c        **** 	int motor_pin_3;
 256:main.c        **** 	char motor_port_4;
 257:main.c        **** 	int motor_pin_4;
 258:main.c        **** 
 259:main.c        **** 	long last_step_time; //ms, time stamp when last step was taken
 260:main.c        **** } Base,Shoulder,Elbow,Left_Wrist,Right_Wrist,Gripper;
 261:main.c        **** 
GAS LISTING /tmp/ccjciOO6.s 			page 39


 262:main.c        **** /*
 263:main.c        **** int getMotor(int n){
 264:main.c        **** 	switch (n){
 265:main.c        **** 				case 0: return MOTOR_1;
 266:main.c        **** 				case 1: return MOTOR_2;
 267:main.c        **** 				case 2: return MOTOR_3;
 268:main.c        **** 				case 3: return MOTOR_4;
 269:main.c        **** 				case 4: return MOTOR_5;
 270:main.c        **** 				case 5: return MOTOR_6;
 271:main.c        **** }*/
 272:main.c        **** 
 273:main.c        **** struct Stepper Base = {
 274:main.c        **** 	.motorNumber = 1,
 275:main.c        **** 	.direction = 1,
 276:main.c        **** 	.speed = 40,
 277:main.c        **** 	.step_delay = 10,
 278:main.c        **** 	.number_of_steps = 100,
 279:main.c        **** 	.pin_count = 4,
 280:main.c        **** 	.step_number = 0,
 281:main.c        **** 	.minSteps = -900,
 282:main.c        **** 	.maxSteps = 900,
 283:main.c        **** 	.motor_port_1 = 'A',
 284:main.c        **** 	.motor_pin_1 = 0,
 285:main.c        **** 	.motor_port_2 = 'A',
 286:main.c        **** 	.motor_pin_2 = 1, 
 287:main.c        **** 	.motor_port_3 = 'A',
 288:main.c        **** 	.motor_pin_3 = 2, 
 289:main.c        **** 	.motor_port_4 = 'A',
 290:main.c        **** 	.motor_pin_4 = 3
 291:main.c        **** 	};
 292:main.c        **** struct Stepper Shoulder = {
 293:main.c        **** 	.motorNumber = 2,
 294:main.c        **** 	.direction = 1,
 295:main.c        **** 	.speed = 40,
 296:main.c        **** 	.step_delay = 10,
 297:main.c        **** 	.number_of_steps = 100,
 298:main.c        **** 	.pin_count = 4,
 299:main.c        **** 	.step_number = 0, 
 300:main.c        **** 	.minSteps = 0,
 301:main.c        **** 	.maxSteps = -1700,
 302:main.c        **** 	.motor_port_1 = 'A',
 303:main.c        **** 	.motor_pin_1 = 4,
 304:main.c        **** 	.motor_port_2 = 'A',
 305:main.c        **** 	.motor_pin_2 = 5, 
 306:main.c        **** 	.motor_port_3 = 'A',
 307:main.c        **** 	.motor_pin_3 = 6, 
 308:main.c        **** 	.motor_port_4 = 'A',
 309:main.c        **** 	.motor_pin_4 = 7
 310:main.c        **** 	};
 311:main.c        **** struct Stepper Elbow = {
 312:main.c        **** 	.motorNumber = 3,
 313:main.c        **** 	.direction = 1,
 314:main.c        **** 	.speed = 40,
 315:main.c        **** 	.step_delay = 10,
 316:main.c        **** 	.number_of_steps = 100,
 317:main.c        **** 	.pin_count = 4,
 318:main.c        **** 	.step_number = 0, 
GAS LISTING /tmp/ccjciOO6.s 			page 40


 319:main.c        **** 	.minSteps = 0,
 320:main.c        **** 	.maxSteps = 1450,
 321:main.c        **** 	.motor_port_1 = 'B',
 322:main.c        **** 	.motor_pin_1 = 0,
 323:main.c        **** 	.motor_port_2 = 'B',
 324:main.c        **** 	.motor_pin_2 = 1, 
 325:main.c        **** 	.motor_port_3 = 'B',
 326:main.c        **** 	.motor_pin_3 = 2, 
 327:main.c        **** 	.motor_port_4 = 'B',
 328:main.c        **** 	.motor_pin_4 = 3
 329:main.c        **** 	};
 330:main.c        **** struct Stepper Right_Wrist = {
 331:main.c        **** 	.motorNumber = 4,
 332:main.c        **** 	.direction = 1,
 333:main.c        **** 	.speed = 40,
 334:main.c        **** 	.step_delay = 10,
 335:main.c        **** 	.number_of_steps = 100,
 336:main.c        **** 	.pin_count = 4,
 337:main.c        **** 	.step_number = 0, 
 338:main.c        **** 	.minSteps = 200,
 339:main.c        **** 	.maxSteps = -200,
 340:main.c        **** 	.motor_port_1 = 'C',
 341:main.c        **** 	.motor_pin_1 = 0,
 342:main.c        **** 	.motor_port_2 = 'C',
 343:main.c        **** 	.motor_pin_2 = 1, 
 344:main.c        **** 	.motor_port_3 = 'C',
 345:main.c        **** 	.motor_pin_3 = 2, 
 346:main.c        **** 	.motor_port_4 = 'C',
 347:main.c        **** 	.motor_pin_4 = 3
 348:main.c        **** 	};
 349:main.c        **** struct Stepper Left_Wrist = {
 350:main.c        **** 	.motorNumber = 5,
 351:main.c        **** 	.direction = 1,
 352:main.c        **** 	.speed = 40,
 353:main.c        **** 	.step_delay = 10,
 354:main.c        **** 	.number_of_steps = 100,
 355:main.c        **** 	.pin_count = 4,
 356:main.c        **** 	.step_number = 0, 
 357:main.c        **** 	.minSteps = -200,
 358:main.c        **** 	.maxSteps = 200,
 359:main.c        **** 	.motor_port_1 = 'C',
 360:main.c        **** 	.motor_pin_1 = 4,
 361:main.c        **** 	.motor_port_2 = 'C',
 362:main.c        **** 	.motor_pin_2 = 5, 
 363:main.c        **** 	.motor_port_3 = 'C',
 364:main.c        **** 	.motor_pin_3 = 6, 
 365:main.c        **** 	.motor_port_4 = 'C',
 366:main.c        **** 	.motor_pin_4 = 7
 367:main.c        **** 	};
 368:main.c        **** struct Stepper Gripper = {
 369:main.c        **** 	.motorNumber = 6,
 370:main.c        **** 	.direction = 1,
 371:main.c        **** 	.speed = 40,
 372:main.c        **** 	.step_delay = 10,
 373:main.c        **** 	.number_of_steps = 100,
 374:main.c        **** 	.pin_count = 4,
 375:main.c        **** 	.step_number = 0, 
GAS LISTING /tmp/ccjciOO6.s 			page 41


 376:main.c        **** 	.minSteps = 0,
 377:main.c        **** 	.maxSteps = 800,
 378:main.c        **** 	.motor_port_1 = 'D',
 379:main.c        **** 	.motor_pin_1 = 0,
 380:main.c        **** 	.motor_port_2 = 'D',
 381:main.c        **** 	.motor_pin_2 = 1, 
 382:main.c        **** 	.motor_port_3 = 'D',
 383:main.c        **** 	.motor_pin_3 = 2, 
 384:main.c        **** 	.motor_port_4 = 'D',
 385:main.c        **** 	.motor_pin_4 = 3
 386:main.c        **** 	};
 387:main.c        **** 	
 388:main.c        **** 
 389:main.c        **** // Set Speed, in RPM
 390:main.c        **** // (60 seconds per minute*1000 Microseconds per second)/100 steps per rotation/ 40 Rotations per mi
 391:main.c        **** void setSpeed(struct Stepper *stepper, long whatSpeed){
 1327               		.loc 1 391 0
 1328               		.cfi_startproc
 1329               	.LVL153:
 1330 046c CF92      		push r12
 1331               	.LCFI24:
 1332               		.cfi_def_cfa_offset 3
 1333               		.cfi_offset 12, -2
 1334 046e DF92      		push r13
 1335               	.LCFI25:
 1336               		.cfi_def_cfa_offset 4
 1337               		.cfi_offset 13, -3
 1338 0470 EF92      		push r14
 1339               	.LCFI26:
 1340               		.cfi_def_cfa_offset 5
 1341               		.cfi_offset 14, -4
 1342 0472 FF92      		push r15
 1343               	.LCFI27:
 1344               		.cfi_def_cfa_offset 6
 1345               		.cfi_offset 15, -5
 1346 0474 CF93      		push r28
 1347               	.LCFI28:
 1348               		.cfi_def_cfa_offset 7
 1349               		.cfi_offset 28, -6
 1350 0476 DF93      		push r29
 1351               	.LCFI29:
 1352               		.cfi_def_cfa_offset 8
 1353               		.cfi_offset 29, -7
 1354               	/* prologue: function */
 1355               	/* frame size = 0 */
 1356               	/* stack size = 6 */
 1357               	.L__stack_usage = 6
 1358 0478 EC01      		movw r28,r24
 1359 047a 6A01      		movw r12,r20
 1360 047c 7B01      		movw r14,r22
 392:main.c        **** 	(*stepper).step_delay = 60L * 1000L / (*stepper).number_of_steps / whatSpeed;
 1361               		.loc 1 392 0
 1362 047e 2A85      		ldd r18,Y+10
 1363 0480 3B85      		ldd r19,Y+11
 1364 0482 032E      		mov __tmp_reg__,r19
 1365 0484 000C      		lsl r0
 1366 0486 440B      		sbc r20,r20
GAS LISTING /tmp/ccjciOO6.s 			page 42


 1367 0488 550B      		sbc r21,r21
 1368 048a 60E6      		ldi r22,lo8(96)
 1369 048c 7AEE      		ldi r23,lo8(-22)
 1370 048e 80E0      		ldi r24,0
 1371 0490 90E0      		ldi r25,0
 1372 0492 0E94 0000 		call __divmodsi4
 1373 0496 CA01      		movw r24,r20
 1374 0498 B901      		movw r22,r18
 1375 049a A701      		movw r20,r14
 1376 049c 9601      		movw r18,r12
 1377 049e 0E94 0000 		call __divmodsi4
 1378 04a2 2E83      		std Y+6,r18
 1379 04a4 3F83      		std Y+7,r19
 1380 04a6 4887      		std Y+8,r20
 1381 04a8 5987      		std Y+9,r21
 1382               	/* epilogue start */
 393:main.c        **** }
 1383               		.loc 1 393 0
 1384 04aa DF91      		pop r29
 1385 04ac CF91      		pop r28
 1386 04ae FF90      		pop r15
 1387 04b0 EF90      		pop r14
 1388 04b2 DF90      		pop r13
 1389 04b4 CF90      		pop r12
 1390 04b6 0895      		ret
 1391               		.cfi_endproc
 1392               	.LFE35:
 1393               		.size	setSpeed, .-setSpeed
 1394               	.global	stepMotor
 1395               		.type	stepMotor, @function
 1396               	stepMotor:
 1397               	.LFB36:
 394:main.c        **** 
 395:main.c        **** // Moves the motor by 1 step. calls clearPin and setPin.
 396:main.c        **** void stepMotor(struct Stepper stepper, int thisStep) {
 1398               		.loc 1 396 0
 1399               		.cfi_startproc
 1400               	.LVL154:
 1401 04b8 9F92      		push r9
 1402               	.LCFI30:
 1403               		.cfi_def_cfa_offset 3
 1404               		.cfi_offset 9, -2
 1405 04ba AF92      		push r10
 1406               	.LCFI31:
 1407               		.cfi_def_cfa_offset 4
 1408               		.cfi_offset 10, -3
 1409 04bc BF92      		push r11
 1410               	.LCFI32:
 1411               		.cfi_def_cfa_offset 5
 1412               		.cfi_offset 11, -4
 1413 04be CF92      		push r12
 1414               	.LCFI33:
 1415               		.cfi_def_cfa_offset 6
 1416               		.cfi_offset 12, -5
 1417 04c0 DF92      		push r13
 1418               	.LCFI34:
 1419               		.cfi_def_cfa_offset 7
GAS LISTING /tmp/ccjciOO6.s 			page 43


 1420               		.cfi_offset 13, -6
 1421 04c2 EF92      		push r14
 1422               	.LCFI35:
 1423               		.cfi_def_cfa_offset 8
 1424               		.cfi_offset 14, -7
 1425 04c4 FF92      		push r15
 1426               	.LCFI36:
 1427               		.cfi_def_cfa_offset 9
 1428               		.cfi_offset 15, -8
 1429 04c6 0F93      		push r16
 1430               	.LCFI37:
 1431               		.cfi_def_cfa_offset 10
 1432               		.cfi_offset 16, -9
 1433 04c8 1F93      		push r17
 1434               	.LCFI38:
 1435               		.cfi_def_cfa_offset 11
 1436               		.cfi_offset 17, -10
 1437 04ca CF93      		push r28
 1438               	.LCFI39:
 1439               		.cfi_def_cfa_offset 12
 1440               		.cfi_offset 28, -11
 1441 04cc DF93      		push r29
 1442               	.LCFI40:
 1443               		.cfi_def_cfa_offset 13
 1444               		.cfi_offset 29, -12
 1445 04ce CDB7      		in r28,__SP_L__
 1446 04d0 DEB7      		in r29,__SP_H__
 1447               	.LCFI41:
 1448               		.cfi_def_cfa_register 28
 1449               	/* prologue: function */
 1450               	/* frame size = 0 */
 1451               	/* stack size = 11 */
 1452               	.L__stack_usage = 11
 1453 04d2 2AA9      		ldd r18,Y+50
 1454 04d4 3BA9      		ldd r19,Y+51
 1455 04d6 4A8D      		ldd r20,Y+26
 1456 04d8 5B8D      		ldd r21,Y+27
 1457               	.LVL155:
 1458 04da 8AA1      		ldd r24,Y+34
 1459               	.LVL156:
 1460 04dc 6BA1      		ldd r22,Y+35
 1461 04de 7CA1      		ldd r23,Y+36
 1462               	.LVL157:
 1463 04e0 1DA1      		ldd r17,Y+37
 1464               	.LVL158:
 1465 04e2 EEA0      		ldd r14,Y+38
 1466 04e4 FFA0      		ldd r15,Y+39
 1467               	.LVL159:
 397:main.c        ****   if ((stepper).pin_count == 2) {
 1468               		.loc 1 397 0
 1469 04e6 4230      		cpi r20,2
 1470 04e8 5105      		cpc r21,__zero_reg__
 1471 04ea 01F4      		brne .L133
 398:main.c        ****     switch (thisStep) {
 1472               		.loc 1 398 0
 1473 04ec 2130      		cpi r18,1
 1474 04ee 3105      		cpc r19,__zero_reg__
GAS LISTING /tmp/ccjciOO6.s 			page 44


 1475 04f0 01F0      		breq .L135
 1476 04f2 04F4      		brge .L136
 1477 04f4 232B      		or r18,r19
 1478 04f6 01F0      		breq .+2
 1479 04f8 00C0      		rjmp .L132
 399:main.c        ****       case 0: // 01 
 400:main.c        ****       clearPin((stepper).motor_port_1,(stepper).motor_pin_1);
 1480               		.loc 1 400 0
 1481 04fa 0E94 0000 		call clearPin
 1482               	.LVL160:
 1483 04fe 00C0      		rjmp .L151
 1484               	.LVL161:
 1485               	.L136:
 398:main.c        ****     switch (thisStep) {
 1486               		.loc 1 398 0
 1487 0500 2230      		cpi r18,2
 1488 0502 3105      		cpc r19,__zero_reg__
 1489 0504 01F0      		breq .L138
 1490 0506 2330      		cpi r18,3
 1491 0508 3105      		cpc r19,__zero_reg__
 1492 050a 01F0      		breq .+2
 1493 050c 00C0      		rjmp .L132
 401:main.c        ****       setPin((stepper).motor_port_2,(stepper).motor_pin_2);
 402:main.c        ****       break;
 403:main.c        ****       case 1: // 11 
 404:main.c        ****       setPin((stepper).motor_port_1,(stepper).motor_pin_1);
 405:main.c        ****       setPin((stepper).motor_port_2,(stepper).motor_pin_2);
 406:main.c        ****       break;
 407:main.c        ****       case 2: // 10 
 408:main.c        ****       setPin((stepper).motor_port_1,(stepper).motor_pin_1);
 409:main.c        ****       clearPin((stepper).motor_port_2,(stepper).motor_pin_2);
 410:main.c        ****       break;
 411:main.c        ****       case 3: // 00 
 412:main.c        ****       clearPin((stepper).motor_port_1,(stepper).motor_pin_1);
 1494               		.loc 1 412 0
 1495 050e 0E94 0000 		call clearPin
 1496               	.LVL162:
 1497 0512 00C0      		rjmp .L150
 1498               	.LVL163:
 1499               	.L135:
 404:main.c        ****       setPin((stepper).motor_port_2,(stepper).motor_pin_2);
 1500               		.loc 1 404 0
 1501 0514 0E94 0000 		call setPin
 1502               	.LVL164:
 1503               	.L151:
 405:main.c        ****       break;
 1504               		.loc 1 405 0
 1505 0518 B701      		movw r22,r14
 1506 051a 812F      		mov r24,r17
 1507 051c 00C0      		rjmp .L146
 1508               	.LVL165:
 1509               	.L138:
 408:main.c        ****       clearPin((stepper).motor_port_2,(stepper).motor_pin_2);
 1510               		.loc 1 408 0
 1511 051e 0E94 0000 		call setPin
 1512               	.LVL166:
 1513               	.L150:
GAS LISTING /tmp/ccjciOO6.s 			page 45


 413:main.c        ****       clearPin((stepper).motor_port_2,(stepper).motor_pin_2);
 1514               		.loc 1 413 0
 1515 0522 B701      		movw r22,r14
 1516 0524 812F      		mov r24,r17
 1517 0526 00C0      		rjmp .L148
 1518               	.LVL167:
 1519               	.L133:
 414:main.c        ****       break;
 415:main.c        ****     } 
 416:main.c        ****   }
 417:main.c        ****   if ((stepper).pin_count == 4) {
 1520               		.loc 1 417 0
 1521 0528 4430      		cpi r20,4
 1522 052a 5105      		cpc r21,__zero_reg__
 1523 052c 01F0      		breq .+2
 1524 052e 00C0      		rjmp .L132
 1525 0530 98A4      		ldd r9,Y+40
 1526 0532 A9A4      		ldd r10,Y+41
 1527 0534 BAA4      		ldd r11,Y+42
 1528 0536 0BA5      		ldd r16,Y+43
 1529 0538 CCA4      		ldd r12,Y+44
 1530 053a DDA4      		ldd r13,Y+45
 418:main.c        ****     switch (thisStep) {
 1531               		.loc 1 418 0
 1532 053c 2130      		cpi r18,1
 1533 053e 3105      		cpc r19,__zero_reg__
 1534 0540 01F0      		breq .L141
 1535 0542 04F4      		brge .L142
 1536 0544 232B      		or r18,r19
 1537 0546 01F0      		breq .+2
 1538 0548 00C0      		rjmp .L132
 419:main.c        ****       case 0:    // 1010
 420:main.c        ****       setPin((stepper).motor_port_1,(stepper).motor_pin_1);
 1539               		.loc 1 420 0
 1540 054a 0E94 0000 		call setPin
 1541               	.LVL168:
 421:main.c        ****       clearPin((stepper).motor_port_2,(stepper).motor_pin_2);
 1542               		.loc 1 421 0
 1543 054e B701      		movw r22,r14
 1544 0550 812F      		mov r24,r17
 1545 0552 0E94 0000 		call clearPin
 1546               	.LVL169:
 1547 0556 00C0      		rjmp .L149
 1548               	.LVL170:
 1549               	.L142:
 418:main.c        ****     switch (thisStep) {
 1550               		.loc 1 418 0
 1551 0558 2230      		cpi r18,2
 1552 055a 3105      		cpc r19,__zero_reg__
 1553 055c 01F0      		breq .L144
 1554 055e 2330      		cpi r18,3
 1555 0560 3105      		cpc r19,__zero_reg__
 1556 0562 01F4      		brne .L132
 422:main.c        ****       setPin((stepper).motor_port_3,(stepper).motor_pin_3);
 423:main.c        ****       clearPin((stepper).motor_port_4,(stepper).motor_pin_4);
 424:main.c        ****       break;
 425:main.c        ****       case 1:   // 0110
GAS LISTING /tmp/ccjciOO6.s 			page 46


 426:main.c        ****       clearPin((stepper).motor_port_1,(stepper).motor_pin_1);
 427:main.c        ****       setPin((stepper).motor_port_2,(stepper).motor_pin_2);
 428:main.c        ****       setPin((stepper).motor_port_3,(stepper).motor_pin_3);
 429:main.c        ****       clearPin((stepper).motor_port_4,(stepper).motor_pin_4);
 430:main.c        ****       break;
 431:main.c        ****       case 2:    //0101
 432:main.c        ****       clearPin((stepper).motor_port_1,(stepper).motor_pin_1);
 433:main.c        ****       setPin((stepper).motor_port_2,(stepper).motor_pin_2);
 434:main.c        ****       clearPin((stepper).motor_port_3,(stepper).motor_pin_3);
 435:main.c        ****       setPin((stepper).motor_port_4,(stepper).motor_pin_4);
 436:main.c        ****       break;
 437:main.c        ****       case 3:    //1001
 438:main.c        ****       setPin((stepper).motor_port_1,(stepper).motor_pin_1);
 1557               		.loc 1 438 0
 1558 0564 0E94 0000 		call setPin
 1559               	.LVL171:
 439:main.c        ****       clearPin((stepper).motor_port_2,(stepper).motor_pin_2);
 1560               		.loc 1 439 0
 1561 0568 B701      		movw r22,r14
 1562 056a 812F      		mov r24,r17
 1563 056c 0E94 0000 		call clearPin
 1564               	.LVL172:
 1565 0570 00C0      		rjmp .L147
 1566               	.LVL173:
 1567               	.L141:
 426:main.c        ****       setPin((stepper).motor_port_2,(stepper).motor_pin_2);
 1568               		.loc 1 426 0
 1569 0572 0E94 0000 		call clearPin
 1570               	.LVL174:
 427:main.c        ****       setPin((stepper).motor_port_3,(stepper).motor_pin_3);
 1571               		.loc 1 427 0
 1572 0576 B701      		movw r22,r14
 1573 0578 812F      		mov r24,r17
 1574 057a 0E94 0000 		call setPin
 1575               	.LVL175:
 1576               	.L149:
 428:main.c        ****       clearPin((stepper).motor_port_4,(stepper).motor_pin_4);
 1577               		.loc 1 428 0
 1578 057e B501      		movw r22,r10
 1579 0580 892D      		mov r24,r9
 1580 0582 0E94 0000 		call setPin
 1581               	.LVL176:
 429:main.c        ****       break;
 1582               		.loc 1 429 0
 1583 0586 B601      		movw r22,r12
 1584 0588 802F      		mov r24,r16
 1585               	.L148:
 1586               	/* epilogue start */
 440:main.c        ****       clearPin((stepper).motor_port_3,(stepper).motor_pin_3);
 441:main.c        ****       setPin((stepper).motor_port_4,(stepper).motor_pin_4);
 442:main.c        ****       break;
 443:main.c        ****     } 
 444:main.c        ****   }
 445:main.c        **** }
 1587               		.loc 1 445 0
 1588 058a DF91      		pop r29
 1589 058c CF91      		pop r28
GAS LISTING /tmp/ccjciOO6.s 			page 47


 1590 058e 1F91      		pop r17
 1591               	.LVL177:
 1592 0590 0F91      		pop r16
 1593 0592 FF90      		pop r15
 1594 0594 EF90      		pop r14
 1595               	.LVL178:
 1596 0596 DF90      		pop r13
 1597 0598 CF90      		pop r12
 1598 059a BF90      		pop r11
 1599 059c AF90      		pop r10
 1600 059e 9F90      		pop r9
 429:main.c        ****       break;
 1601               		.loc 1 429 0
 1602 05a0 0C94 0000 		jmp clearPin
 1603               	.LVL179:
 1604               	.L144:
 432:main.c        ****       setPin((stepper).motor_port_2,(stepper).motor_pin_2);
 1605               		.loc 1 432 0
 1606 05a4 0E94 0000 		call clearPin
 1607               	.LVL180:
 433:main.c        ****       clearPin((stepper).motor_port_3,(stepper).motor_pin_3);
 1608               		.loc 1 433 0
 1609 05a8 B701      		movw r22,r14
 1610 05aa 812F      		mov r24,r17
 1611 05ac 0E94 0000 		call setPin
 1612               	.LVL181:
 1613               	.L147:
 440:main.c        ****       clearPin((stepper).motor_port_3,(stepper).motor_pin_3);
 1614               		.loc 1 440 0
 1615 05b0 B501      		movw r22,r10
 1616 05b2 892D      		mov r24,r9
 1617 05b4 0E94 0000 		call clearPin
 1618               	.LVL182:
 441:main.c        ****       break;
 1619               		.loc 1 441 0
 1620 05b8 B601      		movw r22,r12
 1621 05ba 802F      		mov r24,r16
 1622               	.L146:
 1623               	/* epilogue start */
 1624               		.loc 1 445 0
 1625 05bc DF91      		pop r29
 1626 05be CF91      		pop r28
 1627 05c0 1F91      		pop r17
 1628               	.LVL183:
 1629 05c2 0F91      		pop r16
 1630 05c4 FF90      		pop r15
 1631 05c6 EF90      		pop r14
 1632               	.LVL184:
 1633 05c8 DF90      		pop r13
 1634 05ca CF90      		pop r12
 1635 05cc BF90      		pop r11
 1636 05ce AF90      		pop r10
 1637 05d0 9F90      		pop r9
 441:main.c        ****       break;
 1638               		.loc 1 441 0
 1639 05d2 0C94 0000 		jmp setPin
 1640               	.LVL185:
GAS LISTING /tmp/ccjciOO6.s 			page 48


 1641               	.L132:
 1642               	/* epilogue start */
 1643               		.loc 1 445 0
 1644 05d6 DF91      		pop r29
 1645 05d8 CF91      		pop r28
 1646 05da 1F91      		pop r17
 1647               	.LVL186:
 1648 05dc 0F91      		pop r16
 1649 05de FF90      		pop r15
 1650 05e0 EF90      		pop r14
 1651               	.LVL187:
 1652 05e2 DF90      		pop r13
 1653 05e4 CF90      		pop r12
 1654 05e6 BF90      		pop r11
 1655 05e8 AF90      		pop r10
 1656 05ea 9F90      		pop r9
 1657 05ec 0895      		ret
 1658               		.cfi_endproc
 1659               	.LFE36:
 1660               		.size	stepMotor, .-stepMotor
 1661               	.global	step
 1662               		.type	step, @function
 1663               	step:
 1664               	.LFB37:
 446:main.c        **** 
 447:main.c        **** // Move (*stepper). This function calls millis() and stepMotor()
 448:main.c        **** void step(struct Stepper *stepper, int steps_to_move){
 1665               		.loc 1 448 0
 1666               		.cfi_startproc
 1667 05ee EF92      		push r14
 1668               	.LCFI42:
 1669               		.cfi_def_cfa_offset 3
 1670               		.cfi_offset 14, -2
 1671 05f0 FF92      		push r15
 1672               	.LCFI43:
 1673               		.cfi_def_cfa_offset 4
 1674               		.cfi_offset 15, -3
 1675 05f2 0F93      		push r16
 1676               	.LCFI44:
 1677               		.cfi_def_cfa_offset 5
 1678               		.cfi_offset 16, -4
 1679 05f4 1F93      		push r17
 1680               	.LCFI45:
 1681               		.cfi_def_cfa_offset 6
 1682               		.cfi_offset 17, -5
 1683 05f6 CF93      		push r28
 1684               	.LCFI46:
 1685               		.cfi_def_cfa_offset 7
 1686               		.cfi_offset 28, -6
 1687 05f8 DF93      		push r29
 1688               	.LCFI47:
 1689               		.cfi_def_cfa_offset 8
 1690               		.cfi_offset 29, -7
 1691               	/* prologue: function */
 1692               	/* frame size = 0 */
 1693               	/* stack size = 6 */
 1694               	.L__stack_usage = 6
GAS LISTING /tmp/ccjciOO6.s 			page 49


 1695 05fa EC01      		movw r28,r24
 1696 05fc 8B01      		movw r16,r22
 449:main.c        **** 	int steps_left = 0;
 450:main.c        **** 
 451:main.c        **** 	if (steps_to_move > 1) {
 1697               		.loc 1 451 0
 1698 05fe 6230      		cpi r22,2
 1699 0600 7105      		cpc r23,__zero_reg__
 1700 0602 04F0      		brlt .L153
 452:main.c        **** 		steps_left = steps_to_move; // how many steps to take
 453:main.c        **** 		(*stepper).direction = 1;// determine direction
 1701               		.loc 1 453 0
 1702 0604 81E0      		ldi r24,lo8(1)
 1703 0606 90E0      		ldi r25,0
 1704 0608 8A83      		std Y+2,r24
 1705 060a 9B83      		std Y+3,r25
 1706               	.L155:
 454:main.c        **** 	}else{
 455:main.c        **** 		steps_left = -steps_to_move;
 456:main.c        **** 		(*stepper).direction = 0;
 457:main.c        **** 	}
 458:main.c        **** 	// decrease the number of steps, moving one step each time:
 459:main.c        **** 	while(steps_left > 0) {
 460:main.c        **** 		// move only if the appropriate delay has passed:
 461:main.c        **** 		if (millis() - (*stepper).last_step_time >= (*stepper).step_delay){
 462:main.c        **** 			// get the timeStamp of when you stepped:
 463:main.c        **** 			(*stepper).last_step_time = millis();
 464:main.c        **** 			// increase or decrease the step number, depending on direction
 465:main.c        **** 			if ((*stepper).direction == 1) {
 466:main.c        **** 				(*stepper).step_number++;
 467:main.c        **** 				pose[(*stepper).motorNumber -1] ++;
 468:main.c        **** 				if ((*stepper).step_number == (*stepper).number_of_steps) {
 469:main.c        **** 					(*stepper).step_number = 0;
 470:main.c        **** 				}
 471:main.c        **** 			}
 472:main.c        **** 			else { 
 473:main.c        **** 				if ((*stepper).step_number == 0) {
 474:main.c        **** 				(*stepper).step_number = (*stepper).number_of_steps;
 475:main.c        **** 				}
 476:main.c        **** 			(*stepper).step_number--;
 477:main.c        **** 			pose[(*stepper).motorNumber -1] --;
 478:main.c        **** 			}
 479:main.c        **** 		  // decrease the steps left:
 480:main.c        **** 		  steps_left--;
 481:main.c        **** 		  
 482:main.c        **** 		  // step the motor to step number 0, 1, 2, or 3:
 483:main.c        **** 		  stepMotor((*stepper),(*stepper).step_number % 4);
 1707               		.loc 1 483 0
 1708 060c 34E0      		ldi r19,lo8(4)
 1709 060e E32E      		mov r14,r19
 1710 0610 F12C      		mov r15,__zero_reg__
 1711 0612 00C0      		rjmp .L156
 1712               	.L153:
 455:main.c        **** 		(*stepper).direction = 0;
 1713               		.loc 1 455 0
 1714 0614 1195      		neg r17
 1715 0616 0195      		neg r16
GAS LISTING /tmp/ccjciOO6.s 			page 50


 1716 0618 1109      		sbc r17,__zero_reg__
 456:main.c        **** 	}
 1717               		.loc 1 456 0
 1718 061a 1A82      		std Y+2,__zero_reg__
 1719 061c 1B82      		std Y+3,__zero_reg__
 1720 061e 00C0      		rjmp .L155
 1721               	.L164:
 1722               	.LBB93:
 1723               	.LBB94:
 109:main.c        **** }
 1724               		.loc 1 109 0
 1725 0620 8091 0000 		lds r24,elapsedMillis
 1726 0624 9091 0000 		lds r25,elapsedMillis+1
 1727 0628 A091 0000 		lds r26,elapsedMillis+2
 1728 062c B091 0000 		lds r27,elapsedMillis+3
 1729               	.LBE94:
 1730               	.LBE93:
 461:main.c        **** 			// get the timeStamp of when you stepped:
 1731               		.loc 1 461 0
 1732 0630 48A1      		ldd r20,Y+32
 1733 0632 59A1      		ldd r21,Y+33
 1734 0634 6AA1      		ldd r22,Y+34
 1735 0636 7BA1      		ldd r23,Y+35
 1736 0638 841B      		sub r24,r20
 1737 063a 950B      		sbc r25,r21
 1738 063c A60B      		sbc r26,r22
 1739 063e B70B      		sbc r27,r23
 1740 0640 4E81      		ldd r20,Y+6
 1741 0642 5F81      		ldd r21,Y+7
 1742 0644 6885      		ldd r22,Y+8
 1743 0646 7985      		ldd r23,Y+9
 1744 0648 8417      		cp r24,r20
 1745 064a 9507      		cpc r25,r21
 1746 064c A607      		cpc r26,r22
 1747 064e B707      		cpc r27,r23
 1748 0650 00F4      		brsh .L166
 1749               	.L156:
 459:main.c        **** 		// move only if the appropriate delay has passed:
 1750               		.loc 1 459 0
 1751 0652 1016      		cp __zero_reg__,r16
 1752 0654 1106      		cpc __zero_reg__,r17
 1753 0656 04F0      		brlt .L164
 1754 0658 00C0      		rjmp .L167
 1755               	.L166:
 1756               	.LBB95:
 1757               	.LBB96:
 109:main.c        **** }
 1758               		.loc 1 109 0
 1759 065a 8091 0000 		lds r24,elapsedMillis
 1760 065e 9091 0000 		lds r25,elapsedMillis+1
 1761 0662 A091 0000 		lds r26,elapsedMillis+2
 1762 0666 B091 0000 		lds r27,elapsedMillis+3
 1763               	.LBE96:
 1764               	.LBE95:
 463:main.c        **** 			// increase or decrease the step number, depending on direction
 1765               		.loc 1 463 0
 1766 066a 88A3      		std Y+32,r24
GAS LISTING /tmp/ccjciOO6.s 			page 51


 1767 066c 99A3      		std Y+33,r25
 1768 066e AAA3      		std Y+34,r26
 1769 0670 BBA3      		std Y+35,r27
 465:main.c        **** 				(*stepper).step_number++;
 1770               		.loc 1 465 0
 1771 0672 2A81      		ldd r18,Y+2
 1772 0674 3B81      		ldd r19,Y+3
 1773 0676 8E85      		ldd r24,Y+14
 1774 0678 9F85      		ldd r25,Y+15
 1775 067a E881      		ld r30,Y
 1776 067c F981      		ldd r31,Y+1
 1777 067e 2130      		cpi r18,1
 1778 0680 3105      		cpc r19,__zero_reg__
 1779 0682 01F4      		brne .L157
 466:main.c        **** 				pose[(*stepper).motorNumber -1] ++;
 1780               		.loc 1 466 0
 1781 0684 0196      		adiw r24,1
 1782 0686 8E87      		std Y+14,r24
 1783 0688 9F87      		std Y+15,r25
 467:main.c        **** 				if ((*stepper).step_number == (*stepper).number_of_steps) {
 1784               		.loc 1 467 0
 1785 068a EE0F      		lsl r30
 1786 068c FF1F      		rol r31
 1787 068e E050      		subi r30,lo8(-(pose-2))
 1788 0690 F040      		sbci r31,hi8(-(pose-2))
 1789 0692 2081      		ld r18,Z
 1790 0694 3181      		ldd r19,Z+1
 1791 0696 2F5F      		subi r18,-1
 1792 0698 3F4F      		sbci r19,-1
 1793 069a 2083      		st Z,r18
 1794 069c 3183      		std Z+1,r19
 468:main.c        **** 					(*stepper).step_number = 0;
 1795               		.loc 1 468 0
 1796 069e 2A85      		ldd r18,Y+10
 1797 06a0 3B85      		ldd r19,Y+11
 1798 06a2 8217      		cp r24,r18
 1799 06a4 9307      		cpc r25,r19
 1800 06a6 01F4      		brne .L158
 469:main.c        **** 				}
 1801               		.loc 1 469 0
 1802 06a8 1E86      		std Y+14,__zero_reg__
 1803 06aa 1F86      		std Y+15,__zero_reg__
 1804 06ac 00C0      		rjmp .L158
 1805               	.L157:
 473:main.c        **** 				(*stepper).step_number = (*stepper).number_of_steps;
 1806               		.loc 1 473 0
 1807 06ae 892B      		or r24,r25
 1808 06b0 01F4      		brne .L159
 474:main.c        **** 				}
 1809               		.loc 1 474 0
 1810 06b2 8A85      		ldd r24,Y+10
 1811 06b4 9B85      		ldd r25,Y+11
 1812 06b6 8E87      		std Y+14,r24
 1813 06b8 9F87      		std Y+15,r25
 1814               	.L159:
 476:main.c        **** 			pose[(*stepper).motorNumber -1] --;
 1815               		.loc 1 476 0
GAS LISTING /tmp/ccjciOO6.s 			page 52


 1816 06ba 8E85      		ldd r24,Y+14
 1817 06bc 9F85      		ldd r25,Y+15
 1818 06be 0197      		sbiw r24,1
 1819 06c0 8E87      		std Y+14,r24
 1820 06c2 9F87      		std Y+15,r25
 477:main.c        **** 			}
 1821               		.loc 1 477 0
 1822 06c4 EE0F      		lsl r30
 1823 06c6 FF1F      		rol r31
 1824 06c8 E050      		subi r30,lo8(-(pose-2))
 1825 06ca F040      		sbci r31,hi8(-(pose-2))
 1826 06cc 8081      		ld r24,Z
 1827 06ce 9181      		ldd r25,Z+1
 1828 06d0 0197      		sbiw r24,1
 1829 06d2 8083      		st Z,r24
 1830 06d4 9183      		std Z+1,r25
 1831               	.L158:
 480:main.c        **** 		  
 1832               		.loc 1 480 0
 1833 06d6 0150      		subi r16,1
 1834 06d8 1109      		sbc r17,__zero_reg__
 1835               		.loc 1 483 0
 1836 06da 8E85      		ldd r24,Y+14
 1837 06dc 9F85      		ldd r25,Y+15
 1838 06de B701      		movw r22,r14
 1839 06e0 0E94 0000 		call __divmodhi4
 1840 06e4 9F93      		push r25
 1841               	.LCFI48:
 1842               		.cfi_def_cfa_offset 9
 1843 06e6 8F93      		push r24
 1844               	.LCFI49:
 1845               		.cfi_def_cfa_offset 10
 1846 06e8 8DB7      		in r24,__SP_L__
 1847 06ea 9EB7      		in r25,__SP_H__
 1848 06ec 8497      		sbiw r24,36
 1849 06ee 8DBF      		out __SP_L__,r24
 1850 06f0 9EBF      		out __SP_H__,r25
 1851               	.LCFI50:
 1852               		.cfi_def_cfa_offset 46
 1853 06f2 ADB7      		in r26,__SP_L__
 1854 06f4 BEB7      		in r27,__SP_H__
 1855 06f6 1196      		adiw r26,1
 1856 06f8 84E2      		ldi r24,lo8(36)
 1857 06fa FE01      		movw r30,r28
 1858               		0:
 1859 06fc 0190      		ld r0,Z+
 1860 06fe 0D92      		st X+,r0
 1861 0700 8A95      		dec r24
 1862 0702 01F4      		brne 0b
 1863 0704 0E94 0000 		call stepMotor
 484:main.c        **** 		  
 485:main.c        **** 		  // Special Case: Move Gripper if Elbow moves, because of mechanical design limitations.
 486:main.c        **** 		  if((*stepper).motorNumber==3){
 1864               		.loc 1 486 0
 1865 0708 8DB7      		in r24,__SP_L__
 1866 070a 9EB7      		in r25,__SP_H__
 1867 070c 8696      		adiw r24,38
GAS LISTING /tmp/ccjciOO6.s 			page 53


 1868 070e 8DBF      		out __SP_L__,r24
 1869 0710 9EBF      		out __SP_H__,r25
 1870               	.LCFI51:
 1871               		.cfi_def_cfa_offset 8
 1872 0712 8881      		ld r24,Y
 1873 0714 9981      		ldd r25,Y+1
 1874 0716 0397      		sbiw r24,3
 1875 0718 01F0      		breq .+2
 1876 071a 00C0      		rjmp .L156
 487:main.c        **** 			  
 488:main.c        **** 				Gripper.direction = -1*(*stepper).direction;
 1877               		.loc 1 488 0
 1878 071c 2A81      		ldd r18,Y+2
 1879 071e 3B81      		ldd r19,Y+3
 1880 0720 3195      		neg r19
 1881 0722 2195      		neg r18
 1882 0724 3109      		sbc r19,__zero_reg__
 1883 0726 2093 0000 		sts Gripper+2,r18
 1884 072a 3093 0000 		sts Gripper+2+1,r19
 1885 072e 8091 0000 		lds r24,Gripper+14
 1886 0732 9091 0000 		lds r25,Gripper+14+1
 489:main.c        **** 				
 490:main.c        **** 				if (Gripper.direction == 1) {
 1887               		.loc 1 490 0
 1888 0736 2130      		cpi r18,1
 1889 0738 3105      		cpc r19,__zero_reg__
 1890 073a 01F4      		brne .L161
 491:main.c        **** 					Gripper.step_number++;
 1891               		.loc 1 491 0
 1892 073c 0196      		adiw r24,1
 1893 073e 8093 0000 		sts Gripper+14,r24
 1894 0742 9093 0000 		sts Gripper+14+1,r25
 492:main.c        **** 					if (Gripper.step_number == Gripper.number_of_steps) {
 1895               		.loc 1 492 0
 1896 0746 2091 0000 		lds r18,Gripper+10
 1897 074a 3091 0000 		lds r19,Gripper+10+1
 1898 074e 8217      		cp r24,r18
 1899 0750 9307      		cpc r25,r19
 1900 0752 01F4      		brne .L162
 493:main.c        **** 						Gripper.step_number = 0;
 1901               		.loc 1 493 0
 1902 0754 1092 0000 		sts Gripper+14,__zero_reg__
 1903 0758 1092 0000 		sts Gripper+14+1,__zero_reg__
 1904 075c 00C0      		rjmp .L162
 1905               	.L161:
 494:main.c        **** 					}
 495:main.c        **** 				}
 496:main.c        **** 				else { 
 497:main.c        **** 					if (Gripper.step_number == 0) {
 1906               		.loc 1 497 0
 1907 075e 892B      		or r24,r25
 1908 0760 01F4      		brne .L163
 498:main.c        **** 						Gripper.step_number = Gripper.number_of_steps;
 1909               		.loc 1 498 0
 1910 0762 8091 0000 		lds r24,Gripper+10
 1911 0766 9091 0000 		lds r25,Gripper+10+1
 1912 076a 8093 0000 		sts Gripper+14,r24
GAS LISTING /tmp/ccjciOO6.s 			page 54


 1913 076e 9093 0000 		sts Gripper+14+1,r25
 1914               	.L163:
 499:main.c        **** 					}
 500:main.c        **** 					Gripper.step_number--;
 1915               		.loc 1 500 0
 1916 0772 8091 0000 		lds r24,Gripper+14
 1917 0776 9091 0000 		lds r25,Gripper+14+1
 1918 077a 0197      		sbiw r24,1
 1919 077c 8093 0000 		sts Gripper+14,r24
 1920 0780 9093 0000 		sts Gripper+14+1,r25
 1921               	.L162:
 501:main.c        **** 				}
 502:main.c        **** 				
 503:main.c        **** 				stepMotor(Gripper,Gripper.step_number % 4);
 1922               		.loc 1 503 0
 1923 0784 8091 0000 		lds r24,Gripper+14
 1924 0788 9091 0000 		lds r25,Gripper+14+1
 1925 078c B701      		movw r22,r14
 1926 078e 0E94 0000 		call __divmodhi4
 1927 0792 9F93      		push r25
 1928               	.LCFI52:
 1929               		.cfi_def_cfa_offset 9
 1930 0794 8F93      		push r24
 1931               	.LCFI53:
 1932               		.cfi_def_cfa_offset 10
 1933 0796 8DB7      		in r24,__SP_L__
 1934 0798 9EB7      		in r25,__SP_H__
 1935 079a 8497      		sbiw r24,36
 1936 079c 8DBF      		out __SP_L__,r24
 1937 079e 9EBF      		out __SP_H__,r25
 1938               	.LCFI54:
 1939               		.cfi_def_cfa_offset 46
 1940 07a0 ADB7      		in r26,__SP_L__
 1941 07a2 BEB7      		in r27,__SP_H__
 1942 07a4 1196      		adiw r26,1
 1943 07a6 84E2      		ldi r24,lo8(36)
 1944 07a8 E0E0      		ldi r30,lo8(Gripper)
 1945 07aa F0E0      		ldi r31,hi8(Gripper)
 1946               		0:
 1947 07ac 0190      		ld r0,Z+
 1948 07ae 0D92      		st X+,r0
 1949 07b0 8A95      		dec r24
 1950 07b2 01F4      		brne 0b
 1951 07b4 0E94 0000 		call stepMotor
 1952 07b8 8DB7      		in r24,__SP_L__
 1953 07ba 9EB7      		in r25,__SP_H__
 1954 07bc 8696      		adiw r24,38
 1955 07be 8DBF      		out __SP_L__,r24
 1956 07c0 9EBF      		out __SP_H__,r25
 1957               	.LCFI55:
 1958               		.cfi_def_cfa_offset 8
 1959 07c2 00C0      		rjmp .L156
 1960               	.L167:
 1961               	/* epilogue start */
 504:main.c        **** 			}
 505:main.c        **** 		}
 506:main.c        ****   	}
GAS LISTING /tmp/ccjciOO6.s 			page 55


 507:main.c        **** }
 1962               		.loc 1 507 0
 1963 07c4 DF91      		pop r29
 1964 07c6 CF91      		pop r28
 1965 07c8 1F91      		pop r17
 1966 07ca 0F91      		pop r16
 1967 07cc FF90      		pop r15
 1968 07ce EF90      		pop r14
 1969 07d0 0895      		ret
 1970               		.cfi_endproc
 1971               	.LFE37:
 1972               		.size	step, .-step
 1973               	.global	stepOne
 1974               		.type	stepOne, @function
 1975               	stepOne:
 1976               	.LFB38:
 508:main.c        **** 
 509:main.c        **** // Step Once in a given direction. 
 510:main.c        **** // *stepper is which motor to move
 511:main.c        **** // myDir is what direction to move the motor: 1 is forwards, 0 is backwards
 512:main.c        **** void stepOne(struct Stepper *stepper, int myDir){
 1977               		.loc 1 512 0
 1978               		.cfi_startproc
 1979 07d2 CF93      		push r28
 1980               	.LCFI56:
 1981               		.cfi_def_cfa_offset 3
 1982               		.cfi_offset 28, -2
 1983 07d4 DF93      		push r29
 1984               	.LCFI57:
 1985               		.cfi_def_cfa_offset 4
 1986               		.cfi_offset 29, -3
 1987               	/* prologue: function */
 1988               	/* frame size = 0 */
 1989               	/* stack size = 2 */
 1990               	.L__stack_usage = 2
 1991 07d6 EC01      		movw r28,r24
 513:main.c        **** 	(*stepper).direction = myDir;
 1992               		.loc 1 513 0
 1993 07d8 6A83      		std Y+2,r22
 1994 07da 7B83      		std Y+3,r23
 1995 07dc 8E85      		ldd r24,Y+14
 1996 07de 9F85      		ldd r25,Y+15
 514:main.c        **** 	
 515:main.c        **** 	// increase or decrease the step number, depending on direction, keeping up odometry
 516:main.c        **** 	if ((*stepper).direction == 1) {
 1997               		.loc 1 516 0
 1998 07e0 6130      		cpi r22,1
 1999 07e2 7105      		cpc r23,__zero_reg__
 2000 07e4 01F4      		brne .L169
 517:main.c        **** 		(*stepper).step_number++;
 2001               		.loc 1 517 0
 2002 07e6 0196      		adiw r24,1
 2003 07e8 8E87      		std Y+14,r24
 2004 07ea 9F87      		std Y+15,r25
 518:main.c        **** 		pose[(*stepper).motorNumber -1] ++;
 2005               		.loc 1 518 0
 2006 07ec E881      		ld r30,Y
GAS LISTING /tmp/ccjciOO6.s 			page 56


 2007 07ee F981      		ldd r31,Y+1
 2008 07f0 EE0F      		lsl r30
 2009 07f2 FF1F      		rol r31
 2010 07f4 E050      		subi r30,lo8(-(pose-2))
 2011 07f6 F040      		sbci r31,hi8(-(pose-2))
 2012 07f8 2081      		ld r18,Z
 2013 07fa 3181      		ldd r19,Z+1
 2014 07fc 2F5F      		subi r18,-1
 2015 07fe 3F4F      		sbci r19,-1
 2016 0800 2083      		st Z,r18
 2017 0802 3183      		std Z+1,r19
 519:main.c        **** 		if ((*stepper).step_number == (*stepper).number_of_steps) {
 2018               		.loc 1 519 0
 2019 0804 2A85      		ldd r18,Y+10
 2020 0806 3B85      		ldd r19,Y+11
 2021 0808 8217      		cp r24,r18
 2022 080a 9307      		cpc r25,r19
 2023 080c 01F4      		brne .L171
 520:main.c        **** 			(*stepper).step_number = 0;
 2024               		.loc 1 520 0
 2025 080e 1E86      		std Y+14,__zero_reg__
 2026 0810 1F86      		std Y+15,__zero_reg__
 2027 0812 00C0      		rjmp .L171
 2028               	.L169:
 521:main.c        **** 		}
 522:main.c        **** 	}
 523:main.c        **** 	else if((*stepper).direction == 0){
 2029               		.loc 1 523 0
 2030 0814 672B      		or r22,r23
 2031 0816 01F0      		breq .L171
 524:main.c        **** 		
 525:main.c        **** 	} else { 
 526:main.c        **** 		if ((*stepper).step_number == 0) {
 2032               		.loc 1 526 0
 2033 0818 892B      		or r24,r25
 2034 081a 01F4      		brne .L173
 527:main.c        **** 			(*stepper).step_number = (*stepper).number_of_steps;
 2035               		.loc 1 527 0
 2036 081c 8A85      		ldd r24,Y+10
 2037 081e 9B85      		ldd r25,Y+11
 2038 0820 8E87      		std Y+14,r24
 2039 0822 9F87      		std Y+15,r25
 2040               	.L173:
 528:main.c        **** 		}
 529:main.c        **** 		(*stepper).step_number--;
 2041               		.loc 1 529 0
 2042 0824 8E85      		ldd r24,Y+14
 2043 0826 9F85      		ldd r25,Y+15
 2044 0828 0197      		sbiw r24,1
 2045 082a 8E87      		std Y+14,r24
 2046 082c 9F87      		std Y+15,r25
 530:main.c        **** 		pose[(*stepper).motorNumber -1] --;
 2047               		.loc 1 530 0
 2048 082e E881      		ld r30,Y
 2049 0830 F981      		ldd r31,Y+1
 2050 0832 EE0F      		lsl r30
 2051 0834 FF1F      		rol r31
GAS LISTING /tmp/ccjciOO6.s 			page 57


 2052 0836 E050      		subi r30,lo8(-(pose-2))
 2053 0838 F040      		sbci r31,hi8(-(pose-2))
 2054 083a 8081      		ld r24,Z
 2055 083c 9181      		ldd r25,Z+1
 2056 083e 0197      		sbiw r24,1
 2057 0840 8083      		st Z,r24
 2058 0842 9183      		std Z+1,r25
 2059               	.L171:
 531:main.c        **** 	}
 532:main.c        ****   // step the motor to step number 0, 1, 2, or 3:
 533:main.c        ****   stepMotor((*stepper),(*stepper).step_number % 4);
 2060               		.loc 1 533 0
 2061 0844 8E85      		ldd r24,Y+14
 2062 0846 9F85      		ldd r25,Y+15
 2063 0848 64E0      		ldi r22,lo8(4)
 2064 084a 70E0      		ldi r23,0
 2065 084c 0E94 0000 		call __divmodhi4
 2066 0850 9F93      		push r25
 2067               	.LCFI58:
 2068               		.cfi_def_cfa_offset 5
 2069 0852 8F93      		push r24
 2070               	.LCFI59:
 2071               		.cfi_def_cfa_offset 6
 2072 0854 8DB7      		in r24,__SP_L__
 2073 0856 9EB7      		in r25,__SP_H__
 2074 0858 8497      		sbiw r24,36
 2075 085a 8DBF      		out __SP_L__,r24
 2076 085c 9EBF      		out __SP_H__,r25
 2077               	.LCFI60:
 2078               		.cfi_def_cfa_offset 42
 2079 085e ADB7      		in r26,__SP_L__
 2080 0860 BEB7      		in r27,__SP_H__
 2081 0862 1196      		adiw r26,1
 2082 0864 84E2      		ldi r24,lo8(36)
 2083 0866 FE01      		movw r30,r28
 2084               		0:
 2085 0868 0190      		ld r0,Z+
 2086 086a 0D92      		st X+,r0
 2087 086c 8A95      		dec r24
 2088 086e 01F4      		brne 0b
 2089 0870 0E94 0000 		call stepMotor
 534:main.c        ****   
 535:main.c        ****   // Special Case: Move Gripper if Elbow moves, because of mechanical design limitations.
 536:main.c        ****   if((*stepper).motorNumber==3){
 2090               		.loc 1 536 0
 2091 0874 8DB7      		in r24,__SP_L__
 2092 0876 9EB7      		in r25,__SP_H__
 2093 0878 8696      		adiw r24,38
 2094 087a 8DBF      		out __SP_L__,r24
 2095 087c 9EBF      		out __SP_H__,r25
 2096               	.LCFI61:
 2097               		.cfi_def_cfa_offset 4
 2098 087e 8881      		ld r24,Y
 2099 0880 9981      		ldd r25,Y+1
 2100 0882 0397      		sbiw r24,3
 2101 0884 01F0      		breq .+2
 2102 0886 00C0      		rjmp .L168
GAS LISTING /tmp/ccjciOO6.s 			page 58


 537:main.c        **** 	  
 538:main.c        **** 		Gripper.direction = -1*(*stepper).direction;
 2103               		.loc 1 538 0
 2104 0888 2A81      		ldd r18,Y+2
 2105 088a 3B81      		ldd r19,Y+3
 2106 088c 3195      		neg r19
 2107 088e 2195      		neg r18
 2108 0890 3109      		sbc r19,__zero_reg__
 2109 0892 2093 0000 		sts Gripper+2,r18
 2110 0896 3093 0000 		sts Gripper+2+1,r19
 2111 089a 8091 0000 		lds r24,Gripper+14
 2112 089e 9091 0000 		lds r25,Gripper+14+1
 539:main.c        **** 		
 540:main.c        **** 		if (Gripper.direction == 1) {
 2113               		.loc 1 540 0
 2114 08a2 2130      		cpi r18,1
 2115 08a4 3105      		cpc r19,__zero_reg__
 2116 08a6 01F4      		brne .L175
 541:main.c        **** 			Gripper.step_number++;
 2117               		.loc 1 541 0
 2118 08a8 0196      		adiw r24,1
 2119 08aa 8093 0000 		sts Gripper+14,r24
 2120 08ae 9093 0000 		sts Gripper+14+1,r25
 542:main.c        **** 			if (Gripper.step_number == Gripper.number_of_steps) {
 2121               		.loc 1 542 0
 2122 08b2 2091 0000 		lds r18,Gripper+10
 2123 08b6 3091 0000 		lds r19,Gripper+10+1
 2124 08ba 8217      		cp r24,r18
 2125 08bc 9307      		cpc r25,r19
 2126 08be 01F4      		brne .L177
 543:main.c        **** 				Gripper.step_number = 0;
 2127               		.loc 1 543 0
 2128 08c0 1092 0000 		sts Gripper+14,__zero_reg__
 2129 08c4 1092 0000 		sts Gripper+14+1,__zero_reg__
 2130 08c8 00C0      		rjmp .L177
 2131               	.L175:
 544:main.c        **** 			}
 545:main.c        **** 		}else if((*stepper).direction == 0){
 2132               		.loc 1 545 0
 2133 08ca 2A81      		ldd r18,Y+2
 2134 08cc 3B81      		ldd r19,Y+3
 2135 08ce 232B      		or r18,r19
 2136 08d0 01F0      		breq .L177
 546:main.c        **** 		
 547:main.c        **** 		}else { 
 548:main.c        **** 			if (Gripper.step_number == 0) {
 2137               		.loc 1 548 0
 2138 08d2 892B      		or r24,r25
 2139 08d4 01F4      		brne .L179
 549:main.c        **** 				Gripper.step_number = Gripper.number_of_steps;
 2140               		.loc 1 549 0
 2141 08d6 8091 0000 		lds r24,Gripper+10
 2142 08da 9091 0000 		lds r25,Gripper+10+1
 2143 08de 8093 0000 		sts Gripper+14,r24
 2144 08e2 9093 0000 		sts Gripper+14+1,r25
 2145               	.L179:
 550:main.c        **** 			}
GAS LISTING /tmp/ccjciOO6.s 			page 59


 551:main.c        **** 			Gripper.step_number--;
 2146               		.loc 1 551 0
 2147 08e6 8091 0000 		lds r24,Gripper+14
 2148 08ea 9091 0000 		lds r25,Gripper+14+1
 2149 08ee 0197      		sbiw r24,1
 2150 08f0 8093 0000 		sts Gripper+14,r24
 2151 08f4 9093 0000 		sts Gripper+14+1,r25
 2152               	.L177:
 552:main.c        **** 		}
 553:main.c        **** 		
 554:main.c        **** 		stepMotor(Gripper,Gripper.step_number % 4);
 2153               		.loc 1 554 0
 2154 08f8 8091 0000 		lds r24,Gripper+14
 2155 08fc 9091 0000 		lds r25,Gripper+14+1
 2156 0900 64E0      		ldi r22,lo8(4)
 2157 0902 70E0      		ldi r23,0
 2158 0904 0E94 0000 		call __divmodhi4
 2159 0908 9F93      		push r25
 2160               	.LCFI62:
 2161               		.cfi_def_cfa_offset 5
 2162 090a 8F93      		push r24
 2163               	.LCFI63:
 2164               		.cfi_def_cfa_offset 6
 2165 090c 8DB7      		in r24,__SP_L__
 2166 090e 9EB7      		in r25,__SP_H__
 2167 0910 8497      		sbiw r24,36
 2168 0912 8DBF      		out __SP_L__,r24
 2169 0914 9EBF      		out __SP_H__,r25
 2170               	.LCFI64:
 2171               		.cfi_def_cfa_offset 42
 2172 0916 ADB7      		in r26,__SP_L__
 2173 0918 BEB7      		in r27,__SP_H__
 2174 091a 1196      		adiw r26,1
 2175 091c 84E2      		ldi r24,lo8(36)
 2176 091e E0E0      		ldi r30,lo8(Gripper)
 2177 0920 F0E0      		ldi r31,hi8(Gripper)
 2178               		0:
 2179 0922 0190      		ld r0,Z+
 2180 0924 0D92      		st X+,r0
 2181 0926 8A95      		dec r24
 2182 0928 01F4      		brne 0b
 2183 092a 0E94 0000 		call stepMotor
 2184 092e 8DB7      		in r24,__SP_L__
 2185 0930 9EB7      		in r25,__SP_H__
 2186 0932 8696      		adiw r24,38
 2187 0934 8DBF      		out __SP_L__,r24
 2188 0936 9EBF      		out __SP_H__,r25
 2189               	.LCFI65:
 2190               		.cfi_def_cfa_offset 4
 2191               	.L168:
 2192               	/* epilogue start */
 555:main.c        **** 	}
 556:main.c        **** }
 2193               		.loc 1 556 0
 2194 0938 DF91      		pop r29
 2195 093a CF91      		pop r28
 2196 093c 0895      		ret
GAS LISTING /tmp/ccjciOO6.s 			page 60


 2197               		.cfi_endproc
 2198               	.LFE38:
 2199               		.size	stepOne, .-stepOne
 2200               	.global	changeGoal
 2201               		.type	changeGoal, @function
 2202               	changeGoal:
 2203               	.LFB39:
 557:main.c        **** 
 558:main.c        **** void changeGoal(int val0, int val1, int val2, int val3, int val4, int val5){
 2204               		.loc 1 558 0
 2205               		.cfi_startproc
 2206               	.LVL188:
 2207 093e EF92      		push r14
 2208               	.LCFI66:
 2209               		.cfi_def_cfa_offset 3
 2210               		.cfi_offset 14, -2
 2211 0940 FF92      		push r15
 2212               	.LCFI67:
 2213               		.cfi_def_cfa_offset 4
 2214               		.cfi_offset 15, -3
 2215 0942 0F93      		push r16
 2216               	.LCFI68:
 2217               		.cfi_def_cfa_offset 5
 2218               		.cfi_offset 16, -4
 2219 0944 1F93      		push r17
 2220               	.LCFI69:
 2221               		.cfi_def_cfa_offset 6
 2222               		.cfi_offset 17, -5
 2223               	/* prologue: function */
 2224               	/* frame size = 0 */
 2225               	/* stack size = 4 */
 2226               	.L__stack_usage = 4
 559:main.c        ****     /*
 560:main.c        **** 	// Take limits into account
 561:main.c        **** 	if((val1*(-1.875/3.0)-875)>(val2)){// Shoulder and Elbow, bias Shoulder (for now)
 562:main.c        **** 		val2 = (int)(val1*(-1.875/3.0)-875);
 563:main.c        **** 		printf("bad pose\n");
 564:main.c        **** 	}else if((val1*(-1.875/3.0))<(val2)){
 565:main.c        **** 		val2 = (int)(val1*(-1.875/3.0));
 566:main.c        **** 		printf("bad pose\n");
 567:main.c        **** 	}
 568:main.c        **** 	
 569:main.c        **** 	if(abs(val3)==abs(val4)){
 570:main.c        **** 		if((val2*(-.625/1.875)+200)<(val3)){ //Elbow and Wrist, bias wrist. TODO: take both sides into ac
 571:main.c        **** 			val3 = (int)(val2*(-.625/1.875)+200);
 572:main.c        **** 			val4 = -1*val3;
 573:main.c        **** 		}else if((val2*(-.625/1.875)-200)>(val3)){
 574:main.c        **** 			val3 = (int)(val2*(-.625/1.875)-200);
 575:main.c        **** 			val4 = -1*val3;
 576:main.c        **** 		}
 577:main.c        **** 	}*/
 578:main.c        **** 	goal[0] = val0;
 2227               		.loc 1 578 0
 2228 0946 E0E0      		ldi r30,lo8(goal)
 2229 0948 F0E0      		ldi r31,hi8(goal)
 2230 094a 8083      		st Z,r24
 2231 094c 9183      		std Z+1,r25
GAS LISTING /tmp/ccjciOO6.s 			page 61


 579:main.c        **** 	goal[1] = val1;
 2232               		.loc 1 579 0
 2233 094e 6283      		std Z+2,r22
 2234 0950 7383      		std Z+3,r23
 580:main.c        **** 	goal[2] = val2;
 2235               		.loc 1 580 0
 2236 0952 4483      		std Z+4,r20
 2237 0954 5583      		std Z+5,r21
 581:main.c        **** 	goal[3] = val3;
 2238               		.loc 1 581 0
 2239 0956 2683      		std Z+6,r18
 2240 0958 3783      		std Z+7,r19
 582:main.c        **** 	goal[4] = val4;
 2241               		.loc 1 582 0
 2242 095a 0087      		std Z+8,r16
 2243 095c 1187      		std Z+9,r17
 583:main.c        **** 	goal[5] = val5;
 2244               		.loc 1 583 0
 2245 095e E286      		std Z+10,r14
 2246 0960 F386      		std Z+11,r15
 2247               	/* epilogue start */
 584:main.c        **** }
 2248               		.loc 1 584 0
 2249 0962 1F91      		pop r17
 2250 0964 0F91      		pop r16
 2251               	.LVL189:
 2252 0966 FF90      		pop r15
 2253 0968 EF90      		pop r14
 2254               	.LVL190:
 2255 096a 0895      		ret
 2256               		.cfi_endproc
 2257               	.LFE39:
 2258               		.size	changeGoal, .-changeGoal
 2259               	.global	__floatsisf
 2260               	.global	__divsf3
 2261               	.global	__mulsf3
 2262               	.global	__fixsfsi
 2263               	.global	moveToGoal
 2264               		.type	moveToGoal, @function
 2265               	moveToGoal:
 2266               	.LFB40:
 585:main.c        **** 
 586:main.c        **** void moveToGoal(void){
 2267               		.loc 1 586 0
 2268               		.cfi_startproc
 2269 096c 2F92      		push r2
 2270               	.LCFI70:
 2271               		.cfi_def_cfa_offset 3
 2272               		.cfi_offset 2, -2
 2273 096e 3F92      		push r3
 2274               	.LCFI71:
 2275               		.cfi_def_cfa_offset 4
 2276               		.cfi_offset 3, -3
 2277 0970 4F92      		push r4
 2278               	.LCFI72:
 2279               		.cfi_def_cfa_offset 5
 2280               		.cfi_offset 4, -4
GAS LISTING /tmp/ccjciOO6.s 			page 62


 2281 0972 5F92      		push r5
 2282               	.LCFI73:
 2283               		.cfi_def_cfa_offset 6
 2284               		.cfi_offset 5, -5
 2285 0974 6F92      		push r6
 2286               	.LCFI74:
 2287               		.cfi_def_cfa_offset 7
 2288               		.cfi_offset 6, -6
 2289 0976 7F92      		push r7
 2290               	.LCFI75:
 2291               		.cfi_def_cfa_offset 8
 2292               		.cfi_offset 7, -7
 2293 0978 8F92      		push r8
 2294               	.LCFI76:
 2295               		.cfi_def_cfa_offset 9
 2296               		.cfi_offset 8, -8
 2297 097a 9F92      		push r9
 2298               	.LCFI77:
 2299               		.cfi_def_cfa_offset 10
 2300               		.cfi_offset 9, -9
 2301 097c AF92      		push r10
 2302               	.LCFI78:
 2303               		.cfi_def_cfa_offset 11
 2304               		.cfi_offset 10, -10
 2305 097e BF92      		push r11
 2306               	.LCFI79:
 2307               		.cfi_def_cfa_offset 12
 2308               		.cfi_offset 11, -11
 2309 0980 CF92      		push r12
 2310               	.LCFI80:
 2311               		.cfi_def_cfa_offset 13
 2312               		.cfi_offset 12, -12
 2313 0982 DF92      		push r13
 2314               	.LCFI81:
 2315               		.cfi_def_cfa_offset 14
 2316               		.cfi_offset 13, -13
 2317 0984 EF92      		push r14
 2318               	.LCFI82:
 2319               		.cfi_def_cfa_offset 15
 2320               		.cfi_offset 14, -14
 2321 0986 FF92      		push r15
 2322               	.LCFI83:
 2323               		.cfi_def_cfa_offset 16
 2324               		.cfi_offset 15, -15
 2325 0988 0F93      		push r16
 2326               	.LCFI84:
 2327               		.cfi_def_cfa_offset 17
 2328               		.cfi_offset 16, -16
 2329 098a 1F93      		push r17
 2330               	.LCFI85:
 2331               		.cfi_def_cfa_offset 18
 2332               		.cfi_offset 17, -17
 2333 098c CF93      		push r28
 2334               	.LCFI86:
 2335               		.cfi_def_cfa_offset 19
 2336               		.cfi_offset 28, -18
 2337 098e DF93      		push r29
GAS LISTING /tmp/ccjciOO6.s 			page 63


 2338               	.LCFI87:
 2339               		.cfi_def_cfa_offset 20
 2340               		.cfi_offset 29, -19
 2341 0990 CDB7      		in r28,__SP_L__
 2342 0992 DEB7      		in r29,__SP_H__
 2343               	.LCFI88:
 2344               		.cfi_def_cfa_register 28
 2345 0994 6897      		sbiw r28,24
 2346               	.LCFI89:
 2347               		.cfi_def_cfa_offset 44
 2348 0996 CDBF      		out __SP_L__,r28
 2349 0998 DEBF      		out __SP_H__,r29
 2350               	/* prologue: function */
 2351               	/* frame size = 24 */
 2352               	/* stack size = 42 */
 2353               	.L__stack_usage = 42
 587:main.c        **** 	// Get Error Array
 588:main.c        **** 	int error[6] = {
 589:main.c        **** 					goal[0]-pose[0],
 2354               		.loc 1 589 0
 2355 099a 0091 0000 		lds r16,goal
 2356 099e 1091 0000 		lds r17,goal+1
 2357 09a2 8091 0000 		lds r24,pose
 2358 09a6 9091 0000 		lds r25,pose+1
 2359 09aa 081B      		sub r16,r24
 2360 09ac 190B      		sbc r17,r25
 588:main.c        **** 					goal[0]-pose[0],
 2361               		.loc 1 588 0
 2362 09ae 0983      		std Y+1,r16
 2363 09b0 1A83      		std Y+2,r17
 590:main.c        **** 					goal[1]-pose[1],
 2364               		.loc 1 590 0
 2365 09b2 2090 0000 		lds r2,goal+2
 2366 09b6 3090 0000 		lds r3,goal+2+1
 2367 09ba 8091 0000 		lds r24,pose+2
 2368 09be 9091 0000 		lds r25,pose+2+1
 2369 09c2 281A      		sub r2,r24
 2370 09c4 390A      		sbc r3,r25
 588:main.c        **** 					goal[0]-pose[0],
 2371               		.loc 1 588 0
 2372 09c6 2B82      		std Y+3,r2
 2373 09c8 3C82      		std Y+4,r3
 591:main.c        **** 					goal[2]-pose[2],
 2374               		.loc 1 591 0
 2375 09ca 6091 0000 		lds r22,goal+4
 2376 09ce 7091 0000 		lds r23,goal+4+1
 2377 09d2 8091 0000 		lds r24,pose+4
 2378 09d6 9091 0000 		lds r25,pose+4+1
 2379 09da 9B01      		movw r18,r22
 2380 09dc 281B      		sub r18,r24
 2381 09de 390B      		sbc r19,r25
 2382 09e0 2D87      		std Y+13,r18
 2383 09e2 3E87      		std Y+14,r19
 588:main.c        **** 					goal[0]-pose[0],
 2384               		.loc 1 588 0
 2385 09e4 2D83      		std Y+5,r18
 2386 09e6 3E83      		std Y+6,r19
GAS LISTING /tmp/ccjciOO6.s 			page 64


 592:main.c        **** 					goal[3]-pose[3],
 2387               		.loc 1 592 0
 2388 09e8 6091 0000 		lds r22,goal+6
 2389 09ec 7091 0000 		lds r23,goal+6+1
 2390 09f0 8091 0000 		lds r24,pose+6
 2391 09f4 9091 0000 		lds r25,pose+6+1
 2392 09f8 AB01      		movw r20,r22
 2393 09fa 481B      		sub r20,r24
 2394 09fc 590B      		sbc r21,r25
 2395 09fe 4F87      		std Y+15,r20
 2396 0a00 588B      		std Y+16,r21
 588:main.c        **** 					goal[0]-pose[0],
 2397               		.loc 1 588 0
 2398 0a02 4F83      		std Y+7,r20
 2399 0a04 5887      		std Y+8,r21
 593:main.c        **** 					goal[4]-pose[4],
 2400               		.loc 1 593 0
 2401 0a06 6091 0000 		lds r22,goal+8
 2402 0a0a 7091 0000 		lds r23,goal+8+1
 2403 0a0e 8091 0000 		lds r24,pose+8
 2404 0a12 9091 0000 		lds r25,pose+8+1
 2405 0a16 DB01      		movw r26,r22
 2406 0a18 A81B      		sub r26,r24
 2407 0a1a B90B      		sbc r27,r25
 2408 0a1c A98B      		std Y+17,r26
 2409 0a1e BA8B      		std Y+18,r27
 588:main.c        **** 					goal[0]-pose[0],
 2410               		.loc 1 588 0
 2411 0a20 A987      		std Y+9,r26
 2412 0a22 BA87      		std Y+10,r27
 594:main.c        **** 					goal[5]-pose[5],					
 2413               		.loc 1 594 0
 2414 0a24 6091 0000 		lds r22,goal+10
 2415 0a28 7091 0000 		lds r23,goal+10+1
 2416 0a2c 8091 0000 		lds r24,pose+10
 2417 0a30 9091 0000 		lds r25,pose+10+1
 2418 0a34 9B01      		movw r18,r22
 2419 0a36 281B      		sub r18,r24
 2420 0a38 390B      		sbc r19,r25
 2421 0a3a 2B8B      		std Y+19,r18
 2422 0a3c 3C8B      		std Y+20,r19
 588:main.c        **** 					goal[0]-pose[0],
 2423               		.loc 1 588 0
 2424 0a3e 2B87      		std Y+11,r18
 2425 0a40 3C87      		std Y+12,r19
 2426               	.LVL191:
 2427 0a42 FE01      		movw r30,r28
 2428 0a44 3396      		adiw r30,3
 2429 0a46 BE01      		movw r22,r28
 2430 0a48 635F      		subi r22,-13
 2431 0a4a 7F4F      		sbci r23,-1
 595:main.c        **** 					};
 596:main.c        **** 					
 597:main.c        **** 	// Determine the max error
 598:main.c        **** 	int maxError = error[0];
 2432               		.loc 1 598 0
 2433 0a4c 5801      		movw r10,r16
GAS LISTING /tmp/ccjciOO6.s 			page 65


 2434               	.LVL192:
 2435               	.L191:
 599:main.c        **** 	int i;
 600:main.c        **** 	for (i = 1; i < 6 ; i++){
 601:main.c        **** 		if(abs(error[i])>abs(maxError)){
 2436               		.loc 1 601 0
 2437 0a4e 8191      		ld r24,Z+
 2438 0a50 9191      		ld r25,Z+
 2439 0a52 AC01      		movw r20,r24
 2440 0a54 97FF      		sbrs r25,7
 2441 0a56 00C0      		rjmp .L189
 2442 0a58 4427      		clr r20
 2443 0a5a 5527      		clr r21
 2444 0a5c 481B      		sub r20,r24
 2445 0a5e 590B      		sbc r21,r25
 2446               	.L189:
 2447 0a60 9501      		movw r18,r10
 2448 0a62 B7FE      		sbrs r11,7
 2449 0a64 00C0      		rjmp .L190
 2450 0a66 2227      		clr r18
 2451 0a68 3327      		clr r19
 2452 0a6a 2A19      		sub r18,r10
 2453 0a6c 3B09      		sbc r19,r11
 2454               	.L190:
 2455 0a6e 2417      		cp r18,r20
 2456 0a70 3507      		cpc r19,r21
 2457 0a72 04F4      		brge .L188
 602:main.c        **** 			maxError = error[i];
 2458               		.loc 1 602 0
 2459 0a74 5C01      		movw r10,r24
 2460               	.LVL193:
 2461               	.L188:
 600:main.c        **** 		if(abs(error[i])>abs(maxError)){
 2462               		.loc 1 600 0 discriminator 2
 2463 0a76 6E17      		cp r22,r30
 2464 0a78 7F07      		cpc r23,r31
 2465 0a7a 01F4      		brne .L191
 603:main.c        **** 		}
 604:main.c        **** 	}	
 605:main.c        **** 	//Determine the speed each motor needs to step at based on error array
 606:main.c        **** 	//Speeds are such that each motor arrives at the end point at the same time. 
 607:main.c        **** 	
 608:main.c        **** 	setSpeed(&MOTOR_1,abs((int)(maxSpeed*(error[0]/(double)maxError))));
 2466               		.loc 1 608 0
 2467 0a7c 6091 0000 		lds r22,maxSpeed
 2468 0a80 7091 0000 		lds r23,maxSpeed+1
 2469 0a84 072E      		mov __tmp_reg__,r23
 2470 0a86 000C      		lsl r0
 2471 0a88 880B      		sbc r24,r24
 2472 0a8a 990B      		sbc r25,r25
 2473 0a8c 0E94 0000 		call __floatsisf
 2474               	.LVL194:
 2475 0a90 6B01      		movw r12,r22
 2476 0a92 7C01      		movw r14,r24
 2477 0a94 B501      		movw r22,r10
 2478 0a96 BB0C      		lsl r11
 2479 0a98 880B      		sbc r24,r24
GAS LISTING /tmp/ccjciOO6.s 			page 66


 2480 0a9a 990B      		sbc r25,r25
 2481 0a9c 0E94 0000 		call __floatsisf
 2482               	.LVL195:
 2483 0aa0 4B01      		movw r8,r22
 2484 0aa2 5C01      		movw r10,r24
 2485               	.LVL196:
 2486               	.LBB97:
 2487               	.LBB98:
 392:main.c        **** }
 2488               		.loc 1 392 0
 2489 0aa4 2091 0000 		lds r18,Base+10
 2490 0aa8 3091 0000 		lds r19,Base+10+1
 2491 0aac 032E      		mov __tmp_reg__,r19
 2492 0aae 000C      		lsl r0
 2493 0ab0 440B      		sbc r20,r20
 2494 0ab2 550B      		sbc r21,r21
 2495 0ab4 60E6      		ldi r22,lo8(96)
 2496 0ab6 7AEE      		ldi r23,lo8(-22)
 2497 0ab8 80E0      		ldi r24,0
 2498 0aba 90E0      		ldi r25,0
 2499 0abc 0E94 0000 		call __divmodsi4
 2500 0ac0 2901      		movw r4,r18
 2501 0ac2 3A01      		movw r6,r20
 2502 0ac4 B801      		movw r22,r16
 2503 0ac6 110F      		lsl r17
 2504 0ac8 880B      		sbc r24,r24
 2505 0aca 990B      		sbc r25,r25
 2506 0acc 0E94 0000 		call __floatsisf
 2507               	.LVL197:
 2508 0ad0 A501      		movw r20,r10
 2509 0ad2 9401      		movw r18,r8
 2510 0ad4 0E94 0000 		call __divsf3
 2511               	.LVL198:
 2512 0ad8 A701      		movw r20,r14
 2513 0ada 9601      		movw r18,r12
 2514 0adc 0E94 0000 		call __mulsf3
 2515               	.LVL199:
 2516 0ae0 0E94 0000 		call __fixsfsi
 2517               	.LVL200:
 2518 0ae4 9B01      		movw r18,r22
 2519 0ae6 77FF      		sbrs r23,7
 2520 0ae8 00C0      		rjmp .L192
 2521 0aea 2227      		clr r18
 2522 0aec 3327      		clr r19
 2523 0aee 261B      		sub r18,r22
 2524 0af0 370B      		sbc r19,r23
 2525               	.L192:
 2526 0af2 032E      		mov __tmp_reg__,r19
 2527 0af4 000C      		lsl r0
 2528 0af6 440B      		sbc r20,r20
 2529 0af8 550B      		sbc r21,r21
 2530 0afa C301      		movw r24,r6
 2531 0afc B201      		movw r22,r4
 2532 0afe 0E94 0000 		call __divmodsi4
 2533 0b02 2D8B      		std Y+21,r18
 2534 0b04 3E8B      		std Y+22,r19
 2535 0b06 4F8B      		std Y+23,r20
GAS LISTING /tmp/ccjciOO6.s 			page 67


 2536 0b08 588F      		std Y+24,r21
 2537 0b0a 2093 0000 		sts Base+6,r18
 2538 0b0e 3093 0000 		sts Base+6+1,r19
 2539 0b12 4093 0000 		sts Base+6+2,r20
 2540 0b16 5093 0000 		sts Base+6+3,r21
 2541               	.LVL201:
 2542               	.LBE98:
 2543               	.LBE97:
 2544               	.LBB99:
 2545               	.LBB100:
 2546 0b1a 2091 0000 		lds r18,Shoulder+10
 2547 0b1e 3091 0000 		lds r19,Shoulder+10+1
 2548 0b22 032E      		mov __tmp_reg__,r19
 2549 0b24 000C      		lsl r0
 2550 0b26 440B      		sbc r20,r20
 2551 0b28 550B      		sbc r21,r21
 2552 0b2a 60E6      		ldi r22,lo8(96)
 2553 0b2c 7AEE      		ldi r23,lo8(-22)
 2554 0b2e 80E0      		ldi r24,0
 2555 0b30 90E0      		ldi r25,0
 2556 0b32 0E94 0000 		call __divmodsi4
 2557 0b36 2901      		movw r4,r18
 2558 0b38 3A01      		movw r6,r20
 2559 0b3a B101      		movw r22,r2
 2560 0b3c 330C      		lsl r3
 2561 0b3e 880B      		sbc r24,r24
 2562 0b40 990B      		sbc r25,r25
 2563 0b42 0E94 0000 		call __floatsisf
 2564               	.LVL202:
 2565 0b46 A501      		movw r20,r10
 2566 0b48 9401      		movw r18,r8
 2567 0b4a 0E94 0000 		call __divsf3
 2568               	.LVL203:
 2569 0b4e A701      		movw r20,r14
 2570 0b50 9601      		movw r18,r12
 2571 0b52 0E94 0000 		call __mulsf3
 2572               	.LVL204:
 2573 0b56 0E94 0000 		call __fixsfsi
 2574               	.LVL205:
 2575 0b5a 9B01      		movw r18,r22
 2576 0b5c 77FF      		sbrs r23,7
 2577 0b5e 00C0      		rjmp .L193
 2578 0b60 2227      		clr r18
 2579 0b62 3327      		clr r19
 2580 0b64 261B      		sub r18,r22
 2581 0b66 370B      		sbc r19,r23
 2582               	.L193:
 2583 0b68 032E      		mov __tmp_reg__,r19
 2584 0b6a 000C      		lsl r0
 2585 0b6c 440B      		sbc r20,r20
 2586 0b6e 550B      		sbc r21,r21
 2587 0b70 C301      		movw r24,r6
 2588 0b72 B201      		movw r22,r4
 2589 0b74 0E94 0000 		call __divmodsi4
 2590 0b78 2093 0000 		sts Shoulder+6,r18
 2591 0b7c 3093 0000 		sts Shoulder+6+1,r19
 2592 0b80 4093 0000 		sts Shoulder+6+2,r20
GAS LISTING /tmp/ccjciOO6.s 			page 68


 2593 0b84 5093 0000 		sts Shoulder+6+3,r21
 2594               	.LVL206:
 2595               	.LBE100:
 2596               	.LBE99:
 2597               	.LBB101:
 2598               	.LBB102:
 2599 0b88 2091 0000 		lds r18,Elbow+10
 2600 0b8c 3091 0000 		lds r19,Elbow+10+1
 2601 0b90 032E      		mov __tmp_reg__,r19
 2602 0b92 000C      		lsl r0
 2603 0b94 440B      		sbc r20,r20
 2604 0b96 550B      		sbc r21,r21
 2605 0b98 60E6      		ldi r22,lo8(96)
 2606 0b9a 7AEE      		ldi r23,lo8(-22)
 2607 0b9c 80E0      		ldi r24,0
 2608 0b9e 90E0      		ldi r25,0
 2609 0ba0 0E94 0000 		call __divmodsi4
 2610 0ba4 2901      		movw r4,r18
 2611 0ba6 3A01      		movw r6,r20
 2612 0ba8 4D85      		ldd r20,Y+13
 2613 0baa 5E85      		ldd r21,Y+14
 2614 0bac BA01      		movw r22,r20
 2615 0bae 550F      		lsl r21
 2616 0bb0 880B      		sbc r24,r24
 2617 0bb2 990B      		sbc r25,r25
 2618 0bb4 0E94 0000 		call __floatsisf
 2619               	.LVL207:
 2620 0bb8 A501      		movw r20,r10
 2621 0bba 9401      		movw r18,r8
 2622 0bbc 0E94 0000 		call __divsf3
 2623               	.LVL208:
 2624 0bc0 A701      		movw r20,r14
 2625 0bc2 9601      		movw r18,r12
 2626 0bc4 0E94 0000 		call __mulsf3
 2627               	.LVL209:
 2628 0bc8 0E94 0000 		call __fixsfsi
 2629               	.LVL210:
 2630 0bcc 9B01      		movw r18,r22
 2631 0bce 77FF      		sbrs r23,7
 2632 0bd0 00C0      		rjmp .L194
 2633 0bd2 2227      		clr r18
 2634 0bd4 3327      		clr r19
 2635 0bd6 261B      		sub r18,r22
 2636 0bd8 370B      		sbc r19,r23
 2637               	.L194:
 2638 0bda 032E      		mov __tmp_reg__,r19
 2639 0bdc 000C      		lsl r0
 2640 0bde 440B      		sbc r20,r20
 2641 0be0 550B      		sbc r21,r21
 2642 0be2 C301      		movw r24,r6
 2643 0be4 B201      		movw r22,r4
 2644 0be6 0E94 0000 		call __divmodsi4
 2645 0bea 2093 0000 		sts Elbow+6,r18
 2646 0bee 3093 0000 		sts Elbow+6+1,r19
 2647 0bf2 4093 0000 		sts Elbow+6+2,r20
 2648 0bf6 5093 0000 		sts Elbow+6+3,r21
 2649               	.LVL211:
GAS LISTING /tmp/ccjciOO6.s 			page 69


 2650               	.LBE102:
 2651               	.LBE101:
 2652               	.LBB103:
 2653               	.LBB104:
 2654 0bfa 2091 0000 		lds r18,Right_Wrist+10
 2655 0bfe 3091 0000 		lds r19,Right_Wrist+10+1
 2656 0c02 032E      		mov __tmp_reg__,r19
 2657 0c04 000C      		lsl r0
 2658 0c06 440B      		sbc r20,r20
 2659 0c08 550B      		sbc r21,r21
 2660 0c0a 60E6      		ldi r22,lo8(96)
 2661 0c0c 7AEE      		ldi r23,lo8(-22)
 2662 0c0e 80E0      		ldi r24,0
 2663 0c10 90E0      		ldi r25,0
 2664 0c12 0E94 0000 		call __divmodsi4
 2665 0c16 2901      		movw r4,r18
 2666 0c18 3A01      		movw r6,r20
 2667 0c1a AF85      		ldd r26,Y+15
 2668 0c1c B889      		ldd r27,Y+16
 2669 0c1e BD01      		movw r22,r26
 2670 0c20 BB0F      		lsl r27
 2671 0c22 880B      		sbc r24,r24
 2672 0c24 990B      		sbc r25,r25
 2673 0c26 0E94 0000 		call __floatsisf
 2674               	.LVL212:
 2675 0c2a A501      		movw r20,r10
 2676 0c2c 9401      		movw r18,r8
 2677 0c2e 0E94 0000 		call __divsf3
 2678               	.LVL213:
 2679 0c32 A701      		movw r20,r14
 2680 0c34 9601      		movw r18,r12
 2681 0c36 0E94 0000 		call __mulsf3
 2682               	.LVL214:
 2683 0c3a 0E94 0000 		call __fixsfsi
 2684               	.LVL215:
 2685 0c3e 9B01      		movw r18,r22
 2686 0c40 77FF      		sbrs r23,7
 2687 0c42 00C0      		rjmp .L195
 2688 0c44 2227      		clr r18
 2689 0c46 3327      		clr r19
 2690 0c48 261B      		sub r18,r22
 2691 0c4a 370B      		sbc r19,r23
 2692               	.L195:
 2693 0c4c 032E      		mov __tmp_reg__,r19
 2694 0c4e 000C      		lsl r0
 2695 0c50 440B      		sbc r20,r20
 2696 0c52 550B      		sbc r21,r21
 2697 0c54 C301      		movw r24,r6
 2698 0c56 B201      		movw r22,r4
 2699 0c58 0E94 0000 		call __divmodsi4
 2700 0c5c 2093 0000 		sts Right_Wrist+6,r18
 2701 0c60 3093 0000 		sts Right_Wrist+6+1,r19
 2702 0c64 4093 0000 		sts Right_Wrist+6+2,r20
 2703 0c68 5093 0000 		sts Right_Wrist+6+3,r21
 2704               	.LVL216:
 2705               	.LBE104:
 2706               	.LBE103:
GAS LISTING /tmp/ccjciOO6.s 			page 70


 2707               	.LBB105:
 2708               	.LBB106:
 2709 0c6c 2091 0000 		lds r18,Left_Wrist+10
 2710 0c70 3091 0000 		lds r19,Left_Wrist+10+1
 2711 0c74 032E      		mov __tmp_reg__,r19
 2712 0c76 000C      		lsl r0
 2713 0c78 440B      		sbc r20,r20
 2714 0c7a 550B      		sbc r21,r21
 2715 0c7c 60E6      		ldi r22,lo8(96)
 2716 0c7e 7AEE      		ldi r23,lo8(-22)
 2717 0c80 80E0      		ldi r24,0
 2718 0c82 90E0      		ldi r25,0
 2719 0c84 0E94 0000 		call __divmodsi4
 2720 0c88 2901      		movw r4,r18
 2721 0c8a 3A01      		movw r6,r20
 2722 0c8c 2989      		ldd r18,Y+17
 2723 0c8e 3A89      		ldd r19,Y+18
 2724 0c90 B901      		movw r22,r18
 2725 0c92 330F      		lsl r19
 2726 0c94 880B      		sbc r24,r24
 2727 0c96 990B      		sbc r25,r25
 2728 0c98 0E94 0000 		call __floatsisf
 2729               	.LVL217:
 2730 0c9c A501      		movw r20,r10
 2731 0c9e 9401      		movw r18,r8
 2732 0ca0 0E94 0000 		call __divsf3
 2733               	.LVL218:
 2734 0ca4 A701      		movw r20,r14
 2735 0ca6 9601      		movw r18,r12
 2736 0ca8 0E94 0000 		call __mulsf3
 2737               	.LVL219:
 2738 0cac 0E94 0000 		call __fixsfsi
 2739               	.LVL220:
 2740 0cb0 9B01      		movw r18,r22
 2741 0cb2 77FF      		sbrs r23,7
 2742 0cb4 00C0      		rjmp .L196
 2743 0cb6 2227      		clr r18
 2744 0cb8 3327      		clr r19
 2745 0cba 261B      		sub r18,r22
 2746 0cbc 370B      		sbc r19,r23
 2747               	.L196:
 2748 0cbe 032E      		mov __tmp_reg__,r19
 2749 0cc0 000C      		lsl r0
 2750 0cc2 440B      		sbc r20,r20
 2751 0cc4 550B      		sbc r21,r21
 2752 0cc6 C301      		movw r24,r6
 2753 0cc8 B201      		movw r22,r4
 2754 0cca 0E94 0000 		call __divmodsi4
 2755 0cce 2093 0000 		sts Left_Wrist+6,r18
 2756 0cd2 3093 0000 		sts Left_Wrist+6+1,r19
 2757 0cd6 4093 0000 		sts Left_Wrist+6+2,r20
 2758 0cda 5093 0000 		sts Left_Wrist+6+3,r21
 2759               	.LVL221:
 2760               	.LBE106:
 2761               	.LBE105:
 2762               	.LBB107:
 2763               	.LBB108:
GAS LISTING /tmp/ccjciOO6.s 			page 71


 2764 0cde 2091 0000 		lds r18,Gripper+10
 2765 0ce2 3091 0000 		lds r19,Gripper+10+1
 2766 0ce6 032E      		mov __tmp_reg__,r19
 2767 0ce8 000C      		lsl r0
 2768 0cea 440B      		sbc r20,r20
 2769 0cec 550B      		sbc r21,r21
 2770 0cee 60E6      		ldi r22,lo8(96)
 2771 0cf0 7AEE      		ldi r23,lo8(-22)
 2772 0cf2 80E0      		ldi r24,0
 2773 0cf4 90E0      		ldi r25,0
 2774 0cf6 0E94 0000 		call __divmodsi4
 2775 0cfa 2901      		movw r4,r18
 2776 0cfc 3A01      		movw r6,r20
 2777 0cfe 4B89      		ldd r20,Y+19
 2778 0d00 5C89      		ldd r21,Y+20
 2779 0d02 BA01      		movw r22,r20
 2780 0d04 550F      		lsl r21
 2781 0d06 880B      		sbc r24,r24
 2782 0d08 990B      		sbc r25,r25
 2783 0d0a 0E94 0000 		call __floatsisf
 2784               	.LVL222:
 2785 0d0e A501      		movw r20,r10
 2786 0d10 9401      		movw r18,r8
 2787 0d12 0E94 0000 		call __divsf3
 2788               	.LVL223:
 2789 0d16 A701      		movw r20,r14
 2790 0d18 9601      		movw r18,r12
 2791 0d1a 0E94 0000 		call __mulsf3
 2792               	.LVL224:
 2793 0d1e 0E94 0000 		call __fixsfsi
 2794               	.LVL225:
 2795 0d22 9B01      		movw r18,r22
 2796 0d24 77FF      		sbrs r23,7
 2797 0d26 00C0      		rjmp .L197
 2798 0d28 2227      		clr r18
 2799 0d2a 3327      		clr r19
 2800 0d2c 261B      		sub r18,r22
 2801 0d2e 370B      		sbc r19,r23
 2802               	.L197:
 2803 0d30 032E      		mov __tmp_reg__,r19
 2804 0d32 000C      		lsl r0
 2805 0d34 440B      		sbc r20,r20
 2806 0d36 550B      		sbc r21,r21
 2807 0d38 C301      		movw r24,r6
 2808 0d3a B201      		movw r22,r4
 2809 0d3c 0E94 0000 		call __divmodsi4
 2810 0d40 2093 0000 		sts Gripper+6,r18
 2811 0d44 3093 0000 		sts Gripper+6+1,r19
 2812 0d48 4093 0000 		sts Gripper+6+2,r20
 2813 0d4c 5093 0000 		sts Gripper+6+3,r21
 2814               	.LVL226:
 2815 0d50 E0E0      		ldi r30,lo8(goal)
 2816 0d52 F0E0      		ldi r31,hi8(goal)
 2817 0d54 20E0      		ldi r18,lo8(pose)
 2818 0d56 30E0      		ldi r19,hi8(pose)
 2819 0d58 8E01      		movw r16,r28
 2820 0d5a 0F5F      		subi r16,-1
GAS LISTING /tmp/ccjciOO6.s 			page 72


 2821 0d5c 1F4F      		sbci r17,-1
 2822 0d5e 40E0      		ldi r20,lo8(goal+12)
 2823 0d60 50E0      		ldi r21,hi8(goal+12)
 2824               	.LVL227:
 2825               	.L198:
 2826               	.LBE108:
 2827               	.LBE107:
 609:main.c        **** 	setSpeed(&MOTOR_2,abs((int)(maxSpeed*(error[1]/(double)maxError))));
 610:main.c        **** 	setSpeed(&MOTOR_3,abs((int)(maxSpeed*(error[2]/(double)maxError))));
 611:main.c        **** 	setSpeed(&MOTOR_4,abs((int)(maxSpeed*(error[3]/(double)maxError))));
 612:main.c        **** 	setSpeed(&MOTOR_5,abs((int)(maxSpeed*(error[4]/(double)maxError))));
 613:main.c        **** 	setSpeed(&MOTOR_6,abs((int)(maxSpeed*(error[5]/(double)maxError))));
 614:main.c        **** 	
 615:main.c        **** 	//Step
 616:main.c        **** 	//while(!compareArray(pose,goal)){
 617:main.c        **** 		
 618:main.c        **** 		for(i = 0; i < 6 ; i++){
 619:main.c        **** 			error[i] = goal[i]-pose[i];
 2828               		.loc 1 619 0 discriminator 3
 2829 0d62 8191      		ld r24,Z+
 2830 0d64 9191      		ld r25,Z+
 2831 0d66 D901      		movw r26,r18
 2832 0d68 6D91      		ld r22,X+
 2833 0d6a 7D91      		ld r23,X+
 2834 0d6c 9D01      		movw r18,r26
 2835 0d6e 861B      		sub r24,r22
 2836 0d70 970B      		sbc r25,r23
 2837 0d72 D801      		movw r26,r16
 2838 0d74 8D93      		st X+,r24
 2839 0d76 9D93      		st X+,r25
 2840 0d78 8D01      		movw r16,r26
 618:main.c        **** 			error[i] = goal[i]-pose[i];
 2841               		.loc 1 618 0 discriminator 3
 2842 0d7a 4E17      		cp r20,r30
 2843 0d7c 5F07      		cpc r21,r31
 2844 0d7e 01F4      		brne .L198
 2845               	.LBB109:
 2846               	.LBB110:
 109:main.c        **** }
 2847               		.loc 1 109 0
 2848 0d80 8091 0000 		lds r24,elapsedMillis
 2849 0d84 9091 0000 		lds r25,elapsedMillis+1
 2850 0d88 A091 0000 		lds r26,elapsedMillis+2
 2851 0d8c B091 0000 		lds r27,elapsedMillis+3
 2852               	.LBE110:
 2853               	.LBE109:
 620:main.c        **** 		}
 621:main.c        **** 		
 622:main.c        **** 		if (millis() - MOTOR_1.last_step_time >= MOTOR_1.step_delay){
 2854               		.loc 1 622 0
 2855 0d90 4091 0000 		lds r20,Base+32
 2856 0d94 5091 0000 		lds r21,Base+32+1
 2857 0d98 6091 0000 		lds r22,Base+32+2
 2858 0d9c 7091 0000 		lds r23,Base+32+3
 2859 0da0 841B      		sub r24,r20
 2860 0da2 950B      		sbc r25,r21
 2861 0da4 A60B      		sbc r26,r22
GAS LISTING /tmp/ccjciOO6.s 			page 73


 2862 0da6 B70B      		sbc r27,r23
 2863 0da8 2D89      		ldd r18,Y+21
 2864 0daa 3E89      		ldd r19,Y+22
 2865 0dac 4F89      		ldd r20,Y+23
 2866 0dae 588D      		ldd r21,Y+24
 2867 0db0 8217      		cp r24,r18
 2868 0db2 9307      		cpc r25,r19
 2869 0db4 A407      		cpc r26,r20
 2870 0db6 B507      		cpc r27,r21
 2871 0db8 00F0      		brlo .L199
 2872               	.LBB111:
 2873               	.LBB112:
 109:main.c        **** }
 2874               		.loc 1 109 0
 2875 0dba 8091 0000 		lds r24,elapsedMillis
 2876 0dbe 9091 0000 		lds r25,elapsedMillis+1
 2877 0dc2 A091 0000 		lds r26,elapsedMillis+2
 2878 0dc6 B091 0000 		lds r27,elapsedMillis+3
 2879               	.LBE112:
 2880               	.LBE111:
 623:main.c        **** 			MOTOR_1.last_step_time = millis();
 2881               		.loc 1 623 0
 2882 0dca 8093 0000 		sts Base+32,r24
 2883 0dce 9093 0000 		sts Base+32+1,r25
 2884 0dd2 A093 0000 		sts Base+32+2,r26
 2885 0dd6 B093 0000 		sts Base+32+3,r27
 624:main.c        **** 			stepOne(&MOTOR_1,signum(error[0]));
 2886               		.loc 1 624 0
 2887 0dda 8981      		ldd r24,Y+1
 2888 0ddc 9A81      		ldd r25,Y+2
 2889               	.LVL228:
 2890               	.LBB113:
 2891               	.LBB114:
  93:main.c        **** }
 2892               		.loc 1 93 0
 2893 0dde 97FD      		sbrc r25,7
 2894 0de0 00C0      		rjmp .L217
 2895 0de2 61E0      		ldi r22,lo8(1)
 2896 0de4 70E0      		ldi r23,0
 2897 0de6 1816      		cp __zero_reg__,r24
 2898 0de8 1906      		cpc __zero_reg__,r25
 2899 0dea 04F0      		brlt .L200
 2900 0dec 60E0      		ldi r22,0
 2901 0dee 00C0      		rjmp .L200
 2902               	.L217:
 2903 0df0 6FEF      		ldi r22,lo8(-1)
 2904 0df2 7FEF      		ldi r23,lo8(-1)
 2905               	.L200:
 2906               	.LVL229:
 2907               	.LBE114:
 2908               	.LBE113:
 2909               		.loc 1 624 0
 2910 0df4 80E0      		ldi r24,lo8(Base)
 2911 0df6 90E0      		ldi r25,hi8(Base)
 2912 0df8 0E94 0000 		call stepOne
 2913               	.LVL230:
 2914               	.L199:
GAS LISTING /tmp/ccjciOO6.s 			page 74


 2915               	.LBB115:
 2916               	.LBB116:
 109:main.c        **** }
 2917               		.loc 1 109 0
 2918 0dfc 8091 0000 		lds r24,elapsedMillis
 2919 0e00 9091 0000 		lds r25,elapsedMillis+1
 2920 0e04 A091 0000 		lds r26,elapsedMillis+2
 2921 0e08 B091 0000 		lds r27,elapsedMillis+3
 2922               	.LBE116:
 2923               	.LBE115:
 625:main.c        **** 		}
 626:main.c        **** 		if (millis() - MOTOR_2.last_step_time >= MOTOR_2.step_delay){
 2924               		.loc 1 626 0
 2925 0e0c 4091 0000 		lds r20,Shoulder+32
 2926 0e10 5091 0000 		lds r21,Shoulder+32+1
 2927 0e14 6091 0000 		lds r22,Shoulder+32+2
 2928 0e18 7091 0000 		lds r23,Shoulder+32+3
 2929 0e1c 841B      		sub r24,r20
 2930 0e1e 950B      		sbc r25,r21
 2931 0e20 A60B      		sbc r26,r22
 2932 0e22 B70B      		sbc r27,r23
 2933 0e24 4091 0000 		lds r20,Shoulder+6
 2934 0e28 5091 0000 		lds r21,Shoulder+6+1
 2935 0e2c 6091 0000 		lds r22,Shoulder+6+2
 2936 0e30 7091 0000 		lds r23,Shoulder+6+3
 2937 0e34 8417      		cp r24,r20
 2938 0e36 9507      		cpc r25,r21
 2939 0e38 A607      		cpc r26,r22
 2940 0e3a B707      		cpc r27,r23
 2941 0e3c 00F0      		brlo .L202
 2942               	.LBB117:
 2943               	.LBB118:
 109:main.c        **** }
 2944               		.loc 1 109 0
 2945 0e3e 8091 0000 		lds r24,elapsedMillis
 2946 0e42 9091 0000 		lds r25,elapsedMillis+1
 2947 0e46 A091 0000 		lds r26,elapsedMillis+2
 2948 0e4a B091 0000 		lds r27,elapsedMillis+3
 2949               	.LBE118:
 2950               	.LBE117:
 627:main.c        **** 			MOTOR_2.last_step_time = millis();
 2951               		.loc 1 627 0
 2952 0e4e 8093 0000 		sts Shoulder+32,r24
 2953 0e52 9093 0000 		sts Shoulder+32+1,r25
 2954 0e56 A093 0000 		sts Shoulder+32+2,r26
 2955 0e5a B093 0000 		sts Shoulder+32+3,r27
 628:main.c        **** 			stepOne(&MOTOR_2,signum(error[1]));
 2956               		.loc 1 628 0
 2957 0e5e 8B81      		ldd r24,Y+3
 2958 0e60 9C81      		ldd r25,Y+4
 2959               	.LVL231:
 2960               	.LBB119:
 2961               	.LBB120:
  93:main.c        **** }
 2962               		.loc 1 93 0
 2963 0e62 97FD      		sbrc r25,7
 2964 0e64 00C0      		rjmp .L218
GAS LISTING /tmp/ccjciOO6.s 			page 75


 2965 0e66 61E0      		ldi r22,lo8(1)
 2966 0e68 70E0      		ldi r23,0
 2967 0e6a 1816      		cp __zero_reg__,r24
 2968 0e6c 1906      		cpc __zero_reg__,r25
 2969 0e6e 04F0      		brlt .L203
 2970 0e70 60E0      		ldi r22,0
 2971 0e72 00C0      		rjmp .L203
 2972               	.L218:
 2973 0e74 6FEF      		ldi r22,lo8(-1)
 2974 0e76 7FEF      		ldi r23,lo8(-1)
 2975               	.L203:
 2976               	.LVL232:
 2977               	.LBE120:
 2978               	.LBE119:
 2979               		.loc 1 628 0
 2980 0e78 80E0      		ldi r24,lo8(Shoulder)
 2981 0e7a 90E0      		ldi r25,hi8(Shoulder)
 2982 0e7c 0E94 0000 		call stepOne
 2983               	.LVL233:
 2984               	.L202:
 2985               	.LBB121:
 2986               	.LBB122:
 109:main.c        **** }
 2987               		.loc 1 109 0
 2988 0e80 8091 0000 		lds r24,elapsedMillis
 2989 0e84 9091 0000 		lds r25,elapsedMillis+1
 2990 0e88 A091 0000 		lds r26,elapsedMillis+2
 2991 0e8c B091 0000 		lds r27,elapsedMillis+3
 2992               	.LBE122:
 2993               	.LBE121:
 629:main.c        **** 		}
 630:main.c        **** 		if (millis() - MOTOR_3.last_step_time >= MOTOR_3.step_delay){
 2994               		.loc 1 630 0
 2995 0e90 4091 0000 		lds r20,Elbow+32
 2996 0e94 5091 0000 		lds r21,Elbow+32+1
 2997 0e98 6091 0000 		lds r22,Elbow+32+2
 2998 0e9c 7091 0000 		lds r23,Elbow+32+3
 2999 0ea0 841B      		sub r24,r20
 3000 0ea2 950B      		sbc r25,r21
 3001 0ea4 A60B      		sbc r26,r22
 3002 0ea6 B70B      		sbc r27,r23
 3003 0ea8 4091 0000 		lds r20,Elbow+6
 3004 0eac 5091 0000 		lds r21,Elbow+6+1
 3005 0eb0 6091 0000 		lds r22,Elbow+6+2
 3006 0eb4 7091 0000 		lds r23,Elbow+6+3
 3007 0eb8 8417      		cp r24,r20
 3008 0eba 9507      		cpc r25,r21
 3009 0ebc A607      		cpc r26,r22
 3010 0ebe B707      		cpc r27,r23
 3011 0ec0 00F0      		brlo .L205
 3012               	.LBB123:
 3013               	.LBB124:
 109:main.c        **** }
 3014               		.loc 1 109 0
 3015 0ec2 8091 0000 		lds r24,elapsedMillis
 3016 0ec6 9091 0000 		lds r25,elapsedMillis+1
 3017 0eca A091 0000 		lds r26,elapsedMillis+2
GAS LISTING /tmp/ccjciOO6.s 			page 76


 3018 0ece B091 0000 		lds r27,elapsedMillis+3
 3019               	.LBE124:
 3020               	.LBE123:
 631:main.c        **** 			MOTOR_3.last_step_time = millis();
 3021               		.loc 1 631 0
 3022 0ed2 8093 0000 		sts Elbow+32,r24
 3023 0ed6 9093 0000 		sts Elbow+32+1,r25
 3024 0eda A093 0000 		sts Elbow+32+2,r26
 3025 0ede B093 0000 		sts Elbow+32+3,r27
 632:main.c        **** 			stepOne(&MOTOR_3,signum(error[2]));
 3026               		.loc 1 632 0
 3027 0ee2 8D81      		ldd r24,Y+5
 3028 0ee4 9E81      		ldd r25,Y+6
 3029               	.LVL234:
 3030               	.LBB125:
 3031               	.LBB126:
  93:main.c        **** }
 3032               		.loc 1 93 0
 3033 0ee6 97FD      		sbrc r25,7
 3034 0ee8 00C0      		rjmp .L219
 3035 0eea 61E0      		ldi r22,lo8(1)
 3036 0eec 70E0      		ldi r23,0
 3037 0eee 1816      		cp __zero_reg__,r24
 3038 0ef0 1906      		cpc __zero_reg__,r25
 3039 0ef2 04F0      		brlt .L206
 3040 0ef4 60E0      		ldi r22,0
 3041 0ef6 00C0      		rjmp .L206
 3042               	.L219:
 3043 0ef8 6FEF      		ldi r22,lo8(-1)
 3044 0efa 7FEF      		ldi r23,lo8(-1)
 3045               	.L206:
 3046               	.LVL235:
 3047               	.LBE126:
 3048               	.LBE125:
 3049               		.loc 1 632 0
 3050 0efc 80E0      		ldi r24,lo8(Elbow)
 3051 0efe 90E0      		ldi r25,hi8(Elbow)
 3052 0f00 0E94 0000 		call stepOne
 3053               	.LVL236:
 3054               	.L205:
 3055               	.LBB127:
 3056               	.LBB128:
 109:main.c        **** }
 3057               		.loc 1 109 0
 3058 0f04 8091 0000 		lds r24,elapsedMillis
 3059 0f08 9091 0000 		lds r25,elapsedMillis+1
 3060 0f0c A091 0000 		lds r26,elapsedMillis+2
 3061 0f10 B091 0000 		lds r27,elapsedMillis+3
 3062               	.LBE128:
 3063               	.LBE127:
 633:main.c        **** 		}
 634:main.c        **** 		if (millis() - MOTOR_4.last_step_time >= MOTOR_4.step_delay){
 3064               		.loc 1 634 0
 3065 0f14 4091 0000 		lds r20,Right_Wrist+32
 3066 0f18 5091 0000 		lds r21,Right_Wrist+32+1
 3067 0f1c 6091 0000 		lds r22,Right_Wrist+32+2
 3068 0f20 7091 0000 		lds r23,Right_Wrist+32+3
GAS LISTING /tmp/ccjciOO6.s 			page 77


 3069 0f24 841B      		sub r24,r20
 3070 0f26 950B      		sbc r25,r21
 3071 0f28 A60B      		sbc r26,r22
 3072 0f2a B70B      		sbc r27,r23
 3073 0f2c 4091 0000 		lds r20,Right_Wrist+6
 3074 0f30 5091 0000 		lds r21,Right_Wrist+6+1
 3075 0f34 6091 0000 		lds r22,Right_Wrist+6+2
 3076 0f38 7091 0000 		lds r23,Right_Wrist+6+3
 3077 0f3c 8417      		cp r24,r20
 3078 0f3e 9507      		cpc r25,r21
 3079 0f40 A607      		cpc r26,r22
 3080 0f42 B707      		cpc r27,r23
 3081 0f44 00F0      		brlo .L208
 3082               	.LBB129:
 3083               	.LBB130:
 109:main.c        **** }
 3084               		.loc 1 109 0
 3085 0f46 8091 0000 		lds r24,elapsedMillis
 3086 0f4a 9091 0000 		lds r25,elapsedMillis+1
 3087 0f4e A091 0000 		lds r26,elapsedMillis+2
 3088 0f52 B091 0000 		lds r27,elapsedMillis+3
 3089               	.LBE130:
 3090               	.LBE129:
 635:main.c        **** 			MOTOR_4.last_step_time = millis();
 3091               		.loc 1 635 0
 3092 0f56 8093 0000 		sts Right_Wrist+32,r24
 3093 0f5a 9093 0000 		sts Right_Wrist+32+1,r25
 3094 0f5e A093 0000 		sts Right_Wrist+32+2,r26
 3095 0f62 B093 0000 		sts Right_Wrist+32+3,r27
 636:main.c        **** 			stepOne(&MOTOR_4,signum(error[3]));
 3096               		.loc 1 636 0
 3097 0f66 8F81      		ldd r24,Y+7
 3098 0f68 9885      		ldd r25,Y+8
 3099               	.LVL237:
 3100               	.LBB131:
 3101               	.LBB132:
  93:main.c        **** }
 3102               		.loc 1 93 0
 3103 0f6a 97FD      		sbrc r25,7
 3104 0f6c 00C0      		rjmp .L220
 3105 0f6e 61E0      		ldi r22,lo8(1)
 3106 0f70 70E0      		ldi r23,0
 3107 0f72 1816      		cp __zero_reg__,r24
 3108 0f74 1906      		cpc __zero_reg__,r25
 3109 0f76 04F0      		brlt .L209
 3110 0f78 60E0      		ldi r22,0
 3111 0f7a 00C0      		rjmp .L209
 3112               	.L220:
 3113 0f7c 6FEF      		ldi r22,lo8(-1)
 3114 0f7e 7FEF      		ldi r23,lo8(-1)
 3115               	.L209:
 3116               	.LVL238:
 3117               	.LBE132:
 3118               	.LBE131:
 3119               		.loc 1 636 0
 3120 0f80 80E0      		ldi r24,lo8(Right_Wrist)
 3121 0f82 90E0      		ldi r25,hi8(Right_Wrist)
GAS LISTING /tmp/ccjciOO6.s 			page 78


 3122 0f84 0E94 0000 		call stepOne
 3123               	.LVL239:
 3124               	.L208:
 3125               	.LBB133:
 3126               	.LBB134:
 109:main.c        **** }
 3127               		.loc 1 109 0
 3128 0f88 8091 0000 		lds r24,elapsedMillis
 3129 0f8c 9091 0000 		lds r25,elapsedMillis+1
 3130 0f90 A091 0000 		lds r26,elapsedMillis+2
 3131 0f94 B091 0000 		lds r27,elapsedMillis+3
 3132               	.LBE134:
 3133               	.LBE133:
 637:main.c        **** 		}
 638:main.c        **** 		if (millis() - MOTOR_5.last_step_time >= MOTOR_5.step_delay){
 3134               		.loc 1 638 0
 3135 0f98 4091 0000 		lds r20,Left_Wrist+32
 3136 0f9c 5091 0000 		lds r21,Left_Wrist+32+1
 3137 0fa0 6091 0000 		lds r22,Left_Wrist+32+2
 3138 0fa4 7091 0000 		lds r23,Left_Wrist+32+3
 3139 0fa8 841B      		sub r24,r20
 3140 0faa 950B      		sbc r25,r21
 3141 0fac A60B      		sbc r26,r22
 3142 0fae B70B      		sbc r27,r23
 3143 0fb0 4091 0000 		lds r20,Left_Wrist+6
 3144 0fb4 5091 0000 		lds r21,Left_Wrist+6+1
 3145 0fb8 6091 0000 		lds r22,Left_Wrist+6+2
 3146 0fbc 7091 0000 		lds r23,Left_Wrist+6+3
 3147 0fc0 8417      		cp r24,r20
 3148 0fc2 9507      		cpc r25,r21
 3149 0fc4 A607      		cpc r26,r22
 3150 0fc6 B707      		cpc r27,r23
 3151 0fc8 00F0      		brlo .L211
 3152               	.LBB135:
 3153               	.LBB136:
 109:main.c        **** }
 3154               		.loc 1 109 0
 3155 0fca 8091 0000 		lds r24,elapsedMillis
 3156 0fce 9091 0000 		lds r25,elapsedMillis+1
 3157 0fd2 A091 0000 		lds r26,elapsedMillis+2
 3158 0fd6 B091 0000 		lds r27,elapsedMillis+3
 3159               	.LBE136:
 3160               	.LBE135:
 639:main.c        **** 			MOTOR_5.last_step_time = millis();
 3161               		.loc 1 639 0
 3162 0fda 8093 0000 		sts Left_Wrist+32,r24
 3163 0fde 9093 0000 		sts Left_Wrist+32+1,r25
 3164 0fe2 A093 0000 		sts Left_Wrist+32+2,r26
 3165 0fe6 B093 0000 		sts Left_Wrist+32+3,r27
 640:main.c        **** 			stepOne(&MOTOR_5,signum(error[4]));
 3166               		.loc 1 640 0
 3167 0fea 8985      		ldd r24,Y+9
 3168 0fec 9A85      		ldd r25,Y+10
 3169               	.LVL240:
 3170               	.LBB137:
 3171               	.LBB138:
  93:main.c        **** }
GAS LISTING /tmp/ccjciOO6.s 			page 79


 3172               		.loc 1 93 0
 3173 0fee 97FD      		sbrc r25,7
 3174 0ff0 00C0      		rjmp .L221
 3175 0ff2 61E0      		ldi r22,lo8(1)
 3176 0ff4 70E0      		ldi r23,0
 3177 0ff6 1816      		cp __zero_reg__,r24
 3178 0ff8 1906      		cpc __zero_reg__,r25
 3179 0ffa 04F0      		brlt .L212
 3180 0ffc 60E0      		ldi r22,0
 3181 0ffe 00C0      		rjmp .L212
 3182               	.L221:
 3183 1000 6FEF      		ldi r22,lo8(-1)
 3184 1002 7FEF      		ldi r23,lo8(-1)
 3185               	.L212:
 3186               	.LVL241:
 3187               	.LBE138:
 3188               	.LBE137:
 3189               		.loc 1 640 0
 3190 1004 80E0      		ldi r24,lo8(Left_Wrist)
 3191 1006 90E0      		ldi r25,hi8(Left_Wrist)
 3192 1008 0E94 0000 		call stepOne
 3193               	.LVL242:
 3194               	.L211:
 3195               	.LBB139:
 3196               	.LBB140:
 109:main.c        **** }
 3197               		.loc 1 109 0
 3198 100c 8091 0000 		lds r24,elapsedMillis
 3199 1010 9091 0000 		lds r25,elapsedMillis+1
 3200 1014 A091 0000 		lds r26,elapsedMillis+2
 3201 1018 B091 0000 		lds r27,elapsedMillis+3
 3202               	.LBE140:
 3203               	.LBE139:
 641:main.c        **** 		}
 642:main.c        **** 		if (millis() - MOTOR_6.last_step_time >= MOTOR_6.step_delay){
 3204               		.loc 1 642 0
 3205 101c 4091 0000 		lds r20,Gripper+32
 3206 1020 5091 0000 		lds r21,Gripper+32+1
 3207 1024 6091 0000 		lds r22,Gripper+32+2
 3208 1028 7091 0000 		lds r23,Gripper+32+3
 3209 102c 841B      		sub r24,r20
 3210 102e 950B      		sbc r25,r21
 3211 1030 A60B      		sbc r26,r22
 3212 1032 B70B      		sbc r27,r23
 3213 1034 4091 0000 		lds r20,Gripper+6
 3214 1038 5091 0000 		lds r21,Gripper+6+1
 3215 103c 6091 0000 		lds r22,Gripper+6+2
 3216 1040 7091 0000 		lds r23,Gripper+6+3
 3217 1044 8417      		cp r24,r20
 3218 1046 9507      		cpc r25,r21
 3219 1048 A607      		cpc r26,r22
 3220 104a B707      		cpc r27,r23
 3221 104c 00F0      		brlo .L187
 3222               	.LBB141:
 3223               	.LBB142:
 109:main.c        **** }
 3224               		.loc 1 109 0
GAS LISTING /tmp/ccjciOO6.s 			page 80


 3225 104e 8091 0000 		lds r24,elapsedMillis
 3226 1052 9091 0000 		lds r25,elapsedMillis+1
 3227 1056 A091 0000 		lds r26,elapsedMillis+2
 3228 105a B091 0000 		lds r27,elapsedMillis+3
 3229               	.LBE142:
 3230               	.LBE141:
 643:main.c        **** 			MOTOR_6.last_step_time = millis();
 3231               		.loc 1 643 0
 3232 105e 8093 0000 		sts Gripper+32,r24
 3233 1062 9093 0000 		sts Gripper+32+1,r25
 3234 1066 A093 0000 		sts Gripper+32+2,r26
 3235 106a B093 0000 		sts Gripper+32+3,r27
 644:main.c        **** 			stepOne(&MOTOR_6,signum(error[5]));
 3236               		.loc 1 644 0
 3237 106e 8B85      		ldd r24,Y+11
 3238 1070 9C85      		ldd r25,Y+12
 3239               	.LVL243:
 3240               	.LBB143:
 3241               	.LBB144:
  93:main.c        **** }
 3242               		.loc 1 93 0
 3243 1072 97FD      		sbrc r25,7
 3244 1074 00C0      		rjmp .L222
 3245 1076 61E0      		ldi r22,lo8(1)
 3246 1078 70E0      		ldi r23,0
 3247 107a 1816      		cp __zero_reg__,r24
 3248 107c 1906      		cpc __zero_reg__,r25
 3249 107e 04F0      		brlt .L215
 3250 1080 60E0      		ldi r22,0
 3251 1082 00C0      		rjmp .L215
 3252               	.L222:
 3253 1084 6FEF      		ldi r22,lo8(-1)
 3254 1086 7FEF      		ldi r23,lo8(-1)
 3255               	.L215:
 3256               	.LVL244:
 3257               	.LBE144:
 3258               	.LBE143:
 3259               		.loc 1 644 0
 3260 1088 80E0      		ldi r24,lo8(Gripper)
 3261 108a 90E0      		ldi r25,hi8(Gripper)
 3262               	/* epilogue start */
 645:main.c        **** 		}
 646:main.c        **** 	//}
 647:main.c        **** 	
 648:main.c        **** }
 3263               		.loc 1 648 0
 3264 108c 6896      		adiw r28,24
 3265 108e CDBF      		out __SP_L__,r28
 3266 1090 DEBF      		out __SP_H__,r29
 3267 1092 DF91      		pop r29
 3268 1094 CF91      		pop r28
 3269 1096 1F91      		pop r17
 3270 1098 0F91      		pop r16
 3271 109a FF90      		pop r15
 3272 109c EF90      		pop r14
 3273 109e DF90      		pop r13
 3274 10a0 CF90      		pop r12
GAS LISTING /tmp/ccjciOO6.s 			page 81


 3275 10a2 BF90      		pop r11
 3276 10a4 AF90      		pop r10
 3277               	.LVL245:
 3278 10a6 9F90      		pop r9
 3279 10a8 8F90      		pop r8
 3280 10aa 7F90      		pop r7
 3281 10ac 6F90      		pop r6
 3282 10ae 5F90      		pop r5
 3283 10b0 4F90      		pop r4
 3284 10b2 3F90      		pop r3
 3285 10b4 2F90      		pop r2
 644:main.c        **** 		}
 3286               		.loc 1 644 0
 3287 10b6 0C94 0000 		jmp stepOne
 3288               	.LVL246:
 3289               	.L187:
 3290               	/* epilogue start */
 3291               		.loc 1 648 0
 3292 10ba 6896      		adiw r28,24
 3293 10bc CDBF      		out __SP_L__,r28
 3294 10be DEBF      		out __SP_H__,r29
 3295 10c0 DF91      		pop r29
 3296 10c2 CF91      		pop r28
 3297 10c4 1F91      		pop r17
 3298 10c6 0F91      		pop r16
 3299 10c8 FF90      		pop r15
 3300 10ca EF90      		pop r14
 3301 10cc DF90      		pop r13
 3302 10ce CF90      		pop r12
 3303 10d0 BF90      		pop r11
 3304 10d2 AF90      		pop r10
 3305               	.LVL247:
 3306 10d4 9F90      		pop r9
 3307 10d6 8F90      		pop r8
 3308 10d8 7F90      		pop r7
 3309 10da 6F90      		pop r6
 3310 10dc 5F90      		pop r5
 3311 10de 4F90      		pop r4
 3312 10e0 3F90      		pop r3
 3313 10e2 2F90      		pop r2
 3314 10e4 0895      		ret
 3315               		.cfi_endproc
 3316               	.LFE40:
 3317               		.size	moveToGoal, .-moveToGoal
 3318               	.global	updateSign
 3319               		.type	updateSign, @function
 3320               	updateSign:
 3321               	.LFB42:
 649:main.c        **** 
 650:main.c        **** /* Debug Tests:
 651:main.c        ****  *  * Wave Flag
 652:main.c        ****   	if(debugFlag > 3) debugFlag = 0;
 653:main.c        **** 	if(debugFlag == 0) changeGoal(-850,-200,-200,-200,-200,0);
 654:main.c        **** 	if(debugFlag == 1) changeGoal(-1700,-400,-400,-400,-400,0);
 655:main.c        **** 	if(debugFlag == 2) changeGoal(-850,-200,-200,-200,-200,0);
 656:main.c        **** 	if(debugFlag == 3) changeGoal(0,0,0,0,0,0);
 657:main.c        ****  * 
GAS LISTING /tmp/ccjciOO6.s 			page 82


 658:main.c        ****  * * Handshake
 659:main.c        ****  	if(debugFlag > 2) debugFlag = 1;
 660:main.c        **** 	if(debugFlag == 0) changeGoal(0,-1200,250,0,0,0);
 661:main.c        **** 	if(debugFlag == 1) changeGoal(0,-850,-250,-200,200,0);
 662:main.c        **** 	if(debugFlag == 2) changeGoal(0,-1200,250,0,0,0);
 663:main.c        ****  * 
 664:main.c        ****  */
 665:main.c        **** 
 666:main.c        **** 
 667:main.c        **** // Main Loop, called after init() in main()
 668:main.c        **** void mainLoop(void){
 669:main.c        **** 	while(1){
 670:main.c        **** 		if(state == DEBUG){
 671:main.c        **** 			
 672:main.c        **** 		} else if(state == INIT){
 673:main.c        **** 			setSpeed(&MOTOR_1,maxSpeed/2);
 674:main.c        **** 			setSpeed(&MOTOR_2,maxSpeed/2);
 675:main.c        **** 			setSpeed(&MOTOR_3,maxSpeed/2);
 676:main.c        **** 			setSpeed(&MOTOR_4,maxSpeed/2);
 677:main.c        **** 			setSpeed(&MOTOR_5,maxSpeed/2);
 678:main.c        **** 			setSpeed(&MOTOR_6,maxSpeed/2);
 679:main.c        **** 			while((PORTD.IN & _BV(4))){ //Localize Base
 680:main.c        **** 				break;
 681:main.c        **** 			}
 682:main.c        **** 			pose[0]=0;
 683:main.c        **** 			while((PORTD.IN & _BV(5))){ //Localize Shoulder
 684:main.c        **** 			
 685:main.c        **** 				break;
 686:main.c        **** 			}
 687:main.c        **** 			pose[1]=0;
 688:main.c        **** 			
 689:main.c        **** 			while((PORTE.IN & _BV(0))){ //Localize Elbow
 690:main.c        **** 				break;
 691:main.c        **** 			}
 692:main.c        **** 			pose[2]=0;
 693:main.c        **** 			
 694:main.c        **** 			while(1){ // Localize Gripper
 695:main.c        **** 				gripperState = !(PORTD.IN & _BV(4));
 696:main.c        **** 				
 697:main.c        **** 				if(gripperState == 1){
 698:main.c        **** 					if (gripperStatePrev == 0){
 699:main.c        **** 						int i;
 700:main.c        **** 						for (i=0;i<15;i++){ //Preload by 15 steps only if we detected a switch from on to off.
 701:main.c        **** 							delay_ms(MOTOR_6.step_delay);
 702:main.c        **** 							stepOne(&MOTOR_6,1);
 703:main.c        **** 						}
 704:main.c        **** 					}					
 705:main.c        **** 					break;
 706:main.c        **** 				}
 707:main.c        **** 				if (millis() - MOTOR_6.last_step_time >= MOTOR_6.step_delay){
 708:main.c        **** 					MOTOR_6.last_step_time = millis();
 709:main.c        **** 					stepOne(&MOTOR_6,1);
 710:main.c        **** 				}
 711:main.c        **** 				gripperStatePrev = gripperState;
 712:main.c        **** 			}
 713:main.c        **** 			pose[5]=0;
 714:main.c        **** 			
GAS LISTING /tmp/ccjciOO6.s 			page 83


 715:main.c        **** 			while((PORTE.IN & _BV(0))){ //Localize Wrist
 716:main.c        **** 			/*
 717:main.c        **** 				int i;
 718:main.c        **** 				for (i=0;i<200;i++){
 719:main.c        **** 					delay_ms(MOTOR_5.step_delay);
 720:main.c        **** 					stepOne(&MOTOR_4,-1);
 721:main.c        **** 					stepOne(&MOTOR_5,1);
 722:main.c        **** 				}
 723:main.c        **** 			
 724:main.c        **** 			*/
 725:main.c        **** 				break;
 726:main.c        **** 			}
 727:main.c        **** 			pose[3]=0;
 728:main.c        **** 			pose[4]=0;
 729:main.c        **** 			
 730:main.c        ****             printf("ready\n");	
 731:main.c        **** 			state = IDLE;
 732:main.c        **** 		} else if(state == IDLE){
 733:main.c        ****             //printf("idle\n");	
 734:main.c        **** 
 735:main.c        **** 			// update();
 736:main.c        **** 			updateSign();
 737:main.c        **** 			if(!compareArray(pose,goal)){
 738:main.c        **** 				state = MOVING;
 739:main.c        ****                 printf("moving\n");
 740:main.c        **** 			}
 741:main.c        **** 		} else if(state == MOVING){
 742:main.c        **** 			//If we're not there yet
 743:main.c        **** 			if(!compareArray(pose,goal)){
 744:main.c        **** 				moveToGoal();
 745:main.c        **** 			} else if(compareArray(pose,goal)){ //If we got there
 746:main.c        **** 					printf("gotThere\n");
 747:main.c        **** 					state = IDLE;
 748:main.c        **** 			}
 749:main.c        **** 		} else if(state == LOST){
 750:main.c        **** 			
 751:main.c        **** 		}	
 752:main.c        **** 	}
 753:main.c        **** }
 754:main.c        **** 
 755:main.c        **** void updateSign(void){
 3322               		.loc 1 755 0
 3323               		.cfi_startproc
 3324               	/* prologue: function */
 3325               	/* frame size = 0 */
 3326               	/* stack size = 0 */
 3327               	.L__stack_usage = 0
 756:main.c        ****   	if(debugFlag > 3) debugFlag = 0;
 3328               		.loc 1 756 0
 3329 10e6 8091 0000 		lds r24,debugFlag
 3330 10ea 9091 0000 		lds r25,debugFlag+1
 3331 10ee 0497      		sbiw r24,4
 3332 10f0 04F0      		brlt .L226
 3333               		.loc 1 756 0 is_stmt 0 discriminator 1
 3334 10f2 1092 0000 		sts debugFlag,__zero_reg__
 3335 10f6 1092 0000 		sts debugFlag+1,__zero_reg__
 3336               	.L226:
GAS LISTING /tmp/ccjciOO6.s 			page 84


 757:main.c        **** 	if(debugFlag == 0) changeGoal(-850,-200,-200,-200,-200,0);
 3337               		.loc 1 757 0 is_stmt 1
 3338 10fa 8091 0000 		lds r24,debugFlag
 3339 10fe 9091 0000 		lds r25,debugFlag+1
 3340 1102 0097      		sbiw r24,0
 3341 1104 01F0      		breq .L232
 758:main.c        **** 	if(debugFlag == 1) changeGoal(-1700,-400,-400,-400,-400,0);
 3342               		.loc 1 758 0
 3343 1106 8130      		cpi r24,1
 3344 1108 9105      		cpc r25,__zero_reg__
 3345 110a 01F4      		brne .L229
 3346               	.LVL248:
 3347               	.LBB161:
 3348               	.LBB162:
 578:main.c        **** 	goal[1] = val1;
 3349               		.loc 1 578 0
 3350 110c 8CE5      		ldi r24,lo8(92)
 3351 110e 99EF      		ldi r25,lo8(-7)
 3352 1110 8093 0000 		sts goal,r24
 3353 1114 9093 0000 		sts goal+1,r25
 579:main.c        **** 	goal[2] = val2;
 3354               		.loc 1 579 0
 3355 1118 80E7      		ldi r24,lo8(112)
 3356 111a 9EEF      		ldi r25,lo8(-2)
 3357 111c 00C0      		rjmp .L233
 3358               	.LVL249:
 3359               	.L229:
 3360               	.LBE162:
 3361               	.LBE161:
 759:main.c        **** 	if(debugFlag == 2) changeGoal(-850,-200,-200,-200,-200,0);
 3362               		.loc 1 759 0
 3363 111e 8230      		cpi r24,2
 3364 1120 9105      		cpc r25,__zero_reg__
 3365 1122 01F4      		brne .L230
 3366               	.L232:
 3367               	.LVL250:
 3368               	.LBB163:
 3369               	.LBB164:
 578:main.c        **** 	goal[1] = val1;
 3370               		.loc 1 578 0
 3371 1124 8EEA      		ldi r24,lo8(-82)
 3372 1126 9CEF      		ldi r25,lo8(-4)
 3373 1128 8093 0000 		sts goal,r24
 3374 112c 9093 0000 		sts goal+1,r25
 579:main.c        **** 	goal[2] = val2;
 3375               		.loc 1 579 0
 3376 1130 88E3      		ldi r24,lo8(56)
 3377 1132 9FEF      		ldi r25,lo8(-1)
 3378               	.LVL251:
 3379               	.L233:
 3380 1134 8093 0000 		sts goal+2,r24
 3381 1138 9093 0000 		sts goal+2+1,r25
 580:main.c        **** 	goal[3] = val3;
 3382               		.loc 1 580 0
 3383 113c 8093 0000 		sts goal+4,r24
 3384 1140 9093 0000 		sts goal+4+1,r25
 581:main.c        **** 	goal[4] = val4;
GAS LISTING /tmp/ccjciOO6.s 			page 85


 3385               		.loc 1 581 0
 3386 1144 8093 0000 		sts goal+6,r24
 3387 1148 9093 0000 		sts goal+6+1,r25
 582:main.c        **** 	goal[5] = val5;
 3388               		.loc 1 582 0
 3389 114c 8093 0000 		sts goal+8,r24
 3390 1150 9093 0000 		sts goal+8+1,r25
 3391 1154 00C0      		rjmp .L231
 3392               	.L230:
 3393               	.LBE164:
 3394               	.LBE163:
 760:main.c        **** 	if(debugFlag == 3) changeGoal(0,0,0,0,0,0);
 3395               		.loc 1 760 0
 3396 1156 0397      		sbiw r24,3
 3397 1158 01F4      		brne .L225
 3398               	.LVL252:
 3399               	.LBB165:
 3400               	.LBB166:
 578:main.c        **** 	goal[1] = val1;
 3401               		.loc 1 578 0
 3402 115a 1092 0000 		sts goal,__zero_reg__
 3403 115e 1092 0000 		sts goal+1,__zero_reg__
 579:main.c        **** 	goal[2] = val2;
 3404               		.loc 1 579 0
 3405 1162 1092 0000 		sts goal+2,__zero_reg__
 3406 1166 1092 0000 		sts goal+2+1,__zero_reg__
 580:main.c        **** 	goal[3] = val3;
 3407               		.loc 1 580 0
 3408 116a 1092 0000 		sts goal+4,__zero_reg__
 3409 116e 1092 0000 		sts goal+4+1,__zero_reg__
 581:main.c        **** 	goal[4] = val4;
 3410               		.loc 1 581 0
 3411 1172 1092 0000 		sts goal+6,__zero_reg__
 3412 1176 1092 0000 		sts goal+6+1,__zero_reg__
 582:main.c        **** 	goal[5] = val5;
 3413               		.loc 1 582 0
 3414 117a 1092 0000 		sts goal+8,__zero_reg__
 3415 117e 1092 0000 		sts goal+8+1,__zero_reg__
 3416               	.LVL253:
 3417               	.L231:
 583:main.c        **** }
 3418               		.loc 1 583 0
 3419 1182 1092 0000 		sts goal+10,__zero_reg__
 3420 1186 1092 0000 		sts goal+10+1,__zero_reg__
 3421               	.L225:
 3422 118a 0895      		ret
 3423               	.LBE166:
 3424               	.LBE165:
 3425               		.cfi_endproc
 3426               	.LFE42:
 3427               		.size	updateSign, .-updateSign
 3428               		.section	.rodata.str1.1,"aMS",@progbits,1
 3429               	.LC0:
 3430 0000 7265 6164 		.string	"ready"
 3430      7900 
 3431               	.LC1:
 3432 0006 6D6F 7669 		.string	"moving"
GAS LISTING /tmp/ccjciOO6.s 			page 86


 3432      6E67 00
 3433               	.LC2:
 3434 000d 676F 7454 		.string	"gotThere"
 3434      6865 7265 
 3434      00
 3435               		.text
 3436               	.global	mainLoop
 3437               		.type	mainLoop, @function
 3438               	mainLoop:
 3439               	.LFB41:
 668:main.c        **** 	while(1){
 3440               		.loc 1 668 0
 3441               		.cfi_startproc
 3442               	/* prologue: function */
 3443               	/* frame size = 0 */
 3444               	/* stack size = 0 */
 3445               	.L__stack_usage = 0
 747:main.c        **** 			}
 3446               		.loc 1 747 0
 3447 118c C2E0      		ldi r28,lo8(2)
 3448 118e D0E0      		ldi r29,0
 738:main.c        ****                 printf("moving\n");
 3449               		.loc 1 738 0
 3450 1190 03E0      		ldi r16,lo8(3)
 3451 1192 10E0      		ldi r17,0
 3452               	.LBB167:
 3453               	.LBB168:
 392:main.c        **** }
 3454               		.loc 1 392 0
 3455 1194 20E6      		ldi r18,lo8(96)
 3456 1196 822E      		mov r8,r18
 3457 1198 2AEE      		ldi r18,lo8(-22)
 3458 119a 922E      		mov r9,r18
 3459 119c A12C      		mov r10,__zero_reg__
 3460 119e B12C      		mov r11,__zero_reg__
 3461               	.L235:
 3462               	.LBE168:
 3463               	.LBE167:
 670:main.c        **** 			
 3464               		.loc 1 670 0
 3465 11a0 8091 0000 		lds r24,state
 3466 11a4 9091 0000 		lds r25,state+1
 3467               	.L236:
 3468 11a8 0097      		sbiw r24,0
 3469 11aa 01F0      		breq .L236
 672:main.c        **** 			setSpeed(&MOTOR_1,maxSpeed/2);
 3470               		.loc 1 672 0
 3471 11ac 8130      		cpi r24,1
 3472 11ae 9105      		cpc r25,__zero_reg__
 3473 11b0 01F0      		breq .+2
 3474 11b2 00C0      		rjmp .L237
 673:main.c        **** 			setSpeed(&MOTOR_2,maxSpeed/2);
 3475               		.loc 1 673 0
 3476 11b4 C090 0000 		lds r12,maxSpeed
 3477 11b8 D090 0000 		lds r13,maxSpeed+1
 3478 11bc D7FE      		sbrs r13,7
 3479 11be 00C0      		rjmp .L238
GAS LISTING /tmp/ccjciOO6.s 			page 87


 3480 11c0 8FEF      		ldi r24,-1
 3481 11c2 C81A      		sub r12,r24
 3482 11c4 D80A      		sbc r13,r24
 3483               	.L238:
 3484 11c6 D594      		asr r13
 3485 11c8 C794      		ror r12
 3486 11ca 0D2C      		mov __tmp_reg__,r13
 3487 11cc 000C      		lsl r0
 3488 11ce EE08      		sbc r14,r14
 3489 11d0 FF08      		sbc r15,r15
 3490               	.LVL254:
 3491               	.LBB170:
 3492               	.LBB169:
 392:main.c        **** }
 3493               		.loc 1 392 0
 3494 11d2 2091 0000 		lds r18,Base+10
 3495 11d6 3091 0000 		lds r19,Base+10+1
 3496 11da 032E      		mov __tmp_reg__,r19
 3497 11dc 000C      		lsl r0
 3498 11de 440B      		sbc r20,r20
 3499 11e0 550B      		sbc r21,r21
 3500 11e2 C501      		movw r24,r10
 3501 11e4 B401      		movw r22,r8
 3502 11e6 0E94 0000 		call __divmodsi4
 3503 11ea CA01      		movw r24,r20
 3504 11ec B901      		movw r22,r18
 3505 11ee A701      		movw r20,r14
 3506 11f0 9601      		movw r18,r12
 3507 11f2 0E94 0000 		call __divmodsi4
 3508 11f6 2093 0000 		sts Base+6,r18
 3509 11fa 3093 0000 		sts Base+6+1,r19
 3510 11fe 4093 0000 		sts Base+6+2,r20
 3511 1202 5093 0000 		sts Base+6+3,r21
 3512               	.LVL255:
 3513               	.LBE169:
 3514               	.LBE170:
 3515               	.LBB171:
 3516               	.LBB172:
 3517 1206 2091 0000 		lds r18,Shoulder+10
 3518 120a 3091 0000 		lds r19,Shoulder+10+1
 3519 120e 032E      		mov __tmp_reg__,r19
 3520 1210 000C      		lsl r0
 3521 1212 440B      		sbc r20,r20
 3522 1214 550B      		sbc r21,r21
 3523 1216 C501      		movw r24,r10
 3524 1218 B401      		movw r22,r8
 3525 121a 0E94 0000 		call __divmodsi4
 3526 121e CA01      		movw r24,r20
 3527 1220 B901      		movw r22,r18
 3528 1222 A701      		movw r20,r14
 3529 1224 9601      		movw r18,r12
 3530 1226 0E94 0000 		call __divmodsi4
 3531 122a 2093 0000 		sts Shoulder+6,r18
 3532 122e 3093 0000 		sts Shoulder+6+1,r19
 3533 1232 4093 0000 		sts Shoulder+6+2,r20
 3534 1236 5093 0000 		sts Shoulder+6+3,r21
 3535               	.LVL256:
GAS LISTING /tmp/ccjciOO6.s 			page 88


 3536               	.LBE172:
 3537               	.LBE171:
 3538               	.LBB173:
 3539               	.LBB174:
 3540 123a 2091 0000 		lds r18,Elbow+10
 3541 123e 3091 0000 		lds r19,Elbow+10+1
 3542 1242 032E      		mov __tmp_reg__,r19
 3543 1244 000C      		lsl r0
 3544 1246 440B      		sbc r20,r20
 3545 1248 550B      		sbc r21,r21
 3546 124a C501      		movw r24,r10
 3547 124c B401      		movw r22,r8
 3548 124e 0E94 0000 		call __divmodsi4
 3549 1252 CA01      		movw r24,r20
 3550 1254 B901      		movw r22,r18
 3551 1256 A701      		movw r20,r14
 3552 1258 9601      		movw r18,r12
 3553 125a 0E94 0000 		call __divmodsi4
 3554 125e 2093 0000 		sts Elbow+6,r18
 3555 1262 3093 0000 		sts Elbow+6+1,r19
 3556 1266 4093 0000 		sts Elbow+6+2,r20
 3557 126a 5093 0000 		sts Elbow+6+3,r21
 3558               	.LVL257:
 3559               	.LBE174:
 3560               	.LBE173:
 3561               	.LBB175:
 3562               	.LBB176:
 3563 126e 2091 0000 		lds r18,Right_Wrist+10
 3564 1272 3091 0000 		lds r19,Right_Wrist+10+1
 3565 1276 032E      		mov __tmp_reg__,r19
 3566 1278 000C      		lsl r0
 3567 127a 440B      		sbc r20,r20
 3568 127c 550B      		sbc r21,r21
 3569 127e C501      		movw r24,r10
 3570 1280 B401      		movw r22,r8
 3571 1282 0E94 0000 		call __divmodsi4
 3572 1286 CA01      		movw r24,r20
 3573 1288 B901      		movw r22,r18
 3574 128a A701      		movw r20,r14
 3575 128c 9601      		movw r18,r12
 3576 128e 0E94 0000 		call __divmodsi4
 3577 1292 2093 0000 		sts Right_Wrist+6,r18
 3578 1296 3093 0000 		sts Right_Wrist+6+1,r19
 3579 129a 4093 0000 		sts Right_Wrist+6+2,r20
 3580 129e 5093 0000 		sts Right_Wrist+6+3,r21
 3581               	.LVL258:
 3582               	.LBE176:
 3583               	.LBE175:
 3584               	.LBB177:
 3585               	.LBB178:
 3586 12a2 2091 0000 		lds r18,Left_Wrist+10
 3587 12a6 3091 0000 		lds r19,Left_Wrist+10+1
 3588 12aa 032E      		mov __tmp_reg__,r19
 3589 12ac 000C      		lsl r0
 3590 12ae 440B      		sbc r20,r20
 3591 12b0 550B      		sbc r21,r21
 3592 12b2 C501      		movw r24,r10
GAS LISTING /tmp/ccjciOO6.s 			page 89


 3593 12b4 B401      		movw r22,r8
 3594 12b6 0E94 0000 		call __divmodsi4
 3595 12ba CA01      		movw r24,r20
 3596 12bc B901      		movw r22,r18
 3597 12be A701      		movw r20,r14
 3598 12c0 9601      		movw r18,r12
 3599 12c2 0E94 0000 		call __divmodsi4
 3600 12c6 2093 0000 		sts Left_Wrist+6,r18
 3601 12ca 3093 0000 		sts Left_Wrist+6+1,r19
 3602 12ce 4093 0000 		sts Left_Wrist+6+2,r20
 3603 12d2 5093 0000 		sts Left_Wrist+6+3,r21
 3604               	.LVL259:
 3605               	.LBE178:
 3606               	.LBE177:
 3607               	.LBB179:
 3608               	.LBB180:
 3609 12d6 2091 0000 		lds r18,Gripper+10
 3610 12da 3091 0000 		lds r19,Gripper+10+1
 3611 12de 032E      		mov __tmp_reg__,r19
 3612 12e0 000C      		lsl r0
 3613 12e2 440B      		sbc r20,r20
 3614 12e4 550B      		sbc r21,r21
 3615 12e6 C501      		movw r24,r10
 3616 12e8 B401      		movw r22,r8
 3617 12ea 0E94 0000 		call __divmodsi4
 3618 12ee CA01      		movw r24,r20
 3619 12f0 B901      		movw r22,r18
 3620 12f2 A701      		movw r20,r14
 3621 12f4 9601      		movw r18,r12
 3622 12f6 0E94 0000 		call __divmodsi4
 3623 12fa 2093 0000 		sts Gripper+6,r18
 3624 12fe 3093 0000 		sts Gripper+6+1,r19
 3625 1302 4093 0000 		sts Gripper+6+2,r20
 3626 1306 5093 0000 		sts Gripper+6+3,r21
 3627               	.LVL260:
 3628               	.LBE180:
 3629               	.LBE179:
 679:main.c        **** 				break;
 3630               		.loc 1 679 0
 3631 130a 8091 6806 		lds r24,1640
 682:main.c        **** 			while((PORTD.IN & _BV(5))){ //Localize Shoulder
 3632               		.loc 1 682 0
 3633 130e 1092 0000 		sts pose,__zero_reg__
 3634 1312 1092 0000 		sts pose+1,__zero_reg__
 683:main.c        **** 			
 3635               		.loc 1 683 0
 3636 1316 8091 6806 		lds r24,1640
 687:main.c        **** 			
 3637               		.loc 1 687 0
 3638 131a 1092 0000 		sts pose+2,__zero_reg__
 3639 131e 1092 0000 		sts pose+2+1,__zero_reg__
 689:main.c        **** 				break;
 3640               		.loc 1 689 0
 3641 1322 8091 8806 		lds r24,1672
 692:main.c        **** 			
 3642               		.loc 1 692 0
 3643 1326 1092 0000 		sts pose+4,__zero_reg__
GAS LISTING /tmp/ccjciOO6.s 			page 90


 3644 132a 1092 0000 		sts pose+4+1,__zero_reg__
 3645               	.L244:
 695:main.c        **** 				
 3646               		.loc 1 695 0
 3647 132e 2091 6806 		lds r18,1640
 3648 1332 81E0      		ldi r24,lo8(1)
 3649 1334 90E0      		ldi r25,0
 3650 1336 322F      		mov r19,r18
 3651 1338 3071      		andi r19,lo8(16)
 3652 133a 24FF      		sbrs r18,4
 3653 133c 00C0      		rjmp .L239
 3654 133e 80E0      		ldi r24,0
 3655 1340 90E0      		ldi r25,0
 3656               	.L239:
 3657 1342 8093 0000 		sts gripperState,r24
 3658 1346 9093 0000 		sts gripperState+1,r25
 697:main.c        **** 					if (gripperStatePrev == 0){
 3659               		.loc 1 697 0
 3660 134a 3111      		cpse r19,__zero_reg__
 3661 134c 00C0      		rjmp .L240
 698:main.c        **** 						int i;
 3662               		.loc 1 698 0
 3663 134e 8091 0000 		lds r24,gripperStatePrev
 3664 1352 9091 0000 		lds r25,gripperStatePrev+1
 3665 1356 892B      		or r24,r25
 3666 1358 01F0      		breq .+2
 3667 135a 00C0      		rjmp .L241
 3668 135c 8FE0      		ldi r24,lo8(15)
 3669 135e E82E      		mov r14,r24
 3670 1360 F12C      		mov r15,__zero_reg__
 3671               	.L242:
 3672               	.LVL261:
 3673               	.LBB181:
 701:main.c        **** 							stepOne(&MOTOR_6,1);
 3674               		.loc 1 701 0 discriminator 3
 3675 1362 8091 0000 		lds r24,Gripper+6
 3676 1366 9091 0000 		lds r25,Gripper+6+1
 3677 136a 0E94 0000 		call delay_ms
 3678               	.LVL262:
 702:main.c        **** 						}
 3679               		.loc 1 702 0 discriminator 3
 3680 136e 61E0      		ldi r22,lo8(1)
 3681 1370 70E0      		ldi r23,0
 3682 1372 80E0      		ldi r24,lo8(Gripper)
 3683 1374 90E0      		ldi r25,hi8(Gripper)
 3684 1376 0E94 0000 		call stepOne
 3685               	.LVL263:
 3686 137a 81E0      		ldi r24,1
 3687 137c E81A      		sub r14,r24
 3688 137e F108      		sbc r15,__zero_reg__
 3689               	.LVL264:
 700:main.c        **** 							delay_ms(MOTOR_6.step_delay);
 3690               		.loc 1 700 0 discriminator 3
 3691 1380 01F4      		brne .L242
 3692 1382 00C0      		rjmp .L241
 3693               	.LVL265:
 3694               	.L240:
GAS LISTING /tmp/ccjciOO6.s 			page 91


 3695               	.LBE181:
 3696               	.LBB182:
 3697               	.LBB183:
 109:main.c        **** }
 3698               		.loc 1 109 0
 3699 1384 8091 0000 		lds r24,elapsedMillis
 3700 1388 9091 0000 		lds r25,elapsedMillis+1
 3701 138c A091 0000 		lds r26,elapsedMillis+2
 3702 1390 B091 0000 		lds r27,elapsedMillis+3
 3703               	.LBE183:
 3704               	.LBE182:
 707:main.c        **** 					MOTOR_6.last_step_time = millis();
 3705               		.loc 1 707 0
 3706 1394 4091 0000 		lds r20,Gripper+32
 3707 1398 5091 0000 		lds r21,Gripper+32+1
 3708 139c 6091 0000 		lds r22,Gripper+32+2
 3709 13a0 7091 0000 		lds r23,Gripper+32+3
 3710 13a4 841B      		sub r24,r20
 3711 13a6 950B      		sbc r25,r21
 3712 13a8 A60B      		sbc r26,r22
 3713 13aa B70B      		sbc r27,r23
 3714 13ac 4091 0000 		lds r20,Gripper+6
 3715 13b0 5091 0000 		lds r21,Gripper+6+1
 3716 13b4 6091 0000 		lds r22,Gripper+6+2
 3717 13b8 7091 0000 		lds r23,Gripper+6+3
 3718 13bc 8417      		cp r24,r20
 3719 13be 9507      		cpc r25,r21
 3720 13c0 A607      		cpc r26,r22
 3721 13c2 B707      		cpc r27,r23
 3722 13c4 00F0      		brlo .L243
 3723               	.LBB184:
 3724               	.LBB185:
 109:main.c        **** }
 3725               		.loc 1 109 0
 3726 13c6 8091 0000 		lds r24,elapsedMillis
 3727 13ca 9091 0000 		lds r25,elapsedMillis+1
 3728 13ce A091 0000 		lds r26,elapsedMillis+2
 3729 13d2 B091 0000 		lds r27,elapsedMillis+3
 3730               	.LBE185:
 3731               	.LBE184:
 708:main.c        **** 					stepOne(&MOTOR_6,1);
 3732               		.loc 1 708 0
 3733 13d6 8093 0000 		sts Gripper+32,r24
 3734 13da 9093 0000 		sts Gripper+32+1,r25
 3735 13de A093 0000 		sts Gripper+32+2,r26
 3736 13e2 B093 0000 		sts Gripper+32+3,r27
 709:main.c        **** 				}
 3737               		.loc 1 709 0
 3738 13e6 61E0      		ldi r22,lo8(1)
 3739 13e8 70E0      		ldi r23,0
 3740 13ea 80E0      		ldi r24,lo8(Gripper)
 3741 13ec 90E0      		ldi r25,hi8(Gripper)
 3742 13ee 0E94 0000 		call stepOne
 3743               	.LVL266:
 3744               	.L243:
 711:main.c        **** 			}
 3745               		.loc 1 711 0
GAS LISTING /tmp/ccjciOO6.s 			page 92


 3746 13f2 8091 0000 		lds r24,gripperState
 3747 13f6 9091 0000 		lds r25,gripperState+1
 3748 13fa 8093 0000 		sts gripperStatePrev,r24
 3749 13fe 9093 0000 		sts gripperStatePrev+1,r25
 712:main.c        **** 			pose[5]=0;
 3750               		.loc 1 712 0
 3751 1402 00C0      		rjmp .L244
 3752               	.L241:
 713:main.c        **** 			
 3753               		.loc 1 713 0
 3754 1404 1092 0000 		sts pose+10,__zero_reg__
 3755 1408 1092 0000 		sts pose+10+1,__zero_reg__
 715:main.c        **** 			/*
 3756               		.loc 1 715 0
 3757 140c 8091 8806 		lds r24,1672
 727:main.c        **** 			pose[4]=0;
 3758               		.loc 1 727 0
 3759 1410 1092 0000 		sts pose+6,__zero_reg__
 3760 1414 1092 0000 		sts pose+6+1,__zero_reg__
 728:main.c        **** 			
 3761               		.loc 1 728 0
 3762 1418 1092 0000 		sts pose+8,__zero_reg__
 3763 141c 1092 0000 		sts pose+8+1,__zero_reg__
 730:main.c        **** 			state = IDLE;
 3764               		.loc 1 730 0
 3765 1420 80E0      		ldi r24,lo8(.LC0)
 3766 1422 90E0      		ldi r25,hi8(.LC0)
 3767 1424 00C0      		rjmp .L255
 3768               	.L237:
 732:main.c        ****             //printf("idle\n");	
 3769               		.loc 1 732 0
 3770 1426 8230      		cpi r24,2
 3771 1428 9105      		cpc r25,__zero_reg__
 3772 142a 01F4      		brne .L246
 736:main.c        **** 			if(!compareArray(pose,goal)){
 3773               		.loc 1 736 0
 3774 142c 0E94 0000 		call updateSign
 3775               	.LVL267:
 737:main.c        **** 				state = MOVING;
 3776               		.loc 1 737 0
 3777 1430 60E0      		ldi r22,lo8(goal)
 3778 1432 70E0      		ldi r23,hi8(goal)
 3779 1434 80E0      		ldi r24,lo8(pose)
 3780 1436 90E0      		ldi r25,hi8(pose)
 3781 1438 0E94 0000 		call compareArray
 3782               	.LVL268:
 3783 143c 892B      		or r24,r25
 3784 143e 01F0      		breq .+2
 3785 1440 00C0      		rjmp .L235
 738:main.c        ****                 printf("moving\n");
 3786               		.loc 1 738 0
 3787 1442 0093 0000 		sts state,r16
 3788 1446 1093 0000 		sts state+1,r17
 739:main.c        **** 			}
 3789               		.loc 1 739 0
 3790 144a 80E0      		ldi r24,lo8(.LC1)
 3791 144c 90E0      		ldi r25,hi8(.LC1)
GAS LISTING /tmp/ccjciOO6.s 			page 93


 3792 144e 0E94 0000 		call puts
 3793               	.LVL269:
 3794 1452 00C0      		rjmp .L235
 3795               	.L246:
 741:main.c        **** 			//If we're not there yet
 3796               		.loc 1 741 0
 3797 1454 0397      		sbiw r24,3
 3798 1456 01F0      		breq .+2
 3799 1458 00C0      		rjmp .L235
 743:main.c        **** 				moveToGoal();
 3800               		.loc 1 743 0
 3801 145a 60E0      		ldi r22,lo8(goal)
 3802 145c 70E0      		ldi r23,hi8(goal)
 3803 145e 80E0      		ldi r24,lo8(pose)
 3804 1460 90E0      		ldi r25,hi8(pose)
 3805 1462 0E94 0000 		call compareArray
 3806               	.LVL270:
 3807 1466 892B      		or r24,r25
 3808 1468 01F4      		brne .L248
 744:main.c        **** 			} else if(compareArray(pose,goal)){ //If we got there
 3809               		.loc 1 744 0
 3810 146a 0E94 0000 		call moveToGoal
 3811               	.LVL271:
 3812 146e 00C0      		rjmp .L235
 3813               	.L248:
 746:main.c        **** 					state = IDLE;
 3814               		.loc 1 746 0
 3815 1470 80E0      		ldi r24,lo8(.LC2)
 3816 1472 90E0      		ldi r25,hi8(.LC2)
 3817               	.L255:
 3818 1474 0E94 0000 		call puts
 3819               	.LVL272:
 747:main.c        **** 			}
 3820               		.loc 1 747 0
 3821 1478 C093 0000 		sts state,r28
 3822 147c D093 0000 		sts state+1,r29
 3823 1480 00C0      		rjmp .L235
 3824               		.cfi_endproc
 3825               	.LFE41:
 3826               		.size	mainLoop, .-mainLoop
 3827               		.section	.rodata.str1.1
 3828               	.LC3:
 3829 0016 6769 6D6D 		.string	"gimme"
 3829      6500 
 3830               		.text
 3831               	.global	update
 3832               		.type	update, @function
 3833               	update:
 3834               	.LFB43:
 761:main.c        **** }
 762:main.c        **** 
 763:main.c        **** void update(void){
 3835               		.loc 1 763 0
 3836               		.cfi_startproc
 3837 1482 BF92      		push r11
 3838               	.LCFI90:
 3839               		.cfi_def_cfa_offset 3
GAS LISTING /tmp/ccjciOO6.s 			page 94


 3840               		.cfi_offset 11, -2
 3841 1484 CF92      		push r12
 3842               	.LCFI91:
 3843               		.cfi_def_cfa_offset 4
 3844               		.cfi_offset 12, -3
 3845 1486 DF92      		push r13
 3846               	.LCFI92:
 3847               		.cfi_def_cfa_offset 5
 3848               		.cfi_offset 13, -4
 3849 1488 EF92      		push r14
 3850               	.LCFI93:
 3851               		.cfi_def_cfa_offset 6
 3852               		.cfi_offset 14, -5
 3853 148a FF92      		push r15
 3854               	.LCFI94:
 3855               		.cfi_def_cfa_offset 7
 3856               		.cfi_offset 15, -6
 3857 148c 0F93      		push r16
 3858               	.LCFI95:
 3859               		.cfi_def_cfa_offset 8
 3860               		.cfi_offset 16, -7
 3861 148e 1F93      		push r17
 3862               	.LCFI96:
 3863               		.cfi_def_cfa_offset 9
 3864               		.cfi_offset 17, -8
 3865 1490 CF93      		push r28
 3866               	.LCFI97:
 3867               		.cfi_def_cfa_offset 10
 3868               		.cfi_offset 28, -9
 3869 1492 DF93      		push r29
 3870               	.LCFI98:
 3871               		.cfi_def_cfa_offset 11
 3872               		.cfi_offset 29, -10
 3873 1494 CDB7      		in r28,__SP_L__
 3874 1496 DEB7      		in r29,__SP_H__
 3875               	.LCFI99:
 3876               		.cfi_def_cfa_register 28
 3877 1498 2E97      		sbiw r28,14
 3878               	.LCFI100:
 3879               		.cfi_def_cfa_offset 25
 3880 149a CDBF      		out __SP_L__,r28
 3881 149c DEBF      		out __SP_H__,r29
 3882               	/* prologue: function */
 3883               	/* frame size = 14 */
 3884               	/* stack size = 23 */
 3885               	.L__stack_usage = 23
 764:main.c        ****     printf("gimme\n");
 3886               		.loc 1 764 0
 3887 149e 80E0      		ldi r24,lo8(.LC3)
 3888 14a0 90E0      		ldi r25,hi8(.LC3)
 3889 14a2 0E94 0000 		call puts
 3890               	.LVL273:
 765:main.c        ****     int vals[7] = {0,0,0,0,0,0,0};
 3891               		.loc 1 765 0
 3892 14a6 FE01      		movw r30,r28
 3893 14a8 3196      		adiw r30,1
 3894 14aa 8EE0      		ldi r24,lo8(14)
GAS LISTING /tmp/ccjciOO6.s 			page 95


 3895 14ac DF01      		movw r26,r30
 3896               		0:
 3897 14ae 1D92      		st X+,__zero_reg__
 3898 14b0 8A95      		dec r24
 3899 14b2 01F4      		brne 0b
 3900               	.LVL274:
 3901 14b4 8F01      		movw r16,r30
 3902 14b6 6E01      		movw r12,r28
 3903 14b8 BFE0      		ldi r27,15
 3904 14ba CB0E      		add r12,r27
 3905 14bc D11C      		adc r13,__zero_reg__
 766:main.c        ****     int c;
 767:main.c        ****     int i;
 768:main.c        ****     int f = 1;
 769:main.c        ****     for(i = 0; i < 7; i++){
 770:main.c        ****         f = 1;
 771:main.c        ****         while(1){
 772:main.c        ****             c = uart_getchar();
 773:main.c        ****             if(c == ','){
 774:main.c        ****                 break;
 775:main.c        ****             }else if(c == '\n'){
 776:main.c        ****                 break;
 777:main.c        ****             }else if (c == '-'){
 778:main.c        ****                 f = -1;
 779:main.c        ****             }else if((c - '0')<0){
 780:main.c        ****             }else{
 781:main.c        ****                 vals[i] = vals[i]*10+(c - '0');
 3906               		.loc 1 781 0
 3907 14be 2AE0      		ldi r18,lo8(10)
 3908 14c0 B22E      		mov r11,r18
 3909               	.LVL275:
 3910               	.L257:
 778:main.c        ****             }else if((c - '0')<0){
 3911               		.loc 1 778 0
 3912 14c2 EE24      		clr r14
 3913 14c4 E394      		inc r14
 3914 14c6 F12C      		mov r15,__zero_reg__
 3915               	.L261:
 3916               	.LVL276:
 772:main.c        ****             if(c == ','){
 3917               		.loc 1 772 0
 3918 14c8 0E94 0000 		call uart_getchar
 3919               	.LVL277:
 773:main.c        ****                 break;
 3920               		.loc 1 773 0
 3921 14cc 8C32      		cpi r24,44
 3922 14ce 9105      		cpc r25,__zero_reg__
 3923 14d0 01F0      		breq .L258
 775:main.c        ****                 break;
 3924               		.loc 1 775 0
 3925 14d2 8A30      		cpi r24,10
 3926 14d4 9105      		cpc r25,__zero_reg__
 3927 14d6 01F0      		breq .L258
 777:main.c        ****                 f = -1;
 3928               		.loc 1 777 0
 3929 14d8 8D32      		cpi r24,45
 3930 14da 9105      		cpc r25,__zero_reg__
GAS LISTING /tmp/ccjciOO6.s 			page 96


 3931 14dc 01F4      		brne .L269
 778:main.c        ****             }else if((c - '0')<0){
 3932               		.loc 1 778 0
 3933 14de EE24      		clr r14
 3934 14e0 EA94      		dec r14
 3935 14e2 FE2C      		mov r15,r14
 3936               	.LVL278:
 3937 14e4 00C0      		rjmp .L261
 3938               	.LVL279:
 3939               	.L269:
 779:main.c        ****             }else{
 3940               		.loc 1 779 0
 3941 14e6 8033      		cpi r24,48
 3942 14e8 9105      		cpc r25,__zero_reg__
 3943 14ea 04F0      		brlt .L261
 3944               		.loc 1 781 0
 3945 14ec F801      		movw r30,r16
 3946 14ee 4081      		ld r20,Z
 3947 14f0 5181      		ldd r21,Z+1
 3948 14f2 B49E      		mul r11,r20
 3949 14f4 9001      		movw r18,r0
 3950 14f6 B59E      		mul r11,r21
 3951 14f8 300D      		add r19,r0
 3952 14fa 1124      		clr __zero_reg__
 3953 14fc C097      		sbiw r24,48
 3954               	.LVL280:
 3955 14fe 820F      		add r24,r18
 3956 1500 931F      		adc r25,r19
 3957               	.LVL281:
 3958 1502 8083      		st Z,r24
 3959 1504 9183      		std Z+1,r25
 3960 1506 00C0      		rjmp .L261
 3961               	.LVL282:
 3962               	.L258:
 782:main.c        ****             }
 783:main.c        ****         }
 784:main.c        ****         vals[i] = vals[i]*f;
 3963               		.loc 1 784 0
 3964 1508 D801      		movw r26,r16
 3965 150a 2D91      		ld r18,X+
 3966 150c 3C91      		ld r19,X
 3967 150e 2E9D      		mul r18,r14
 3968 1510 C001      		movw r24,r0
 3969 1512 2F9D      		mul r18,r15
 3970 1514 900D      		add r25,r0
 3971 1516 3E9D      		mul r19,r14
 3972 1518 900D      		add r25,r0
 3973 151a 1124      		clr r1
 3974               	.LVL283:
 3975 151c F801      		movw r30,r16
 3976 151e 8193      		st Z+,r24
 3977 1520 9193      		st Z+,r25
 3978 1522 8F01      		movw r16,r30
 769:main.c        ****         f = 1;
 3979               		.loc 1 769 0
 3980 1524 EC15      		cp r30,r12
 3981 1526 FD05      		cpc r31,r13
GAS LISTING /tmp/ccjciOO6.s 			page 97


 3982 1528 01F4      		brne .L257
 785:main.c        ****     }
 786:main.c        ****     changeGoal(vals[0],vals[1],vals[2],vals[3],vals[4],vals[5]);
 3983               		.loc 1 786 0
 3984 152a 8B85      		ldd r24,Y+11
 3985 152c 9C85      		ldd r25,Y+12
 3986 152e 2985      		ldd r18,Y+9
 3987 1530 3A85      		ldd r19,Y+10
 3988 1532 4F81      		ldd r20,Y+7
 3989 1534 5885      		ldd r21,Y+8
 3990 1536 6D81      		ldd r22,Y+5
 3991 1538 7E81      		ldd r23,Y+6
 3992 153a EB81      		ldd r30,Y+3
 3993 153c FC81      		ldd r31,Y+4
 3994               	.LVL284:
 3995               	.LBB186:
 3996               	.LBB187:
 578:main.c        **** 	goal[1] = val1;
 3997               		.loc 1 578 0
 3998 153e A981      		ldd r26,Y+1
 3999 1540 BA81      		ldd r27,Y+2
 4000 1542 A093 0000 		sts goal,r26
 4001 1546 B093 0000 		sts goal+1,r27
 579:main.c        **** 	goal[2] = val2;
 4002               		.loc 1 579 0
 4003 154a E093 0000 		sts goal+2,r30
 4004 154e F093 0000 		sts goal+2+1,r31
 580:main.c        **** 	goal[3] = val3;
 4005               		.loc 1 580 0
 4006 1552 6093 0000 		sts goal+4,r22
 4007 1556 7093 0000 		sts goal+4+1,r23
 581:main.c        **** 	goal[4] = val4;
 4008               		.loc 1 581 0
 4009 155a 4093 0000 		sts goal+6,r20
 4010 155e 5093 0000 		sts goal+6+1,r21
 582:main.c        **** 	goal[5] = val5;
 4011               		.loc 1 582 0
 4012 1562 2093 0000 		sts goal+8,r18
 4013 1566 3093 0000 		sts goal+8+1,r19
 583:main.c        **** }
 4014               		.loc 1 583 0
 4015 156a 8093 0000 		sts goal+10,r24
 4016 156e 9093 0000 		sts goal+10+1,r25
 4017               	.LVL285:
 4018               	.LBE187:
 4019               	.LBE186:
 787:main.c        ****     maxSpeed = vals[6];
 4020               		.loc 1 787 0
 4021 1572 8D85      		ldd r24,Y+13
 4022 1574 9E85      		ldd r25,Y+14
 4023 1576 8093 0000 		sts maxSpeed,r24
 4024 157a 9093 0000 		sts maxSpeed+1,r25
 4025               	/* epilogue start */
 788:main.c        **** }
 4026               		.loc 1 788 0
 4027 157e 2E96      		adiw r28,14
 4028 1580 CDBF      		out __SP_L__,r28
GAS LISTING /tmp/ccjciOO6.s 			page 98


 4029 1582 DEBF      		out __SP_H__,r29
 4030 1584 DF91      		pop r29
 4031 1586 CF91      		pop r28
 4032 1588 1F91      		pop r17
 4033 158a 0F91      		pop r16
 4034 158c FF90      		pop r15
 4035 158e EF90      		pop r14
 4036               	.LVL286:
 4037 1590 DF90      		pop r13
 4038 1592 CF90      		pop r12
 4039 1594 BF90      		pop r11
 4040 1596 0895      		ret
 4041               		.cfi_endproc
 4042               	.LFE43:
 4043               		.size	update, .-update
 4044               	.global	init
 4045               		.type	init, @function
 4046               	init:
 4047               	.LFB44:
 789:main.c        **** 
 790:main.c        **** void init(void){
 4048               		.loc 1 790 0
 4049               		.cfi_startproc
 4050               	/* prologue: function */
 4051               	/* frame size = 0 */
 4052               	/* stack size = 0 */
 4053               	.L__stack_usage = 0
 791:main.c        ****         
 792:main.c        **** 	Config32MHzClock();// Set Clock Speed to 32MHz	
 4054               		.loc 1 792 0
 4055 1598 0E94 0000 		call Config32MHzClock
 4056               	.LVL287:
 793:main.c        **** 	
 794:main.c        **** 	/* Timer for keeping track of milliseconds:
 795:main.c        **** 	 * The result of this triggers the interrupt once per millisecond.
 796:main.c        **** 	 */
 797:main.c        **** 	TCC0.PER = 4000;// Set HIGH to 4000 and LOW to 0
 4057               		.loc 1 797 0
 4058 159c E0E0      		ldi r30,0
 4059 159e F8E0      		ldi r31,lo8(8)
 4060 15a0 80EA      		ldi r24,lo8(-96)
 4061 15a2 9FE0      		ldi r25,lo8(15)
 4062 15a4 86A3      		std Z+38,r24
 4063 15a6 97A3      		std Z+39,r25
 798:main.c        **** 	TCC0.CTRLA = ( TCC0.CTRLA & ~TC0_CLKSEL_gm ) | TC_CLKSEL_DIV8_gc; // Work from CPUCLK/8
 4064               		.loc 1 798 0
 4065 15a8 8081      		ld r24,Z
 4066 15aa 807F      		andi r24,lo8(-16)
 4067 15ac 8460      		ori r24,lo8(4)
 4068 15ae 8083      		st Z,r24
 799:main.c        **** 	TCC0.INTCTRLA = ( TCC0.INTCTRLA & ~TC0_OVFINTLVL_gm ) | TC_OVFINTLVL_HI_gc; // Enable overflow int
 4069               		.loc 1 799 0
 4070 15b0 8681      		ldd r24,Z+6
 4071 15b2 8360      		ori r24,lo8(3)
 4072 15b4 8683      		std Z+6,r24
 800:main.c        **** 	// Enable low interrupt level in PMIC and enable global interrupts.
 801:main.c        **** 	PMIC.CTRL |= PMIC_HILVLEN_bm;
GAS LISTING /tmp/ccjciOO6.s 			page 99


 4073               		.loc 1 801 0
 4074 15b6 E0EA      		ldi r30,lo8(-96)
 4075 15b8 F0E0      		ldi r31,0
 4076 15ba 8281      		ldd r24,Z+2
 4077 15bc 8460      		ori r24,lo8(4)
 4078 15be 8283      		std Z+2,r24
 802:main.c        **** 	sei();
 4079               		.loc 1 802 0
 4080               	/* #APP */
 4081               	 ;  802 "main.c" 1
 4082 15c0 7894      		sei
 4083               	 ;  0 "" 2
 803:main.c        **** 
 804:main.c        **** 	/* Set I/O */
 805:main.c        **** 	PORTA.DIRSET |= 0XFF;// Set PortA 0-7 to output
 4084               		.loc 1 805 0
 4085               	/* #NOAPP */
 4086 15c2 E0E0      		ldi r30,0
 4087 15c4 F6E0      		ldi r31,lo8(6)
 4088 15c6 8181      		ldd r24,Z+1
 4089 15c8 8FEF      		ldi r24,lo8(-1)
 4090 15ca 8183      		std Z+1,r24
 806:main.c        **** 	PORTB.DIRSET |= 0xFF;// Set PortB 0-7 to output
 4091               		.loc 1 806 0
 4092 15cc E0E2      		ldi r30,lo8(32)
 4093 15ce F6E0      		ldi r31,lo8(6)
 4094 15d0 9181      		ldd r25,Z+1
 4095 15d2 8183      		std Z+1,r24
 807:main.c        **** 	PORTC.DIRSET |= 0xFF;// Set PortC 0-7 to output
 4096               		.loc 1 807 0
 4097 15d4 E0E4      		ldi r30,lo8(64)
 4098 15d6 F6E0      		ldi r31,lo8(6)
 4099 15d8 9181      		ldd r25,Z+1
 4100 15da 8183      		std Z+1,r24
 808:main.c        **** 	PORTD.DIRSET |= 0x0F;// Set PortD pins 0-3 to output
 4101               		.loc 1 808 0
 4102 15dc E0E6      		ldi r30,lo8(96)
 4103 15de F6E0      		ldi r31,lo8(6)
 4104 15e0 8181      		ldd r24,Z+1
 4105 15e2 8F60      		ori r24,lo8(15)
 4106 15e4 8183      		std Z+1,r24
 809:main.c        **** 
 810:main.c        **** 	PORTD.PIN4CTRL = PORT_OPC_PULLUP_gc; //Set pin D4 as INPUT and as a pullup (Detect when pulled LOW
 4107               		.loc 1 810 0
 4108 15e6 88E1      		ldi r24,lo8(24)
 4109 15e8 848B      		std Z+20,r24
 811:main.c        **** 	PORTD.PIN5CTRL = PORT_OPC_PULLUP_gc; //Set pin D5 as INPUT and as a pullup (Detect when pulled LOW
 4110               		.loc 1 811 0
 4111 15ea 858B      		std Z+21,r24
 812:main.c        **** 	//PORTE.PIN0CTRL = PORT_OPC_PULLUP_gc; //Set pin E0 as INPUT and as a pullup (Detect when pulled L
 813:main.c        **** 	PORTE.PIN1CTRL = PORT_OPC_PULLUP_gc; //Set pin E1 as INPUT and as a pullup (Detect when pulled LOW
 4112               		.loc 1 813 0
 4113 15ec A0E8      		ldi r26,lo8(-128)
 4114 15ee B6E0      		ldi r27,lo8(6)
 4115 15f0 5196      		adiw r26,17
 4116 15f2 8C93      		st X,r24
 4117 15f4 5197      		sbiw r26,17
GAS LISTING /tmp/ccjciOO6.s 			page 100


 814:main.c        **** 	PORTE.PIN2CTRL = PORT_OPC_PULLUP_gc; //Set pin E2 as INPUT and as a pullup (Detect when pulled LOW
 4118               		.loc 1 814 0
 4119 15f6 5296      		adiw r26,18
 4120 15f8 8C93      		st X,r24
 4121 15fa 5297      		sbiw r26,18
 815:main.c        **** 	PORTE.PIN3CTRL = PORT_OPC_PULLUP_gc; //Set pin E3 as INPUT and as a pullup (Detect when pulled LOW
 4122               		.loc 1 815 0
 4123 15fc 5396      		adiw r26,19
 4124 15fe 8C93      		st X,r24
 4125               	.LBB190:
 4126               	.LBB191:
  55:main.c        **** 
 4127               		.loc 1 55 0
 4128 1600 90E8      		ldi r25,lo8(-128)
 4129 1602 9583      		std Z+5,r25
  58:main.c        **** 
 4130               		.loc 1 58 0
 4131 1604 9183      		std Z+1,r25
  62:main.c        ****     USARTD1.BAUDCTRLA = 51; //16 for 32MHz at 115200, 12 for 2MHz at 9600, 51 for  38400 at 32MHz
 4132               		.loc 1 62 0
 4133 1606 E0EB      		ldi r30,lo8(-80)
 4134 1608 F9E0      		ldi r31,lo8(9)
 4135 160a 1782      		std Z+7,__zero_reg__
  63:main.c        **** 
 4136               		.loc 1 63 0
 4137 160c 93E3      		ldi r25,lo8(51)
 4138 160e 9683      		std Z+6,r25
  66:main.c        ****     USARTD1.CTRLC = 0x03;                       // async, no parity, 8 bit data, 1 stop bit 
 4139               		.loc 1 66 0
 4140 1610 1382      		std Z+3,__zero_reg__
  67:main.c        **** 
 4141               		.loc 1 67 0
 4142 1612 93E0      		ldi r25,lo8(3)
 4143 1614 9583      		std Z+5,r25
  70:main.c        ****      
 4144               		.loc 1 70 0
 4145 1616 8483      		std Z+4,r24
 4146 1618 0895      		ret
 4147               	.LBE191:
 4148               	.LBE190:
 4149               		.cfi_endproc
 4150               	.LFE44:
 4151               		.size	init, .-init
 4152               		.section	.rodata.str1.1
 4153               	.LC4:
 4154 001c 4C45 5453 		.string	"LETSDOTHIS"
 4154      444F 5448 
 4154      4953 00
 4155               		.section	.text.startup,"ax",@progbits
 4156               	.global	main
 4157               		.type	main, @function
 4158               	main:
 4159               	.LFB45:
 816:main.c        **** 	uart_init(); 
 817:main.c        **** }
 818:main.c        **** 
 819:main.c        **** int main (void){
GAS LISTING /tmp/ccjciOO6.s 			page 101


 4160               		.loc 1 819 0
 4161               		.cfi_startproc
 4162               	/* prologue: function */
 4163               	/* frame size = 0 */
 4164               	/* stack size = 0 */
 4165               	.L__stack_usage = 0
 820:main.c        ****     init();
 4166               		.loc 1 820 0
 4167 0000 0E94 0000 		call init
 4168               	.LVL288:
 821:main.c        ****     
 822:main.c        ****     //PORTE.DIRSET |= _BV(0); //Set pin E0 as OUTPUT
 823:main.c        ****     
 824:main.c        ****     stdout = &mystdout; 
 4169               		.loc 1 824 0
 4170 0004 80E0      		ldi r24,lo8(mystdout)
 4171 0006 90E0      		ldi r25,hi8(mystdout)
 4172 0008 8093 0000 		sts __iob+2,r24
 4173 000c 9093 0000 		sts __iob+2+1,r25
 825:main.c        ****     printf("LETSDOTHIS\n");	
 4174               		.loc 1 825 0
 4175 0010 80E0      		ldi r24,lo8(.LC4)
 4176 0012 90E0      		ldi r25,hi8(.LC4)
 4177 0014 0E94 0000 		call puts
 4178               	.LVL289:
 826:main.c        **** 	gripperState = !(PORTD.IN & _BV(4));
 4179               		.loc 1 826 0
 4180 0018 8091 6806 		lds r24,1640
 4181 001c 8295      		swap r24
 4182 001e 8F70      		andi r24,lo8(15)
 4183 0020 91E0      		ldi r25,lo8(1)
 4184 0022 8927      		eor r24,r25
 4185 0024 8170      		andi r24,1
 4186 0026 90E0      		ldi r25,0
 4187 0028 8093 0000 		sts gripperState,r24
 4188 002c 9093 0000 		sts gripperState+1,r25
 827:main.c        **** 	gripperStatePrev = gripperState;
 4189               		.loc 1 827 0
 4190 0030 8093 0000 		sts gripperStatePrev,r24
 4191 0034 9093 0000 		sts gripperStatePrev+1,r25
 828:main.c        ****     
 829:main.c        **** 	mainLoop();
 4192               		.loc 1 829 0
 4193 0038 0E94 0000 		call mainLoop
 4194               	.LVL290:
 4195               		.cfi_endproc
 4196               	.LFE45:
 4197               		.size	main, .-main
 4198               	.global	Gripper
 4199               		.data
 4200               		.type	Gripper, @object
 4201               		.size	Gripper, 36
 4202               	Gripper:
 4203 0000 0600      		.word	6
 4204 0002 0100      		.word	1
 4205 0004 2800      		.word	40
 4206 0006 0A        		.byte	10
GAS LISTING /tmp/ccjciOO6.s 			page 102


 4207 0007 00        		.byte	0
 4208 0008 00        		.byte	0
 4209 0009 00        		.byte	0
 4210 000a 6400      		.word	100
 4211 000c 0400      		.word	4
 4212 000e 0000      		.word	0
 4213 0010 0000      		.word	0
 4214 0012 2003      		.word	800
 4215 0014 44        		.byte	68
 4216 0015 0000      		.word	0
 4217 0017 44        		.byte	68
 4218 0018 0100      		.word	1
 4219 001a 44        		.byte	68
 4220 001b 0200      		.word	2
 4221 001d 44        		.byte	68
 4222 001e 0300      		.word	3
 4223 0020 0000 0000 		.zero	4
 4224               	.global	Right_Wrist
 4225               		.type	Right_Wrist, @object
 4226               		.size	Right_Wrist, 36
 4227               	Right_Wrist:
 4228 0024 0400      		.word	4
 4229 0026 0100      		.word	1
 4230 0028 2800      		.word	40
 4231 002a 0A        		.byte	10
 4232 002b 00        		.byte	0
 4233 002c 00        		.byte	0
 4234 002d 00        		.byte	0
 4235 002e 6400      		.word	100
 4236 0030 0400      		.word	4
 4237 0032 0000      		.word	0
 4238 0034 C800      		.word	200
 4239 0036 38FF      		.word	-200
 4240 0038 43        		.byte	67
 4241 0039 0000      		.word	0
 4242 003b 43        		.byte	67
 4243 003c 0100      		.word	1
 4244 003e 43        		.byte	67
 4245 003f 0200      		.word	2
 4246 0041 43        		.byte	67
 4247 0042 0300      		.word	3
 4248 0044 0000 0000 		.zero	4
 4249               	.global	Left_Wrist
 4250               		.type	Left_Wrist, @object
 4251               		.size	Left_Wrist, 36
 4252               	Left_Wrist:
 4253 0048 0500      		.word	5
 4254 004a 0100      		.word	1
