GAS LISTING /tmp/ccjciOO6.s 			page 1


   1               		.file	"main.c"
   2               	__SP_H__ = 0x3e
   3               	__SP_L__ = 0x3d
   4               	__SREG__ = 0x3f
   5               	__CCP__ = 0x34
   6               	__tmp_reg__ = 0
   7               	__zero_reg__ = 1
   8               		.text
   9               	.Ltext0:
  10               		.cfi_sections	.debug_frame
  11               		.type	uart_putchar, @function
  12               	uart_putchar:
  13               	.LFB23:
  14               		.file 1 "main.c"
   1:main.c        **** /* TinyArmTroller Firmware v0.02
   2:main.c        ****  * by Daniel J. Gonzalez and Azureviolin, modified from Arduino stepper.cpp V.04
   3:main.c        ****  * July 2012, yameb.blogspot.com
   4:main.c        ****  * 
   5:main.c        ****  * TODO: 
   6:main.c        ****  *  - Finish mainLoop() implementation
   7:main.c        ****  *  - - Initialization/localize State
   8:main.c        ****  *  - - - Use single switch, don't mount
   9:main.c        ****  *  - - - mount multiple switches
  10:main.c        ****  *  - - - Finish kinematic characterization
  11:main.c        ****  *  - Implement USB
  12:main.c        ****  * 
  13:main.c        ****  * Configuration:
  14:main.c        ****  *  - Port A0-D3 are Stepper Outputs
  15:main.c        ****  *  - Port D4 is Gripper Limit Switch Input. 
  16:main.c        ****  *  - Port D6 is USB D-
  17:main.c        ****  *  - Port D7 is USB D+
  18:main.c        ****  *  - Port D5, E0 - E3 Unused I/O
  19:main.c        ****  */
  20:main.c        **** 
  21:main.c        **** #include "main.h"
  22:main.c        **** 
  23:main.c        **** ISR(TCC0_OVF_vect){
  24:main.c        **** 	elapsedMillis++;
  25:main.c        **** }
  26:main.c        **** 
  27:main.c        **** static int uart_putchar (char c, FILE *stream) { 
  15               		.loc 1 27 0
  16               		.cfi_startproc
  17               	.LVL0:
  18 0000 CF93      		push r28
  19               	.LCFI0:
  20               		.cfi_def_cfa_offset 3
  21               		.cfi_offset 28, -2
  22               	/* prologue: function */
  23               	/* frame size = 0 */
  24               	/* stack size = 1 */
  25               	.L__stack_usage = 1
  26 0002 C82F      		mov r28,r24
  28:main.c        ****     if (c == '\n') 
  27               		.loc 1 28 0
  28 0004 8A30      		cpi r24,lo8(10)
  29 0006 01F4      		brne .L3
GAS LISTING /tmp/ccjciOO6.s 			page 2


  29:main.c        ****         uart_putchar('\r', stream); 
  30               		.loc 1 29 0
  31 0008 8DE0      		ldi r24,lo8(13)
  32               	.LVL1:
  33 000a 0E94 0000 		call uart_putchar
  34               	.LVL2:
  35               	.L3:
  30:main.c        **** 
  31:main.c        ****     // Wait for the transmit buffer to be empty 
  32:main.c        ****     while ( !( USARTD1.STATUS & USART_DREIF_bm) ); 
  36               		.loc 1 32 0 discriminator 1
  37 000e 8091 B109 		lds r24,2481
  38 0012 85FF      		sbrs r24,5
  39 0014 00C0      		rjmp .L3
  33:main.c        **** 
  34:main.c        ****     // Put our character into the transmit buffer 
  35:main.c        ****     USARTD1.DATA = c; 
  40               		.loc 1 35 0
  41 0016 C093 B009 		sts 2480,r28
  36:main.c        **** 
  37:main.c        ****     return 0; 
  38:main.c        **** } 
  42               		.loc 1 38 0
  43 001a 80E0      		ldi r24,0
  44 001c 90E0      		ldi r25,0
  45               	/* epilogue start */
  46 001e CF91      		pop r28
  47               	.LVL3:
  48 0020 0895      		ret
  49               		.cfi_endproc
  50               	.LFE23:
  51               		.size	uart_putchar, .-uart_putchar
  52               	.global	CCPWrite
  53               		.type	CCPWrite, @function
  54               	CCPWrite:
  55               	.LFB12:
  56               		.file 2 "requiredFiles/clksys_driver.c"
   1:requiredFiles/clksys_driver.c **** /* This file has been prepared for Doxygen automatic documentation generation.*/
   2:requiredFiles/clksys_driver.c **** /*! \file *********************************************************************
   3:requiredFiles/clksys_driver.c ****  *
   4:requiredFiles/clksys_driver.c ****  * \brief  XMEGA Clock System driver source file.
   5:requiredFiles/clksys_driver.c ****  *
   6:requiredFiles/clksys_driver.c ****  *      This file contains the function implementations for the XMEGA Clock
   7:requiredFiles/clksys_driver.c ****  *      System driver.
   8:requiredFiles/clksys_driver.c ****  *
   9:requiredFiles/clksys_driver.c ****  *      The driver is not intended for size and/or speed critical code, since
  10:requiredFiles/clksys_driver.c ****  *      most functions are just a few lines of code, and the function call
  11:requiredFiles/clksys_driver.c ****  *      overhead would decrease code performance. The driver is intended for
  12:requiredFiles/clksys_driver.c ****  *      rapid prototyping and documentation purposes for getting started with
  13:requiredFiles/clksys_driver.c ****  *      the XMEGA Clock System.
  14:requiredFiles/clksys_driver.c ****  *
  15:requiredFiles/clksys_driver.c ****  *      For size and/or speed critical code, it is recommended to copy the
  16:requiredFiles/clksys_driver.c ****  *      function contents directly into your application instead of making
  17:requiredFiles/clksys_driver.c ****  *      a function call.
  18:requiredFiles/clksys_driver.c ****  *
  19:requiredFiles/clksys_driver.c ****  *      Several functions use the following construct:
  20:requiredFiles/clksys_driver.c ****  *          "some_register = ... | (some_parameter ? SOME_BIT_bm : 0) | ..."
GAS LISTING /tmp/ccjciOO6.s 			page 3


  21:requiredFiles/clksys_driver.c ****  *      Although the use of the ternary operator ( if ? then : else ) is
  22:requiredFiles/clksys_driver.c ****  *      discouraged, in some occasions the operator makes it possible to
  23:requiredFiles/clksys_driver.c ****  *      write pretty clean and neat code. In this driver, the construct is
  24:requiredFiles/clksys_driver.c ****  *      used to set or not set a configuration bit based on a boolean input
  25:requiredFiles/clksys_driver.c ****  *      parameter, such as the "some_parameter" in the example above.
  26:requiredFiles/clksys_driver.c ****  *
  27:requiredFiles/clksys_driver.c ****  * \par Application note:
  28:requiredFiles/clksys_driver.c ****  *      AVR1003: Using the XMEGA Clock System
  29:requiredFiles/clksys_driver.c ****  *
  30:requiredFiles/clksys_driver.c ****  * \par Documentation
  31:requiredFiles/clksys_driver.c ****  *      For comprehensive code documentation, supported compilers, compiler
  32:requiredFiles/clksys_driver.c ****  *      settings and supported devices see readme.html
  33:requiredFiles/clksys_driver.c ****  *
  34:requiredFiles/clksys_driver.c ****  * \author
  35:requiredFiles/clksys_driver.c ****  *      Atmel Corporation: http://www.atmel.com \n
  36:requiredFiles/clksys_driver.c ****  *      Support email: avr@atmel.com
  37:requiredFiles/clksys_driver.c ****  *
  38:requiredFiles/clksys_driver.c ****  * $Revision: 2771 $
  39:requiredFiles/clksys_driver.c ****  * $Date: 2009-09-11 11:54:26 +0200 (fr, 11 sep 2009) $  \n
  40:requiredFiles/clksys_driver.c ****  *
  41:requiredFiles/clksys_driver.c ****  * Copyright (c) 2008, Atmel Corporation All rights reserved.
  42:requiredFiles/clksys_driver.c ****  *
  43:requiredFiles/clksys_driver.c ****  * Redistribution and use in source and binary forms, with or without
  44:requiredFiles/clksys_driver.c ****  * modification, are permitted provided that the following conditions are met:
  45:requiredFiles/clksys_driver.c ****  *
  46:requiredFiles/clksys_driver.c ****  * 1. Redistributions of source code must retain the above copyright notice,
  47:requiredFiles/clksys_driver.c ****  * this list of conditions and the following disclaimer.
  48:requiredFiles/clksys_driver.c ****  *
  49:requiredFiles/clksys_driver.c ****  * 2. Redistributions in binary form must reproduce the above copyright notice,
  50:requiredFiles/clksys_driver.c ****  * this list of conditions and the following disclaimer in the documentation
  51:requiredFiles/clksys_driver.c ****  * and/or other materials provided with the distribution.
  52:requiredFiles/clksys_driver.c ****  *
  53:requiredFiles/clksys_driver.c ****  * 3. The name of ATMEL may not be used to endorse or promote products derived
  54:requiredFiles/clksys_driver.c ****  * from this software without specific prior written permission.
  55:requiredFiles/clksys_driver.c ****  *
  56:requiredFiles/clksys_driver.c ****  * THIS SOFTWARE IS PROVIDED BY ATMEL "AS IS" AND ANY EXPRESS OR IMPLIED
  57:requiredFiles/clksys_driver.c ****  * WARRANTIES, INCLUDING, BUT NOT LIMITED TO, THE IMPLIED WARRANTIES OF
  58:requiredFiles/clksys_driver.c ****  * MERCHANTABILITY AND FITNESS FOR A PARTICULAR PURPOSE ARE EXPRESSLY AND
  59:requiredFiles/clksys_driver.c ****  * SPECIFICALLY DISCLAIMED. IN NO EVENT SHALL ATMEL BE LIABLE FOR ANY DIRECT,
  60:requiredFiles/clksys_driver.c ****  * INDIRECT, INCIDENTAL, SPECIAL, EXEMPLARY, OR CONSEQUENTIAL DAMAGES
  61:requiredFiles/clksys_driver.c ****  * (INCLUDING, BUT NOT LIMITED TO, PROCUREMENT OF SUBSTITUTE GOODS OR SERVICES;
  62:requiredFiles/clksys_driver.c ****  * LOSS OF USE, DATA, OR PROFITS; OR BUSINESS INTERRUPTION) HOWEVER CAUSED AND
  63:requiredFiles/clksys_driver.c ****  * ON ANY THEORY OF LIABILITY, WHETHER IN CONTRACT, STRICT LIABILITY, OR TORT
  64:requiredFiles/clksys_driver.c ****  * (INCLUDING NEGLIGENCE OR OTHERWISE) ARISING IN ANY WAY OUT OF THE USE OF
  65:requiredFiles/clksys_driver.c ****  * THIS SOFTWARE, EVEN IF ADVISED OF THE POSSIBILITY OF SUCH DAMAGE.
  66:requiredFiles/clksys_driver.c ****  *****************************************************************************/
  67:requiredFiles/clksys_driver.c **** #include "clksys_driver.h"
  68:requiredFiles/clksys_driver.c **** 
  69:requiredFiles/clksys_driver.c **** /*! \brief CCP write helper function written in assembly.
  70:requiredFiles/clksys_driver.c ****  *
  71:requiredFiles/clksys_driver.c ****  *  This function is written in assembly because of the timecritial
  72:requiredFiles/clksys_driver.c ****  *  operation of writing to the registers.
  73:requiredFiles/clksys_driver.c ****  *
  74:requiredFiles/clksys_driver.c ****  *  \param address A pointer to the address to write to.
  75:requiredFiles/clksys_driver.c ****  *  \param value   The value to put in to the register.
  76:requiredFiles/clksys_driver.c ****  */
  77:requiredFiles/clksys_driver.c **** void CCPWrite( volatile uint8_t * address, uint8_t value )
GAS LISTING /tmp/ccjciOO6.s 			page 4


  78:requiredFiles/clksys_driver.c **** {
  57               		.loc 2 78 0
  58               		.cfi_startproc
  59               	.LVL4:
  60 0022 0F93      		push r16
  61               	.LCFI1:
  62               		.cfi_def_cfa_offset 3
  63               		.cfi_offset 16, -2
  64 0024 CF93      		push r28
  65               	.LCFI2:
  66               		.cfi_def_cfa_offset 4
  67               		.cfi_offset 28, -3
  68 0026 DF93      		push r29
  69               	.LCFI3:
  70               		.cfi_def_cfa_offset 5
  71               		.cfi_offset 29, -4
  72 0028 1F92      		push __zero_reg__
  73               	.LCFI4:
  74               		.cfi_def_cfa_offset 6
  75 002a CDB7      		in r28,__SP_L__
  76 002c DEB7      		in r29,__SP_H__
  77               	.LCFI5:
  78               		.cfi_def_cfa_register 28
  79               	/* prologue: function */
  80               	/* frame size = 1 */
  81               	/* stack size = 4 */
  82               	.L__stack_usage = 4
  79:requiredFiles/clksys_driver.c **** #ifdef __ICCAVR__
  80:requiredFiles/clksys_driver.c **** 
  81:requiredFiles/clksys_driver.c **** 	// Store global interrupt setting in scratch register and disable interrupts.
  82:requiredFiles/clksys_driver.c ****         asm("in  R1, 0x3F \n"
  83:requiredFiles/clksys_driver.c **** 	    "cli"
  84:requiredFiles/clksys_driver.c **** 	    );
  85:requiredFiles/clksys_driver.c **** 
  86:requiredFiles/clksys_driver.c **** 	// Move destination address pointer to Z pointer registers.
  87:requiredFiles/clksys_driver.c **** 	asm("movw r30, r16");
  88:requiredFiles/clksys_driver.c **** #ifdef RAMPZ
  89:requiredFiles/clksys_driver.c **** 	asm("ldi  R16, 0 \n"
  90:requiredFiles/clksys_driver.c ****             "out  0x3B, R16"
  91:requiredFiles/clksys_driver.c **** 	    );
  92:requiredFiles/clksys_driver.c **** 
  93:requiredFiles/clksys_driver.c **** #endif
  94:requiredFiles/clksys_driver.c **** 	asm("ldi  r16,  0xD8 \n"
  95:requiredFiles/clksys_driver.c **** 	    "out  0x34, r16  \n"
  96:requiredFiles/clksys_driver.c **** #if (__MEMORY_MODEL__ == 1)
  97:requiredFiles/clksys_driver.c **** 	    "st     Z,  r17  \n");
  98:requiredFiles/clksys_driver.c **** #elif (__MEMORY_MODEL__ == 2)
  99:requiredFiles/clksys_driver.c **** 	    "st     Z,  r18  \n");
 100:requiredFiles/clksys_driver.c **** #else /* (__MEMORY_MODEL__ == 3) || (__MEMORY_MODEL__ == 5) */
 101:requiredFiles/clksys_driver.c **** 	    "st     Z,  r19  \n");
 102:requiredFiles/clksys_driver.c **** #endif /* __MEMORY_MODEL__ */
 103:requiredFiles/clksys_driver.c **** 
 104:requiredFiles/clksys_driver.c **** 	// Restore global interrupt setting from scratch register.
 105:requiredFiles/clksys_driver.c ****         asm("out  0x3F, R1");
 106:requiredFiles/clksys_driver.c **** 
 107:requiredFiles/clksys_driver.c **** #elif defined __GNUC__
 108:requiredFiles/clksys_driver.c **** 	AVR_ENTER_CRITICAL_REGION( );
GAS LISTING /tmp/ccjciOO6.s 			page 5


  83               		.loc 2 108 0
  84 002e 2FB7      		in r18,__SREG__
  85 0030 2983      		std Y+1,r18
  86               	/* #APP */
  87               	 ;  108 "requiredFiles/clksys_driver.c" 1
  88 0032 F894      		cli
  89               	 ;  0 "" 2
  90               	.LVL5:
 109:requiredFiles/clksys_driver.c **** 	volatile uint8_t * tmpAddr = address;
 110:requiredFiles/clksys_driver.c **** #ifdef RAMPZ
 111:requiredFiles/clksys_driver.c **** 	RAMPZ = 0;
  91               		.loc 2 111 0
  92               	/* #NOAPP */
  93 0034 1BBE      		out 0x3b,__zero_reg__
 112:requiredFiles/clksys_driver.c **** #endif
 113:requiredFiles/clksys_driver.c **** 	asm volatile(
  94               		.loc 2 113 0
  95               	/* #APP */
  96               	 ;  113 "requiredFiles/clksys_driver.c" 1
  97 0036 FC01      		movw r30,  r24
  98 0038 08ED      		ldi  r16,  216
  99 003a 04BF      		out   52, r16
 100 003c 6083      		st     Z,  r22
 101               		
 102               	 ;  0 "" 2
 114:requiredFiles/clksys_driver.c **** 		"movw r30,  %0"	      "\n\t"
 115:requiredFiles/clksys_driver.c **** 		"ldi  r16,  %2"	      "\n\t"
 116:requiredFiles/clksys_driver.c **** 		"out   %3, r16"	      "\n\t"
 117:requiredFiles/clksys_driver.c **** 		"st     Z,  %1"       "\n\t"
 118:requiredFiles/clksys_driver.c **** 		:
 119:requiredFiles/clksys_driver.c **** 		: "r" (tmpAddr), "r" (value), "M" (CCP_IOREG_gc), "i" (&CCP)
 120:requiredFiles/clksys_driver.c **** 		: "r16", "r30", "r31"
 121:requiredFiles/clksys_driver.c **** 		);
 122:requiredFiles/clksys_driver.c **** 
 123:requiredFiles/clksys_driver.c **** 	AVR_LEAVE_CRITICAL_REGION( );
 103               		.loc 2 123 0
 104               	/* #NOAPP */
 105 003e 8981      		ldd r24,Y+1
 106               	.LVL6:
 107 0040 8FBF      		out __SREG__,r24
 108               	/* epilogue start */
 124:requiredFiles/clksys_driver.c **** #endif
 125:requiredFiles/clksys_driver.c **** }
 109               		.loc 2 125 0
 110 0042 0F90      		pop __tmp_reg__
 111 0044 DF91      		pop r29
 112 0046 CF91      		pop r28
 113 0048 0F91      		pop r16
 114 004a 0895      		ret
 115               		.cfi_endproc
 116               	.LFE12:
 117               		.size	CCPWrite, .-CCPWrite
 118               	.global	CLKSYS_XOSC_Config
 119               		.type	CLKSYS_XOSC_Config, @function
 120               	CLKSYS_XOSC_Config:
 121               	.LFB13:
 126:requiredFiles/clksys_driver.c **** 
GAS LISTING /tmp/ccjciOO6.s 			page 6


 127:requiredFiles/clksys_driver.c **** /*! \brief This function configures the external oscillator.
 128:requiredFiles/clksys_driver.c ****  *
 129:requiredFiles/clksys_driver.c ****  *  \note Note that the oscillator cannot be used as a main system clock
 130:requiredFiles/clksys_driver.c ****  *        source without being enabled and stable first. Check the ready flag
 131:requiredFiles/clksys_driver.c ****  *        before using the clock. The macro CLKSYS_IsReady( _oscSel )
 132:requiredFiles/clksys_driver.c ****  *        can be used to check this.
 133:requiredFiles/clksys_driver.c ****  *
 134:requiredFiles/clksys_driver.c ****  *  \param  freqRange          Frequency range for high-frequency crystal, does
 135:requiredFiles/clksys_driver.c ****  *                             not apply for external clock or 32kHz crystals.
 136:requiredFiles/clksys_driver.c ****  *  \param  lowPower32kHz      True of high-quality watch crystals are used and
 137:requiredFiles/clksys_driver.c ****  *                             low-power oscillator is desired.
 138:requiredFiles/clksys_driver.c ****  *  \param  xoscModeSelection  Combined selection of oscillator type (or
 139:requiredFiles/clksys_driver.c ****  *                             external clock) and startup times.
 140:requiredFiles/clksys_driver.c ****  */
 141:requiredFiles/clksys_driver.c **** void CLKSYS_XOSC_Config( OSC_FRQRANGE_t freqRange,
 142:requiredFiles/clksys_driver.c ****                          bool lowPower32kHz,
 143:requiredFiles/clksys_driver.c ****                          OSC_XOSCSEL_t xoscModeSelection )
 144:requiredFiles/clksys_driver.c **** {
 122               		.loc 2 144 0
 123               		.cfi_startproc
 124               	.LVL7:
 125               	/* prologue: function */
 126               	/* frame size = 0 */
 127               	/* stack size = 0 */
 128               	.L__stack_usage = 0
 145:requiredFiles/clksys_driver.c **** 	OSC.XOSCCTRL = (uint8_t) freqRange |
 129               		.loc 2 145 0
 130 004c 6111      		cpse r22,__zero_reg__
 131 004e 00C0      		rjmp .L10
 132 0050 90E0      		ldi r25,0
 133 0052 00C0      		rjmp .L9
 134               	.L10:
 135 0054 90E2      		ldi r25,lo8(32)
 136               	.L9:
 137               		.loc 2 145 0 is_stmt 0 discriminator 4
 138 0056 842B      		or r24,r20
 139               	.LVL8:
 140 0058 982B      		or r25,r24
 141 005a 9093 5200 		sts 82,r25
 142 005e 0895      		ret
 143               		.cfi_endproc
 144               	.LFE13:
 145               		.size	CLKSYS_XOSC_Config, .-CLKSYS_XOSC_Config
 146               	.global	CLKSYS_PLL_Config
 147               		.type	CLKSYS_PLL_Config, @function
 148               	CLKSYS_PLL_Config:
 149               	.LFB14:
 146:requiredFiles/clksys_driver.c **** 	               ( lowPower32kHz ? OSC_X32KLPM_bm : 0 ) |
 147:requiredFiles/clksys_driver.c **** 	               xoscModeSelection;
 148:requiredFiles/clksys_driver.c **** }
 149:requiredFiles/clksys_driver.c **** 
 150:requiredFiles/clksys_driver.c **** 
 151:requiredFiles/clksys_driver.c **** /*! \brief This function configures the internal high-frequency PLL.
 152:requiredFiles/clksys_driver.c ****  *
 153:requiredFiles/clksys_driver.c ****  *  Configuration of the internal high-frequency PLL to the correct
 154:requiredFiles/clksys_driver.c ****  *  values. It is used to define the input of the PLL and the factor of
 155:requiredFiles/clksys_driver.c ****  *  multiplication of the input clock source.
GAS LISTING /tmp/ccjciOO6.s 			page 7


 156:requiredFiles/clksys_driver.c ****  *
 157:requiredFiles/clksys_driver.c ****  *  \note Note that the oscillator cannot be used as a main system clock
 158:requiredFiles/clksys_driver.c ****  *        source without being enabled and stable first. Check the ready flag
 159:requiredFiles/clksys_driver.c ****  *        before using the clock. The macro CLKSYS_IsReady( _oscSel )
 160:requiredFiles/clksys_driver.c ****  *        can be used to check this.
 161:requiredFiles/clksys_driver.c ****  *
 162:requiredFiles/clksys_driver.c ****  *  \param  clockSource Reference clock source for the PLL,
 163:requiredFiles/clksys_driver.c ****  *                      must be above 0.4MHz.
 164:requiredFiles/clksys_driver.c ****  *  \param  factor      PLL multiplication factor, must be
 165:requiredFiles/clksys_driver.c ****  *                      from 1 to 31, inclusive.
 166:requiredFiles/clksys_driver.c ****  */
 167:requiredFiles/clksys_driver.c **** void CLKSYS_PLL_Config( OSC_PLLSRC_t clockSource, uint8_t factor )
 168:requiredFiles/clksys_driver.c **** {
 150               		.loc 2 168 0 is_stmt 1
 151               		.cfi_startproc
 152               	.LVL9:
 153               	/* prologue: function */
 154               	/* frame size = 0 */
 155               	/* stack size = 0 */
 156               	.L__stack_usage = 0
 169:requiredFiles/clksys_driver.c **** 	factor &= OSC_PLLFAC_gm;
 170:requiredFiles/clksys_driver.c **** 	OSC.PLLCTRL = (uint8_t) clockSource | ( factor << OSC_PLLFAC_gp );
 157               		.loc 2 170 0
 158 0060 6F71      		andi r22,lo8(31)
 159               	.LVL10:
 160 0062 862B      		or r24,r22
 161               	.LVL11:
 162 0064 8093 5500 		sts 85,r24
 163 0068 0895      		ret
 164               		.cfi_endproc
 165               	.LFE14:
 166               		.size	CLKSYS_PLL_Config, .-CLKSYS_PLL_Config
 167               	.global	CLKSYS_Disable
 168               		.type	CLKSYS_Disable, @function
 169               	CLKSYS_Disable:
 170               	.LFB15:
 171:requiredFiles/clksys_driver.c **** }
 172:requiredFiles/clksys_driver.c **** 
 173:requiredFiles/clksys_driver.c **** 
 174:requiredFiles/clksys_driver.c **** /*! \brief This function disables the selected oscillator.
 175:requiredFiles/clksys_driver.c ****  *
 176:requiredFiles/clksys_driver.c ****  *  This function will disable the selected oscillator if possible.
 177:requiredFiles/clksys_driver.c ****  *  If it is currently used as a main system clock source, hardware will
 178:requiredFiles/clksys_driver.c ****  *  disregard the disable attempt, and this function will return zero.
 179:requiredFiles/clksys_driver.c ****  *  If it fails, change to another main system clock source and try again.
 180:requiredFiles/clksys_driver.c ****  *
 181:requiredFiles/clksys_driver.c ****  *  \param oscSel  Bitmask of selected clock. Can be one of the following
 182:requiredFiles/clksys_driver.c ****  *                 OSC_RC2MEN_bm, OSC_RC32MEN_bm, OSC_RC32KEN_bm,
 183:requiredFiles/clksys_driver.c ****  *                 OSC_XOSCEN_bm, OSC_PLLEN_bm.
 184:requiredFiles/clksys_driver.c ****  *
 185:requiredFiles/clksys_driver.c ****  *  \return  Non-zero if oscillator was disabled successfully.
 186:requiredFiles/clksys_driver.c ****  */
 187:requiredFiles/clksys_driver.c **** uint8_t CLKSYS_Disable( uint8_t oscSel )
 188:requiredFiles/clksys_driver.c **** {
 171               		.loc 2 188 0
 172               		.cfi_startproc
 173               	.LVL12:
GAS LISTING /tmp/ccjciOO6.s 			page 8


 174               	/* prologue: function */
 175               	/* frame size = 0 */
 176               	/* stack size = 0 */
 177               	.L__stack_usage = 0
 189:requiredFiles/clksys_driver.c **** 	OSC.CTRL &= ~oscSel;
 178               		.loc 2 189 0
 179 006a E0E5      		ldi r30,lo8(80)
 180 006c F0E0      		ldi r31,0
 181 006e 9081      		ld r25,Z
 182 0070 282F      		mov r18,r24
 183 0072 2095      		com r18
 184 0074 9223      		and r25,r18
 185 0076 9083      		st Z,r25
 190:requiredFiles/clksys_driver.c **** 	uint8_t clkEnabled = OSC.CTRL & oscSel;
 186               		.loc 2 190 0
 187 0078 9081      		ld r25,Z
 188               	.LVL13:
 191:requiredFiles/clksys_driver.c **** 	return clkEnabled;
 192:requiredFiles/clksys_driver.c **** }
 189               		.loc 2 192 0
 190 007a 8923      		and r24,r25
 191               	.LVL14:
 192 007c 0895      		ret
 193               		.cfi_endproc
 194               	.LFE15:
 195               		.size	CLKSYS_Disable, .-CLKSYS_Disable
 196               	.global	CLKSYS_Prescalers_Config
 197               		.type	CLKSYS_Prescalers_Config, @function
 198               	CLKSYS_Prescalers_Config:
 199               	.LFB16:
 193:requiredFiles/clksys_driver.c **** 
 194:requiredFiles/clksys_driver.c **** 
 195:requiredFiles/clksys_driver.c **** /*! \brief This function changes the prescaler configuration.
 196:requiredFiles/clksys_driver.c ****  *
 197:requiredFiles/clksys_driver.c ****  *  Change the configuration of the three system clock
 198:requiredFiles/clksys_driver.c ****  *  prescaler is one single operation. The user must make sure that
 199:requiredFiles/clksys_driver.c ****  *  the main CPU clock does not exceed recommended limits.
 200:requiredFiles/clksys_driver.c ****  *
 201:requiredFiles/clksys_driver.c ****  *  \param  PSAfactor   Prescaler A division factor, OFF or 2 to 512 in
 202:requiredFiles/clksys_driver.c ****  *                      powers of two.
 203:requiredFiles/clksys_driver.c ****  *  \param  PSBCfactor  Prescaler B and C division factor, in the combination
 204:requiredFiles/clksys_driver.c ****  *                      of (1,1), (1,2), (4,1) or (2,2).
 205:requiredFiles/clksys_driver.c ****  */
 206:requiredFiles/clksys_driver.c **** void CLKSYS_Prescalers_Config( CLK_PSADIV_t PSAfactor,
 207:requiredFiles/clksys_driver.c ****                                CLK_PSBCDIV_t PSBCfactor )
 208:requiredFiles/clksys_driver.c **** {
 200               		.loc 2 208 0
 201               		.cfi_startproc
 202               	.LVL15:
 203               	/* prologue: function */
 204               	/* frame size = 0 */
 205               	/* stack size = 0 */
 206               	.L__stack_usage = 0
 209:requiredFiles/clksys_driver.c **** 	uint8_t PSconfig = (uint8_t) PSAfactor | PSBCfactor;
 210:requiredFiles/clksys_driver.c **** 	CCPWrite( &CLK.PSCTRL, PSconfig );
 207               		.loc 2 210 0
 208 007e 682B      		or r22,r24
GAS LISTING /tmp/ccjciOO6.s 			page 9


 209               	.LVL16:
 210 0080 81E4      		ldi r24,lo8(65)
 211 0082 90E0      		ldi r25,0
 212               	.LVL17:
 213 0084 0C94 0000 		jmp CCPWrite
 214               	.LVL18:
 215               		.cfi_endproc
 216               	.LFE16:
 217               		.size	CLKSYS_Prescalers_Config, .-CLKSYS_Prescalers_Config
 218               	.global	CLKSYS_Main_ClockSource_Select
 219               		.type	CLKSYS_Main_ClockSource_Select, @function
 220               	CLKSYS_Main_ClockSource_Select:
 221               	.LFB17:
 211:requiredFiles/clksys_driver.c **** }
 212:requiredFiles/clksys_driver.c **** 
 213:requiredFiles/clksys_driver.c **** 
 214:requiredFiles/clksys_driver.c **** /*! \brief This function selects the main system clock source.
 215:requiredFiles/clksys_driver.c ****  *
 216:requiredFiles/clksys_driver.c ****  *  Hardware will disregard any attempts to select a clock source that is not
 217:requiredFiles/clksys_driver.c ****  *  enabled or not stable. If the change fails, make sure the source is ready
 218:requiredFiles/clksys_driver.c ****  *  and running and try again.
 219:requiredFiles/clksys_driver.c ****  *
 220:requiredFiles/clksys_driver.c ****  *  \param  clockSource  Clock source to use as input for the system clock
 221:requiredFiles/clksys_driver.c ****  *                       prescaler block.
 222:requiredFiles/clksys_driver.c ****  *
 223:requiredFiles/clksys_driver.c ****  *  \return  Non-zero if change was successful.
 224:requiredFiles/clksys_driver.c ****  */
 225:requiredFiles/clksys_driver.c **** uint8_t CLKSYS_Main_ClockSource_Select( CLK_SCLKSEL_t clockSource )
 226:requiredFiles/clksys_driver.c **** {
 222               		.loc 2 226 0
 223               		.cfi_startproc
 224               	.LVL19:
 225 0088 0F93      		push r16
 226               	.LCFI6:
 227               		.cfi_def_cfa_offset 3
 228               		.cfi_offset 16, -2
 229 008a 1F93      		push r17
 230               	.LCFI7:
 231               		.cfi_def_cfa_offset 4
 232               		.cfi_offset 17, -3
 233 008c CF93      		push r28
 234               	.LCFI8:
 235               		.cfi_def_cfa_offset 5
 236               		.cfi_offset 28, -4
 237               	/* prologue: function */
 238               	/* frame size = 0 */
 239               	/* stack size = 3 */
 240               	.L__stack_usage = 3
 241 008e C82F      		mov r28,r24
 227:requiredFiles/clksys_driver.c **** 	uint8_t clkCtrl = ( CLK.CTRL & ~CLK_SCLKSEL_gm ) | clockSource;
 242               		.loc 2 227 0
 243 0090 00E4      		ldi r16,lo8(64)
 244 0092 10E0      		ldi r17,0
 245 0094 F801      		movw r30,r16
 246 0096 6081      		ld r22,Z
 247               	.LVL20:
 228:requiredFiles/clksys_driver.c **** 	CCPWrite( &CLK.CTRL, clkCtrl );
GAS LISTING /tmp/ccjciOO6.s 			page 10


 248               		.loc 2 228 0
 249 0098 687F      		andi r22,lo8(-8)
 250               	.LVL21:
 251 009a 682B      		or r22,r24
 252               	.LVL22:
 253 009c 80E4      		ldi r24,lo8(64)
 254 009e 90E0      		ldi r25,0
 255               	.LVL23:
 256 00a0 0E94 0000 		call CCPWrite
 257               	.LVL24:
 229:requiredFiles/clksys_driver.c **** 	clkCtrl = ( CLK.CTRL & clockSource );
 258               		.loc 2 229 0
 259 00a4 F801      		movw r30,r16
 260 00a6 8081      		ld r24,Z
 261               	.LVL25:
 230:requiredFiles/clksys_driver.c **** 	return clkCtrl;
 231:requiredFiles/clksys_driver.c **** }
 262               		.loc 2 231 0
 263 00a8 8C23      		and r24,r28
 264               	.LVL26:
 265               	/* epilogue start */
 266 00aa CF91      		pop r28
 267               	.LVL27:
 268 00ac 1F91      		pop r17
 269 00ae 0F91      		pop r16
 270 00b0 0895      		ret
 271               		.cfi_endproc
 272               	.LFE17:
 273               		.size	CLKSYS_Main_ClockSource_Select, .-CLKSYS_Main_ClockSource_Select
 274               	.global	CLKSYS_RTC_ClockSource_Enable
 275               		.type	CLKSYS_RTC_ClockSource_Enable, @function
 276               	CLKSYS_RTC_ClockSource_Enable:
 277               	.LFB18:
 232:requiredFiles/clksys_driver.c **** 
 233:requiredFiles/clksys_driver.c **** 
 234:requiredFiles/clksys_driver.c **** /*! \brief This function selects a Real-Time Counter clock source.
 235:requiredFiles/clksys_driver.c ****  *
 236:requiredFiles/clksys_driver.c ****  *  Selects the clock source for use by the Real-Time Counter (RTC)
 237:requiredFiles/clksys_driver.c ****  *  and enables clock signal routing to the RTC module.
 238:requiredFiles/clksys_driver.c ****  *
 239:requiredFiles/clksys_driver.c ****  *  \param  clockSource  Clock source to use for the RTC.
 240:requiredFiles/clksys_driver.c ****  */
 241:requiredFiles/clksys_driver.c **** void CLKSYS_RTC_ClockSource_Enable( CLK_RTCSRC_t clockSource )
 242:requiredFiles/clksys_driver.c **** {
 278               		.loc 2 242 0
 279               		.cfi_startproc
 280               	.LVL28:
 281               	/* prologue: function */
 282               	/* frame size = 0 */
 283               	/* stack size = 0 */
 284               	.L__stack_usage = 0
 243:requiredFiles/clksys_driver.c **** 	CLK.RTCCTRL = ( CLK.RTCCTRL & ~CLK_RTCSRC_gm ) |
 285               		.loc 2 243 0
 286 00b2 E0E4      		ldi r30,lo8(64)
 287 00b4 F0E0      		ldi r31,0
 288 00b6 9381      		ldd r25,Z+3
 289 00b8 917F      		andi r25,lo8(-15)
GAS LISTING /tmp/ccjciOO6.s 			page 11


 290 00ba 9160      		ori r25,lo8(1)
 291 00bc 892B      		or r24,r25
 292               	.LVL29:
 293 00be 8383      		std Z+3,r24
 294 00c0 0895      		ret
 295               		.cfi_endproc
 296               	.LFE18:
 297               		.size	CLKSYS_RTC_ClockSource_Enable, .-CLKSYS_RTC_ClockSource_Enable
 298               	.global	CLKSYS_AutoCalibration_Enable
 299               		.type	CLKSYS_AutoCalibration_Enable, @function
 300               	CLKSYS_AutoCalibration_Enable:
 301               	.LFB19:
 244:requiredFiles/clksys_driver.c **** 	              clockSource |
 245:requiredFiles/clksys_driver.c **** 	              CLK_RTCEN_bm;
 246:requiredFiles/clksys_driver.c **** }
 247:requiredFiles/clksys_driver.c **** 
 248:requiredFiles/clksys_driver.c **** 
 249:requiredFiles/clksys_driver.c **** /*! \brief This function enables automatic calibration of the selected internal
 250:requiredFiles/clksys_driver.c ****  *         oscillator.
 251:requiredFiles/clksys_driver.c ****  *
 252:requiredFiles/clksys_driver.c ****  *  Either the internal 32kHz RC oscillator or an external 32kHz
 253:requiredFiles/clksys_driver.c ****  *  crystal can be used as a calibration reference. The user must make sure
 254:requiredFiles/clksys_driver.c ****  *  that the selected reference is ready and running.
 255:requiredFiles/clksys_driver.c ****  *
 256:requiredFiles/clksys_driver.c ****  *  \param  clkSource    Clock source to calibrate, either OSC_RC2MCREF_bm or
 257:requiredFiles/clksys_driver.c ****  *                       OSC_RC32MCREF_bm.
 258:requiredFiles/clksys_driver.c ****  *  \param  extReference True if external crystal should be used as reference.
 259:requiredFiles/clksys_driver.c ****  */
 260:requiredFiles/clksys_driver.c **** void CLKSYS_AutoCalibration_Enable( uint8_t clkSource, bool extReference )
 261:requiredFiles/clksys_driver.c **** {
 302               		.loc 2 261 0
 303               		.cfi_startproc
 304               	.LVL30:
 305               	/* prologue: function */
 306               	/* frame size = 0 */
 307               	/* stack size = 0 */
 308               	.L__stack_usage = 0
 262:requiredFiles/clksys_driver.c **** 	OSC.DFLLCTRL = ( OSC.DFLLCTRL & ~clkSource ) |
 309               		.loc 2 262 0
 310 00c2 2091 5600 		lds r18,86
 311 00c6 382F      		mov r19,r24
 312 00c8 982F      		mov r25,r24
 313 00ca 9095      		com r25
 314 00cc 9223      		and r25,r18
 315 00ce 6111      		cpse r22,__zero_reg__
 316 00d0 00C0      		rjmp .L17
 317 00d2 30E0      		ldi r19,0
 318               	.L17:
 319               		.loc 2 262 0 is_stmt 0 discriminator 4
 320 00d4 932B      		or r25,r19
 321 00d6 9093 5600 		sts 86,r25
 263:requiredFiles/clksys_driver.c **** 	               ( extReference ? clkSource : 0 );
 264:requiredFiles/clksys_driver.c **** 	if (clkSource == OSC_RC2MCREF_bm) {
 322               		.loc 2 264 0 is_stmt 1 discriminator 4
 323 00da 8130      		cpi r24,lo8(1)
 324 00dc 01F4      		brne .L18
 265:requiredFiles/clksys_driver.c **** 		DFLLRC2M.CTRL |= DFLL_ENABLE_bm;
GAS LISTING /tmp/ccjciOO6.s 			page 12


 325               		.loc 2 265 0
 326 00de 8091 6800 		lds r24,104
 327               	.LVL31:
 328 00e2 8160      		ori r24,lo8(1)
 329 00e4 8093 6800 		sts 104,r24
 330 00e8 0895      		ret
 331               	.LVL32:
 332               	.L18:
 266:requiredFiles/clksys_driver.c **** 	} else if (clkSource == OSC_RC32MCREF_bm) {
 333               		.loc 2 266 0
 334 00ea 8230      		cpi r24,lo8(2)
 335 00ec 01F4      		brne .L16
 267:requiredFiles/clksys_driver.c **** 		DFLLRC32M.CTRL |= DFLL_ENABLE_bm;
 336               		.loc 2 267 0
 337 00ee 8091 6000 		lds r24,96
 338               	.LVL33:
 339 00f2 8160      		ori r24,lo8(1)
 340 00f4 8093 6000 		sts 96,r24
 341               	.L16:
 342 00f8 0895      		ret
 343               		.cfi_endproc
 344               	.LFE19:
 345               		.size	CLKSYS_AutoCalibration_Enable, .-CLKSYS_AutoCalibration_Enable
 346               	.global	CLKSYS_XOSC_FailureDetection_Enable
 347               		.type	CLKSYS_XOSC_FailureDetection_Enable, @function
 348               	CLKSYS_XOSC_FailureDetection_Enable:
 349               	.LFB20:
 268:requiredFiles/clksys_driver.c **** 	}
 269:requiredFiles/clksys_driver.c **** }
 270:requiredFiles/clksys_driver.c **** 
 271:requiredFiles/clksys_driver.c **** 
 272:requiredFiles/clksys_driver.c **** /*! \brief This function enables the External Oscillator Failure Detection
 273:requiredFiles/clksys_driver.c ****  *         (XOSCFD) feature.
 274:requiredFiles/clksys_driver.c ****  *
 275:requiredFiles/clksys_driver.c ****  *  The feature will stay enabled until next reset. Note that the
 276:requiredFiles/clksys_driver.c ****  *  XOSCFD _will_ issue the XOSCF Non-maskable Interrupt (NMI) regardless of
 277:requiredFiles/clksys_driver.c ****  *  any interrupt priorities and settings. Therefore, make sure that a handler
 278:requiredFiles/clksys_driver.c ****  *  is implemented for the XOSCF NMI when you enable it.
 279:requiredFiles/clksys_driver.c ****  */
 280:requiredFiles/clksys_driver.c **** void CLKSYS_XOSC_FailureDetection_Enable( void )
 281:requiredFiles/clksys_driver.c **** {
 350               		.loc 2 281 0
 351               		.cfi_startproc
 352               	/* prologue: function */
 353               	/* frame size = 0 */
 354               	/* stack size = 0 */
 355               	.L__stack_usage = 0
 282:requiredFiles/clksys_driver.c **** 	CCPWrite( &OSC.XOSCFAIL, ( OSC_XOSCFDIF_bm | OSC_XOSCFDEN_bm ) );
 356               		.loc 2 282 0
 357 00fa 63E0      		ldi r22,lo8(3)
 358 00fc 83E5      		ldi r24,lo8(83)
 359 00fe 90E0      		ldi r25,0
 360 0100 0C94 0000 		jmp CCPWrite
 361               	.LVL34:
 362               		.cfi_endproc
 363               	.LFE20:
 364               		.size	CLKSYS_XOSC_FailureDetection_Enable, .-CLKSYS_XOSC_FailureDetection_Enable
GAS LISTING /tmp/ccjciOO6.s 			page 13


 365               	.global	CLKSYS_Configuration_Lock
 366               		.type	CLKSYS_Configuration_Lock, @function
 367               	CLKSYS_Configuration_Lock:
 368               	.LFB21:
 283:requiredFiles/clksys_driver.c **** }
 284:requiredFiles/clksys_driver.c **** 
 285:requiredFiles/clksys_driver.c **** 
 286:requiredFiles/clksys_driver.c **** /*! \brief This function lock the entire clock system configuration.
 287:requiredFiles/clksys_driver.c ****  *
 288:requiredFiles/clksys_driver.c ****  *  This will lock the configuration until the next reset, or until the
 289:requiredFiles/clksys_driver.c ****  *  External Oscillator Failure Detections (XOSCFD) feature detects a failure
 290:requiredFiles/clksys_driver.c ****  *  and switches to internal 2MHz RC oscillator.
 291:requiredFiles/clksys_driver.c ****  */
 292:requiredFiles/clksys_driver.c **** void CLKSYS_Configuration_Lock( void )
 293:requiredFiles/clksys_driver.c **** {
 369               		.loc 2 293 0
 370               		.cfi_startproc
 371               	/* prologue: function */
 372               	/* frame size = 0 */
 373               	/* stack size = 0 */
 374               	.L__stack_usage = 0
 294:requiredFiles/clksys_driver.c **** 	CCPWrite( &CLK.LOCK, CLK_LOCK_bm );
 375               		.loc 2 294 0
 376 0104 61E0      		ldi r22,lo8(1)
 377 0106 82E4      		ldi r24,lo8(66)
 378 0108 90E0      		ldi r25,0
 379 010a 0C94 0000 		jmp CCPWrite
 380               	.LVL35:
 381               		.cfi_endproc
 382               	.LFE21:
 383               		.size	CLKSYS_Configuration_Lock, .-CLKSYS_Configuration_Lock
 384               	.global	__vector_14
 385               		.type	__vector_14, @function
 386               	__vector_14:
 387               	.LFB22:
  23:main.c        **** 	elapsedMillis++;
 388               		.loc 1 23 0
 389               		.cfi_startproc
 390 010e 1F92      		push r1
 391               	.LCFI9:
 392               		.cfi_def_cfa_offset 3
 393               		.cfi_offset 1, -2
 394 0110 0F92      		push r0
 395               	.LCFI10:
 396               		.cfi_def_cfa_offset 4
 397               		.cfi_offset 0, -3
 398 0112 0FB6      		in r0,__SREG__
 399 0114 0F92      		push r0
 400 0116 1124      		clr __zero_reg__
 401 0118 8F93      		push r24
 402               	.LCFI11:
 403               		.cfi_def_cfa_offset 5
 404               		.cfi_offset 24, -4
 405 011a 9F93      		push r25
 406               	.LCFI12:
 407               		.cfi_def_cfa_offset 6
 408               		.cfi_offset 25, -5
GAS LISTING /tmp/ccjciOO6.s 			page 14


 409 011c AF93      		push r26
 410               	.LCFI13:
 411               		.cfi_def_cfa_offset 7
 412               		.cfi_offset 26, -6
 413 011e BF93      		push r27
 414               	.LCFI14:
 415               		.cfi_def_cfa_offset 8
 416               		.cfi_offset 27, -7
 417               	/* prologue: Signal */
 418               	/* frame size = 0 */
 419               	/* stack size = 7 */
 420               	.L__stack_usage = 7
  24:main.c        **** }
 421               		.loc 1 24 0
 422 0120 8091 0000 		lds r24,elapsedMillis
 423 0124 9091 0000 		lds r25,elapsedMillis+1
 424 0128 A091 0000 		lds r26,elapsedMillis+2
 425 012c B091 0000 		lds r27,elapsedMillis+3
 426 0130 0196      		adiw r24,1
 427 0132 A11D      		adc r26,__zero_reg__
 428 0134 B11D      		adc r27,__zero_reg__
 429 0136 8093 0000 		sts elapsedMillis,r24
 430 013a 9093 0000 		sts elapsedMillis+1,r25
 431 013e A093 0000 		sts elapsedMillis+2,r26
 432 0142 B093 0000 		sts elapsedMillis+3,r27
 433               	/* epilogue start */
  25:main.c        **** 
 434               		.loc 1 25 0
 435 0146 BF91      		pop r27
 436 0148 AF91      		pop r26
 437 014a 9F91      		pop r25
 438 014c 8F91      		pop r24
 439 014e 0F90      		pop r0
 440 0150 0FBE      		out __SREG__,r0
 441 0152 0F90      		pop r0
 442 0154 1F90      		pop r1
 443 0156 1895      		reti
 444               		.cfi_endproc
 445               	.LFE22:
 446               		.size	__vector_14, .-__vector_14
 447               	.global	uart_getchar
 448               		.type	uart_getchar, @function
 449               	uart_getchar:
 450               	.LFB24:
  39:main.c        **** 
  40:main.c        **** int uart_getchar (void) { 
 451               		.loc 1 40 0
 452               		.cfi_startproc
 453               	/* prologue: function */
 454               	/* frame size = 0 */
 455               	/* stack size = 0 */
 456               	.L__stack_usage = 0
 457               	.L25:
  41:main.c        ****     while( !(USARTD1_STATUS & USART_RXCIF_bm) ){
 458               		.loc 1 41 0 discriminator 1
 459 0158 8091 B109 		lds r24,2481
 460 015c 87FF      		sbrs r24,7
GAS LISTING /tmp/ccjciOO6.s 			page 15


 461 015e 00C0      		rjmp .L25
  42:main.c        ****     //    PORTE.OUTSET = _BV(0);
  43:main.c        ****     }
  44:main.c        ****     PORTE.OUTCLR = _BV(0);
 462               		.loc 1 44 0
 463 0160 81E0      		ldi r24,lo8(1)
 464 0162 8093 8606 		sts 1670,r24
  45:main.c        ****     return USARTD1.DATA;
 465               		.loc 1 45 0
 466 0166 8091 B009 		lds r24,2480
  46:main.c        **** } 
 467               		.loc 1 46 0
 468 016a 90E0      		ldi r25,0
 469 016c 0895      		ret
 470               		.cfi_endproc
 471               	.LFE24:
 472               		.size	uart_getchar, .-uart_getchar
 473               	.global	delay_ms
 474               		.type	delay_ms, @function
 475               	delay_ms:
 476               	.LFB26:
  47:main.c        **** 
  48:main.c        **** // Init USART.  Transmit only (we're not receiving anything) 
  49:main.c        **** // We use USARTD1, transmit pin on PC7. 
  50:main.c        **** // Want 115200 baud. Have a 32 MHz clock. BSCALE = 0 
  51:main.c        **** // BSEL = ( 32000000 / (2^0 * 16*115200)) -1 = 16.361111111
  52:main.c        **** // Fbaud = 32000000 / (2^0 * 16 * (16+1))  = 117647 bits/sec 
  53:main.c        **** static void uart_init (void) { 
  54:main.c        ****     // Set the TxD pin high - set PORTD DIR register bit 7 to 1 
  55:main.c        ****     PORTD.OUTSET = PIN7_bm; 
  56:main.c        **** 
  57:main.c        ****     // Set the TxD pin as an output - set PORTC OUT register bit 3 to 1 
  58:main.c        ****     PORTD.DIRSET = PIN7_bm; 
  59:main.c        **** 
  60:main.c        ****     // Set baud rate & frame format 
  61:main.c        ****     
  62:main.c        ****     USARTD1.BAUDCTRLB = 0;                      // BSCALE = 0 as well 
  63:main.c        ****     USARTD1.BAUDCTRLA = 51; //16 for 32MHz at 115200, 12 for 2MHz at 9600, 51 for  38400 at 32MHz
  64:main.c        **** 
  65:main.c        ****     // Set mode of operation 
  66:main.c        ****     USARTD1.CTRLA = 0;                          // no interrupts please 
  67:main.c        ****     USARTD1.CTRLC = 0x03;                       // async, no parity, 8 bit data, 1 stop bit 
  68:main.c        **** 
  69:main.c        ****     // Enable transmitter only 
  70:main.c        ****     USARTD1.CTRLB =USART_RXEN_bm|USART_TXEN_bm; 
  71:main.c        ****      
  72:main.c        **** }
  73:main.c        **** 
  74:main.c        **** // My own Delay function, because the built-in _delay_ms() can delay for only a limited time
  75:main.c        **** void delay_ms(int ms) 
  76:main.c        **** { 
 477               		.loc 1 76 0
 478               		.cfi_startproc
 479               	.LVL36:
 480               	/* prologue: function */
 481               	/* frame size = 0 */
 482               	/* stack size = 0 */
GAS LISTING /tmp/ccjciOO6.s 			page 16


 483               	.L__stack_usage = 0
 484               	.L28:
  77:main.c        ****     while (ms--) 
 485               		.loc 1 77 0
 486 016e 0097      		sbiw r24,0
 487 0170 01F0      		breq .L30
 488               	.LVL37:
 489               	.LBB91:
 490               	.LBB92:
 491               		.file 3 "/usr/lib/avr/include/util/delay.h"
   1:/usr/lib/avr/include/util/delay.h **** /* Copyright (c) 2002, Marek Michalkiewicz
   2:/usr/lib/avr/include/util/delay.h ****    Copyright (c) 2004,2005,2007 Joerg Wunsch
   3:/usr/lib/avr/include/util/delay.h ****    Copyright (c) 2007  Florin-Viorel Petrov
   4:/usr/lib/avr/include/util/delay.h ****    All rights reserved.
   5:/usr/lib/avr/include/util/delay.h **** 
   6:/usr/lib/avr/include/util/delay.h ****    Redistribution and use in source and binary forms, with or without
   7:/usr/lib/avr/include/util/delay.h ****    modification, are permitted provided that the following conditions are met:
   8:/usr/lib/avr/include/util/delay.h **** 
   9:/usr/lib/avr/include/util/delay.h ****    * Redistributions of source code must retain the above copyright
  10:/usr/lib/avr/include/util/delay.h ****      notice, this list of conditions and the following disclaimer.
  11:/usr/lib/avr/include/util/delay.h **** 
  12:/usr/lib/avr/include/util/delay.h ****    * Redistributions in binary form must reproduce the above copyright
  13:/usr/lib/avr/include/util/delay.h ****      notice, this list of conditions and the following disclaimer in
  14:/usr/lib/avr/include/util/delay.h ****      the documentation and/or other materials provided with the
  15:/usr/lib/avr/include/util/delay.h ****      distribution.
  16:/usr/lib/avr/include/util/delay.h **** 
  17:/usr/lib/avr/include/util/delay.h ****    * Neither the name of the copyright holders nor the names of
  18:/usr/lib/avr/include/util/delay.h ****      contributors may be used to endorse or promote products derived
  19:/usr/lib/avr/include/util/delay.h ****      from this software without specific prior written permission.
  20:/usr/lib/avr/include/util/delay.h **** 
  21:/usr/lib/avr/include/util/delay.h ****   THIS SOFTWARE IS PROVIDED BY THE COPYRIGHT HOLDERS AND CONTRIBUTORS "AS IS"
  22:/usr/lib/avr/include/util/delay.h ****   AND ANY EXPRESS OR IMPLIED WARRANTIES, INCLUDING, BUT NOT LIMITED TO, THE
  23:/usr/lib/avr/include/util/delay.h ****   IMPLIED WARRANTIES OF MERCHANTABILITY AND FITNESS FOR A PARTICULAR PURPOSE
  24:/usr/lib/avr/include/util/delay.h ****   ARE DISCLAIMED. IN NO EVENT SHALL THE COPYRIGHT OWNER OR CONTRIBUTORS BE
  25:/usr/lib/avr/include/util/delay.h ****   LIABLE FOR ANY DIRECT, INDIRECT, INCIDENTAL, SPECIAL, EXEMPLARY, OR
  26:/usr/lib/avr/include/util/delay.h ****   CONSEQUENTIAL DAMAGES (INCLUDING, BUT NOT LIMITED TO, PROCUREMENT OF
  27:/usr/lib/avr/include/util/delay.h ****   SUBSTITUTE GOODS OR SERVICES; LOSS OF USE, DATA, OR PROFITS; OR BUSINESS
  28:/usr/lib/avr/include/util/delay.h ****   INTERRUPTION) HOWEVER CAUSED AND ON ANY THEORY OF LIABILITY, WHETHER IN
  29:/usr/lib/avr/include/util/delay.h ****   CONTRACT, STRICT LIABILITY, OR TORT (INCLUDING NEGLIGENCE OR OTHERWISE)
  30:/usr/lib/avr/include/util/delay.h ****   ARISING IN ANY WAY OUT OF THE USE OF THIS SOFTWARE, EVEN IF ADVISED OF THE
  31:/usr/lib/avr/include/util/delay.h ****   POSSIBILITY OF SUCH DAMAGE. */
  32:/usr/lib/avr/include/util/delay.h **** 
  33:/usr/lib/avr/include/util/delay.h **** /* $Id$ */
  34:/usr/lib/avr/include/util/delay.h **** 
  35:/usr/lib/avr/include/util/delay.h **** #ifndef _UTIL_DELAY_H_
  36:/usr/lib/avr/include/util/delay.h **** #define _UTIL_DELAY_H_ 1
  37:/usr/lib/avr/include/util/delay.h **** 
  38:/usr/lib/avr/include/util/delay.h **** #ifndef __DOXYGEN__
  39:/usr/lib/avr/include/util/delay.h **** #  ifndef __HAS_DELAY_CYCLES
  40:/usr/lib/avr/include/util/delay.h **** #    define __HAS_DELAY_CYCLES 1
  41:/usr/lib/avr/include/util/delay.h **** #  endif
  42:/usr/lib/avr/include/util/delay.h **** #endif  /* __DOXYGEN__ */
  43:/usr/lib/avr/include/util/delay.h **** 
  44:/usr/lib/avr/include/util/delay.h **** #include <inttypes.h>
  45:/usr/lib/avr/include/util/delay.h **** #include <util/delay_basic.h>
  46:/usr/lib/avr/include/util/delay.h **** #include <math.h>
  47:/usr/lib/avr/include/util/delay.h **** 
GAS LISTING /tmp/ccjciOO6.s 			page 17


  48:/usr/lib/avr/include/util/delay.h **** /** \file */
  49:/usr/lib/avr/include/util/delay.h **** /** \defgroup util_delay <util/delay.h>: Convenience functions for busy-wait delay loops
  50:/usr/lib/avr/include/util/delay.h ****     \code
  51:/usr/lib/avr/include/util/delay.h ****     #define F_CPU 1000000UL  // 1 MHz
  52:/usr/lib/avr/include/util/delay.h ****     //#define F_CPU 14.7456E6
  53:/usr/lib/avr/include/util/delay.h ****     #include <util/delay.h>
  54:/usr/lib/avr/include/util/delay.h ****     \endcode
  55:/usr/lib/avr/include/util/delay.h **** 
  56:/usr/lib/avr/include/util/delay.h ****     \note As an alternative method, it is possible to pass the
  57:/usr/lib/avr/include/util/delay.h ****     F_CPU macro down to the compiler from the Makefile.
  58:/usr/lib/avr/include/util/delay.h ****     Obviously, in that case, no \c \#define statement should be
  59:/usr/lib/avr/include/util/delay.h ****     used.
  60:/usr/lib/avr/include/util/delay.h **** 
  61:/usr/lib/avr/include/util/delay.h ****     The functions in this header file are wrappers around the basic
  62:/usr/lib/avr/include/util/delay.h ****     busy-wait functions from <util/delay_basic.h>.  They are meant as
  63:/usr/lib/avr/include/util/delay.h ****     convenience functions where actual time values can be specified
  64:/usr/lib/avr/include/util/delay.h ****     rather than a number of cycles to wait for.  The idea behind is
  65:/usr/lib/avr/include/util/delay.h ****     that compile-time constant expressions will be eliminated by
  66:/usr/lib/avr/include/util/delay.h ****     compiler optimization so floating-point expressions can be used
  67:/usr/lib/avr/include/util/delay.h ****     to calculate the number of delay cycles needed based on the CPU
  68:/usr/lib/avr/include/util/delay.h ****     frequency passed by the macro F_CPU.
  69:/usr/lib/avr/include/util/delay.h **** 
  70:/usr/lib/avr/include/util/delay.h ****     \note In order for these functions to work as intended, compiler
  71:/usr/lib/avr/include/util/delay.h ****     optimizations <em>must</em> be enabled, and the delay time
  72:/usr/lib/avr/include/util/delay.h ****     <em>must</em> be an expression that is a known constant at
  73:/usr/lib/avr/include/util/delay.h ****     compile-time.  If these requirements are not met, the resulting
  74:/usr/lib/avr/include/util/delay.h ****     delay will be much longer (and basically unpredictable), and
  75:/usr/lib/avr/include/util/delay.h ****     applications that otherwise do not use floating-point calculations
  76:/usr/lib/avr/include/util/delay.h ****     will experience severe code bloat by the floating-point library
  77:/usr/lib/avr/include/util/delay.h ****     routines linked into the application.
  78:/usr/lib/avr/include/util/delay.h **** 
  79:/usr/lib/avr/include/util/delay.h ****     The functions available allow the specification of microsecond, and
  80:/usr/lib/avr/include/util/delay.h ****     millisecond delays directly, using the application-supplied macro
  81:/usr/lib/avr/include/util/delay.h ****     F_CPU as the CPU clock frequency (in Hertz).
  82:/usr/lib/avr/include/util/delay.h **** 
  83:/usr/lib/avr/include/util/delay.h **** */
  84:/usr/lib/avr/include/util/delay.h **** 
  85:/usr/lib/avr/include/util/delay.h **** #if !defined(__DOXYGEN__)
  86:/usr/lib/avr/include/util/delay.h **** static __inline__ void _delay_us(double __us) __attribute__((__always_inline__));
  87:/usr/lib/avr/include/util/delay.h **** static __inline__ void _delay_ms(double __ms) __attribute__((__always_inline__));
  88:/usr/lib/avr/include/util/delay.h **** #endif
  89:/usr/lib/avr/include/util/delay.h **** 
  90:/usr/lib/avr/include/util/delay.h **** #ifndef F_CPU
  91:/usr/lib/avr/include/util/delay.h **** /* prevent compiler error by supplying a default */
  92:/usr/lib/avr/include/util/delay.h **** # warning "F_CPU not defined for <util/delay.h>"
  93:/usr/lib/avr/include/util/delay.h **** /** \ingroup util_delay
  94:/usr/lib/avr/include/util/delay.h ****     \def F_CPU
  95:/usr/lib/avr/include/util/delay.h ****     \brief CPU frequency in Hz
  96:/usr/lib/avr/include/util/delay.h **** 
  97:/usr/lib/avr/include/util/delay.h ****     The macro F_CPU specifies the CPU frequency to be considered by
  98:/usr/lib/avr/include/util/delay.h ****     the delay macros.  This macro is normally supplied by the
  99:/usr/lib/avr/include/util/delay.h ****     environment (e.g. from within a project header, or the project's
 100:/usr/lib/avr/include/util/delay.h ****     Makefile).  The value 1 MHz here is only provided as a "vanilla"
 101:/usr/lib/avr/include/util/delay.h ****     fallback if no such user-provided definition could be found.
 102:/usr/lib/avr/include/util/delay.h **** 
 103:/usr/lib/avr/include/util/delay.h ****     In terms of the delay functions, the CPU frequency can be given as
 104:/usr/lib/avr/include/util/delay.h ****     a floating-point constant (e.g. 3.6864E6 for 3.6864 MHz).
GAS LISTING /tmp/ccjciOO6.s 			page 18


 105:/usr/lib/avr/include/util/delay.h ****     However, the macros in <util/setbaud.h> require it to be an
 106:/usr/lib/avr/include/util/delay.h ****     integer value.
 107:/usr/lib/avr/include/util/delay.h ****  */
 108:/usr/lib/avr/include/util/delay.h **** # define F_CPU 1000000UL
 109:/usr/lib/avr/include/util/delay.h **** #endif
 110:/usr/lib/avr/include/util/delay.h **** 
 111:/usr/lib/avr/include/util/delay.h **** #ifndef __OPTIMIZE__
 112:/usr/lib/avr/include/util/delay.h **** # warning "Compiler optimizations disabled; functions from <util/delay.h> won't work as designed"
 113:/usr/lib/avr/include/util/delay.h **** #endif
 114:/usr/lib/avr/include/util/delay.h **** 
 115:/usr/lib/avr/include/util/delay.h **** #if __HAS_DELAY_CYCLES && defined(__OPTIMIZE__) && \
 116:/usr/lib/avr/include/util/delay.h ****   !defined(__DELAY_BACKWARD_COMPATIBLE__) &&	   \
 117:/usr/lib/avr/include/util/delay.h ****   __STDC_HOSTED__
 118:/usr/lib/avr/include/util/delay.h **** #  include <math.h>
 119:/usr/lib/avr/include/util/delay.h **** #endif
 120:/usr/lib/avr/include/util/delay.h **** 
 121:/usr/lib/avr/include/util/delay.h **** /**
 122:/usr/lib/avr/include/util/delay.h ****    \ingroup util_delay
 123:/usr/lib/avr/include/util/delay.h **** 
 124:/usr/lib/avr/include/util/delay.h ****    Perform a delay of \c __ms milliseconds, using _delay_loop_2().
 125:/usr/lib/avr/include/util/delay.h **** 
 126:/usr/lib/avr/include/util/delay.h ****    The macro F_CPU is supposed to be defined to a
 127:/usr/lib/avr/include/util/delay.h ****    constant defining the CPU clock frequency (in Hertz).
 128:/usr/lib/avr/include/util/delay.h **** 
 129:/usr/lib/avr/include/util/delay.h ****    The maximal possible delay is 262.14 ms / F_CPU in MHz.
 130:/usr/lib/avr/include/util/delay.h **** 
 131:/usr/lib/avr/include/util/delay.h ****    When the user request delay which exceed the maximum possible one,
 132:/usr/lib/avr/include/util/delay.h ****    _delay_ms() provides a decreased resolution functionality. In this
 133:/usr/lib/avr/include/util/delay.h ****    mode _delay_ms() will work with a resolution of 1/10 ms, providing
 134:/usr/lib/avr/include/util/delay.h ****    delays up to 6.5535 seconds (independent from CPU frequency).  The
 135:/usr/lib/avr/include/util/delay.h ****    user will not be informed about decreased resolution.
 136:/usr/lib/avr/include/util/delay.h **** 
 137:/usr/lib/avr/include/util/delay.h ****    If the avr-gcc toolchain has __builtin_avr_delay_cycles()
 138:/usr/lib/avr/include/util/delay.h ****    support, maximal possible delay is 4294967.295 ms/ F_CPU in MHz. For
 139:/usr/lib/avr/include/util/delay.h ****    values greater than the maximal possible delay, overflows results in
 140:/usr/lib/avr/include/util/delay.h ****    no delay i.e., 0ms.
 141:/usr/lib/avr/include/util/delay.h **** 
 142:/usr/lib/avr/include/util/delay.h ****    Conversion of \c __ms into clock cycles may not always result in
 143:/usr/lib/avr/include/util/delay.h ****    integer.  By default, the clock cycles rounded up to next
 144:/usr/lib/avr/include/util/delay.h ****    integer. This ensures that the user gets at least \c __ms
 145:/usr/lib/avr/include/util/delay.h ****    microseconds of delay.
 146:/usr/lib/avr/include/util/delay.h **** 
 147:/usr/lib/avr/include/util/delay.h ****    Alternatively, by defining the macro \c __DELAY_ROUND_DOWN__, or
 148:/usr/lib/avr/include/util/delay.h ****    \c __DELAY_ROUND_CLOSEST__, before including this header file, the
 149:/usr/lib/avr/include/util/delay.h ****    algorithm can be made to round down, or round to closest integer,
 150:/usr/lib/avr/include/util/delay.h ****    respectively.
 151:/usr/lib/avr/include/util/delay.h **** 
 152:/usr/lib/avr/include/util/delay.h ****    \note
 153:/usr/lib/avr/include/util/delay.h **** 
 154:/usr/lib/avr/include/util/delay.h ****    The implementation of _delay_ms() based on
 155:/usr/lib/avr/include/util/delay.h ****    __builtin_avr_delay_cycles() is not backward compatible with older
 156:/usr/lib/avr/include/util/delay.h ****    implementations.  In order to get functionality backward compatible
 157:/usr/lib/avr/include/util/delay.h ****    with previous versions, the macro \c "__DELAY_BACKWARD_COMPATIBLE__"
 158:/usr/lib/avr/include/util/delay.h ****    must be defined before including this header file. Also, the
 159:/usr/lib/avr/include/util/delay.h ****    backward compatible algorithm will be chosen if the code is
 160:/usr/lib/avr/include/util/delay.h ****    compiled in a <em>freestanding environment</em> (GCC option
 161:/usr/lib/avr/include/util/delay.h ****    \c -ffreestanding), as the math functions required for rounding are
GAS LISTING /tmp/ccjciOO6.s 			page 19


 162:/usr/lib/avr/include/util/delay.h ****    not available to the compiler then.
 163:/usr/lib/avr/include/util/delay.h **** 
 164:/usr/lib/avr/include/util/delay.h ****  */
 165:/usr/lib/avr/include/util/delay.h **** void
 166:/usr/lib/avr/include/util/delay.h **** _delay_ms(double __ms)
 167:/usr/lib/avr/include/util/delay.h **** {
 168:/usr/lib/avr/include/util/delay.h **** 	double __tmp ;
 169:/usr/lib/avr/include/util/delay.h **** #if __HAS_DELAY_CYCLES && defined(__OPTIMIZE__) && \
 170:/usr/lib/avr/include/util/delay.h ****   !defined(__DELAY_BACKWARD_COMPATIBLE__) &&	   \
 171:/usr/lib/avr/include/util/delay.h ****   __STDC_HOSTED__
 172:/usr/lib/avr/include/util/delay.h **** 	uint32_t __ticks_dc;
 173:/usr/lib/avr/include/util/delay.h **** 	extern void __builtin_avr_delay_cycles(unsigned long);
 174:/usr/lib/avr/include/util/delay.h **** 	__tmp = ((F_CPU) / 1e3) * __ms;
 175:/usr/lib/avr/include/util/delay.h **** 
 176:/usr/lib/avr/include/util/delay.h **** 	#if defined(__DELAY_ROUND_DOWN__)
 177:/usr/lib/avr/include/util/delay.h **** 		__ticks_dc = (uint32_t)fabs(__tmp);
 178:/usr/lib/avr/include/util/delay.h **** 
 179:/usr/lib/avr/include/util/delay.h **** 	#elif defined(__DELAY_ROUND_CLOSEST__)
 180:/usr/lib/avr/include/util/delay.h **** 		__ticks_dc = (uint32_t)(fabs(__tmp)+0.5);
 181:/usr/lib/avr/include/util/delay.h **** 
 182:/usr/lib/avr/include/util/delay.h **** 	#else
 183:/usr/lib/avr/include/util/delay.h **** 		//round up by default
 184:/usr/lib/avr/include/util/delay.h **** 		__ticks_dc = (uint32_t)(ceil(fabs(__tmp)));
 185:/usr/lib/avr/include/util/delay.h **** 	#endif
 186:/usr/lib/avr/include/util/delay.h **** 
 187:/usr/lib/avr/include/util/delay.h **** 	__builtin_avr_delay_cycles(__ticks_dc);
 188:/usr/lib/avr/include/util/delay.h **** 
 189:/usr/lib/avr/include/util/delay.h **** #else
 190:/usr/lib/avr/include/util/delay.h **** 	uint16_t __ticks;
 191:/usr/lib/avr/include/util/delay.h **** 	__tmp = ((F_CPU) / 4e3) * __ms;
 192:/usr/lib/avr/include/util/delay.h **** 	if (__tmp < 1.0)
 193:/usr/lib/avr/include/util/delay.h **** 		__ticks = 1;
 194:/usr/lib/avr/include/util/delay.h **** 	else if (__tmp > 65535)
 195:/usr/lib/avr/include/util/delay.h **** 	{
 196:/usr/lib/avr/include/util/delay.h **** 		//	__ticks = requested delay in 1/10 ms
 197:/usr/lib/avr/include/util/delay.h **** 		__ticks = (uint16_t) (__ms * 10.0);
 198:/usr/lib/avr/include/util/delay.h **** 		while(__ticks)
 199:/usr/lib/avr/include/util/delay.h **** 		{
 200:/usr/lib/avr/include/util/delay.h **** 			// wait 1/10 ms
 201:/usr/lib/avr/include/util/delay.h **** 			_delay_loop_2(((F_CPU) / 4e3) / 10);
 202:/usr/lib/avr/include/util/delay.h **** 			__ticks --;
 203:/usr/lib/avr/include/util/delay.h **** 		}
 204:/usr/lib/avr/include/util/delay.h **** 		return;
 205:/usr/lib/avr/include/util/delay.h **** 	}
 206:/usr/lib/avr/include/util/delay.h **** 	else
 207:/usr/lib/avr/include/util/delay.h **** 		__ticks = (uint16_t)__tmp;
 208:/usr/lib/avr/include/util/delay.h **** 	_delay_loop_2(__ticks);
 209:/usr/lib/avr/include/util/delay.h **** #endif
 210:/usr/lib/avr/include/util/delay.h **** }
 211:/usr/lib/avr/include/util/delay.h **** 
 212:/usr/lib/avr/include/util/delay.h **** /**
 213:/usr/lib/avr/include/util/delay.h ****    \ingroup util_delay
 214:/usr/lib/avr/include/util/delay.h **** 
 215:/usr/lib/avr/include/util/delay.h ****    Perform a delay of \c __us microseconds, using _delay_loop_1().
 216:/usr/lib/avr/include/util/delay.h **** 
 217:/usr/lib/avr/include/util/delay.h ****    The macro F_CPU is supposed to be defined to a
 218:/usr/lib/avr/include/util/delay.h ****    constant defining the CPU clock frequency (in Hertz).
GAS LISTING /tmp/ccjciOO6.s 			page 20


 219:/usr/lib/avr/include/util/delay.h **** 
 220:/usr/lib/avr/include/util/delay.h ****    The maximal possible delay is 768 us / F_CPU in MHz.
 221:/usr/lib/avr/include/util/delay.h **** 
 222:/usr/lib/avr/include/util/delay.h ****    If the user requests a delay greater than the maximal possible one,
 223:/usr/lib/avr/include/util/delay.h ****    _delay_us() will automatically call _delay_ms() instead.  The user
 224:/usr/lib/avr/include/util/delay.h ****    will not be informed about this case.
 225:/usr/lib/avr/include/util/delay.h **** 
 226:/usr/lib/avr/include/util/delay.h ****    If the avr-gcc toolchain has __builtin_avr_delay_cycles()
 227:/usr/lib/avr/include/util/delay.h ****    support, maximal possible delay is 4294967.295 us/ F_CPU in MHz. For
 228:/usr/lib/avr/include/util/delay.h ****    values greater than the maximal possible delay, overflow results in
 229:/usr/lib/avr/include/util/delay.h ****    no delay i.e., 0us.
 230:/usr/lib/avr/include/util/delay.h **** 
 231:/usr/lib/avr/include/util/delay.h ****    Conversion of \c __us into clock cycles may not always result in
 232:/usr/lib/avr/include/util/delay.h ****    integer.  By default, the clock cycles rounded up to next
 233:/usr/lib/avr/include/util/delay.h ****    integer. This ensures that the user gets at least \c __us
 234:/usr/lib/avr/include/util/delay.h ****    microseconds of delay.
 235:/usr/lib/avr/include/util/delay.h **** 
 236:/usr/lib/avr/include/util/delay.h ****    Alternatively, by defining the macro \c __DELAY_ROUND_DOWN__, or
 237:/usr/lib/avr/include/util/delay.h ****    \c __DELAY_ROUND_CLOSEST__, before including this header file, the
 238:/usr/lib/avr/include/util/delay.h ****    algorithm can be made to round down, or round to closest integer,
 239:/usr/lib/avr/include/util/delay.h ****    respectively.
 240:/usr/lib/avr/include/util/delay.h **** 
 241:/usr/lib/avr/include/util/delay.h ****    \note
 242:/usr/lib/avr/include/util/delay.h **** 
 243:/usr/lib/avr/include/util/delay.h ****    The implementation of _delay_ms() based on
 244:/usr/lib/avr/include/util/delay.h ****    __builtin_avr_delay_cycles() is not backward compatible with older
 245:/usr/lib/avr/include/util/delay.h ****    implementations.  In order to get functionality backward compatible
 246:/usr/lib/avr/include/util/delay.h ****    with previous versions, the macro \c __DELAY_BACKWARD_COMPATIBLE__
 247:/usr/lib/avr/include/util/delay.h ****    must be defined before including this header file. Also, the
 248:/usr/lib/avr/include/util/delay.h ****    backward compatible algorithm will be chosen if the code is
 249:/usr/lib/avr/include/util/delay.h ****    compiled in a <em>freestanding environment</em> (GCC option
 250:/usr/lib/avr/include/util/delay.h ****    \c -ffreestanding), as the math functions required for rounding are
 251:/usr/lib/avr/include/util/delay.h ****    not available to the compiler then.
 252:/usr/lib/avr/include/util/delay.h **** 
 253:/usr/lib/avr/include/util/delay.h ****  */
 254:/usr/lib/avr/include/util/delay.h **** void
 255:/usr/lib/avr/include/util/delay.h **** _delay_us(double __us)
 256:/usr/lib/avr/include/util/delay.h **** {
 257:/usr/lib/avr/include/util/delay.h **** 	double __tmp ;
 258:/usr/lib/avr/include/util/delay.h **** #if __HAS_DELAY_CYCLES && defined(__OPTIMIZE__) && \
 259:/usr/lib/avr/include/util/delay.h ****   !defined(__DELAY_BACKWARD_COMPATIBLE__) &&	   \
 260:/usr/lib/avr/include/util/delay.h ****   __STDC_HOSTED__
 261:/usr/lib/avr/include/util/delay.h **** 	uint32_t __ticks_dc;
 262:/usr/lib/avr/include/util/delay.h **** 	extern void __builtin_avr_delay_cycles(unsigned long);
 263:/usr/lib/avr/include/util/delay.h **** 	__tmp = ((F_CPU) / 1e6) * __us;
 264:/usr/lib/avr/include/util/delay.h **** 
 265:/usr/lib/avr/include/util/delay.h **** 	#if defined(__DELAY_ROUND_DOWN__)
 266:/usr/lib/avr/include/util/delay.h **** 		__ticks_dc = (uint32_t)fabs(__tmp);
 267:/usr/lib/avr/include/util/delay.h **** 
 268:/usr/lib/avr/include/util/delay.h **** 	#elif defined(__DELAY_ROUND_CLOSEST__)
 269:/usr/lib/avr/include/util/delay.h **** 		__ticks_dc = (uint32_t)(fabs(__tmp)+0.5);
 270:/usr/lib/avr/include/util/delay.h **** 
 271:/usr/lib/avr/include/util/delay.h **** 	#else
 272:/usr/lib/avr/include/util/delay.h **** 		//round up by default
 273:/usr/lib/avr/include/util/delay.h **** 		__ticks_dc = (uint32_t)(ceil(fabs(__tmp)));
 274:/usr/lib/avr/include/util/delay.h **** 	#endif
 275:/usr/lib/avr/include/util/delay.h **** 
GAS LISTING /tmp/ccjciOO6.s 			page 21


 276:/usr/lib/avr/include/util/delay.h **** 	__builtin_avr_delay_cycles(__ticks_dc);
 492               		.loc 3 276 0
 493 0172 EFE3      		ldi r30,lo8(7999)
 494 0174 FFE1      		ldi r31,hi8(7999)
 495 0176 3197      	1:	sbiw r30,1
 496 0178 01F4      		brne 1b
 497 017a 00C0      		rjmp .
 498 017c 0000      		nop
 499 017e 0197      		sbiw r24,1
 500               	.LVL38:
 501 0180 00C0      		rjmp .L28
 502               	.LVL39:
 503               	.L30:
 504               	/* epilogue start */
 505               	.LBE92:
 506               	.LBE91:
  78:main.c        ****         _delay_us(1000);  
  79:main.c        **** } 
 507               		.loc 1 79 0
 508 0182 0895      		ret
 509               		.cfi_endproc
 510               	.LFE26:
 511               		.size	delay_ms, .-delay_ms
 512               	.global	compareArray
 513               		.type	compareArray, @function
 514               	compareArray:
 515               	.LFB27:
  80:main.c        **** 
  81:main.c        **** // Compare two arrays
  82:main.c        **** int compareArray(int a[6], int b[6]){
 516               		.loc 1 82 0
 517               		.cfi_startproc
 518               	.LVL40:
 519               	/* prologue: function */
 520               	/* frame size = 0 */
 521               	/* stack size = 0 */
 522               	.L__stack_usage = 0
 523 0184 DC01      		movw r26,r24
 524 0186 FB01      		movw r30,r22
  83:main.c        **** 	return ((a[0]==b[0])&&
  84:main.c        **** 			(a[1]==b[1])&&
  85:main.c        **** 			(a[2]==b[2])&&
  86:main.c        **** 			(a[3]==b[3])&&
  87:main.c        **** 			(a[4]==b[4])&&
 525               		.loc 1 87 0
 526 0188 2D91      		ld r18,X+
 527 018a 3C91      		ld r19,X
 528 018c 1197      		sbiw r26,1
 529 018e 8081      		ld r24,Z
 530 0190 9181      		ldd r25,Z+1
 531               	.LVL41:
 532 0192 2817      		cp r18,r24
 533 0194 3907      		cpc r19,r25
 534 0196 01F4      		brne .L38
  83:main.c        **** 	return ((a[0]==b[0])&&
 535               		.loc 1 83 0
 536 0198 1296      		adiw r26,2
GAS LISTING /tmp/ccjciOO6.s 			page 22


 537 019a 2D91      		ld r18,X+
 538 019c 3C91      		ld r19,X
 539 019e 1397      		sbiw r26,2+1
 540 01a0 8281      		ldd r24,Z+2
 541 01a2 9381      		ldd r25,Z+3
 542 01a4 2817      		cp r18,r24
 543 01a6 3907      		cpc r19,r25
 544 01a8 01F4      		brne .L38
  84:main.c        **** 			(a[2]==b[2])&&
 545               		.loc 1 84 0
 546 01aa 1496      		adiw r26,4
 547 01ac 2D91      		ld r18,X+
 548 01ae 3C91      		ld r19,X
 549 01b0 1597      		sbiw r26,4+1
 550 01b2 8481      		ldd r24,Z+4
 551 01b4 9581      		ldd r25,Z+5
 552 01b6 2817      		cp r18,r24
 553 01b8 3907      		cpc r19,r25
 554 01ba 01F4      		brne .L38
  85:main.c        **** 			(a[3]==b[3])&&
 555               		.loc 1 85 0
 556 01bc 1696      		adiw r26,6
 557 01be 2D91      		ld r18,X+
 558 01c0 3C91      		ld r19,X
 559 01c2 1797      		sbiw r26,6+1
 560 01c4 8681      		ldd r24,Z+6
 561 01c6 9781      		ldd r25,Z+7
 562 01c8 2817      		cp r18,r24
 563 01ca 3907      		cpc r19,r25
 564 01cc 01F4      		brne .L38
  86:main.c        **** 			(a[4]==b[4])&&
 565               		.loc 1 86 0
 566 01ce 1896      		adiw r26,8
 567 01d0 2D91      		ld r18,X+
 568 01d2 3C91      		ld r19,X
 569 01d4 1997      		sbiw r26,8+1
 570 01d6 8085      		ldd r24,Z+8
 571 01d8 9185      		ldd r25,Z+9
 572 01da 2817      		cp r18,r24
 573 01dc 3907      		cpc r19,r25
 574 01de 01F4      		brne .L38
 575               		.loc 1 87 0 discriminator 3
 576 01e0 21E0      		ldi r18,lo8(1)
 577 01e2 90E0      		ldi r25,0
 578 01e4 1A96      		adiw r26,10
 579 01e6 6D91      		ld r22,X+
 580 01e8 7C91      		ld r23,X
 581 01ea 1B97      		sbiw r26,10+1
 582               	.LVL42:
 583 01ec 4285      		ldd r20,Z+10
 584 01ee 5385      		ldd r21,Z+11
 585 01f0 6417      		cp r22,r20
 586 01f2 7507      		cpc r23,r21
 587 01f4 01F0      		breq .L33
 588 01f6 20E0      		ldi r18,0
 589               	.L33:
 590 01f8 822F      		mov r24,r18
GAS LISTING /tmp/ccjciOO6.s 			page 23


 591 01fa 0895      		ret
 592               	.LVL43:
 593               	.L38:
 594               		.loc 1 87 0 is_stmt 0
 595 01fc 80E0      		ldi r24,0
 596 01fe 90E0      		ldi r25,0
  88:main.c        **** 			(a[5]==b[5]));
  89:main.c        **** }
 597               		.loc 1 89 0 is_stmt 1
 598 0200 0895      		ret
 599               		.cfi_endproc
 600               	.LFE27:
 601               		.size	compareArray, .-compareArray
 602               	.global	signum
 603               		.type	signum, @function
 604               	signum:
 605               	.LFB28:
  90:main.c        **** 
  91:main.c        **** //Return only the sign of number n: 1, -1, or 0. 
  92:main.c        **** int signum(int n) { 
 606               		.loc 1 92 0
 607               		.cfi_startproc
 608               	.LVL44:
 609               	/* prologue: function */
 610               	/* frame size = 0 */
 611               	/* stack size = 0 */
 612               	.L__stack_usage = 0
 613 0202 AC01      		movw r20,r24
  93:main.c        **** 	return (n < 0) ? -1 : (n > 0) ? +1 : 0; 
 614               		.loc 1 93 0
 615 0204 97FD      		sbrc r25,7
 616 0206 00C0      		rjmp .L42
 617               		.loc 1 93 0 is_stmt 0 discriminator 1
 618 0208 21E0      		ldi r18,lo8(1)
 619 020a 90E0      		ldi r25,0
 620 020c 1416      		cp __zero_reg__,r20
 621 020e 1506      		cpc __zero_reg__,r21
 622 0210 04F0      		brlt .L41
 623 0212 20E0      		ldi r18,0
 624               	.L41:
 625 0214 822F      		mov r24,r18
 626               	.LVL45:
 627 0216 0895      		ret
 628               	.L42:
 629               		.loc 1 93 0
 630 0218 8FEF      		ldi r24,lo8(-1)
 631 021a 9FEF      		ldi r25,lo8(-1)
  94:main.c        **** }
 632               		.loc 1 94 0 is_stmt 1
 633 021c 0895      		ret
 634               		.cfi_endproc
 635               	.LFE28:
 636               		.size	signum, .-signum
 637               	.global	Config32MHzClock
 638               		.type	Config32MHzClock, @function
 639               	Config32MHzClock:
 640               	.LFB29:
GAS LISTING /tmp/ccjciOO6.s 			page 24


  95:main.c        **** 
  96:main.c        **** // Set Clock Speed to 32MHz (XMega)
  97:main.c        **** void Config32MHzClock(void)
  98:main.c        **** { 
 641               		.loc 1 98 0
 642               		.cfi_startproc
 643               	/* prologue: function */
 644               	/* frame size = 0 */
 645               	/* stack size = 0 */
 646               	.L__stack_usage = 0
  99:main.c        **** 	CCP = CCP_IOREG_gc; //Security Signature to modify clock 
 647               		.loc 1 99 0
 648 021e 88ED      		ldi r24,lo8(-40)
 649 0220 84BF      		out __CCP__,r24
 100:main.c        **** 	// initialize clock source to be 32MHz internal oscillator (no PLL) 
 101:main.c        **** 	OSC.CTRL = OSC_RC32MEN_bm; // enable internal 32MHz oscillator 
 650               		.loc 1 101 0
 651 0222 82E0      		ldi r24,lo8(2)
 652 0224 8093 5000 		sts 80,r24
 653               	.L44:
 102:main.c        **** 	while(!(OSC.STATUS & OSC_RC32MRDY_bm)); // wait for oscillator ready 
 654               		.loc 1 102 0 discriminator 1
 655 0228 8091 5100 		lds r24,81
 656 022c 81FF      		sbrs r24,1
 657 022e 00C0      		rjmp .L44
 103:main.c        **** 	CCP = CCP_IOREG_gc; //Security Signature to modify clock 
 658               		.loc 1 103 0
 659 0230 88ED      		ldi r24,lo8(-40)
 660 0232 84BF      		out __CCP__,r24
 104:main.c        **** 	CLK.CTRL = 0x01; //select sysclock 32MHz osc 
 661               		.loc 1 104 0
 662 0234 81E0      		ldi r24,lo8(1)
 663 0236 8093 4000 		sts 64,r24
 664 023a 0895      		ret
 665               		.cfi_endproc
 666               	.LFE29:
 667               		.size	Config32MHzClock, .-Config32MHzClock
 668               	.global	millis
 669               		.type	millis, @function
 670               	millis:
 671               	.LFB30:
 105:main.c        **** }
 106:main.c        **** 
 107:main.c        **** //Get time elapsed in millis 
 108:main.c        **** long millis(void){
 672               		.loc 1 108 0
 673               		.cfi_startproc
 674               	/* prologue: function */
 675               	/* frame size = 0 */
 676               	/* stack size = 0 */
 677               	.L__stack_usage = 0
 109:main.c        **** 	return elapsedMillis;
 678               		.loc 1 109 0
 679 023c 6091 0000 		lds r22,elapsedMillis
 680 0240 7091 0000 		lds r23,elapsedMillis+1
 681 0244 8091 0000 		lds r24,elapsedMillis+2
 682 0248 9091 0000 		lds r25,elapsedMillis+3
GAS LISTING /tmp/ccjciOO6.s 			page 25


 110:main.c        **** }
 683               		.loc 1 110 0
 684 024c 0895      		ret
 685               		.cfi_endproc
 686               	.LFE30:
 687               		.size	millis, .-millis
 688               	.global	blink
 689               		.type	blink, @function
 690               	blink:
 691               	.LFB31:
 111:main.c        **** 
 112:main.c        **** void blink(int myVal){
 692               		.loc 1 112 0
 693               		.cfi_startproc
 694               	.LVL46:
 695 024e FF92      		push r15
 696               	.LCFI15:
 697               		.cfi_def_cfa_offset 3
 698               		.cfi_offset 15, -2
 699 0250 0F93      		push r16
 700               	.LCFI16:
 701               		.cfi_def_cfa_offset 4
 702               		.cfi_offset 16, -3
 703 0252 1F93      		push r17
 704               	.LCFI17:
 705               		.cfi_def_cfa_offset 5
 706               		.cfi_offset 17, -4
 707 0254 CF93      		push r28
 708               	.LCFI18:
 709               		.cfi_def_cfa_offset 6
 710               		.cfi_offset 28, -5
 711 0256 DF93      		push r29
 712               	.LCFI19:
 713               		.cfi_def_cfa_offset 7
 714               		.cfi_offset 29, -6
 715               	/* prologue: function */
 716               	/* frame size = 0 */
 717               	/* stack size = 5 */
 718               	.L__stack_usage = 5
 719 0258 EC01      		movw r28,r24
 113:main.c        **** 		PORTE.OUTSET = _BV(0);
 720               		.loc 1 113 0
 721 025a 00E8      		ldi r16,lo8(-128)
 722 025c 16E0      		ldi r17,lo8(6)
 723 025e FF24      		clr r15
 724 0260 F394      		inc r15
 725 0262 F801      		movw r30,r16
 726 0264 F582      		std Z+5,r15
 114:main.c        ****         delay_ms(myVal);
 727               		.loc 1 114 0
 728 0266 0E94 0000 		call delay_ms
 729               	.LVL47:
 115:main.c        ****         PORTE.OUTCLR = _BV(0);
 730               		.loc 1 115 0
 731 026a F801      		movw r30,r16
 732 026c F682      		std Z+6,r15
 116:main.c        ****         delay_ms(myVal);
GAS LISTING /tmp/ccjciOO6.s 			page 26


 733               		.loc 1 116 0
 734 026e CE01      		movw r24,r28
 735               	/* epilogue start */
 117:main.c        **** }
 736               		.loc 1 117 0
 737 0270 DF91      		pop r29
 738 0272 CF91      		pop r28
 739               	.LVL48:
 740 0274 1F91      		pop r17
 741 0276 0F91      		pop r16
 742 0278 FF90      		pop r15
 116:main.c        ****         delay_ms(myVal);
 743               		.loc 1 116 0
 744 027a 0C94 0000 		jmp delay_ms
 745               	.LVL49:
 746               		.cfi_endproc
 747               	.LFE31:
 748               		.size	blink, .-blink
 749               	.global	blinkN
 750               		.type	blinkN, @function
 751               	blinkN:
 752               	.LFB32:
 118:main.c        **** 
 119:main.c        **** void blinkN(int n){
 753               		.loc 1 119 0
 754               		.cfi_startproc
 755               	.LVL50:
 756 027e 0F93      		push r16
 757               	.LCFI20:
 758               		.cfi_def_cfa_offset 3
 759               		.cfi_offset 16, -2
 760 0280 1F93      		push r17
 761               	.LCFI21:
 762               		.cfi_def_cfa_offset 4
 763               		.cfi_offset 17, -3
 764 0282 CF93      		push r28
 765               	.LCFI22:
 766               		.cfi_def_cfa_offset 5
 767               		.cfi_offset 28, -4
 768 0284 DF93      		push r29
 769               	.LCFI23:
 770               		.cfi_def_cfa_offset 6
 771               		.cfi_offset 29, -5
 772               	/* prologue: function */
 773               	/* frame size = 0 */
 774               	/* stack size = 4 */
 775               	.L__stack_usage = 4
 776 0286 8C01      		movw r16,r24
 777               	.LVL51:
 120:main.c        ****     int i;
 121:main.c        **** 	for (i=0;i<n;i++){
 778               		.loc 1 121 0
 779 0288 C0E0      		ldi r28,0
 780 028a D0E0      		ldi r29,0
 781               	.LVL52:
 782               	.L50:
 783               		.loc 1 121 0 is_stmt 0 discriminator 1
GAS LISTING /tmp/ccjciOO6.s 			page 27


 784 028c C017      		cp r28,r16
 785 028e D107      		cpc r29,r17
 786 0290 04F4      		brge .L52
 122:main.c        **** 		blink(50);
 787               		.loc 1 122 0 is_stmt 1 discriminator 3
 788 0292 82E3      		ldi r24,lo8(50)
 789 0294 90E0      		ldi r25,0
 790 0296 0E94 0000 		call blink
 791               	.LVL53:
 121:main.c        **** 		blink(50);
 792               		.loc 1 121 0 discriminator 3
 793 029a 2196      		adiw r28,1
 794               	.LVL54:
 795 029c 00C0      		rjmp .L50
 796               	.L52:
 797               	/* epilogue start */
 123:main.c        **** 	}
 124:main.c        **** }
 798               		.loc 1 124 0
 799 029e DF91      		pop r29
 800 02a0 CF91      		pop r28
 801               	.LVL55:
 802 02a2 1F91      		pop r17
 803 02a4 0F91      		pop r16
 804               	.LVL56:
 805 02a6 0895      		ret
 806               		.cfi_endproc
 807               	.LFE32:
 808               		.size	blinkN, .-blinkN
 809               	.global	setPin
 810               		.type	setPin, @function
 811               	setPin:
 812               	.LFB33:
 125:main.c        **** 
 126:main.c        **** // Set selected pin to 1/HIGH 
 127:main.c        **** // TODO: rest of ports
 128:main.c        **** void setPin(char portNum, int pinNum){
 813               		.loc 1 128 0
 814               		.cfi_startproc
 815               	.LVL57:
 816               	/* prologue: function */
 817               	/* frame size = 0 */
 818               	/* stack size = 0 */
 819               	.L__stack_usage = 0
 129:main.c        **** 	switch (portNum){
 820               		.loc 1 129 0
 821 02a8 8234      		cpi r24,lo8(66)
 822 02aa 01F0      		breq .L55
 823 02ac 00F4      		brsh .L56
 824 02ae 8134      		cpi r24,lo8(65)
 825 02b0 01F0      		breq .L57
 826 02b2 0895      		ret
 827               	.L56:
 828 02b4 8334      		cpi r24,lo8(67)
 829 02b6 01F0      		breq .L58
 830 02b8 8434      		cpi r24,lo8(68)
 831 02ba 01F4      		brne .+2
GAS LISTING /tmp/ccjciOO6.s 			page 28


 832 02bc 00C0      		rjmp .L59
 833 02be 0895      		ret
 834               	.L57:
 130:main.c        **** 		//PORTA 
 131:main.c        **** 		case 'A':{
 132:main.c        **** 			switch (pinNum){
 835               		.loc 1 132 0
 836 02c0 6830      		cpi r22,8
 837 02c2 7105      		cpc r23,__zero_reg__
 838 02c4 00F0      		brlo .+2
 839 02c6 00C0      		rjmp .L53
 840 02c8 FB01      		movw r30,r22
 841 02ca E050      		subi r30,lo8(-(gs(.L61)))
 842 02cc F040      		sbci r31,hi8(-(gs(.L61)))
 843 02ce 0C94 0000 		jmp __tablejump2__
 844               		.section	.progmem.gcc_sw_table,"a",@progbits
 845               		.p2align	1
 846               	.L61:
 847 0000 0000      		.word gs(.L60)
 848 0002 0000      		.word gs(.L62)
 849 0004 0000      		.word gs(.L63)
 850 0006 0000      		.word gs(.L64)
 851 0008 0000      		.word gs(.L65)
 852 000a 0000      		.word gs(.L66)
 853 000c 0000      		.word gs(.L67)
 854 000e 0000      		.word gs(.L68)
 855               		.text
 856               	.L60:
 133:main.c        **** 				case 0: set_it(PORTA_OUTSET,BIT(0)); break; 
 857               		.loc 1 133 0
 858 02d2 81E0      		ldi r24,lo8(1)
 859               	.LVL58:
 860 02d4 00C0      		rjmp .L89
 861               	.LVL59:
 862               	.L62:
 134:main.c        **** 				case 1: set_it(PORTA_OUTSET,BIT(1)); break;
 863               		.loc 1 134 0
 864 02d6 82E0      		ldi r24,lo8(2)
 865               	.LVL60:
 866               	.L89:
 867 02d8 8093 0506 		sts 1541,r24
 868 02dc 0895      		ret
 869               	.LVL61:
 870               	.L63:
 135:main.c        **** 				case 2: set_it(PORTA_OUTSET,BIT(2)); break;
 871               		.loc 1 135 0
 872 02de 84E0      		ldi r24,lo8(4)
 873               	.LVL62:
 874 02e0 00C0      		rjmp .L89
 875               	.LVL63:
 876               	.L64:
 136:main.c        **** 				case 3: set_it(PORTA_OUTSET,BIT(3)); break;
 877               		.loc 1 136 0
 878 02e2 88E0      		ldi r24,lo8(8)
 879               	.LVL64:
 880 02e4 00C0      		rjmp .L89
 881               	.LVL65:
GAS LISTING /tmp/ccjciOO6.s 			page 29


 882               	.L65:
 137:main.c        **** 				case 4: set_it(PORTA_OUTSET,BIT(4)); break;
 883               		.loc 1 137 0
 884 02e6 80E1      		ldi r24,lo8(16)
 885               	.LVL66:
 886 02e8 00C0      		rjmp .L89
 887               	.LVL67:
 888               	.L66:
 138:main.c        **** 				case 5: set_it(PORTA_OUTSET,BIT(5)); break;
 889               		.loc 1 138 0
 890 02ea 80E2      		ldi r24,lo8(32)
 891               	.LVL68:
 892 02ec 00C0      		rjmp .L89
 893               	.LVL69:
 894               	.L67:
 139:main.c        **** 				case 6: set_it(PORTA_OUTSET,BIT(6)); break;
 895               		.loc 1 139 0
 896 02ee 80E4      		ldi r24,lo8(64)
 897               	.LVL70:
 898 02f0 00C0      		rjmp .L89
 899               	.LVL71:
 900               	.L68:
 140:main.c        **** 				case 7: set_it(PORTA_OUTSET,BIT(7)); break;
 901               		.loc 1 140 0
 902 02f2 80E8      		ldi r24,lo8(-128)
 903               	.LVL72:
 904 02f4 00C0      		rjmp .L89
 905               	.LVL73:
 906               	.L55:
 141:main.c        **** 			}
 142:main.c        **** 		break;
 143:main.c        **** 		}
 144:main.c        **** 		//PORTB
 145:main.c        **** 		case 'B':{
 146:main.c        **** 			switch (pinNum){
 907               		.loc 1 146 0
 908 02f6 6130      		cpi r22,1
 909 02f8 7105      		cpc r23,__zero_reg__
 910 02fa 01F0      		breq .L69
 911 02fc 04F4      		brge .L70
 912 02fe 672B      		or r22,r23
 913 0300 01F0      		breq .L71
 914 0302 0895      		ret
 915               	.L70:
 916 0304 6230      		cpi r22,2
 917 0306 7105      		cpc r23,__zero_reg__
 918 0308 01F0      		breq .L72
 919 030a 6330      		cpi r22,3
 920 030c 7105      		cpc r23,__zero_reg__
 921 030e 01F0      		breq .L73
 922 0310 0895      		ret
 923               	.L71:
 147:main.c        **** 				case 0: set_it(PORTB_OUTSET,BIT(0)); break;
 924               		.loc 1 147 0
 925 0312 81E0      		ldi r24,lo8(1)
 926               	.LVL74:
 927 0314 00C0      		rjmp .L91
GAS LISTING /tmp/ccjciOO6.s 			page 30


 928               	.LVL75:
 929               	.L69:
 148:main.c        **** 				case 1: set_it(PORTB_OUTSET,BIT(1)); break;
 930               		.loc 1 148 0
 931 0316 82E0      		ldi r24,lo8(2)
 932               	.LVL76:
 933 0318 00C0      		rjmp .L91
 934               	.LVL77:
 935               	.L72:
 149:main.c        **** 				case 2: set_it(PORTB_OUTSET,BIT(2)); break;
 936               		.loc 1 149 0
 937 031a 84E0      		ldi r24,lo8(4)
 938               	.LVL78:
 939 031c 00C0      		rjmp .L91
 940               	.LVL79:
 941               	.L73:
 150:main.c        **** 				case 3: set_it(PORTB_OUTSET,BIT(3)); break;
 942               		.loc 1 150 0
 943 031e 88E0      		ldi r24,lo8(8)
 944               	.LVL80:
 945               	.L91:
 946 0320 8093 2506 		sts 1573,r24
 947 0324 0895      		ret
 948               	.LVL81:
 949               	.L58:
 151:main.c        **** 			}
 152:main.c        **** 		break;
 153:main.c        **** 		}
 154:main.c        **** 		//PORTC
 155:main.c        **** 		case 'C':{
 156:main.c        **** 			switch (pinNum){
 950               		.loc 1 156 0
 951 0326 6830      		cpi r22,8
 952 0328 7105      		cpc r23,__zero_reg__
 953 032a 00F4      		brsh .L53
 954 032c FB01      		movw r30,r22
 955 032e E050      		subi r30,lo8(-(gs(.L75)))
 956 0330 F040      		sbci r31,hi8(-(gs(.L75)))
 957 0332 0C94 0000 		jmp __tablejump2__
 958               		.section	.progmem.gcc_sw_table,"a",@progbits
 959               		.p2align	1
 960               	.L75:
 961 0010 0000      		.word gs(.L74)
 962 0012 0000      		.word gs(.L76)
 963 0014 0000      		.word gs(.L77)
 964 0016 0000      		.word gs(.L78)
 965 0018 0000      		.word gs(.L79)
 966 001a 0000      		.word gs(.L80)
 967 001c 0000      		.word gs(.L81)
 968 001e 0000      		.word gs(.L82)
 969               		.text
 970               	.L74:
 157:main.c        **** 				case 0: set_it(PORTC_OUTSET,BIT(0)); break;
 971               		.loc 1 157 0
 972 0336 81E0      		ldi r24,lo8(1)
 973               	.LVL82:
 974 0338 00C0      		rjmp .L90
GAS LISTING /tmp/ccjciOO6.s 			page 31


 975               	.LVL83:
 976               	.L76:
 158:main.c        **** 				case 1: set_it(PORTC_OUTSET,BIT(1)); break;
 977               		.loc 1 158 0
 978 033a 82E0      		ldi r24,lo8(2)
 979               	.LVL84:
 980 033c 00C0      		rjmp .L90
 981               	.LVL85:
 982               	.L77:
 159:main.c        **** 				case 2: set_it(PORTC_OUTSET,BIT(2)); break;
 983               		.loc 1 159 0
 984 033e 84E0      		ldi r24,lo8(4)
 985               	.LVL86:
 986 0340 00C0      		rjmp .L90
 987               	.LVL87:
 988               	.L78:
 160:main.c        **** 				case 3: set_it(PORTC_OUTSET,BIT(3)); break;
 989               		.loc 1 160 0
 990 0342 88E0      		ldi r24,lo8(8)
 991               	.LVL88:
 992 0344 00C0      		rjmp .L90
 993               	.LVL89:
 994               	.L79:
 161:main.c        **** 				case 4: set_it(PORTC_OUTSET,BIT(4)); break;
 995               		.loc 1 161 0
 996 0346 80E1      		ldi r24,lo8(16)
 997               	.LVL90:
 998 0348 00C0      		rjmp .L90
 999               	.LVL91:
 1000               	.L80:
 162:main.c        **** 				case 5: set_it(PORTC_OUTSET,BIT(5)); break;
 1001               		.loc 1 162 0
 1002 034a 80E2      		ldi r24,lo8(32)
 1003               	.LVL92:
 1004 034c 00C0      		rjmp .L90
 1005               	.LVL93:
 1006               	.L81:
 163:main.c        **** 				case 6: set_it(PORTC_OUTSET,BIT(6)); break;
 1007               		.loc 1 163 0
 1008 034e 80E4      		ldi r24,lo8(64)
 1009               	.LVL94:
 1010 0350 00C0      		rjmp .L90
 1011               	.LVL95:
 1012               	.L82:
 164:main.c        **** 				case 7: set_it(PORTC_OUTSET,BIT(7)); break;
 1013               		.loc 1 164 0
 1014 0352 80E8      		ldi r24,lo8(-128)
 1015               	.LVL96:
 1016               	.L90:
 1017 0354 8093 4506 		sts 1605,r24
 1018 0358 0895      		ret
 1019               	.LVL97:
 1020               	.L59:
 165:main.c        **** 			}
 166:main.c        **** 		break;
 167:main.c        **** 		}
 168:main.c        **** 		//PORTD
GAS LISTING /tmp/ccjciOO6.s 			page 32


 169:main.c        **** 		case 'D':{
 170:main.c        **** 			switch (pinNum){
 1021               		.loc 1 170 0
 1022 035a 6130      		cpi r22,1
 1023 035c 7105      		cpc r23,__zero_reg__
 1024 035e 01F0      		breq .L83
 1025 0360 04F4      		brge .L84
 1026 0362 672B      		or r22,r23
 1027 0364 01F0      		breq .L85
 1028 0366 0895      		ret
 1029               	.L84:
 1030 0368 6230      		cpi r22,2
 1031 036a 7105      		cpc r23,__zero_reg__
 1032 036c 01F0      		breq .L86
 1033 036e 6330      		cpi r22,3
 1034 0370 7105      		cpc r23,__zero_reg__
 1035 0372 01F0      		breq .L87
 1036 0374 0895      		ret
 1037               	.L85:
 171:main.c        **** 				case 0: set_it(PORTD_OUTSET,BIT(0)); break;
 1038               		.loc 1 171 0
 1039 0376 81E0      		ldi r24,lo8(1)
 1040               	.LVL98:
 1041 0378 00C0      		rjmp .L88
 1042               	.LVL99:
 1043               	.L83:
 172:main.c        **** 				case 1: set_it(PORTD_OUTSET,BIT(1)); break;
 1044               		.loc 1 172 0
 1045 037a 82E0      		ldi r24,lo8(2)
 1046               	.LVL100:
 1047 037c 00C0      		rjmp .L88
 1048               	.LVL101:
 1049               	.L86:
 173:main.c        **** 				case 2: set_it(PORTD_OUTSET,BIT(2)); break;
 1050               		.loc 1 173 0
 1051 037e 84E0      		ldi r24,lo8(4)
 1052               	.LVL102:
 1053 0380 00C0      		rjmp .L88
 1054               	.LVL103:
 1055               	.L87:
 174:main.c        **** 				case 3: set_it(PORTD_OUTSET,BIT(3)); break;
 1056               		.loc 1 174 0
 1057 0382 88E0      		ldi r24,lo8(8)
 1058               	.LVL104:
 1059               	.L88:
 1060 0384 8093 6506 		sts 1637,r24
 1061               	.L53:
 1062 0388 0895      		ret
 1063               		.cfi_endproc
 1064               	.LFE33:
 1065               		.size	setPin, .-setPin
 1066               	.global	clearPin
 1067               		.type	clearPin, @function
 1068               	clearPin:
 1069               	.LFB34:
 175:main.c        **** 			}
 176:main.c        **** 		break;
GAS LISTING /tmp/ccjciOO6.s 			page 33


 177:main.c        **** 		}
 178:main.c        **** 	}
 179:main.c        **** }
 180:main.c        **** 
 181:main.c        **** // Set selected pin to 0/LOW 
 182:main.c        **** // TODO: Rest of ports
 183:main.c        **** void clearPin(char portNum, int pinNum){
 1070               		.loc 1 183 0
 1071               		.cfi_startproc
 1072               	.LVL105:
 1073               	/* prologue: function */
 1074               	/* frame size = 0 */
 1075               	/* stack size = 0 */
 1076               	.L__stack_usage = 0
 184:main.c        **** 	switch (portNum){
 1077               		.loc 1 184 0
 1078 038a 8234      		cpi r24,lo8(66)
 1079 038c 01F0      		breq .L94
 1080 038e 00F4      		brsh .L95
 1081 0390 8134      		cpi r24,lo8(65)
 1082 0392 01F0      		breq .L96
 1083 0394 0895      		ret
 1084               	.L95:
 1085 0396 8334      		cpi r24,lo8(67)
 1086 0398 01F0      		breq .L97
 1087 039a 8434      		cpi r24,lo8(68)
 1088 039c 01F4      		brne .+2
 1089 039e 00C0      		rjmp .L98
 1090 03a0 0895      		ret
 1091               	.L96:
 185:main.c        **** 		//PORTA
 186:main.c        **** 		case 'A':{
 187:main.c        **** 			switch (pinNum){
 1092               		.loc 1 187 0
 1093 03a2 6830      		cpi r22,8
 1094 03a4 7105      		cpc r23,__zero_reg__
 1095 03a6 00F0      		brlo .+2
 1096 03a8 00C0      		rjmp .L92
 1097 03aa FB01      		movw r30,r22
 1098 03ac E050      		subi r30,lo8(-(gs(.L100)))
 1099 03ae F040      		sbci r31,hi8(-(gs(.L100)))
 1100 03b0 0C94 0000 		jmp __tablejump2__
 1101               		.section	.progmem.gcc_sw_table,"a",@progbits
 1102               		.p2align	1
 1103               	.L100:
 1104 0020 0000      		.word gs(.L99)
 1105 0022 0000      		.word gs(.L101)
 1106 0024 0000      		.word gs(.L102)
 1107 0026 0000      		.word gs(.L103)
 1108 0028 0000      		.word gs(.L104)
 1109 002a 0000      		.word gs(.L105)
 1110 002c 0000      		.word gs(.L106)
 1111 002e 0000      		.word gs(.L107)
 1112               		.text
 1113               	.L99:
 188:main.c        **** 				case 0: set_it(PORTA_OUTCLR,BIT(0)); break; 
 1114               		.loc 1 188 0
GAS LISTING /tmp/ccjciOO6.s 			page 34


 1115 03b4 81E0      		ldi r24,lo8(1)
 1116               	.LVL106:
 1117 03b6 00C0      		rjmp .L128
 1118               	.LVL107:
 1119               	.L101:
 189:main.c        **** 				case 1: set_it(PORTA_OUTCLR,BIT(1)); break;
 1120               		.loc 1 189 0
 1121 03b8 82E0      		ldi r24,lo8(2)
 1122               	.LVL108:
 1123               	.L128:
 1124 03ba 8093 0606 		sts 1542,r24
 1125 03be 0895      		ret
 1126               	.LVL109:
 1127               	.L102:
 190:main.c        **** 				case 2: set_it(PORTA_OUTCLR,BIT(2)); break;
 1128               		.loc 1 190 0
 1129 03c0 84E0      		ldi r24,lo8(4)
 1130               	.LVL110:
 1131 03c2 00C0      		rjmp .L128
 1132               	.LVL111:
 1133               	.L103:
 191:main.c        **** 				case 3: set_it(PORTA_OUTCLR,BIT(3)); break;
 1134               		.loc 1 191 0
 1135 03c4 88E0      		ldi r24,lo8(8)
 1136               	.LVL112:
 1137 03c6 00C0      		rjmp .L128
 1138               	.LVL113:
 1139               	.L104:
 192:main.c        **** 				case 4: set_it(PORTA_OUTCLR,BIT(4)); break;
 1140               		.loc 1 192 0
 1141 03c8 80E1      		ldi r24,lo8(16)
 1142               	.LVL114:
 1143 03ca 00C0      		rjmp .L128
 1144               	.LVL115:
 1145               	.L105:
 193:main.c        **** 				case 5: set_it(PORTA_OUTCLR,BIT(5)); break;
 1146               		.loc 1 193 0
 1147 03cc 80E2      		ldi r24,lo8(32)
 1148               	.LVL116:
 1149 03ce 00C0      		rjmp .L128
 1150               	.LVL117:
 1151               	.L106:
 194:main.c        **** 				case 6: set_it(PORTA_OUTCLR,BIT(6)); break;
 1152               		.loc 1 194 0
 1153 03d0 80E4      		ldi r24,lo8(64)
 1154               	.LVL118:
 1155 03d2 00C0      		rjmp .L128
 1156               	.LVL119:
 1157               	.L107:
 195:main.c        **** 				case 7: set_it(PORTA_OUTCLR,BIT(7)); break;
 1158               		.loc 1 195 0
 1159 03d4 80E8      		ldi r24,lo8(-128)
 1160               	.LVL120:
 1161 03d6 00C0      		rjmp .L128
 1162               	.LVL121:
 1163               	.L94:
 196:main.c        **** 			}
GAS LISTING /tmp/ccjciOO6.s 			page 35


 197:main.c        **** 		break;
 198:main.c        **** 		}
 199:main.c        **** 				//PORTB
 200:main.c        **** 		case 'B':{
 201:main.c        **** 			switch (pinNum){
 1164               		.loc 1 201 0
 1165 03d8 6130      		cpi r22,1
 1166 03da 7105      		cpc r23,__zero_reg__
 1167 03dc 01F0      		breq .L108
 1168 03de 04F4      		brge .L109
 1169 03e0 672B      		or r22,r23
 1170 03e2 01F0      		breq .L110
 1171 03e4 0895      		ret
 1172               	.L109:
 1173 03e6 6230      		cpi r22,2
 1174 03e8 7105      		cpc r23,__zero_reg__
 1175 03ea 01F0      		breq .L111
 1176 03ec 6330      		cpi r22,3
 1177 03ee 7105      		cpc r23,__zero_reg__
 1178 03f0 01F0      		breq .L112
 1179 03f2 0895      		ret
 1180               	.L110:
 202:main.c        **** 				case 0: set_it(PORTB_OUTCLR,BIT(0)); break;
 1181               		.loc 1 202 0
 1182 03f4 81E0      		ldi r24,lo8(1)
 1183               	.LVL122:
 1184 03f6 00C0      		rjmp .L130
 1185               	.LVL123:
 1186               	.L108:
 203:main.c        **** 				case 1: set_it(PORTB_OUTCLR,BIT(1)); break;
 1187               		.loc 1 203 0
 1188 03f8 82E0      		ldi r24,lo8(2)
 1189               	.LVL124:
 1190 03fa 00C0      		rjmp .L130
 1191               	.LVL125:
 1192               	.L111:
 204:main.c        **** 				case 2: set_it(PORTB_OUTCLR,BIT(2)); break;
 1193               		.loc 1 204 0
 1194 03fc 84E0      		ldi r24,lo8(4)
 1195               	.LVL126:
 1196 03fe 00C0      		rjmp .L130
 1197               	.LVL127:
 1198               	.L112:
 205:main.c        **** 				case 3: set_it(PORTB_OUTCLR,BIT(3)); break;
 1199               		.loc 1 205 0
 1200 0400 88E0      		ldi r24,lo8(8)
 1201               	.LVL128:
 1202               	.L130:
 1203 0402 8093 2606 		sts 1574,r24
 1204 0406 0895      		ret
 1205               	.LVL129:
 1206               	.L97:
 206:main.c        **** 			}
 207:main.c        **** 		break;
 208:main.c        **** 		}
 209:main.c        **** 		//PORTC
 210:main.c        **** 		case 'C':{
GAS LISTING /tmp/ccjciOO6.s 			page 36


 211:main.c        **** 			switch (pinNum){
 1207               		.loc 1 211 0
 1208 0408 6830      		cpi r22,8
 1209 040a 7105      		cpc r23,__zero_reg__
 1210 040c 00F4      		brsh .L92
 1211 040e FB01      		movw r30,r22
 1212 0410 E050      		subi r30,lo8(-(gs(.L114)))
 1213 0412 F040      		sbci r31,hi8(-(gs(.L114)))
 1214 0414 0C94 0000 		jmp __tablejump2__
 1215               		.section	.progmem.gcc_sw_table,"a",@progbits
 1216               		.p2align	1
 1217               	.L114:
 1218 0030 0000      		.word gs(.L113)
 1219 0032 0000      		.word gs(.L115)
 1220 0034 0000      		.word gs(.L116)
 1221 0036 0000      		.word gs(.L117)
 1222 0038 0000      		.word gs(.L118)
 1223 003a 0000      		.word gs(.L119)
 1224 003c 0000      		.word gs(.L120)
 1225 003e 0000      		.word gs(.L121)
 1226               		.text
 1227               	.L113:
 212:main.c        **** 				case 0: set_it(PORTC_OUTCLR,BIT(0)); break;
 1228               		.loc 1 212 0
 1229 0418 81E0      		ldi r24,lo8(1)
 1230               	.LVL130:
 1231 041a 00C0      		rjmp .L129
 1232               	.LVL131:
 1233               	.L115:
 213:main.c        **** 				case 1: set_it(PORTC_OUTCLR,BIT(1)); break;
 1234               		.loc 1 213 0
 1235 041c 82E0      		ldi r24,lo8(2)
 1236               	.LVL132:
 1237 041e 00C0      		rjmp .L129
 1238               	.LVL133:
 1239               	.L116:
 214:main.c        **** 				case 2: set_it(PORTC_OUTCLR,BIT(2)); break;
 1240               		.loc 1 214 0
 1241 0420 84E0      		ldi r24,lo8(4)
 1242               	.LVL134:
 1243 0422 00C0      		rjmp .L129
 1244               	.LVL135:
 1245               	.L117:
 215:main.c        **** 				case 3: set_it(PORTC_OUTCLR,BIT(3)); break;
 1246               		.loc 1 215 0
 1247 0424 88E0      		ldi r24,lo8(8)
 1248               	.LVL136:
 1249 0426 00C0      		rjmp .L129
 1250               	.LVL137:
 1251               	.L118:
 216:main.c        **** 				case 4: set_it(PORTC_OUTCLR,BIT(4)); break;
 1252               		.loc 1 216 0
 1253 0428 80E1      		ldi r24,lo8(16)
 1254               	.LVL138:
 1255 042a 00C0      		rjmp .L129
 1256               	.LVL139:
 1257               	.L119:
GAS LISTING /tmp/ccjciOO6.s 			page 37


 217:main.c        **** 				case 5: set_it(PORTC_OUTCLR,BIT(5)); break;
 1258               		.loc 1 217 0
 1259 042c 80E2      		ldi r24,lo8(32)
 1260               	.LVL140:
 1261 042e 00C0      		rjmp .L129
 1262               	.LVL141:
 1263               	.L120:
 218:main.c        **** 				case 6: set_it(PORTC_OUTCLR,BIT(6)); break;
 1264               		.loc 1 218 0
 1265 0430 80E4      		ldi r24,lo8(64)
 1266               	.LVL142:
 1267 0432 00C0      		rjmp .L129
 1268               	.LVL143:
 1269               	.L121:
 219:main.c        **** 				case 7: set_it(PORTC_OUTCLR,BIT(7)); break;
 1270               		.loc 1 219 0
 1271 0434 80E8      		ldi r24,lo8(-128)
 1272               	.LVL144:
 1273               	.L129:
 1274 0436 8093 4606 		sts 1606,r24
 1275 043a 0895      		ret
 1276               	.LVL145:
 1277               	.L98:
 220:main.c        **** 			}
 221:main.c        **** 		break;
 222:main.c        **** 		}
 223:main.c        **** 		//PORTD
 224:main.c        **** 		case 'D':{
 225:main.c        **** 			switch (pinNum){
 1278               		.loc 1 225 0
 1279 043c 6130      		cpi r22,1
 1280 043e 7105      		cpc r23,__zero_reg__
 1281 0440 01F0      		breq .L122
 1282 0442 04F4      		brge .L123
 1283 0444 672B      		or r22,r23
 1284 0446 01F0      		breq .L124
 1285 0448 0895      		ret
 1286               	.L123:
 1287 044a 6230      		cpi r22,2
 1288 044c 7105      		cpc r23,__zero_reg__
 1289 044e 01F0      		breq .L125
 1290 0450 6330      		cpi r22,3
 1291 0452 7105      		cpc r23,__zero_reg__
 1292 0454 01F0      		breq .L126
 1293 0456 0895      		ret
 1294               	.L124:
 226:main.c        **** 				case 0: set_it(PORTD_OUTCLR,BIT(0)); break;
 1295               		.loc 1 226 0
 1296 0458 81E0      		ldi r24,lo8(1)
 1297               	.LVL146:
 1298 045a 00C0      		rjmp .L127
 1299               	.LVL147:
 1300               	.L122:
 227:main.c        **** 				case 1: set_it(PORTD_OUTCLR,BIT(1)); break;
 1301               		.loc 1 227 0
 1302 045c 82E0      		ldi r24,lo8(2)
 1303               	.LVL148:
GAS LISTING /tmp/ccjciOO6.s 			page 38


 1304 045e 00C0      		rjmp .L127
 1305               	.LVL149:
 1306               	.L125:
 228:main.c        **** 				case 2: set_it(PORTD_OUTCLR,BIT(2)); break;
 1307               		.loc 1 228 0
 1308 0460 84E0      		ldi r24,lo8(4)
 1309               	.LVL150:
 1310 0462 00C0      		rjmp .L127
 1311               	.LVL151:
 1312               	.L126:
 229:main.c        **** 				case 3: set_it(PORTD_OUTCLR,BIT(3)); break;
 1313               		.loc 1 229 0
 1314 0464 88E0      		ldi r24,lo8(8)
 1315               	.LVL152:
 1316               	.L127:
 1317 0466 8093 6606 		sts 1638,r24
 1318               	.L92:
 1319 046a 0895      		ret
 1320               		.cfi_endproc
 1321               	.LFE34:
 1322               		.size	clearPin, .-clearPin
 1323               	.global	setSpeed
 1324               		.type	setSpeed, @function
 1325               	setSpeed:
 1326               	.LFB35:
 230:main.c        **** 			}
 231:main.c        **** 		break;
 232:main.c        **** 		}
 233:main.c        **** 	}
 234:main.c        **** }
 235:main.c        **** 
 236:main.c        **** // struct of Stepper Motor
 237:main.c        **** struct Stepper{
 238:main.c        **** 	int motorNumber; //Which motor is this, starting at 1
 239:main.c        **** 	int direction;
 240:main.c        **** 	int speed; // RPM
 241:main.c        **** 	unsigned long step_delay; //ms
 242:main.c        **** 	int number_of_steps; 
 243:main.c        **** 	int pin_count; // 2 pin or 4 pin configuration
 244:main.c        **** 	int step_number; //which step the motor is on now
 245:main.c        **** 	int minSteps; //Upper Limit of how many steps 
 246:main.c        **** 	int maxSteps; //Lower Limit of how many steps 
 247:main.c        **** 
 248:main.c        **** 	// motor pin numbers:
 249:main.c        **** 
 250:main.c        **** 	char motor_port_1;
 251:main.c        **** 	int motor_pin_1;
 252:main.c        **** 	char motor_port_2;
 253:main.c        **** 	int motor_pin_2;
 254:main.c        **** 	char motor_port_3;
 255:main.c        **** 	int motor_pin_3;
 256:main.c        **** 	char motor_port_4;
 257:main.c        **** 	int motor_pin_4;
 258:main.c        **** 
 259:main.c        **** 	long last_step_time; //ms, time stamp when last step was taken
 260:main.c        **** } Base,Shoulder,Elbow,Left_Wrist,Right_Wrist,Gripper;
 261:main.c        **** 
GAS LISTING /tmp/ccjciOO6.s 			page 39


 262:main.c        **** /*
 263:main.c        **** int getMotor(int n){
 264:main.c        **** 	switch (n){
 265:main.c        **** 				case 0: return MOTOR_1;
 266:main.c        **** 				case 1: return MOTOR_2;
 267:main.c        **** 				case 2: return MOTOR_3;
 268:main.c        **** 				case 3: return MOTOR_4;
 269:main.c        **** 				case 4: return MOTOR_5;
 270:main.c        **** 				case 5: return MOTOR_6;
 271:main.c        **** }*/
 272:main.c        **** 
 273:main.c        **** struct Stepper Base = {
 274:main.c        **** 	.motorNumber = 1,
 275:main.c        **** 	.direction = 1,
 276:main.c        **** 	.speed = 40,
 277:main.c        **** 	.step_delay = 10,
 278:main.c        **** 	.number_of_steps = 100,
 279:main.c        **** 	.pin_count = 4,
 280:main.c        **** 	.step_number = 0,
 281:main.c        **** 	.minSteps = -900,
 282:main.c        **** 	.maxSteps = 900,
 283:main.c        **** 	.motor_port_1 = 'A',
 284:main.c        **** 	.motor_pin_1 = 0,
 285:main.c        **** 	.motor_port_2 = 'A',
 286:main.c        **** 	.motor_pin_2 = 1, 
 287:main.c        **** 	.motor_port_3 = 'A',
 288:main.c        **** 	.motor_pin_3 = 2, 
 289:main.c        **** 	.motor_port_4 = 'A',
 290:main.c        **** 	.motor_pin_4 = 3
 291:main.c        **** 	};
 292:main.c        **** struct Stepper Shoulder = {
 293:main.c        **** 	.motorNumber = 2,
 294:main.c        **** 	.direction = 1,
 295:main.c        **** 	.speed = 40,
 296:main.c        **** 	.step_delay = 10,
 297:main.c        **** 	.number_of_steps = 100,
 298:main.c        **** 	.pin_count = 4,
 299:main.c        **** 	.step_number = 0, 
 300:main.c        **** 	.minSteps = 0,
 301:main.c        **** 	.maxSteps = -1700,
 302:main.c        **** 	.motor_port_1 = 'A',
 303:main.c        **** 	.motor_pin_1 = 4,
 304:main.c        **** 	.motor_port_2 = 'A',
 305:main.c        **** 	.motor_pin_2 = 5, 
 306:main.c        **** 	.motor_port_3 = 'A',
 307:main.c        **** 	.motor_pin_3 = 6, 
 308:main.c        **** 	.motor_port_4 = 'A',
 309:main.c        **** 	.motor_pin_4 = 7
 310:main.c        **** 	};
 311:main.c        **** struct Stepper Elbow = {
 312:main.c        **** 	.motorNumber = 3,
 313:main.c        **** 	.direction = 1,
 314:main.c        **** 	.speed = 40,
 315:main.c        **** 	.step_delay = 10,
 316:main.c        **** 	.number_of_steps = 100,
 317:main.c        **** 	.pin_count = 4,
 318:main.c        **** 	.step_number = 0, 
GAS LISTING /tmp/ccjciOO6.s 			page 40


 319:main.c        **** 	.minSteps = 0,
 320:main.c        **** 	.maxSteps = 1450,
 321:main.c        **** 	.motor_port_1 = 'B',
 322:main.c        **** 	.motor_pin_1 = 0,
 323:main.c        **** 	.motor_port_2 = 'B',
 324:main.c        **** 	.motor_pin_2 = 1, 
 325:main.c        **** 	.motor_port_3 = 'B',
 326:main.c        **** 	.motor_pin_3 = 2, 
 327:main.c        **** 	.motor_port_4 = 'B',
 328:main.c        **** 	.motor_pin_4 = 3
 329:main.c        **** 	};
 330:main.c        **** struct Stepper Right_Wrist = {
 331:main.c        **** 	.motorNumber = 4,
 332:main.c        **** 	.direction = 1,
 333:main.c        **** 	.speed = 40,
 334:main.c        **** 	.step_delay = 10,
 335:main.c        **** 	.number_of_steps = 100,
 336:main.c        **** 	.pin_count = 4,
 337:main.c        **** 	.step_number = 0, 
 338:main.c        **** 	.minSteps = 200,
 339:main.c        **** 	.maxSteps = -200,
 340:main.c        **** 	.motor_port_1 = 'C',
 341:main.c        **** 	.motor_pin_1 = 0,
 342:main.c        **** 	.motor_port_2 = 'C',
 343:main.c        **** 	.motor_pin_2 = 1, 
 344:main.c        **** 	.motor_port_3 = 'C',
 345:main.c        **** 	.motor_pin_3 = 2, 
 346:main.c        **** 	.motor_port_4 = 'C',
 347:main.c        **** 	.motor_pin_4 = 3
 348:main.c        **** 	};
 349:main.c        **** struct Stepper Left_Wrist = {
 350:main.c        **** 	.motorNumber = 5,
 351:main.c        **** 	.direction = 1,
 352:main.c        **** 	.speed = 40,
 353:main.c        **** 	.step_delay = 10,
 354:main.c        **** 	.number_of_steps = 100,
 355:main.c        **** 	.pin_count = 4,
 356:main.c        **** 	.step_number = 0, 
 357:main.c        **** 	.minSteps = -200,
 358:main.c        **** 	.maxSteps = 200,
 359:main.c        **** 	.motor_port_1 = 'C',
 360:main.c        **** 	.motor_pin_1 = 4,
 361:main.c        **** 	.motor_port_2 = 'C',
 362:main.c        **** 	.motor_pin_2 = 5, 
 363:main.c        **** 	.motor_port_3 = 'C',
 364:main.c        **** 	.motor_pin_3 = 6, 
 365:main.c        **** 	.motor_port_4 = 'C',
 366:main.c        **** 	.motor_pin_4 = 7
 367:main.c        **** 	};
 368:main.c        **** struct Stepper Gripper = {
 369:main.c        **** 	.motorNumber = 6,
 370:main.c        **** 	.direction = 1,
 371:main.c        **** 	.speed = 40,
 372:main.c        **** 	.step_delay = 10,
 373:main.c        **** 	.number_of_steps = 100,
 374:main.c        **** 	.pin_count = 4,
 375:main.c        **** 	.step_number = 0, 
GAS LISTING /tmp/ccjciOO6.s 			page 41


 376:main.c        **** 	.minSteps = 0,
 377:main.c        **** 	.maxSteps = 800,
 378:main.c        **** 	.motor_port_1 = 'D',
 379:main.c        **** 	.motor_pin_1 = 0,
 380:main.c        **** 	.motor_port_2 = 'D',
 381:main.c        **** 	.motor_pin_2 = 1, 
 382:main.c        **** 	.motor_port_3 = 'D',
 383:main.c        **** 	.motor_pin_3 = 2, 
 384:main.c        **** 	.motor_port_4 = 'D',
 385:main.c        **** 	.motor_pin_4 = 3
 386:main.c        **** 	};
 387:main.c        **** 	
 388:main.c        **** 
 389:main.c        **** // Set Speed, in RPM
 390:main.c        **** // (60 seconds per minute*1000 Microseconds per second)/100 steps per rotation/ 40 Rotations per mi
 391:main.c        **** void setSpeed(struct Stepper *stepper, long whatSpeed){
 1327               		.loc 1 391 0
 1328               		.cfi_startproc
 1329               	.LVL153:
 1330 046c CF92      		push r12
 1331               	.LCFI24:
 1332               		.cfi_def_cfa_offset 3
 1333               		.cfi_offset 12, -2
 1334 046e DF92      		push r13
 1335               	.LCFI25:
 1336               		.cfi_def_cfa_offset 4
 1337               		.cfi_offset 13, -3
 1338 0470 EF92      		push r14
 1339               	.LCFI26:
 1340               		.cfi_def_cfa_offset 5
 1341               		.cfi_offset 14, -4
 1342 0472 FF92      		push r15
 1343               	.LCFI27:
 1344               		.cfi_def_cfa_offset 6
 1345               		.cfi_offset 15, -5
 1346 0474 CF93      		push r28
 1347               	.LCFI28:
 1348               		.cfi_def_cfa_offset 7
 1349               		.cfi_offset 28, -6
 1350 0476 DF93      		push r29
 1351               	.LCFI29:
 1352               		.cfi_def_cfa_offset 8
 1353               		.cfi_offset 29, -7
 1354               	/* prologue: function */
 1355               	/* frame size = 0 */
 1356               	/* stack size = 6 */
 1357               	.L__stack_usage = 6
 1358 0478 EC01      		movw r28,r24
 1359 047a 6A01      		movw r12,r20
 1360 047c 7B01      		movw r14,r22
 392:main.c        **** 	(*stepper).step_delay = 60L * 1000L / (*stepper).number_of_steps / whatSpeed;
 1361               		.loc 1 392 0
 1362 047e 2A85      		ldd r18,Y+10
 1363 0480 3B85      		ldd r19,Y+11
 1364 0482 032E      		mov __tmp_reg__,r19
 1365 0484 000C      		lsl r0
 1366 0486 440B      		sbc r20,r20
GAS LISTING /tmp/ccjciOO6.s 			page 42


 1367 0488 550B      		sbc r21,r21
 1368 048a 60E6      		ldi r22,lo8(96)
 1369 048c 7AEE      		ldi r23,lo8(-22)
 1370 048e 80E0      		ldi r24,0
 1371 0490 90E0      		ldi r25,0
 1372 0492 0E94 0000 		call __divmodsi4
 1373 0496 CA01      		movw r24,r20
 1374 0498 B901      		movw r22,r18
 1375 049a A701      		movw r20,r14
 1376 049c 9601      		movw r18,r12
 1377 049e 0E94 0000 		call __divmodsi4
 1378 04a2 2E83      		std Y+6,r18
 1379 04a4 3F83      		std Y+7,r19
 1380 04a6 4887      		std Y+8,r20
 1381 04a8 5987      		std Y+9,r21
 1382               	/* epilogue start */
 393:main.c        **** }
 1383               		.loc 1 393 0
 1384 04aa DF91      		pop r29
 1385 04ac CF91      		pop r28
 1386 04ae FF90      		pop r15
 1387 04b0 EF90      		pop r14
 1388 04b2 DF90      		pop r13
 1389 04b4 CF90      		pop r12
 1390 04b6 0895      		ret
 1391               		.cfi_endproc
 1392               	.LFE35:
 1393               		.size	setSpeed, .-setSpeed
 1394               	.global	stepMotor
 1395               		.type	stepMotor, @function
 1396               	stepMotor:
 1397               	.LFB36:
 394:main.c        **** 
 395:main.c        **** // Moves the motor by 1 step. calls clearPin and setPin.
 396:main.c        **** void stepMotor(struct Stepper stepper, int thisStep) {
 1398               		.loc 1 396 0
 1399               		.cfi_startproc
 1400               	.LVL154:
 1401 04b8 9F92      		push r9
 1402               	.LCFI30:
 1403               		.cfi_def_cfa_offset 3
 1404               		.cfi_offset 9, -2
 1405 04ba AF92      		push r10
 1406               	.LCFI31:
 1407               		.cfi_def_cfa_offset 4
 1408               		.cfi_offset 10, -3
 1409 04bc BF92      		push r11
 1410               	.LCFI32:
 1411               		.cfi_def_cfa_offset 5
 1412               		.cfi_offset 11, -4
 1413 04be CF92      		push r12
 1414               	.LCFI33:
 1415               		.cfi_def_cfa_offset 6
 1416               		.cfi_offset 12, -5
 1417 04c0 DF92      		push r13
 1418               	.LCFI34:
 1419               		.cfi_def_cfa_offset 7
GAS LISTING /tmp/ccjciOO6.s 			page 43


 1420               		.cfi_offset 13, -6
 1421 04c2 EF92      		push r14
 1422               	.LCFI35:
 1423               		.cfi_def_cfa_offset 8
 1424               		.cfi_offset 14, -7
 1425 04c4 FF92      		push r15
 1426               	.LCFI36:
 1427               		.cfi_def_cfa_offset 9
 1428               		.cfi_offset 15, -8
 1429 04c6 0F93      		push r16
 1430               	.LCFI37:
 1431               		.cfi_def_cfa_offset 10
 1432               		.cfi_offset 16, -9
 1433 04c8 1F93      		push r17
 1434               	.LCFI38:
 1435               		.cfi_def_cfa_offset 11
 1436               		.cfi_offset 17, -10
 1437 04ca CF93      		push r28
 1438               	.LCFI39:
 1439               		.cfi_def_cfa_offset 12
 1440               		.cfi_offset 28, -11
 1441 04cc DF93      		push r29
 1442               	.LCFI40:
 1443               		.cfi_def_cfa_offset 13
 1444               		.cfi_offset 29, -12
 1445 04ce CDB7      		in r28,__SP_L__
 1446 04d0 DEB7      		in r29,__SP_H__
 1447               	.LCFI41:
 1448               		.cfi_def_cfa_register 28
 1449               	/* prologue: function */
 1450               	/* frame size = 0 */
 1451               	/* stack size = 11 */
 1452               	.L__stack_usage = 11
 1453 04d2 2AA9      		ldd r18,Y+50
 1454 04d4 3BA9      		ldd r19,Y+51
 1455 04d6 4A8D      		ldd r20,Y+26
 1456 04d8 5B8D      		ldd r21,Y+27
 1457               	.LVL155:
 1458 04da 8AA1      		ldd r24,Y+34
 1459               	.LVL156:
 1460 04dc 6BA1      		ldd r22,Y+35
 1461 04de 7CA1      		ldd r23,Y+36
 1462               	.LVL157:
 1463 04e0 1DA1      		ldd r17,Y+37
 1464               	.LVL158:
 1465 04e2 EEA0      		ldd r14,Y+38
 1466 04e4 FFA0      		ldd r15,Y+39
 1467               	.LVL159:
 397:main.c        ****   if ((stepper).pin_count == 2) {
 1468               		.loc 1 397 0
 1469 04e6 4230      		cpi r20,2
 1470 04e8 5105      		cpc r21,__zero_reg__
 1471 04ea 01F4      		brne .L133
 398:main.c        ****     switch (thisStep) {
 1472               		.loc 1 398 0
 1473 04ec 2130      		cpi r18,1
 1474 04ee 3105      		cpc r19,__zero_reg__
GAS LISTING /tmp/ccjciOO6.s 			page 44


 1475 04f0 01F0      		breq .L135
 1476 04f2 04F4      		brge .L136
 1477 04f4 232B      		or r18,r19
 1478 04f6 01F0      		breq .+2
 1479 04f8 00C0      		rjmp .L132
 399:main.c        ****       case 0: // 01 
 400:main.c        ****       clearPin((stepper).motor_port_1,(stepper).motor_pin_1);
 1480               		.loc 1 400 0
 1481 04fa 0E94 0000 		call clearPin
 1482               	.LVL160:
 1483 04fe 00C0      		rjmp .L151
 1484               	.LVL161:
 1485               	.L136:
 398:main.c        ****     switch (thisStep) {
 1486               		.loc 1 398 0
 1487 0500 2230      		cpi r18,2
 1488 0502 3105      		cpc r19,__zero_reg__
 1489 0504 01F0      		breq .L138
 1490 0506 2330      		cpi r18,3
 1491 0508 3105      		cpc r19,__zero_reg__
 1492 050a 01F0      		breq .+2
 1493 050c 00C0      		rjmp .L132
 401:main.c        ****       setPin((stepper).motor_port_2,(stepper).motor_pin_2);
 402:main.c        ****       break;
 403:main.c        ****       case 1: // 11 
 404:main.c        ****       setPin((stepper).motor_port_1,(stepper).motor_pin_1);
 405:main.c        ****       setPin((stepper).motor_port_2,(stepper).motor_pin_2);
 406:main.c        ****       break;
 407:main.c        ****       case 2: // 10 
 408:main.c        ****       setPin((stepper).motor_port_1,(stepper).motor_pin_1);
 409:main.c        ****       clearPin((stepper).motor_port_2,(stepper).motor_pin_2);
 410:main.c        ****       break;
 411:main.c        ****       case 3: // 00 
 412:main.c        ****       clearPin((stepper).motor_port_1,(stepper).motor_pin_1);
 1494               		.loc 1 412 0
 1495 050e 0E94 0000 		call clearPin
 1496               	.LVL162:
 1497 0512 00C0      		rjmp .L150
 1498               	.LVL163:
 1499               	.L135:
 404:main.c        ****       setPin((stepper).motor_port_2,(stepper).motor_pin_2);
 1500               		.loc 1 404 0
 1501 0514 0E94 0000 		call setPin
 1502               	.LVL164:
 1503               	.L151:
 405:main.c        ****       break;
 1504               		.loc 1 405 0
 1505 0518 B701      		movw r22,r14
 1506 051a 812F      		mov r24,r17
 1507 051c 00C0      		rjmp .L146
 1508               	.LVL165:
 1509               	.L138:
 408:main.c        ****       clearPin((stepper).motor_port_2,(stepper).motor_pin_2);
 1510               		.loc 1 408 0
 1511 051e 0E94 0000 		call setPin
 1512               	.LVL166:
 1513               	.L150:
GAS LISTING /tmp/ccjciOO6.s 			page 45


 413:main.c        ****       clearPin((stepper).motor_port_2,(stepper).motor_pin_2);
 1514               		.loc 1 413 0
 1515 0522 B701      		movw r22,r14
 1516 0524 812F      		mov r24,r17
 1517 0526 00C0      		rjmp .L148
 1518               	.LVL167:
 1519               	.L133:
 414:main.c        ****       break;
 415:main.c        ****     } 
 416:main.c        ****   }
 417:main.c        ****   if ((stepper).pin_count == 4) {
 1520               		.loc 1 417 0
 1521 0528 4430      		cpi r20,4
 1522 052a 5105      		cpc r21,__zero_reg__
 1523 052c 01F0      		breq .+2
 1524 052e 00C0      		rjmp .L132
 1525 0530 98A4      		ldd r9,Y+40
 1526 0532 A9A4      		ldd r10,Y+41
 1527 0534 BAA4      		ldd r11,Y+42
 1528 0536 0BA5      		ldd r16,Y+43
 1529 0538 CCA4      		ldd r12,Y+44
 1530 053a DDA4      		ldd r13,Y+45
 418:main.c        ****     switch (thisStep) {
 1531               		.loc 1 418 0
 1532 053c 2130      		cpi r18,1
 1533 053e 3105      		cpc r19,__zero_reg__
 1534 0540 01F0      		breq .L141
 1535 0542 04F4      		brge .L142
 1536 0544 232B      		or r18,r19
 1537 0546 01F0      		breq .+2
 1538 0548 00C0      		rjmp .L132
 419:main.c        ****       case 0:    // 1010
 420:main.c        ****       setPin((stepper).motor_port_1,(stepper).motor_pin_1);
 1539               		.loc 1 420 0
 1540 054a 0E94 0000 		call setPin
 1541               	.LVL168:
 421:main.c        ****       clearPin((stepper).motor_port_2,(stepper).motor_pin_2);
 1542               		.loc 1 421 0
 1543 054e B701      		movw r22,r14
 1544 0550 812F      		mov r24,r17
 1545 0552 0E94 0000 		call clearPin
 1546               	.LVL169:
 1547 0556 00C0      		rjmp .L149
 1548               	.LVL170:
 1549               	.L142:
 418:main.c        ****     switch (thisStep) {
 1550               		.loc 1 418 0
 1551 0558 2230      		cpi r18,2
 1552 055a 3105      		cpc r19,__zero_reg__
 1553 055c 01F0      		breq .L144
 1554 055e 2330      		cpi r18,3
 1555 0560 3105      		cpc r19,__zero_reg__
 1556 0562 01F4      		brne .L132
 422:main.c        ****       setPin((stepper).motor_port_3,(stepper).motor_pin_3);
 423:main.c        ****       clearPin((stepper).motor_port_4,(stepper).motor_pin_4);
 424:main.c        ****       break;
 425:main.c        ****       case 1:   // 0110
GAS LISTING /tmp/ccjciOO6.s 			page 46


 426:main.c        ****       clearPin((stepper).motor_port_1,(stepper).motor_pin_1);
 427:main.c        ****       setPin((stepper).motor_port_2,(stepper).motor_pin_2);
 428:main.c        ****       setPin((stepper).motor_port_3,(stepper).motor_pin_3);
 429:main.c        ****       clearPin((stepper).motor_port_4,(stepper).motor_pin_4);
 430:main.c        ****       break;
 431:main.c        ****       case 2:    //0101
 432:main.c        ****       clearPin((stepper).motor_port_1,(stepper).motor_pin_1);
 433:main.c        ****       setPin((stepper).motor_port_2,(stepper).motor_pin_2);
 434:main.c        ****       clearPin((stepper).motor_port_3,(stepper).motor_pin_3);
 435:main.c        ****       setPin((stepper).motor_port_4,(stepper).motor_pin_4);
 436:main.c        ****       break;
 437:main.c        ****       case 3:    //1001
 438:main.c        ****       setPin((stepper).motor_port_1,(stepper).motor_pin_1);
 1557               		.loc 1 438 0
 1558 0564 0E94 0000 		call setPin
 1559               	.LVL171:
 439:main.c        ****       clearPin((stepper).motor_port_2,(stepper).motor_pin_2);
 1560               		.loc 1 439 0
 1561 0568 B701      		movw r22,r14
 1562 056a 812F      		mov r24,r17
 1563 056c 0E94 0000 		call clearPin
 1564               	.LVL172:
 1565 0570 00C0      		rjmp .L147
 1566               	.LVL173:
 1567               	.L141:
 426:main.c        ****       setPin((stepper).motor_port_2,(stepper).motor_pin_2);
 1568               		.loc 1 426 0
 1569 0572 0E94 0000 		call clearPin
 1570               	.LVL174:
 427:main.c        ****       setPin((stepper).motor_port_3,(stepper).motor_pin_3);
 1571               		.loc 1 427 0
 1572 0576 B701      		movw r22,r14
 1573 0578 812F      		mov r24,r17
 1574 057a 0E94 0000 		call setPin
 1575               	.LVL175:
 1576               	.L149:
 428:main.c        ****       clearPin((stepper).motor_port_4,(stepper).motor_pin_4);
 1577               		.loc 1 428 0
 1578 057e B501      		movw r22,r10
 1579 0580 892D      		mov r24,r9
 1580 0582 0E94 0000 		call setPin
 1581               	.LVL176:
 429:main.c        ****       break;
 1582               		.loc 1 429 0
 1583 0586 B601      		movw r22,r12
 1584 0588 802F      		mov r24,r16
 1585               	.L148:
 1586               	/* epilogue start */
 440:main.c        ****       clearPin((stepper).motor_port_3,(stepper).motor_pin_3);
 441:main.c        ****       setPin((stepper).motor_port_4,(stepper).motor_pin_4);
 442:main.c        ****       break;
 443:main.c        ****     } 
 444:main.c        ****   }
 445:main.c        **** }
 1587               		.loc 1 445 0
 1588 058a DF91      		pop r29
 1589 058c CF91      		pop r28
GAS LISTING /tmp/ccjciOO6.s 			page 47


 1590 058e 1F91      		pop r17
 1591               	.LVL177:
 1592 0590 0F91      		pop r16
 1593 0592 FF90      		pop r15
 1594 0594 EF90      		pop r14
 1595               	.LVL178:
 1596 0596 DF90      		pop r13
 1597 0598 CF90      		pop r12
 1598 059a BF90      		pop r11
 1599 059c AF90      		pop r10
 1600 059e 9F90      		pop r9
 429:main.c        ****       break;
 1601               		.loc 1 429 0
 1602 05a0 0C94 0000 		jmp clearPin
 1603               	.LVL179:
 1604               	.L144:
 432:main.c        ****       setPin((stepper).motor_port_2,(stepper).motor_pin_2);
 1605               		.loc 1 432 0
 1606 05a4 0E94 0000 		call clearPin
 1607               	.LVL180:
 433:main.c        ****       clearPin((stepper).motor_port_3,(stepper).motor_pin_3);
 1608               		.loc 1 433 0
 1609 05a8 B701      		movw r22,r14
 1610 05aa 812F      		mov r24,r17
 1611 05ac 0E94 0000 		call setPin
 1612               	.LVL181:
 1613               	.L147:
 440:main.c        ****       clearPin((stepper).motor_port_3,(stepper).motor_pin_3);
 1614               		.loc 1 440 0
 1615 05b0 B501      		movw r22,r10
 1616 05b2 892D      		mov r24,r9
 1617 05b4 0E94 0000 		call clearPin
 1618               	.LVL182:
 441:main.c        ****       break;
 1619               		.loc 1 441 0
 1620 05b8 B601      		movw r22,r12
 1621 05ba 802F      		mov r24,r16
 1622               	.L146:
 1623               	/* epilogue start */
 1624               		.loc 1 445 0
 1625 05bc DF91      		pop r29
 1626 05be CF91      		pop r28
 1627 05c0 1F91      		pop r17
 1628               	.LVL183:
 1629 05c2 0F91      		pop r16
 1630 05c4 FF90      		pop r15
 1631 05c6 EF90      		pop r14
 1632               	.LVL184:
 1633 05c8 DF90      		pop r13
 1634 05ca CF90      		pop r12
 1635 05cc BF90      		pop r11
 1636 05ce AF90      		pop r10
 1637 05d0 9F90      		pop r9
 441:main.c        ****       break;
 1638               		.loc 1 441 0
 1639 05d2 0C94 0000 		jmp setPin
 1640               	.LVL185:
GAS LISTING /tmp/ccjciOO6.s 			page 48


 1641               	.L132:
 1642               	/* epilogue start */
 1643               		.loc 1 445 0
 1644 05d6 DF91      		pop r29
 1645 05d8 CF91      		pop r28
 1646 05da 1F91      		pop r17
 1647               	.LVL186:
 1648 05dc 0F91      		pop r16
 1649 05de FF90      		pop r15
 1650 05e0 EF90      		pop r14
 1651               	.LVL187:
 1652 05e2 DF90      		pop r13
 1653 05e4 CF90      		pop r12
 1654 05e6 BF90      		pop r11
 1655 05e8 AF90      		pop r10
 1656 05ea 9F90      		pop r9
 1657 05ec 0895      		ret
 1658               		.cfi_endproc
 1659               	.LFE36:
 1660               		.size	stepMotor, .-stepMotor
 1661               	.global	step
 1662               		.type	step, @function
 1663               	step:
 1664               	.LFB37:
 446:main.c        **** 
 447:main.c        **** // Move (*stepper). This function calls millis() and stepMotor()
 448:main.c        **** void step(struct Stepper *stepper, int steps_to_move){
 1665               		.loc 1 448 0
 1666               		.cfi_startproc
 1667 05ee EF92      		push r14
 1668               	.LCFI42:
 1669               		.cfi_def_cfa_offset 3
 1670               		.cfi_offset 14, -2
 1671 05f0 FF92      		push r15
 1672               	.LCFI43:
 1673               		.cfi_def_cfa_offset 4
 1674               		.cfi_offset 15, -3
 1675 05f2 0F93      		push r16
 1676               	.LCFI44:
 1677               		.cfi_def_cfa_offset 5
 1678               		.cfi_offset 16, -4
 1679 05f4 1F93      		push r17
 1680               	.LCFI45:
 1681               		.cfi_def_cfa_offset 6
 1682               		.cfi_offset 17, -5
 1683 05f6 CF93      		push r28
 1684               	.LCFI46:
 1685               		.cfi_def_cfa_offset 7
 1686               		.cfi_offset 28, -6
 1687 05f8 DF93      		push r29
 1688               	.LCFI47:
 1689               		.cfi_def_cfa_offset 8
 1690               		.cfi_offset 29, -7
 1691               	/* prologue: function */
 1692               	/* frame size = 0 */
 1693               	/* stack size = 6 */
 1694               	.L__stack_usage = 6
GAS LISTING /tmp/ccjciOO6.s 			page 49


 1695 05fa EC01      		movw r28,r24
 1696 05fc 8B01      		movw r16,r22
 449:main.c        **** 	int steps_left = 0;
 450:main.c        **** 
 451:main.c        **** 	if (steps_to_move > 1) {
 1697               		.loc 1 451 0
 1698 05fe 6230      		cpi r22,2
 1699 0600 7105      		cpc r23,__zero_reg__
 1700 0602 04F0      		brlt .L153
 452:main.c        **** 		steps_left = steps_to_move; // how many steps to take
 453:main.c        **** 		(*stepper).direction = 1;// determine direction
 1701               		.loc 1 453 0
 1702 0604 81E0      		ldi r24,lo8(1)
 1703 0606 90E0      		ldi r25,0
 1704 0608 8A83      		std Y+2,r24
 1705 060a 9B83      		std Y+3,r25
 1706               	.L155:
 454:main.c        **** 	}else{
 455:main.c        **** 		steps_left = -steps_to_move;
 456:main.c        **** 		(*stepper).direction = 0;
 457:main.c        **** 	}
 458:main.c        **** 	// decrease the number of steps, moving one step each time:
 459:main.c        **** 	while(steps_left > 0) {
 460:main.c        **** 		// move only if the appropriate delay has passed:
 461:main.c        **** 		if (millis() - (*stepper).last_step_time >= (*stepper).step_delay){
 462:main.c        **** 			// get the timeStamp of when you stepped:
 463:main.c        **** 			(*stepper).last_step_time = millis();
 464:main.c        **** 			// increase or decrease the step number, depending on direction
 465:main.c        **** 			if ((*stepper).direction == 1) {
 466:main.c        **** 				(*stepper).step_number++;
 467:main.c        **** 				pose[(*stepper).motorNumber -1] ++;
 468:main.c        **** 				if ((*stepper).step_number == (*stepper).number_of_steps) {
 469:main.c        **** 					(*stepper).step_number = 0;
 470:main.c        **** 				}
 471:main.c        **** 			}
 472:main.c        **** 			else { 
 473:main.c        **** 				if ((*stepper).step_number == 0) {
 474:main.c        **** 				(*stepper).step_number = (*stepper).number_of_steps;
 475:main.c        **** 				}
 476:main.c        **** 			(*stepper).step_number--;
 477:main.c        **** 			pose[(*stepper).motorNumber -1] --;
 478:main.c        **** 			}
 479:main.c        **** 		  // decrease the steps left:
 480:main.c        **** 		  steps_left--;
 481:main.c        **** 		  
 482:main.c        **** 		  // step the motor to step number 0, 1, 2, or 3:
 483:main.c        **** 		  stepMotor((*stepper),(*stepper).step_number % 4);
 1707               		.loc 1 483 0
 1708 060c 34E0      		ldi r19,lo8(4)
 1709 060e E32E      		mov r14,r19
 1710 0610 F12C      		mov r15,__zero_reg__
 1711 0612 00C0      		rjmp .L156
 1712               	.L153:
 455:main.c        **** 		(*stepper).direction = 0;
 1713               		.loc 1 455 0
 1714 0614 1195      		neg r17
 1715 0616 0195      		neg r16
GAS LISTING /tmp/ccjciOO6.s 			page 50


 1716 0618 1109      		sbc r17,__zero_reg__
 456:main.c        **** 	}
 1717               		.loc 1 456 0
 1718 061a 1A82      		std Y+2,__zero_reg__
 1719 061c 1B82      		std Y+3,__zero_reg__
 1720 061e 00C0      		rjmp .L155
 1721               	.L164:
 1722               	.LBB93:
 1723               	.LBB94:
 109:main.c        **** }
 1724               		.loc 1 109 0
 1725 0620 8091 0000 		lds r24,elapsedMillis
 1726 0624 9091 0000 		lds r25,elapsedMillis+1
 1727 0628 A091 0000 		lds r26,elapsedMillis+2
 1728 062c B091 0000 		lds r27,elapsedMillis+3
 1729               	.LBE94:
 1730               	.LBE93:
 461:main.c        **** 			// get the timeStamp of when you stepped:
 1731               		.loc 1 461 0
 1732 0630 48A1      		ldd r20,Y+32
 1733 0632 59A1      		ldd r21,Y+33
 1734 0634 6AA1      		ldd r22,Y+34
 1735 0636 7BA1      		ldd r23,Y+35
 1736 0638 841B      		sub r24,r20
 1737 063a 950B      		sbc r25,r21
 1738 063c A60B      		sbc r26,r22
 1739 063e B70B      		sbc r27,r23
 1740 0640 4E81      		ldd r20,Y+6
 1741 0642 5F81      		ldd r21,Y+7
 1742 0644 6885      		ldd r22,Y+8
 1743 0646 7985      		ldd r23,Y+9
 1744 0648 8417      		cp r24,r20
 1745 064a 9507      		cpc r25,r21
 1746 064c A607      		cpc r26,r22
 1747 064e B707      		cpc r27,r23
 1748 0650 00F4      		brsh .L166
 1749               	.L156:
 459:main.c        **** 		// move only if the appropriate delay has passed:
 1750               		.loc 1 459 0
 1751 0652 1016      		cp __zero_reg__,r16
 1752 0654 1106      		cpc __zero_reg__,r17
 1753 0656 04F0      		brlt .L164
 1754 0658 00C0      		rjmp .L167
 1755               	.L166:
 1756               	.LBB95:
 1757               	.LBB96:
 109:main.c        **** }
 1758               		.loc 1 109 0
 1759 065a 8091 0000 		lds r24,elapsedMillis
 1760 065e 9091 0000 		lds r25,elapsedMillis+1
 1761 0662 A091 0000 		lds r26,elapsedMillis+2
 1762 0666 B091 0000 		lds r27,elapsedMillis+3
 1763               	.LBE96:
 1764               	.LBE95:
 463:main.c        **** 			// increase or decrease the step number, depending on direction
 1765               		.loc 1 463 0
 1766 066a 88A3      		std Y+32,r24
GAS LISTING /tmp/ccjciOO6.s 			page 51


 1767 066c 99A3      		std Y+33,r25
 1768 066e AAA3      		std Y+34,r26
 1769 0670 BBA3      		std Y+35,r27
 465:main.c        **** 				(*stepper).step_number++;
 1770               		.loc 1 465 0
 1771 0672 2A81      		ldd r18,Y+2
 1772 0674 3B81      		ldd r19,Y+3
 1773 0676 8E85      		ldd r24,Y+14
 1774 0678 9F85      		ldd r25,Y+15
 1775 067a E881      		ld r30,Y
 1776 067c F981      		ldd r31,Y+1
 1777 067e 2130      		cpi r18,1
 1778 0680 3105      		cpc r19,__zero_reg__
 1779 0682 01F4      		brne .L157
 466:main.c        **** 				pose[(*stepper).motorNumber -1] ++;
 1780               		.loc 1 466 0
 1781 0684 0196      		adiw r24,1
 1782 0686 8E87      		std Y+14,r24
 1783 0688 9F87      		std Y+15,r25
 467:main.c        **** 				if ((*stepper).step_number == (*stepper).number_of_steps) {
 1784               		.loc 1 467 0
 1785 068a EE0F      		lsl r30
 1786 068c FF1F      		rol r31
 1787 068e E050      		subi r30,lo8(-(pose-2))
 1788 0690 F040      		sbci r31,hi8(-(pose-2))
 1789 0692 2081      		ld r18,Z
 1790 0694 3181      		ldd r19,Z+1
 1791 0696 2F5F      		subi r18,-1
 1792 0698 3F4F      		sbci r19,-1
 1793 069a 2083      		st Z,r18
 1794 069c 3183      		std Z+1,r19
 468:main.c        **** 					(*stepper).step_number = 0;
 1795               		.loc 1 468 0
 1796 069e 2A85      		ldd r18,Y+10
 1797 06a0 3B85      		ldd r19,Y+11
 1798 06a2 8217      		cp r24,r18
 1799 06a4 9307      		cpc r25,r19
 1800 06a6 01F4      		brne .L158
 469:main.c        **** 				}
 1801               		.loc 1 469 0
 1802 06a8 1E86      		std Y+14,__zero_reg__
 1803 06aa 1F86      		std Y+15,__zero_reg__
 1804 06ac 00C0      		rjmp .L158
 1805               	.L157:
 473:main.c        **** 				(*stepper).step_number = (*stepper).number_of_steps;
 1806               		.loc 1 473 0
 1807 06ae 892B      		or r24,r25
 1808 06b0 01F4      		brne .L159
 474:main.c        **** 				}
 1809               		.loc 1 474 0
 1810 06b2 8A85      		ldd r24,Y+10
 1811 06b4 9B85      		ldd r25,Y+11
 1812 06b6 8E87      		std Y+14,r24
 1813 06b8 9F87      		std Y+15,r25
 1814               	.L159:
 476:main.c        **** 			pose[(*stepper).motorNumber -1] --;
 1815               		.loc 1 476 0
GAS LISTING /tmp/ccjciOO6.s 			page 52


 1816 06ba 8E85      		ldd r24,Y+14
 1817 06bc 9F85      		ldd r25,Y+15
 1818 06be 0197      		sbiw r24,1
 1819 06c0 8E87      		std Y+14,r24
 1820 06c2 9F87      		std Y+15,r25
 477:main.c        **** 			}
 1821               		.loc 1 477 0
 1822 06c4 EE0F      		lsl r30
 1823 06c6 FF1F      		rol r31
 1824 06c8 E050      		subi r30,lo8(-(pose-2))
 1825 06ca F040      		sbci r31,hi8(-(pose-2))
 1826 06cc 8081      		ld r24,Z
 1827 06ce 9181      		ldd r25,Z+1
 1828 06d0 0197      		sbiw r24,1
 1829 06d2 8083      		st Z,r24
 1830 06d4 9183      		std Z+1,r25
 1831               	.L158:
 480:main.c        **** 		  
 1832               		.loc 1 480 0
 1833 06d6 0150      		subi r16,1
 1834 06d8 1109      		sbc r17,__zero_reg__
 1835               		.loc 1 483 0
 1836 06da 8E85      		ldd r24,Y+14
 1837 06dc 9F85      		ldd r25,Y+15
 1838 06de B701      		movw r22,r14
 1839 06e0 0E94 0000 		call __divmodhi4
 1840 06e4 9F93      		push r25
 1841               	.LCFI48:
 1842               		.cfi_def_cfa_offset 9
 1843 06e6 8F93      		push r24
 1844               	.LCFI49:
 1845               		.cfi_def_cfa_offset 10
 1846 06e8 8DB7      		in r24,__SP_L__
 1847 06ea 9EB7      		in r25,__SP_H__
 1848 06ec 8497      		sbiw r24,36
 1849 06ee 8DBF      		out __SP_L__,r24
 1850 06f0 9EBF      		out __SP_H__,r25
 1851               	.LCFI50:
 1852               		.cfi_def_cfa_offset 46
 1853 06f2 ADB7      		in r26,__SP_L__
 1854 06f4 BEB7      		in r27,__SP_H__
 1855 06f6 1196      		adiw r26,1
 1856 06f8 84E2      		ldi r24,lo8(36)
 1857 06fa FE01      		movw r30,r28
 1858               		0:
 1859 06fc 0190      		ld r0,Z+
 1860 06fe 0D92      		st X+,r0
 1861 0700 8A95      		dec r24
 1862 0702 01F4      		brne 0b
 1863 0704 0E94 0000 		call stepMotor
 484:main.c        **** 		  
 485:main.c        **** 		  // Special Case: Move Gripper if Elbow moves, because of mechanical design limitations.
 486:main.c        **** 		  if((*stepper).motorNumber==3){
 1864               		.loc 1 486 0
 1865 0708 8DB7      		in r24,__SP_L__
 1866 070a 9EB7      		in r25,__SP_H__
 1867 070c 8696      		adiw r24,38
GAS LISTING /tmp/ccjciOO6.s 			page 53


 1868 070e 8DBF      		out __SP_L__,r24
 1869 0710 9EBF      		out __SP_H__,r25
 1870               	.LCFI51:
 1871               		.cfi_def_cfa_offset 8
 1872 0712 8881      		ld r24,Y
 1873 0714 9981      		ldd r25,Y+1
 1874 0716 0397      		sbiw r24,3
 1875 0718 01F0      		breq .+2
 1876 071a 00C0      		rjmp .L156
 487:main.c        **** 			  
 488:main.c        **** 				Gripper.direction = -1*(*stepper).direction;
 1877               		.loc 1 488 0
 1878 071c 2A81      		ldd r18,Y+2
 1879 071e 3B81      		ldd r19,Y+3
 1880 0720 3195      		neg r19
 1881 0722 2195      		neg r18
 1882 0724 3109      		sbc r19,__zero_reg__
 1883 0726 2093 0000 		sts Gripper+2,r18
 1884 072a 3093 0000 		sts Gripper+2+1,r19
 1885 072e 8091 0000 		lds r24,Gripper+14
 1886 0732 9091 0000 		lds r25,Gripper+14+1
 489:main.c        **** 				
 490:main.c        **** 				if (Gripper.direction == 1) {
 1887               		.loc 1 490 0
 1888 0736 2130      		cpi r18,1
 1889 0738 3105      		cpc r19,__zero_reg__
 1890 073a 01F4      		brne .L161
 491:main.c        **** 					Gripper.step_number++;
 1891               		.loc 1 491 0
 1892 073c 0196      		adiw r24,1
 1893 073e 8093 0000 		sts Gripper+14,r24
 1894 0742 9093 0000 		sts Gripper+14+1,r25
 492:main.c        **** 					if (Gripper.step_number == Gripper.number_of_steps) {
 1895               		.loc 1 492 0
 1896 0746 2091 0000 		lds r18,Gripper+10
 1897 074a 3091 0000 		lds r19,Gripper+10+1
 1898 074e 8217      		cp r24,r18
 1899 0750 9307      		cpc r25,r19
 1900 0752 01F4      		brne .L162
 493:main.c        **** 						Gripper.step_number = 0;
 1901               		.loc 1 493 0
 1902 0754 1092 0000 		sts Gripper+14,__zero_reg__
 1903 0758 1092 0000 		sts Gripper+14+1,__zero_reg__
 1904 075c 00C0      		rjmp .L162
 1905               	.L161:
 494:main.c        **** 					}
 495:main.c        **** 				}
 496:main.c        **** 				else { 
 497:main.c        **** 					if (Gripper.step_number == 0) {
 1906               		.loc 1 497 0
 1907 075e 892B      		or r24,r25
 1908 0760 01F4      		brne .L163
 498:main.c        **** 						Gripper.step_number = Gripper.number_of_steps;
 1909               		.loc 1 498 0
 1910 0762 8091 0000 		lds r24,Gripper+10
 1911 0766 9091 0000 		lds r25,Gripper+10+1
 1912 076a 8093 0000 		sts Gripper+14,r24
GAS LISTING /tmp/ccjciOO6.s 			page 54


 1913 076e 9093 0000 		sts Gripper+14+1,r25
 1914               	.L163:
 499:main.c        **** 					}
 500:main.c        **** 					Gripper.step_number--;
 1915               		.loc 1 500 0
 1916 0772 8091 0000 		lds r24,Gripper+14
 1917 0776 9091 0000 		lds r25,Gripper+14+1
 1918 077a 0197      		sbiw r24,1
 1919 077c 8093 0000 		sts Gripper+14,r24
 1920 0780 9093 0000 		sts Gripper+14+1,r25
 1921               	.L162:
 501:main.c        **** 				}
 502:main.c        **** 				
 503:main.c        **** 				stepMotor(Gripper,Gripper.step_number % 4);
 1922               		.loc 1 503 0
 1923 0784 8091 0000 		lds r24,Gripper+14
 1924 0788 9091 0000 		lds r25,Gripper+14+1
 1925 078c B701      		movw r22,r14
 1926 078e 0E94 0000 		call __divmodhi4
 1927 0792 9F93      		push r25
 1928               	.LCFI52:
 1929               		.cfi_def_cfa_offset 9
 1930 0794 8F93      		push r24
 1931               	.LCFI53:
 1932               		.cfi_def_cfa_offset 10
 1933 0796 8DB7      		in r24,__SP_L__
 1934 0798 9EB7      		in r25,__SP_H__
 1935 079a 8497      		sbiw r24,36
 1936 079c 8DBF      		out __SP_L__,r24
 1937 079e 9EBF      		out __SP_H__,r25
 1938               	.LCFI54:
 1939               		.cfi_def_cfa_offset 46
 1940 07a0 ADB7      		in r26,__SP_L__
 1941 07a2 BEB7      		in r27,__SP_H__
 1942 07a4 1196      		adiw r26,1
 1943 07a6 84E2      		ldi r24,lo8(36)
 1944 07a8 E0E0      		ldi r30,lo8(Gripper)
 1945 07aa F0E0      		ldi r31,hi8(Gripper)
 1946               		0:
 1947 07ac 0190      		ld r0,Z+
 1948 07ae 0D92      		st X+,r0
 1949 07b0 8A95      		dec r24
 1950 07b2 01F4      		brne 0b
 1951 07b4 0E94 0000 		call stepMotor
 1952 07b8 8DB7      		in r24,__SP_L__
 1953 07ba 9EB7      		in r25,__SP_H__
 1954 07bc 8696      		adiw r24,38
 1955 07be 8DBF      		out __SP_L__,r24
 1956 07c0 9EBF      		out __SP_H__,r25
 1957               	.LCFI55:
 1958               		.cfi_def_cfa_offset 8
 1959 07c2 00C0      		rjmp .L156
 1960               	.L167:
 1961               	/* epilogue start */
 504:main.c        **** 			}
 505:main.c        **** 		}
 506:main.c        ****   	}
GAS LISTING /tmp/ccjciOO6.s 			page 55


 507:main.c        **** }
 1962               		.loc 1 507 0
 1963 07c4 DF91      		pop r29
 1964 07c6 CF91      		pop r28
 1965 07c8 1F91      		pop r17
 1966 07ca 0F91      		pop r16
 1967 07cc FF90      		pop r15
 1968 07ce EF90      		pop r14
 1969 07d0 0895      		ret
 1970               		.cfi_endproc
 1971               	.LFE37:
 1972               		.size	step, .-step
 1973               	.global	stepOne
 1974               		.type	stepOne, @function
 1975               	stepOne:
 1976               	.LFB38:
 508:main.c        **** 
 509:main.c        **** // Step Once in a given direction. 
 510:main.c        **** // *stepper is which motor to move
 511:main.c        **** // myDir is what direction to move the motor: 1 is forwards, 0 is backwards
 512:main.c        **** void stepOne(struct Stepper *stepper, int myDir){
 1977               		.loc 1 512 0
 1978               		.cfi_startproc
 1979 07d2 CF93      		push r28
 1980               	.LCFI56:
 1981               		.cfi_def_cfa_offset 3
 1982               		.cfi_offset 28, -2
 1983 07d4 DF93      		push r29
 1984               	.LCFI57:
 1985               		.cfi_def_cfa_offset 4
 1986               		.cfi_offset 29, -3
 1987               	/* prologue: function */
 1988               	/* frame size = 0 */
 1989               	/* stack size = 2 */
 1990               	.L__stack_usage = 2
 1991 07d6 EC01      		movw r28,r24
 513:main.c        **** 	(*stepper).direction = myDir;
 1992               		.loc 1 513 0
 1993 07d8 6A83      		std Y+2,r22
 1994 07da 7B83      		std Y+3,r23
 1995 07dc 8E85      		ldd r24,Y+14
 1996 07de 9F85      		ldd r25,Y+15
 514:main.c        **** 	
 515:main.c        **** 	// increase or decrease the step number, depending on direction, keeping up odometry
 516:main.c        **** 	if ((*stepper).direction == 1) {
 1997               		.loc 1 516 0
 1998 07e0 6130      		cpi r22,1
 1999 07e2 7105      		cpc r23,__zero_reg__
 2000 07e4 01F4      		brne .L169
 517:main.c        **** 		(*stepper).step_number++;
 2001               		.loc 1 517 0
 2002 07e6 0196      		adiw r24,1
 2003 07e8 8E87      		std Y+14,r24
 2004 07ea 9F87      		std Y+15,r25
 518:main.c        **** 		pose[(*stepper).motorNumber -1] ++;
 2005               		.loc 1 518 0
 2006 07ec E881      		ld r30,Y
GAS LISTING /tmp/ccjciOO6.s 			page 56


 2007 07ee F981      		ldd r31,Y+1
 2008 07f0 EE0F      		lsl r30
 2009 07f2 FF1F      		rol r31
 2010 07f4 E050      		subi r30,lo8(-(pose-2))
 2011 07f6 F040      		sbci r31,hi8(-(pose-2))
 2012 07f8 2081      		ld r18,Z
 2013 07fa 3181      		ldd r19,Z+1
 2014 07fc 2F5F      		subi r18,-1
 2015 07fe 3F4F      		sbci r19,-1
 2016 0800 2083      		st Z,r18
 2017 0802 3183      		std Z+1,r19
 519:main.c        **** 		if ((*stepper).step_number == (*stepper).number_of_steps) {
 2018               		.loc 1 519 0
 2019 0804 2A85      		ldd r18,Y+10
 2020 0806 3B85      		ldd r19,Y+11
 2021 0808 8217      		cp r24,r18
 2022 080a 9307      		cpc r25,r19
 2023 080c 01F4      		brne .L171
 520:main.c        **** 			(*stepper).step_number = 0;
 2024               		.loc 1 520 0
 2025 080e 1E86      		std Y+14,__zero_reg__
 2026 0810 1F86      		std Y+15,__zero_reg__
 2027 0812 00C0      		rjmp .L171
 2028               	.L169:
 521:main.c        **** 		}
 522:main.c        **** 	}
 523:main.c        **** 	else if((*stepper).direction == 0){
 2029               		.loc 1 523 0
 2030 0814 672B      		or r22,r23
 2031 0816 01F0      		breq .L171
 524:main.c        **** 		
 525:main.c        **** 	} else { 
 526:main.c        **** 		if ((*stepper).step_number == 0) {
 2032               		.loc 1 526 0
 2033 0818 892B      		or r24,r25
 2034 081a 01F4      		brne .L173
 527:main.c        **** 			(*stepper).step_number = (*stepper).number_of_steps;
 2035               		.loc 1 527 0
 2036 081c 8A85      		ldd r24,Y+10
 2037 081e 9B85      		ldd r25,Y+11
 2038 0820 8E87      		std Y+14,r24
 2039 0822 9F87      		std Y+15,r25
 2040               	.L173:
 528:main.c        **** 		}
 529:main.c        **** 		(*stepper).step_number--;
 2041               		.loc 1 529 0
 2042 0824 8E85      		ldd r24,Y+14
 2043 0826 9F85      		ldd r25,Y+15
 2044 0828 0197      		sbiw r24,1
 2045 082a 8E87      		std Y+14,r24
 2046 082c 9F87      		std Y+15,r25
 530:main.c        **** 		pose[(*stepper).motorNumber -1] --;
 2047               		.loc 1 530 0
 2048 082e E881      		ld r30,Y
 2049 0830 F981      		ldd r31,Y+1
 2050 0832 EE0F      		lsl r30
 2051 0834 FF1F      		rol r31
GAS LISTING /tmp/ccjciOO6.s 			page 57


 2052 0836 E050      		subi r30,lo8(-(pose-2))
 2053 0838 F040      		sbci r31,hi8(-(pose-2))
 2054 083a 8081      		ld r24,Z
 2055 083c 9181      		ldd r25,Z+1
 2056 083e 0197      		sbiw r24,1
 2057 0840 8083      		st Z,r24
 2058 0842 9183      		std Z+1,r25
 2059               	.L171:
 531:main.c        **** 	}
 532:main.c        ****   // step the motor to step number 0, 1, 2, or 3:
 533:main.c        ****   stepMotor((*stepper),(*stepper).step_number % 4);
 2060               		.loc 1 533 0
 2061 0844 8E85      		ldd r24,Y+14
 2062 0846 9F85      		ldd r25,Y+15
 2063 0848 64E0      		ldi r22,lo8(4)
 2064 084a 70E0      		ldi r23,0
 2065 084c 0E94 0000 		call __divmodhi4
 2066 0850 9F93      		push r25
 2067               	.LCFI58:
 2068               		.cfi_def_cfa_offset 5
 2069 0852 8F93      		push r24
 2070               	.LCFI59:
 2071               		.cfi_def_cfa_offset 6
 2072 0854 8DB7      		in r24,__SP_L__
 2073 0856 9EB7      		in r25,__SP_H__
 2074 0858 8497      		sbiw r24,36
 2075 085a 8DBF      		out __SP_L__,r24
 2076 085c 9EBF      		out __SP_H__,r25
 2077               	.LCFI60:
 2078               		.cfi_def_cfa_offset 42
 2079 085e ADB7      		in r26,__SP_L__
 2080 0860 BEB7      		in r27,__SP_H__
 2081 0862 1196      		adiw r26,1
 2082 0864 84E2      		ldi r24,lo8(36)
 2083 0866 FE01      		movw r30,r28
 2084               		0:
 2085 0868 0190      		ld r0,Z+
 2086 086a 0D92      		st X+,r0
 2087 086c 8A95      		dec r24
 2088 086e 01F4      		brne 0b
 2089 0870 0E94 0000 		call stepMotor
 534:main.c        ****   
 535:main.c        ****   // Special Case: Move Gripper if Elbow moves, because of mechanical design limitations.
 536:main.c        ****   if((*stepper).motorNumber==3){
 2090               		.loc 1 536 0
 2091 0874 8DB7      		in r24,__SP_L__
 2092 0876 9EB7      		in r25,__SP_H__
 2093 0878 8696      		adiw r24,38
 2094 087a 8DBF      		out __SP_L__,r24
 2095 087c 9EBF      		out __SP_H__,r25
 2096               	.LCFI61:
 2097               		.cfi_def_cfa_offset 4
 2098 087e 8881      		ld r24,Y
 2099 0880 9981      		ldd r25,Y+1
 2100 0882 0397      		sbiw r24,3
 2101 0884 01F0      		breq .+2
 2102 0886 00C0      		rjmp .L168
GAS LISTING /tmp/ccjciOO6.s 			page 58


 537:main.c        **** 	  
 538:main.c        **** 		Gripper.direction = -1*(*stepper).direction;
 2103               		.loc 1 538 0
 2104 0888 2A81      		ldd r18,Y+2
 2105 088a 3B81      		ldd r19,Y+3
 2106 088c 3195      		neg r19
 2107 088e 2195      		neg r18
 2108 0890 3109      		sbc r19,__zero_reg__
 2109 0892 2093 0000 		sts Gripper+2,r18
 2110 0896 3093 0000 		sts Gripper+2+1,r19
 2111 089a 8091 0000 		lds r24,Gripper+14
 2112 089e 9091 0000 		lds r25,Gripper+14+1
 539:main.c        **** 		
 540:main.c        **** 		if (Gripper.direction == 1) {
 2113               		.loc 1 540 0
 2114 08a2 2130      		cpi r18,1
 2115 08a4 3105      		cpc r19,__zero_reg__
 2116 08a6 01F4      		brne .L175
 541:main.c        **** 			Gripper.step_number++;
 2117               		.loc 1 541 0
 2118 08a8 0196      		adiw r24,1
 2119 08aa 8093 0000 		sts Gripper+14,r24
 2120 08ae 9093 0000 		sts Gripper+14+1,r25
 542:main.c        **** 			if (Gripper.step_number == Gripper.number_of_steps) {
 2121               		.loc 1 542 0
 2122 08b2 2091 0000 		lds r18,Gripper+10
 2123 08b6 3091 0000 		lds r19,Gripper+10+1
 2124 08ba 8217      		cp r24,r18
 2125 08bc 9307      		cpc r25,r19
 2126 08be 01F4      		brne .L177
 543:main.c        **** 				Gripper.step_number = 0;
 2127               		.loc 1 543 0
 2128 08c0 1092 0000 		sts Gripper+14,__zero_reg__
 2129 08c4 1092 0000 		sts Gripper+14+1,__zero_reg__
 2130 08c8 00C0      		rjmp .L177
 2131               	.L175:
 544:main.c        **** 			}
 545:main.c        **** 		}else if((*stepper).direction == 0){
 2132               		.loc 1 545 0
 2133 08ca 2A81      		ldd r18,Y+2
 2134 08cc 3B81      		ldd r19,Y+3
 2135 08ce 232B      		or r18,r19
 2136 08d0 01F0      		breq .L177
 546:main.c        **** 		
 547:main.c        **** 		}else { 
 548:main.c        **** 			if (Gripper.step_number == 0) {
 2137               		.loc 1 548 0
 2138 08d2 892B      		or r24,r25
 2139 08d4 01F4      		brne .L179
 549:main.c        **** 				Gripper.step_number = Gripper.number_of_steps;
 2140               		.loc 1 549 0
 2141 08d6 8091 0000 		lds r24,Gripper+10
 2142 08da 9091 0000 		lds r25,Gripper+10+1
 2143 08de 8093 0000 		sts Gripper+14,r24
 2144 08e2 9093 0000 		sts Gripper+14+1,r25
 2145               	.L179:
 550:main.c        **** 			}
GAS LISTING /tmp/ccjciOO6.s 			page 59


 551:main.c        **** 			Gripper.step_number--;
 2146               		.loc 1 551 0
 2147 08e6 8091 0000 		lds r24,Gripper+14
 2148 08ea 9091 0000 		lds r25,Gripper+14+1
 2149 08ee 0197      		sbiw r24,1
 2150 08f0 8093 0000 		sts Gripper+14,r24
 2151 08f4 9093 0000 		sts Gripper+14+1,r25
 2152               	.L177:
 552:main.c        **** 		}
 553:main.c        **** 		
 554:main.c        **** 		stepMotor(Gripper,Gripper.step_number % 4);
 2153               		.loc 1 554 0
 2154 08f8 8091 0000 		lds r24,Gripper+14
 2155 08fc 9091 0000 		lds r25,Gripper+14+1
 2156 0900 64E0      		ldi r22,lo8(4)
 2157 0902 70E0      		ldi r23,0
 2158 0904 0E94 0000 		call __divmodhi4
 2159 0908 9F93      		push r25
 2160               	.LCFI62:
 2161               		.cfi_def_cfa_offset 5
 2162 090a 8F93      		push r24
 2163               	.LCFI63:
 2164               		.cfi_def_cfa_offset 6
 2165 090c 8DB7      		in r24,__SP_L__
 2166 090e 9EB7      		in r25,__SP_H__
 2167 0910 8497      		sbiw r24,36
 2168 0912 8DBF      		out __SP_L__,r24
 2169 0914 9EBF      		out __SP_H__,r25
 2170               	.LCFI64:
 2171               		.cfi_def_cfa_offset 42
 2172 0916 ADB7      		in r26,__SP_L__
 2173 0918 BEB7      		in r27,__SP_H__
 2174 091a 1196      		adiw r26,1
 2175 091c 84E2      		ldi r24,lo8(36)
 2176 091e E0E0      		ldi r30,lo8(Gripper)
 2177 0920 F0E0      		ldi r31,hi8(Gripper)
 2178               		0:
 2179 0922 0190      		ld r0,Z+
 2180 0924 0D92      		st X+,r0
 2181 0926 8A95      		dec r24
 2182 0928 01F4      		brne 0b
 2183 092a 0E94 0000 		call stepMotor
 2184 092e 8DB7      		in r24,__SP_L__
 2185 0930 9EB7      		in r25,__SP_H__
 2186 0932 8696      		adiw r24,38
 2187 0934 8DBF      		out __SP_L__,r24
 2188 0936 9EBF      		out __SP_H__,r25
 2189               	.LCFI65:
 2190               		.cfi_def_cfa_offset 4
 2191               	.L168:
 2192               	/* epilogue start */
 555:main.c        **** 	}
 556:main.c        **** }
 2193               		.loc 1 556 0
 2194 0938 DF91      		pop r29
 2195 093a CF91      		pop r28
 2196 093c 0895      		ret
GAS LISTING /tmp/ccjciOO6.s 			page 60


 2197               		.cfi_endproc
 2198               	.LFE38:
 2199               		.size	stepOne, .-stepOne
 2200               	.global	changeGoal
 2201               		.type	changeGoal, @function
 2202               	changeGoal:
 2203               	.LFB39:
 557:main.c        **** 
 558:main.c        **** void changeGoal(int val0, int val1, int val2, int val3, int val4, int val5){
 2204               		.loc 1 558 0
 2205               		.cfi_startproc
 2206               	.LVL188:
 2207 093e EF92      		push r14
 2208               	.LCFI66:
 2209               		.cfi_def_cfa_offset 3
 2210               		.cfi_offset 14, -2
 2211 0940 FF92      		push r15
 2212               	.LCFI67:
 2213               		.cfi_def_cfa_offset 4
 2214               		.cfi_offset 15, -3
 2215 0942 0F93      		push r16
 2216               	.LCFI68:
 2217               		.cfi_def_cfa_offset 5
 2218               		.cfi_offset 16, -4
 2219 0944 1F93      		push r17
 2220               	.LCFI69:
 2221               		.cfi_def_cfa_offset 6
 2222               		.cfi_offset 17, -5
 2223               	/* prologue: function */
 2224               	/* frame size = 0 */
 2225               	/* stack size = 4 */
 2226               	.L__stack_usage = 4
 559:main.c        ****     /*
 560:main.c        **** 	// Take limits into account
 561:main.c        **** 	if((val1*(-1.875/3.0)-875)>(val2)){// Shoulder and Elbow, bias Shoulder (for now)
 562:main.c        **** 		val2 = (int)(val1*(-1.875/3.0)-875);
 563:main.c        **** 		printf("bad pose\n");
 564:main.c        **** 	}else if((val1*(-1.875/3.0))<(val2)){
 565:main.c        **** 		val2 = (int)(val1*(-1.875/3.0));
 566:main.c        **** 		printf("bad pose\n");
 567:main.c        **** 	}
 568:main.c        **** 	
 569:main.c        **** 	if(abs(val3)==abs(val4)){
 570:main.c        **** 		if((val2*(-.625/1.875)+200)<(val3)){ //Elbow and Wrist, bias wrist. TODO: take both sides into ac
 571:main.c        **** 			val3 = (int)(val2*(-.625/1.875)+200);
 572:main.c        **** 			val4 = -1*val3;
 573:main.c        **** 		}else if((val2*(-.625/1.875)-200)>(val3)){
 574:main.c        **** 			val3 = (int)(val2*(-.625/1.875)-200);
 575:main.c        **** 			val4 = -1*val3;
 576:main.c        **** 		}
 577:main.c        **** 	}*/
 578:main.c        **** 	goal[0] = val0;
 2227               		.loc 1 578 0
 2228 0946 E0E0      		ldi r30,lo8(goal)
 2229 0948 F0E0      		ldi r31,hi8(goal)
 2230 094a 8083      		st Z,r24
 2231 094c 9183      		std Z+1,r25
GAS LISTING /tmp/ccjciOO6.s 			page 61


 579:main.c        **** 	goal[1] = val1;
 2232               		.loc 1 579 0
 2233 094e 6283      		std Z+2,r22
 2234 0950 7383      		std Z+3,r23
 580:main.c        **** 	goal[2] = val2;
 2235               		.loc 1 580 0
 2236 0952 4483      		std Z+4,r20
 2237 0954 5583      		std Z+5,r21
 581:main.c        **** 	goal[3] = val3;
 2238               		.loc 1 581 0
 2239 0956 2683      		std Z+6,r18
 2240 0958 3783      		std Z+7,r19
 582:main.c        **** 	goal[4] = val4;
 2241               		.loc 1 582 0
 2242 095a 0087      		std Z+8,r16
 2243 095c 1187      		std Z+9,r17
 583:main.c        **** 	goal[5] = val5;
 2244               		.loc 1 583 0
 2245 095e E286      		std Z+10,r14
 2246 0960 F386      		std Z+11,r15
 2247               	/* epilogue start */
 584:main.c        **** }
 2248               		.loc 1 584 0
 2249 0962 1F91      		pop r17
 2250 0964 0F91      		pop r16
 2251               	.LVL189:
 2252 0966 FF90      		pop r15
 2253 0968 EF90      		pop r14
 2254               	.LVL190:
 2255 096a 0895      		ret
 2256               		.cfi_endproc
 2257               	.LFE39:
 2258               		.size	changeGoal, .-changeGoal
 2259               	.global	__floatsisf
 2260               	.global	__divsf3
 2261               	.global	__mulsf3
 2262               	.global	__fixsfsi
 2263               	.global	moveToGoal
 2264               		.type	moveToGoal, @function
 2265               	moveToGoal:
 2266               	.LFB40:
 585:main.c        **** 
 586:main.c        **** void moveToGoal(void){
 2267               		.loc 1 586 0
 2268               		.cfi_startproc
 2269 096c 2F92      		push r2
 2270               	.LCFI70:
 2271               		.cfi_def_cfa_offset 3
 2272               		.cfi_offset 2, -2
 2273 096e 3F92      		push r3
 2274               	.LCFI71:
 2275               		.cfi_def_cfa_offset 4
 2276               		.cfi_offset 3, -3
 2277 0970 4F92      		push r4
 2278               	.LCFI72:
 2279               		.cfi_def_cfa_offset 5
 2280               		.cfi_offset 4, -4
GAS LISTING /tmp/ccjciOO6.s 			page 62


 2281 0972 5F92      		push r5
 2282               	.LCFI73:
 2283               		.cfi_def_cfa_offset 6
 2284               		.cfi_offset 5, -5
 2285 0974 6F92      		push r6
 2286               	.LCFI74:
 2287               		.cfi_def_cfa_offset 7
 2288               		.cfi_offset 6, -6
 2289 0976 7F92      		push r7
 2290               	.LCFI75:
 2291               		.cfi_def_cfa_offset 8
 2292               		.cfi_offset 7, -7
 2293 0978 8F92      		push r8
 2294               	.LCFI76:
 2295               		.cfi_def_cfa_offset 9
 2296               		.cfi_offset 8, -8
 2297 097a 9F92      		push r9
 2298               	.LCFI77:
 2299               		.cfi_def_cfa_offset 10
 2300               		.cfi_offset 9, -9
 2301 097c AF92      		push r10
 2302               	.LCFI78:
 2303               		.cfi_def_cfa_offset 11
 2304               		.cfi_offset 10, -10
 2305 097e BF92      		push r11
 2306               	.LCFI79:
 2307               		.cfi_def_cfa_offset 12
 2308               		.cfi_offset 11, -11
 2309 0980 CF92      		push r12
 2310               	.LCFI80:
 2311               		.cfi_def_cfa_offset 13
 2312               		.cfi_offset 12, -12
 2313 0982 DF92      		push r13
 2314               	.LCFI81:
 2315               		.cfi_def_cfa_offset 14
 2316               		.cfi_offset 13, -13
 2317 0984 EF92      		push r14
 2318               	.LCFI82:
 2319               		.cfi_def_cfa_offset 15
 2320               		.cfi_offset 14, -14
 2321 0986 FF92      		push r15
 2322               	.LCFI83:
 2323               		.cfi_def_cfa_offset 16
 2324               		.cfi_offset 15, -15
 2325 0988 0F93      		push r16
 2326               	.LCFI84:
 2327               		.cfi_def_cfa_offset 17
 2328               		.cfi_offset 16, -16
 2329 098a 1F93      		push r17
 2330               	.LCFI85:
 2331               		.cfi_def_cfa_offset 18
 2332               		.cfi_offset 17, -17
 2333 098c CF93      		push r28
 2334               	.LCFI86:
 2335               		.cfi_def_cfa_offset 19
 2336               		.cfi_offset 28, -18
 2337 098e DF93      		push r29
GAS LISTING /tmp/ccjciOO6.s 			page 63


 2338               	.LCFI87:
 2339               		.cfi_def_cfa_offset 20
 2340               		.cfi_offset 29, -19
 2341 0990 CDB7      		in r28,__SP_L__
 2342 0992 DEB7      		in r29,__SP_H__
 2343               	.LCFI88:
 2344               		.cfi_def_cfa_register 28
 2345 0994 6897      		sbiw r28,24
 2346               	.LCFI89:
 2347               		.cfi_def_cfa_offset 44
 2348 0996 CDBF      		out __SP_L__,r28
 2349 0998 DEBF      		out __SP_H__,r29
 2350               	/* prologue: function */
 2351               	/* frame size = 24 */
 2352               	/* stack size = 42 */
 2353               	.L__stack_usage = 42
 587:main.c        **** 	// Get Error Array
 588:main.c        **** 	int error[6] = {
 589:main.c        **** 					goal[0]-pose[0],
 2354               		.loc 1 589 0
 2355 099a 0091 0000 		lds r16,goal
 2356 099e 1091 0000 		lds r17,goal+1
 2357 09a2 8091 0000 		lds r24,pose
 2358 09a6 9091 0000 		lds r25,pose+1
 2359 09aa 081B      		sub r16,r24
 2360 09ac 190B      		sbc r17,r25
 588:main.c        **** 					goal[0]-pose[0],
 2361               		.loc 1 588 0
 2362 09ae 0983      		std Y+1,r16
 2363 09b0 1A83      		std Y+2,r17
 590:main.c        **** 					goal[1]-pose[1],
 2364               		.loc 1 590 0
 2365 09b2 2090 0000 		lds r2,goal+2
 2366 09b6 3090 0000 		lds r3,goal+2+1
 2367 09ba 8091 0000 		lds r24,pose+2
 2368 09be 9091 0000 		lds r25,pose+2+1
 2369 09c2 281A      		sub r2,r24
 2370 09c4 390A      		sbc r3,r25
 588:main.c        **** 					goal[0]-pose[0],
 2371               		.loc 1 588 0
 2372 09c6 2B82      		std Y+3,r2
 2373 09c8 3C82      		std Y+4,r3
 591:main.c        **** 					goal[2]-pose[2],
 2374               		.loc 1 591 0
 2375 09ca 6091 0000 		lds r22,goal+4
 2376 09ce 7091 0000 		lds r23,goal+4+1
 2377 09d2 8091 0000 		lds r24,pose+4
 2378 09d6 9091 0000 		lds r25,pose+4+1
 2379 09da 9B01      		movw r18,r22
 2380 09dc 281B      		sub r18,r24
 2381 09de 390B      		sbc r19,r25
 2382 09e0 2D87      		std Y+13,r18
 2383 09e2 3E87      		std Y+14,r19
 588:main.c        **** 					goal[0]-pose[0],
 2384               		.loc 1 588 0
 2385 09e4 2D83      		std Y+5,r18
 2386 09e6 3E83      		std Y+6,r19
GAS LISTING /tmp/ccjciOO6.s 			page 64


 592:main.c        **** 					goal[3]-pose[3],
 2387               		.loc 1 592 0
 2388 09e8 6091 0000 		lds r22,goal+6
 2389 09ec 7091 0000 		lds r23,goal+6+1
 2390 09f0 8091 0000 		lds r24,pose+6
 2391 09f4 9091 0000 		lds r25,pose+6+1
 2392 09f8 AB01      		movw r20,r22
 2393 09fa 481B      		sub r20,r24
 2394 09fc 590B      		sbc r21,r25
 2395 09fe 4F87      		std Y+15,r20
 2396 0a00 588B      		std Y+16,r21
 588:main.c        **** 					goal[0]-pose[0],
 2397               		.loc 1 588 0
 2398 0a02 4F83      		std Y+7,r20
 2399 0a04 5887      		std Y+8,r21
 593:main.c        **** 					goal[4]-pose[4],
 2400               		.loc 1 593 0
 2401 0a06 6091 0000 		lds r22,goal+8
 2402 0a0a 7091 0000 		lds r23,goal+8+1
 2403 0a0e 8091 0000 		lds r24,pose+8
 2404 0a12 9091 0000 		lds r25,pose+8+1
 2405 0a16 DB01      		movw r26,r22
 2406 0a18 A81B      		sub r26,r24
 2407 0a1a B90B      		sbc r27,r25
 2408 0a1c A98B      		std Y+17,r26
 2409 0a1e BA8B      		std Y+18,r27
 588:main.c        **** 					goal[0]-pose[0],
 2410               		.loc 1 588 0
 2411 0a20 A987      		std Y+9,r26
 2412 0a22 BA87      		std Y+10,r27
 594:main.c        **** 					goal[5]-pose[5],					
 2413               		.loc 1 594 0
 2414 0a24 6091 0000 		lds r22,goal+10
 2415 0a28 7091 0000 		lds r23,goal+10+1
 2416 0a2c 8091 0000 		lds r24,pose+10
 2417 0a30 9091 0000 		lds r25,pose+10+1
 2418 0a34 9B01      		movw r18,r22
 2419 0a36 281B      		sub r18,r24
 2420 0a38 390B      		sbc r19,r25
 2421 0a3a 2B8B      		std Y+19,r18
 2422 0a3c 3C8B      		std Y+20,r19
 588:main.c        **** 					goal[0]-pose[0],
 2423               		.loc 1 588 0
 2424 0a3e 2B87      		std Y+11,r18
 2425 0a40 3C87      		std Y+12,r19
 2426               	.LVL191:
 2427 0a42 FE01      		movw r30,r28
 2428 0a44 3396      		adiw r30,3
 2429 0a46 BE01      		movw r22,r28
 2430 0a48 635F      		subi r22,-13
 2431 0a4a 7F4F      		sbci r23,-1
 595:main.c        **** 					};
 596:main.c        **** 					
 597:main.c        **** 	// Determine the max error
 598:main.c        **** 	int maxError = error[0];
 2432               		.loc 1 598 0
 2433 0a4c 5801      		movw r10,r16
GAS LISTING /tmp/ccjciOO6.s 			page 65


 2434               	.LVL192:
 2435               	.L191:
 599:main.c        **** 	int i;
 600:main.c        **** 	for (i = 1; i < 6 ; i++){
 601:main.c        **** 		if(abs(error[i])>abs(maxError)){
 2436               		.loc 1 601 0
 2437 0a4e 8191      		ld r24,Z+
 2438 0a50 9191      		ld r25,Z+
 2439 0a52 AC01      		movw r20,r24
 2440 0a54 97FF      		sbrs r25,7
 2441 0a56 00C0      		rjmp .L189
 2442 0a58 4427      		clr r20
 2443 0a5a 5527      		clr r21
 2444 0a5c 481B      		sub r20,r24
 2445 0a5e 590B      		sbc r21,r25
 2446               	.L189:
 2447 0a60 9501      		movw r18,r10
 2448 0a62 B7FE      		sbrs r11,7
 2449 0a64 00C0      		rjmp .L190
 2450 0a66 2227      		clr r18
 2451 0a68 3327      		clr r19
 2452 0a6a 2A19      		sub r18,r10
 2453 0a6c 3B09      		sbc r19,r11
 2454               	.L190:
 2455 0a6e 2417      		cp r18,r20
 2456 0a70 3507      		cpc r19,r21
 2457 0a72 04F4      		brge .L188
 602:main.c        **** 			maxError = error[i];
 2458               		.loc 1 602 0
 2459 0a74 5C01      		movw r10,r24
 2460               	.LVL193:
 2461               	.L188:
 600:main.c        **** 		if(abs(error[i])>abs(maxError)){
 2462               		.loc 1 600 0 discriminator 2
 2463 0a76 6E17      		cp r22,r30
 2464 0a78 7F07      		cpc r23,r31
 2465 0a7a 01F4      		brne .L191
 603:main.c        **** 		}
 604:main.c        **** 	}	
 605:main.c        **** 	//Determine the speed each motor needs to step at based on error array
 606:main.c        **** 	//Speeds are such that each motor arrives at the end point at the same time. 
 607:main.c        **** 	
 608:main.c        **** 	setSpeed(&MOTOR_1,abs((int)(maxSpeed*(error[0]/(double)maxError))));
 2466               		.loc 1 608 0
 2467 0a7c 6091 0000 		lds r22,maxSpeed
 2468 0a80 7091 0000 		lds r23,maxSpeed+1
 2469 0a84 072E      		mov __tmp_reg__,r23
 2470 0a86 000C      		lsl r0
 2471 0a88 880B      		sbc r24,r24
 2472 0a8a 990B      		sbc r25,r25
 2473 0a8c 0E94 0000 		call __floatsisf
 2474               	.LVL194:
 2475 0a90 6B01      		movw r12,r22
 2476 0a92 7C01      		movw r14,r24
 2477 0a94 B501      		movw r22,r10
 2478 0a96 BB0C      		lsl r11
 2479 0a98 880B      		sbc r24,r24
GAS LISTING /tmp/ccjciOO6.s 			page 66


 2480 0a9a 990B      		sbc r25,r25
 2481 0a9c 0E94 0000 		call __floatsisf
 2482               	.LVL195:
 2483 0aa0 4B01      		movw r8,r22
 2484 0aa2 5C01      		movw r10,r24
 2485               	.LVL196:
 2486               	.LBB97:
 2487               	.LBB98:
 392:main.c        **** }
 2488               		.loc 1 392 0
 2489 0aa4 2091 0000 		lds r18,Base+10
 2490 0aa8 3091 0000 		lds r19,Base+10+1
 2491 0aac 032E      		mov __tmp_reg__,r19
 2492 0aae 000C      		lsl r0
 2493 0ab0 440B      		sbc r20,r20
 2494 0ab2 550B      		sbc r21,r21
 2495 0ab4 60E6      		ldi r22,lo8(96)
 2496 0ab6 7AEE      		ldi r23,lo8(-22)
 2497 0ab8 80E0      		ldi r24,0
 2498 0aba 90E0      		ldi r25,0
 2499 0abc 0E94 0000 		call __divmodsi4
 2500 0ac0 2901      		movw r4,r18
 2501 0ac2 3A01      		movw r6,r20
 2502 0ac4 B801      		movw r22,r16
 2503 0ac6 110F      		lsl r17
 2504 0ac8 880B      		sbc r24,r24
 2505 0aca 990B      		sbc r25,r25
 2506 0acc 0E94 0000 		call __floatsisf
 2507               	.LVL197:
 2508 0ad0 A501      		movw r20,r10
 2509 0ad2 9401      		movw r18,r8
 2510 0ad4 0E94 0000 		call __divsf3
 2511               	.LVL198:
 2512 0ad8 A701      		movw r20,r14
 2513 0ada 9601      		movw r18,r12
 2514 0adc 0E94 0000 		call __mulsf3
 2515               	.LVL199:
 2516 0ae0 0E94 0000 		call __fixsfsi
 2517               	.LVL200:
 2518 0ae4 9B01      		movw r18,r22
 2519 0ae6 77FF      		sbrs r23,7
 2520 0ae8 00C0      		rjmp .L192
 2521 0aea 2227      		clr r18
 2522 0aec 3327      		clr r19
 2523 0aee 261B      		sub r18,r22
 2524 0af0 370B      		sbc r19,r23
 2525               	.L192:
 2526 0af2 032E      		mov __tmp_reg__,r19
 2527 0af4 000C      		lsl r0
 2528 0af6 440B      		sbc r20,r20
 2529 0af8 550B      		sbc r21,r21
 2530 0afa C301      		movw r24,r6
 2531 0afc B201      		movw r22,r4
 2532 0afe 0E94 0000 		call __divmodsi4
 2533 0b02 2D8B      		std Y+21,r18
 2534 0b04 3E8B      		std Y+22,r19
 2535 0b06 4F8B      		std Y+23,r20
GAS LISTING /tmp/ccjciOO6.s 			page 67


 2536 0b08 588F      		std Y+24,r21
 2537 0b0a 2093 0000 		sts Base+6,r18
 2538 0b0e 3093 0000 		sts Base+6+1,r19
 2539 0b12 4093 0000 		sts Base+6+2,r20
 2540 0b16 5093 0000 		sts Base+6+3,r21
 2541               	.LVL201:
 2542               	.LBE98:
 2543               	.LBE97:
 2544               	.LBB99:
 2545               	.LBB100:
 2546 0b1a 2091 0000 		lds r18,Shoulder+10
 2547 0b1e 3091 0000 		lds r19,Shoulder+10+1
 2548 0b22 032E      		mov __tmp_reg__,r19
 2549 0b24 000C      		lsl r0
 2550 0b26 440B      		sbc r20,r20
 2551 0b28 550B      		sbc r21,r21
 2552 0b2a 60E6      		ldi r22,lo8(96)
 2553 0b2c 7AEE      		ldi r23,lo8(-22)
 2554 0b2e 80E0      		ldi r24,0
 2555 0b30 90E0      		ldi r25,0
 2556 0b32 0E94 0000 		call __divmodsi4
 2557 0b36 2901      		movw r4,r18
 2558 0b38 3A01      		movw r6,r20
 2559 0b3a B101      		movw r22,r2
 2560 0b3c 330C      		lsl r3
 2561 0b3e 880B      		sbc r24,r24
 2562 0b40 990B      		sbc r25,r25
 2563 0b42 0E94 0000 		call __floatsisf
 2564               	.LVL202:
 2565 0b46 A501      		movw r20,r10
 2566 0b48 9401      		movw r18,r8
 2567 0b4a 0E94 0000 		call __divsf3
 2568               	.LVL203:
 2569 0b4e A701      		movw r20,r14
 2570 0b50 9601      		movw r18,r12
 2571 0b52 0E94 0000 		call __mulsf3
 2572               	.LVL204:
 2573 0b56 0E94 0000 		call __fixsfsi
 2574               	.LVL205:
 2575 0b5a 9B01      		movw r18,r22
 2576 0b5c 77FF      		sbrs r23,7
 2577 0b5e 00C0      		rjmp .L193
 2578 0b60 2227      		clr r18
 2579 0b62 3327      		clr r19
 2580 0b64 261B      		sub r18,r22
 2581 0b66 370B      		sbc r19,r23
 2582               	.L193:
 2583 0b68 032E      		mov __tmp_reg__,r19
 2584 0b6a 000C      		lsl r0
 2585 0b6c 440B      		sbc r20,r20
 2586 0b6e 550B      		sbc r21,r21
 2587 0b70 C301      		movw r24,r6
 2588 0b72 B201      		movw r22,r4
 2589 0b74 0E94 0000 		call __divmodsi4
 2590 0b78 2093 0000 		sts Shoulder+6,r18
 2591 0b7c 3093 0000 		sts Shoulder+6+1,r19
 2592 0b80 4093 0000 		sts Shoulder+6+2,r20
GAS LISTING /tmp/ccjciOO6.s 			page 68


 2593 0b84 5093 0000 		sts Shoulder+6+3,r21
 2594               	.LVL206:
 2595               	.LBE100:
 2596               	.LBE99:
 2597               	.LBB101:
 2598               	.LBB102:
 2599 0b88 2091 0000 		lds r18,Elbow+10
 2600 0b8c 3091 0000 		lds r19,Elbow+10+1
 2601 0b90 032E      		mov __tmp_reg__,r19
 2602 0b92 000C      		lsl r0
 2603 0b94 440B      		sbc r20,r20
 2604 0b96 550B      		sbc r21,r21
 2605 0b98 60E6      		ldi r22,lo8(96)
 2606 0b9a 7AEE      		ldi r23,lo8(-22)
 2607 0b9c 80E0      		ldi r24,0
 2608 0b9e 90E0      		ldi r25,0
 2609 0ba0 0E94 0000 		call __divmodsi4
 2610 0ba4 2901      		movw r4,r18
 2611 0ba6 3A01      		movw r6,r20
 2612 0ba8 4D85      		ldd r20,Y+13
 2613 0baa 5E85      		ldd r21,Y+14
 2614 0bac BA01      		movw r22,r20
 2615 0bae 550F      		lsl r21
 2616 0bb0 880B      		sbc r24,r24
 2617 0bb2 990B      		sbc r25,r25
 2618 0bb4 0E94 0000 		call __floatsisf
 2619               	.LVL207:
 2620 0bb8 A501      		movw r20,r10
 2621 0bba 9401      		movw r18,r8
 2622 0bbc 0E94 0000 		call __divsf3
 2623               	.LVL208:
 2624 0bc0 A701      		movw r20,r14
 2625 0bc2 9601      		movw r18,r12
 2626 0bc4 0E94 0000 		call __mulsf3
 2627               	.LVL209:
 2628 0bc8 0E94 0000 		call __fixsfsi
 2629               	.LVL210:
 2630 0bcc 9B01      		movw r18,r22
 2631 0bce 77FF      		sbrs r23,7
 2632 0bd0 00C0      		rjmp .L194
 2633 0bd2 2227      		clr r18
 2634 0bd4 3327      		clr r19
 2635 0bd6 261B      		sub r18,r22
 2636 0bd8 370B      		sbc r19,r23
 2637               	.L194:
 2638 0bda 032E      		mov __tmp_reg__,r19
 2639 0bdc 000C      		lsl r0
 2640 0bde 440B      		sbc r20,r20
 2641 0be0 550B      		sbc r21,r21
 2642 0be2 C301      		movw r24,r6
 2643 0be4 B201      		movw r22,r4
 2644 0be6 0E94 0000 		call __divmodsi4
 2645 0bea 2093 0000 		sts Elbow+6,r18
 2646 0bee 3093 0000 		sts Elbow+6+1,r19
 2647 0bf2 4093 0000 		sts Elbow+6+2,r20
 2648 0bf6 5093 0000 		sts Elbow+6+3,r21
 2649               	.LVL211:
GAS LISTING /tmp/ccjciOO6.s 			page 69


 2650               	.LBE102:
 2651               	.LBE101:
 2652               	.LBB103:
 2653               	.LBB104:
 2654 0bfa 2091 0000 		lds r18,Right_Wrist+10
 2655 0bfe 3091 0000 		lds r19,Right_Wrist+10+1
 2656 0c02 032E      		mov __tmp_reg__,r19
 2657 0c04 000C      		lsl r0
 2658 0c06 440B      		sbc r20,r20
 2659 0c08 550B      		sbc r21,r21
 2660 0c0a 60E6      		ldi r22,lo8(96)
 2661 0c0c 7AEE      		ldi r23,lo8(-22)
 2662 0c0e 80E0      		ldi r24,0
 2663 0c10 90E0      		ldi r25,0
 2664 0c12 0E94 0000 		call __divmodsi4
 2665 0c16 2901      		movw r4,r18
 2666 0c18 3A01      		movw r6,r20
 2667 0c1a AF85      		ldd r26,Y+15
 2668 0c1c B889      		ldd r27,Y+16
 2669 0c1e BD01      		movw r22,r26
 2670 0c20 BB0F      		lsl r27
 2671 0c22 880B      		sbc r24,r24
 2672 0c24 990B      		sbc r25,r25
 2673 0c26 0E94 0000 		call __floatsisf
 2674               	.LVL212:
 2675 0c2a A501      		movw r20,r10
 2676 0c2c 9401      		movw r18,r8
 2677 0c2e 0E94 0000 		call __divsf3
 2678               	.LVL213:
 2679 0c32 A701      		movw r20,r14
 2680 0c34 9601      		movw r18,r12
 2681 0c36 0E94 0000 		call __mulsf3
 2682               	.LVL214:
 2683 0c3a 0E94 0000 		call __fixsfsi
 2684               	.LVL215:
 2685 0c3e 9B01      		movw r18,r22
 2686 0c40 77FF      		sbrs r23,7
 2687 0c42 00C0      		rjmp .L195
 2688 0c44 2227      		clr r18
 2689 0c46 3327      		clr r19
 2690 0c48 261B      		sub r18,r22
 2691 0c4a 370B      		sbc r19,r23
 2692               	.L195:
 2693 0c4c 032E      		mov __tmp_reg__,r19
 2694 0c4e 000C      		lsl r0
 2695 0c50 440B      		sbc r20,r20
 2696 0c52 550B      		sbc r21,r21
 2697 0c54 C301      		movw r24,r6
 2698 0c56 B201      		movw r22,r4
 2699 0c58 0E94 0000 		call __divmodsi4
 2700 0c5c 2093 0000 		sts Right_Wrist+6,r18
 2701 0c60 3093 0000 		sts Right_Wrist+6+1,r19
 2702 0c64 4093 0000 		sts Right_Wrist+6+2,r20
 2703 0c68 5093 0000 		sts Right_Wrist+6+3,r21
 2704               	.LVL216:
 2705               	.LBE104:
 2706               	.LBE103:
GAS LISTING /tmp/ccjciOO6.s 			page 70


 2707               	.LBB105:
 2708               	.LBB106:
 2709 0c6c 2091 0000 		lds r18,Left_Wrist+10
 2710 0c70 3091 0000 		lds r19,Left_Wrist+10+1
 2711 0c74 032E      		mov __tmp_reg__,r19
 2712 0c76 000C      		lsl r0
 2713 0c78 440B      		sbc r20,r20
 2714 0c7a 550B      		sbc r21,r21
 2715 0c7c 60E6      		ldi r22,lo8(96)
 2716 0c7e 7AEE      		ldi r23,lo8(-22)
 2717 0c80 80E0      		ldi r24,0
 2718 0c82 90E0      		ldi r25,0
 2719 0c84 0E94 0000 		call __divmodsi4
 2720 0c88 2901      		movw r4,r18
 2721 0c8a 3A01      		movw r6,r20
 2722 0c8c 2989      		ldd r18,Y+17
 2723 0c8e 3A89      		ldd r19,Y+18
 2724 0c90 B901      		movw r22,r18
 2725 0c92 330F      		lsl r19
 2726 0c94 880B      		sbc r24,r24
 2727 0c96 990B      		sbc r25,r25
 2728 0c98 0E94 0000 		call __floatsisf
 2729               	.LVL217:
 2730 0c9c A501      		movw r20,r10
 2731 0c9e 9401      		movw r18,r8
 2732 0ca0 0E94 0000 		call __divsf3
 2733               	.LVL218:
 2734 0ca4 A701      		movw r20,r14
 2735 0ca6 9601      		movw r18,r12
 2736 0ca8 0E94 0000 		call __mulsf3
 2737               	.LVL219:
 2738 0cac 0E94 0000 		call __fixsfsi
 2739               	.LVL220:
 2740 0cb0 9B01      		movw r18,r22
 2741 0cb2 77FF      		sbrs r23,7
 2742 0cb4 00C0      		rjmp .L196
 2743 0cb6 2227      		clr r18
 2744 0cb8 3327      		clr r19
 2745 0cba 261B      		sub r18,r22
 2746 0cbc 370B      		sbc r19,r23
 2747               	.L196:
 2748 0cbe 032E      		mov __tmp_reg__,r19
 2749 0cc0 000C      		lsl r0
 2750 0cc2 440B      		sbc r20,r20
 2751 0cc4 550B      		sbc r21,r21
 2752 0cc6 C301      		movw r24,r6
 2753 0cc8 B201      		movw r22,r4
 2754 0cca 0E94 0000 		call __divmodsi4
 2755 0cce 2093 0000 		sts Left_Wrist+6,r18
 2756 0cd2 3093 0000 		sts Left_Wrist+6+1,r19
 2757 0cd6 4093 0000 		sts Left_Wrist+6+2,r20
 2758 0cda 5093 0000 		sts Left_Wrist+6+3,r21
 2759               	.LVL221:
 2760               	.LBE106:
 2761               	.LBE105:
 2762               	.LBB107:
 2763               	.LBB108:
GAS LISTING /tmp/ccjciOO6.s 			page 71


 2764 0cde 2091 0000 		lds r18,Gripper+10
 2765 0ce2 3091 0000 		lds r19,Gripper+10+1
 2766 0ce6 032E      		mov __tmp_reg__,r19
 2767 0ce8 000C      		lsl r0
 2768 0cea 440B      		sbc r20,r20
 2769 0cec 550B      		sbc r21,r21
 2770 0cee 60E6      		ldi r22,lo8(96)
 2771 0cf0 7AEE      		ldi r23,lo8(-22)
 2772 0cf2 80E0      		ldi r24,0
 2773 0cf4 90E0      		ldi r25,0
 2774 0cf6 0E94 0000 		call __divmodsi4
 2775 0cfa 2901      		movw r4,r18
 2776 0cfc 3A01      		movw r6,r20
 2777 0cfe 4B89      		ldd r20,Y+19
 2778 0d00 5C89      		ldd r21,Y+20
 2779 0d02 BA01      		movw r22,r20
 2780 0d04 550F      		lsl r21
 2781 0d06 880B      		sbc r24,r24
 2782 0d08 990B      		sbc r25,r25
 2783 0d0a 0E94 0000 		call __floatsisf
 2784               	.LVL222:
 2785 0d0e A501      		movw r20,r10
 2786 0d10 9401      		movw r18,r8
 2787 0d12 0E94 0000 		call __divsf3
 2788               	.LVL223:
 2789 0d16 A701      		movw r20,r14
 2790 0d18 9601      		movw r18,r12
 2791 0d1a 0E94 0000 		call __mulsf3
 2792               	.LVL224:
 2793 0d1e 0E94 0000 		call __fixsfsi
 2794               	.LVL225:
 2795 0d22 9B01      		movw r18,r22
 2796 0d24 77FF      		sbrs r23,7
 2797 0d26 00C0      		rjmp .L197
 2798 0d28 2227      		clr r18
 2799 0d2a 3327      		clr r19
 2800 0d2c 261B      		sub r18,r22
 2801 0d2e 370B      		sbc r19,r23
 2802               	.L197:
 2803 0d30 032E      		mov __tmp_reg__,r19
 2804 0d32 000C      		lsl r0
 2805 0d34 440B      		sbc r20,r20
 2806 0d36 550B      		sbc r21,r21
 2807 0d38 C301      		movw r24,r6
 2808 0d3a B201      		movw r22,r4
 2809 0d3c 0E94 0000 		call __divmodsi4
 2810 0d40 2093 0000 		sts Gripper+6,r18
 2811 0d44 3093 0000 		sts Gripper+6+1,r19
 2812 0d48 4093 0000 		sts Gripper+6+2,r20
 2813 0d4c 5093 0000 		sts Gripper+6+3,r21
 2814               	.LVL226:
 2815 0d50 E0E0      		ldi r30,lo8(goal)
 2816 0d52 F0E0      		ldi r31,hi8(goal)
 2817 0d54 20E0      		ldi r18,lo8(pose)
 2818 0d56 30E0      		ldi r19,hi8(pose)
 2819 0d58 8E01      		movw r16,r28
 2820 0d5a 0F5F      		subi r16,-1
GAS LISTING /tmp/ccjciOO6.s 			page 72


 2821 0d5c 1F4F      		sbci r17,-1
 2822 0d5e 40E0      		ldi r20,lo8(goal+12)
 2823 0d60 50E0      		ldi r21,hi8(goal+12)
 2824               	.LVL227:
 2825               	.L198:
 2826               	.LBE108:
 2827               	.LBE107:
 609:main.c        **** 	setSpeed(&MOTOR_2,abs((int)(maxSpeed*(error[1]/(double)maxError))));
 610:main.c        **** 	setSpeed(&MOTOR_3,abs((int)(maxSpeed*(error[2]/(double)maxError))));
 611:main.c        **** 	setSpeed(&MOTOR_4,abs((int)(maxSpeed*(error[3]/(double)maxError))));
 612:main.c        **** 	setSpeed(&MOTOR_5,abs((int)(maxSpeed*(error[4]/(double)maxError))));
 613:main.c        **** 	setSpeed(&MOTOR_6,abs((int)(maxSpeed*(error[5]/(double)maxError))));
 614:main.c        **** 	
 615:main.c        **** 	//Step
 616:main.c        **** 	//while(!compareArray(pose,goal)){
 617:main.c        **** 		
 618:main.c        **** 		for(i = 0; i < 6 ; i++){
 619:main.c        **** 			error[i] = goal[i]-pose[i];
 2828               		.loc 1 619 0 discriminator 3
 2829 0d62 8191      		ld r24,Z+
 2830 0d64 9191      		ld r25,Z+
 2831 0d66 D901      		movw r26,r18
 2832 0d68 6D91      		ld r22,X+
 2833 0d6a 7D91      		ld r23,X+
 2834 0d6c 9D01      		movw r18,r26
 2835 0d6e 861B      		sub r24,r22
 2836 0d70 970B      		sbc r25,r23
 2837 0d72 D801      		movw r26,r16
 2838 0d74 8D93      		st X+,r24
 2839 0d76 9D93      		st X+,r25
 2840 0d78 8D01      		movw r16,r26
 618:main.c        **** 			error[i] = goal[i]-pose[i];
 2841               		.loc 1 618 0 discriminator 3
 2842 0d7a 4E17      		cp r20,r30
 2843 0d7c 5F07      		cpc r21,r31
 2844 0d7e 01F4      		brne .L198
 2845               	.LBB109:
 2846               	.LBB110:
 109:main.c        **** }
 2847               		.loc 1 109 0
 2848 0d80 8091 0000 		lds r24,elapsedMillis
 2849 0d84 9091 0000 		lds r25,elapsedMillis+1
 2850 0d88 A091 0000 		lds r26,elapsedMillis+2
 2851 0d8c B091 0000 		lds r27,elapsedMillis+3
 2852               	.LBE110:
 2853               	.LBE109:
 620:main.c        **** 		}
 621:main.c        **** 		
 622:main.c        **** 		if (millis() - MOTOR_1.last_step_time >= MOTOR_1.step_delay){
 2854               		.loc 1 622 0
 2855 0d90 4091 0000 		lds r20,Base+32
 2856 0d94 5091 0000 		lds r21,Base+32+1
 2857 0d98 6091 0000 		lds r22,Base+32+2
 2858 0d9c 7091 0000 		lds r23,Base+32+3
 2859 0da0 841B      		sub r24,r20
 2860 0da2 950B      		sbc r25,r21
 2861 0da4 A60B      		sbc r26,r22
GAS LISTING /tmp/ccjciOO6.s 			page 73


 2862 0da6 B70B      		sbc r27,r23
 2863 0da8 2D89      		ldd r18,Y+21
 2864 0daa 3E89      		ldd r19,Y+22
 2865 0dac 4F89      		ldd r20,Y+23
 2866 0dae 588D      		ldd r21,Y+24
 2867 0db0 8217      		cp r24,r18
 2868 0db2 9307      		cpc r25,r19
 2869 0db4 A407      		cpc r26,r20
 2870 0db6 B507      		cpc r27,r21
 2871 0db8 00F0      		brlo .L199
 2872               	.LBB111:
 2873               	.LBB112:
 109:main.c        **** }
 2874               		.loc 1 109 0
 2875 0dba 8091 0000 		lds r24,elapsedMillis
 2876 0dbe 9091 0000 		lds r25,elapsedMillis+1
 2877 0dc2 A091 0000 		lds r26,elapsedMillis+2
 2878 0dc6 B091 0000 		lds r27,elapsedMillis+3
 2879               	.LBE112:
 2880               	.LBE111:
 623:main.c        **** 			MOTOR_1.last_step_time = millis();
 2881               		.loc 1 623 0
 2882 0dca 8093 0000 		sts Base+32,r24
 2883 0dce 9093 0000 		sts Base+32+1,r25
 2884 0dd2 A093 0000 		sts Base+32+2,r26
 2885 0dd6 B093 0000 		sts Base+32+3,r27
 624:main.c        **** 			stepOne(&MOTOR_1,signum(error[0]));
 2886               		.loc 1 624 0
 2887 0dda 8981      		ldd r24,Y+1
 2888 0ddc 9A81      		ldd r25,Y+2
 2889               	.LVL228:
 2890               	.LBB113:
 2891               	.LBB114:
  93:main.c        **** }
 2892               		.loc 1 93 0
 2893 0dde 97FD      		sbrc r25,7
 2894 0de0 00C0      		rjmp .L217
 2895 0de2 61E0      		ldi r22,lo8(1)
 2896 0de4 70E0      		ldi r23,0
 2897 0de6 1816      		cp __zero_reg__,r24
 2898 0de8 1906      		cpc __zero_reg__,r25
 2899 0dea 04F0      		brlt .L200
 2900 0dec 60E0      		ldi r22,0
 2901 0dee 00C0      		rjmp .L200
 2902               	.L217:
 2903 0df0 6FEF      		ldi r22,lo8(-1)
 2904 0df2 7FEF      		ldi r23,lo8(-1)
 2905               	.L200:
 2906               	.LVL229:
 2907               	.LBE114:
 2908               	.LBE113:
 2909               		.loc 1 624 0
 2910 0df4 80E0      		ldi r24,lo8(Base)
 2911 0df6 90E0      		ldi r25,hi8(Base)
 2912 0df8 0E94 0000 		call stepOne
 2913               	.LVL230:
 2914               	.L199:
GAS LISTING /tmp/ccjciOO6.s 			page 74


 2915               	.LBB115:
 2916               	.LBB116:
 109:main.c        **** }
 2917               		.loc 1 109 0
 2918 0dfc 8091 0000 		lds r24,elapsedMillis
 2919 0e00 9091 0000 		lds r25,elapsedMillis+1
 2920 0e04 A091 0000 		lds r26,elapsedMillis+2
 2921 0e08 B091 0000 		lds r27,elapsedMillis+3
 2922               	.LBE116:
 2923               	.LBE115:
 625:main.c        **** 		}
 626:main.c        **** 		if (millis() - MOTOR_2.last_step_time >= MOTOR_2.step_delay){
 2924               		.loc 1 626 0
 2925 0e0c 4091 0000 		lds r20,Shoulder+32
 2926 0e10 5091 0000 		lds r21,Shoulder+32+1
 2927 0e14 6091 0000 		lds r22,Shoulder+32+2
 2928 0e18 7091 0000 		lds r23,Shoulder+32+3
 2929 0e1c 841B      		sub r24,r20
 2930 0e1e 950B      		sbc r25,r21
 2931 0e20 A60B      		sbc r26,r22
 2932 0e22 B70B      		sbc r27,r23
 2933 0e24 4091 0000 		lds r20,Shoulder+6
 2934 0e28 5091 0000 		lds r21,Shoulder+6+1
 2935 0e2c 6091 0000 		lds r22,Shoulder+6+2
 2936 0e30 7091 0000 		lds r23,Shoulder+6+3
 2937 0e34 8417      		cp r24,r20
 2938 0e36 9507      		cpc r25,r21
 2939 0e38 A607      		cpc r26,r22
 2940 0e3a B707      		cpc r27,r23
 2941 0e3c 00F0      		brlo .L202
 2942               	.LBB117:
 2943               	.LBB118:
 109:main.c        **** }
 2944               		.loc 1 109 0
 2945 0e3e 8091 0000 		lds r24,elapsedMillis
 2946 0e42 9091 0000 		lds r25,elapsedMillis+1
 2947 0e46 A091 0000 		lds r26,elapsedMillis+2
 2948 0e4a B091 0000 		lds r27,elapsedMillis+3
 2949               	.LBE118:
 2950               	.LBE117:
 627:main.c        **** 			MOTOR_2.last_step_time = millis();
 2951               		.loc 1 627 0
 2952 0e4e 8093 0000 		sts Shoulder+32,r24
 2953 0e52 9093 0000 		sts Shoulder+32+1,r25
 2954 0e56 A093 0000 		sts Shoulder+32+2,r26
 2955 0e5a B093 0000 		sts Shoulder+32+3,r27
 628:main.c        **** 			stepOne(&MOTOR_2,signum(error[1]));
 2956               		.loc 1 628 0
 2957 0e5e 8B81      		ldd r24,Y+3
 2958 0e60 9C81      		ldd r25,Y+4
 2959               	.LVL231:
 2960               	.LBB119:
 2961               	.LBB120:
  93:main.c        **** }
 2962               		.loc 1 93 0
 2963 0e62 97FD      		sbrc r25,7
 2964 0e64 00C0      		rjmp .L218
GAS LISTING /tmp/ccjciOO6.s 			page 75


 2965 0e66 61E0      		ldi r22,lo8(1)
 2966 0e68 70E0      		ldi r23,0
 2967 0e6a 1816      		cp __zero_reg__,r24
 2968 0e6c 1906      		cpc __zero_reg__,r25
 2969 0e6e 04F0      		brlt .L203
 2970 0e70 60E0      		ldi r22,0
 2971 0e72 00C0      		rjmp .L203
 2972               	.L218:
 2973 0e74 6FEF      		ldi r22,lo8(-1)
 2974 0e76 7FEF      		ldi r23,lo8(-1)
 2975               	.L203:
 2976               	.LVL232:
 2977               	.LBE120:
 2978               	.LBE119:
 2979               		.loc 1 628 0
 2980 0e78 80E0      		ldi r24,lo8(Shoulder)
 2981 0e7a 90E0      		ldi r25,hi8(Shoulder)
 2982 0e7c 0E94 0000 		call stepOne
 2983               	.LVL233:
 2984               	.L202:
 2985               	.LBB121:
 2986               	.LBB122:
 109:main.c        **** }
 2987               		.loc 1 109 0
 2988 0e80 8091 0000 		lds r24,elapsedMillis
 2989 0e84 9091 0000 		lds r25,elapsedMillis+1
 2990 0e88 A091 0000 		lds r26,elapsedMillis+2
 2991 0e8c B091 0000 		lds r27,elapsedMillis+3
 2992               	.LBE122:
 2993               	.LBE121:
 629:main.c        **** 		}
 630:main.c        **** 		if (millis() - MOTOR_3.last_step_time >= MOTOR_3.step_delay){
 2994               		.loc 1 630 0
 2995 0e90 4091 0000 		lds r20,Elbow+32
 2996 0e94 5091 0000 		lds r21,Elbow+32+1
 2997 0e98 6091 0000 		lds r22,Elbow+32+2
 2998 0e9c 7091 0000 		lds r23,Elbow+32+3
 2999 0ea0 841B      		sub r24,r20
 3000 0ea2 950B      		sbc r25,r21
 3001 0ea4 A60B      		sbc r26,r22
 3002 0ea6 B70B      		sbc r27,r23
 3003 0ea8 4091 0000 		lds r20,Elbow+6
 3004 0eac 5091 0000 		lds r21,Elbow+6+1
 3005 0eb0 6091 0000 		lds r22,Elbow+6+2
 3006 0eb4 7091 0000 		lds r23,Elbow+6+3
 3007 0eb8 8417      		cp r24,r20
 3008 0eba 9507      		cpc r25,r21
 3009 0ebc A607      		cpc r26,r22
 3010 0ebe B707      		cpc r27,r23
 3011 0ec0 00F0      		brlo .L205
 3012               	.LBB123:
 3013               	.LBB124:
 109:main.c        **** }
 3014               		.loc 1 109 0
 3015 0ec2 8091 0000 		lds r24,elapsedMillis
 3016 0ec6 9091 0000 		lds r25,elapsedMillis+1
 3017 0eca A091 0000 		lds r26,elapsedMillis+2
GAS LISTING /tmp/ccjciOO6.s 			page 76


 3018 0ece B091 0000 		lds r27,elapsedMillis+3
 3019               	.LBE124:
 3020               	.LBE123:
 631:main.c        **** 			MOTOR_3.last_step_time = millis();
 3021               		.loc 1 631 0
 3022 0ed2 8093 0000 		sts Elbow+32,r24
 3023 0ed6 9093 0000 		sts Elbow+32+1,r25
 3024 0eda A093 0000 		sts Elbow+32+2,r26
 3025 0ede B093 0000 		sts Elbow+32+3,r27
 632:main.c        **** 			stepOne(&MOTOR_3,signum(error[2]));
 3026               		.loc 1 632 0
 3027 0ee2 8D81      		ldd r24,Y+5
 3028 0ee4 9E81      		ldd r25,Y+6
 3029               	.LVL234:
 3030               	.LBB125:
 3031               	.LBB126:
  93:main.c        **** }
 3032               		.loc 1 93 0
 3033 0ee6 97FD      		sbrc r25,7
 3034 0ee8 00C0      		rjmp .L219
 3035 0eea 61E0      		ldi r22,lo8(1)
 3036 0eec 70E0      		ldi r23,0
 3037 0eee 1816      		cp __zero_reg__,r24
 3038 0ef0 1906      		cpc __zero_reg__,r25
 3039 0ef2 04F0      		brlt .L206
 3040 0ef4 60E0      		ldi r22,0
 3041 0ef6 00C0      		rjmp .L206
 3042               	.L219:
 3043 0ef8 6FEF      		ldi r22,lo8(-1)
 3044 0efa 7FEF      		ldi r23,lo8(-1)
 3045               	.L206:
 3046               	.LVL235:
 3047               	.LBE126:
 3048               	.LBE125:
 3049               		.loc 1 632 0
 3050 0efc 80E0      		ldi r24,lo8(Elbow)
 3051 0efe 90E0      		ldi r25,hi8(Elbow)
 3052 0f00 0E94 0000 		call stepOne
 3053               	.LVL236:
 3054               	.L205:
 3055               	.LBB127:
 3056               	.LBB128:
 109:main.c        **** }
 3057               		.loc 1 109 0
 3058 0f04 8091 0000 		lds r24,elapsedMillis
 3059 0f08 9091 0000 		lds r25,elapsedMillis+1
 3060 0f0c A091 0000 		lds r26,elapsedMillis+2
 3061 0f10 B091 0000 		lds r27,elapsedMillis+3
 3062               	.LBE128:
 3063               	.LBE127:
 633:main.c        **** 		}
 634:main.c        **** 		if (millis() - MOTOR_4.last_step_time >= MOTOR_4.step_delay){
 3064               		.loc 1 634 0
 3065 0f14 4091 0000 		lds r20,Right_Wrist+32
 3066 0f18 5091 0000 		lds r21,Right_Wrist+32+1
 3067 0f1c 6091 0000 		lds r22,Right_Wrist+32+2
 3068 0f20 7091 0000 		lds r23,Right_Wrist+32+3
GAS LISTING /tmp/ccjciOO6.s 			page 77


 3069 0f24 841B      		sub r24,r20
 3070 0f26 950B      		sbc r25,r21
 3071 0f28 A60B      		sbc r26,r22
 3072 0f2a B70B      		sbc r27,r23
 3073 0f2c 4091 0000 		lds r20,Right_Wrist+6
 3074 0f30 5091 0000 		lds r21,Right_Wrist+6+1
 3075 0f34 6091 0000 		lds r22,Right_Wrist+6+2
 3076 0f38 7091 0000 		lds r23,Right_Wrist+6+3
 3077 0f3c 8417      		cp r24,r20
 3078 0f3e 9507      		cpc r25,r21
 3079 0f40 A607      		cpc r26,r22
 3080 0f42 B707      		cpc r27,r23
 3081 0f44 00F0      		brlo .L208
 3082               	.LBB129:
 3083               	.LBB130:
 109:main.c        **** }
 3084               		.loc 1 109 0
 3085 0f46 8091 0000 		lds r24,elapsedMillis
 3086 0f4a 9091 0000 		lds r25,elapsedMillis+1
 3087 0f4e A091 0000 		lds r26,elapsedMillis+2
 3088 0f52 B091 0000 		lds r27,elapsedMillis+3
 3089               	.LBE130:
 3090               	.LBE129:
 635:main.c        **** 			MOTOR_4.last_step_time = millis();
 3091               		.loc 1 635 0
 3092 0f56 8093 0000 		sts Right_Wrist+32,r24
 3093 0f5a 9093 0000 		sts Right_Wrist+32+1,r25
 3094 0f5e A093 0000 		sts Right_Wrist+32+2,r26
 3095 0f62 B093 0000 		sts Right_Wrist+32+3,r27
 636:main.c        **** 			stepOne(&MOTOR_4,signum(error[3]));
 3096               		.loc 1 636 0
 3097 0f66 8F81      		ldd r24,Y+7
 3098 0f68 9885      		ldd r25,Y+8
 3099               	.LVL237:
 3100               	.LBB131:
 3101               	.LBB132:
  93:main.c        **** }
 3102               		.loc 1 93 0
 3103 0f6a 97FD      		sbrc r25,7
 3104 0f6c 00C0      		rjmp .L220
 3105 0f6e 61E0      		ldi r22,lo8(1)
 3106 0f70 70E0      		ldi r23,0
 3107 0f72 1816      		cp __zero_reg__,r24
 3108 0f74 1906      		cpc __zero_reg__,r25
 3109 0f76 04F0      		brlt .L209
 3110 0f78 60E0      		ldi r22,0
 3111 0f7a 00C0      		rjmp .L209
 3112               	.L220:
 3113 0f7c 6FEF      		ldi r22,lo8(-1)
 3114 0f7e 7FEF      		ldi r23,lo8(-1)
 3115               	.L209:
 3116               	.LVL238:
 3117               	.LBE132:
 3118               	.LBE131:
 3119               		.loc 1 636 0
 3120 0f80 80E0      		ldi r24,lo8(Right_Wrist)
 3121 0f82 90E0      		ldi r25,hi8(Right_Wrist)
GAS LISTING /tmp/ccjciOO6.s 			page 78


 3122 0f84 0E94 0000 		call stepOne
 3123               	.LVL239:
 3124               	.L208:
 3125               	.LBB133:
 3126               	.LBB134:
 109:main.c        **** }
 3127               		.loc 1 109 0
 3128 0f88 8091 0000 		lds r24,elapsedMillis
 3129 0f8c 9091 0000 		lds r25,elapsedMillis+1
 3130 0f90 A091 0000 		lds r26,elapsedMillis+2
 3131 0f94 B091 0000 		lds r27,elapsedMillis+3
 3132               	.LBE134:
 3133               	.LBE133:
 637:main.c        **** 		}
 638:main.c        **** 		if (millis() - MOTOR_5.last_step_time >= MOTOR_5.step_delay){
 3134               		.loc 1 638 0
 3135 0f98 4091 0000 		lds r20,Left_Wrist+32
 3136 0f9c 5091 0000 		lds r21,Left_Wrist+32+1
 3137 0fa0 6091 0000 		lds r22,Left_Wrist+32+2
 3138 0fa4 7091 0000 		lds r23,Left_Wrist+32+3
 3139 0fa8 841B      		sub r24,r20
 3140 0faa 950B      		sbc r25,r21
 3141 0fac A60B      		sbc r26,r22
 3142 0fae B70B      		sbc r27,r23
 3143 0fb0 4091 0000 		lds r20,Left_Wrist+6
 3144 0fb4 5091 0000 		lds r21,Left_Wrist+6+1
 3145 0fb8 6091 0000 		lds r22,Left_Wrist+6+2
 3146 0fbc 7091 0000 		lds r23,Left_Wrist+6+3
 3147 0fc0 8417      		cp r24,r20
 3148 0fc2 9507      		cpc r25,r21
 3149 0fc4 A607      		cpc r26,r22
 3150 0fc6 B707      		cpc r27,r23
 3151 0fc8 00F0      		brlo .L211
 3152               	.LBB135:
 3153               	.LBB136:
 109:main.c        **** }
 3154               		.loc 1 109 0
 3155 0fca 8091 0000 		lds r24,elapsedMillis
 3156 0fce 9091 0000 		lds r25,elapsedMillis+1
 3157 0fd2 A091 0000 		lds r26,elapsedMillis+2
 3158 0fd6 B091 0000 		lds r27,elapsedMillis+3
 3159               	.LBE136:
 3160               	.LBE135:
 639:main.c        **** 			MOTOR_5.last_step_time = millis();
 3161               		.loc 1 639 0
 3162 0fda 8093 0000 		sts Left_Wrist+32,r24
 3163 0fde 9093 0000 		sts Left_Wrist+32+1,r25
 3164 0fe2 A093 0000 		sts Left_Wrist+32+2,r26
 3165 0fe6 B093 0000 		sts Left_Wrist+32+3,r27
 640:main.c        **** 			stepOne(&MOTOR_5,signum(error[4]));
 3166               		.loc 1 640 0
 3167 0fea 8985      		ldd r24,Y+9
 3168 0fec 9A85      		ldd r25,Y+10
 3169               	.LVL240:
 3170               	.LBB137:
 3171               	.LBB138:
  93:main.c        **** }
GAS LISTING /tmp/ccjciOO6.s 			page 79


 3172               		.loc 1 93 0
 3173 0fee 97FD      		sbrc r25,7
 3174 0ff0 00C0      		rjmp .L221
 3175 0ff2 61E0      		ldi r22,lo8(1)
 3176 0ff4 70E0      		ldi r23,0
 3177 0ff6 1816      		cp __zero_reg__,r24
 3178 0ff8 1906      		cpc __zero_reg__,r25
 3179 0ffa 04F0      		brlt .L212
 3180 0ffc 60E0      		ldi r22,0
 3181 0ffe 00C0      		rjmp .L212
 3182               	.L221:
 3183 1000 6FEF      		ldi r22,lo8(-1)
 3184 1002 7FEF      		ldi r23,lo8(-1)
 3185               	.L212:
 3186               	.LVL241:
 3187               	.LBE138:
 3188               	.LBE137:
 3189               		.loc 1 640 0
 3190 1004 80E0      		ldi r24,lo8(Left_Wrist)
 3191 1006 90E0      		ldi r25,hi8(Left_Wrist)
 3192 1008 0E94 0000 		call stepOne
 3193               	.LVL242:
 3194               	.L211:
 3195               	.LBB139:
 3196               	.LBB140:
 109:main.c        **** }
 3197               		.loc 1 109 0
 3198 100c 8091 0000 		lds r24,elapsedMillis
 3199 1010 9091 0000 		lds r25,elapsedMillis+1
 3200 1014 A091 0000 		lds r26,elapsedMillis+2
 3201 1018 B091 0000 		lds r27,elapsedMillis+3
 3202               	.LBE140:
 3203               	.LBE139:
 641:main.c        **** 		}
 642:main.c        **** 		if (millis() - MOTOR_6.last_step_time >= MOTOR_6.step_delay){
 3204               		.loc 1 642 0
 3205 101c 4091 0000 		lds r20,Gripper+32
 3206 1020 5091 0000 		lds r21,Gripper+32+1
 3207 1024 6091 0000 		lds r22,Gripper+32+2
 3208 1028 7091 0000 		lds r23,Gripper+32+3
 3209 102c 841B      		sub r24,r20
 3210 102e 950B      		sbc r25,r21
 3211 1030 A60B      		sbc r26,r22
 3212 1032 B70B      		sbc r27,r23
 3213 1034 4091 0000 		lds r20,Gripper+6
 3214 1038 5091 0000 		lds r21,Gripper+6+1
 3215 103c 6091 0000 		lds r22,Gripper+6+2
 3216 1040 7091 0000 		lds r23,Gripper+6+3
 3217 1044 8417      		cp r24,r20
 3218 1046 9507      		cpc r25,r21
 3219 1048 A607      		cpc r26,r22
 3220 104a B707      		cpc r27,r23
 3221 104c 00F0      		brlo .L187
 3222               	.LBB141:
 3223               	.LBB142:
 109:main.c        **** }
 3224               		.loc 1 109 0
GAS LISTING /tmp/ccjciOO6.s 			page 80


 3225 104e 8091 0000 		lds r24,elapsedMillis
 3226 1052 9091 0000 		lds r25,elapsedMillis+1
 3227 1056 A091 0000 		lds r26,elapsedMillis+2
 3228 105a B091 0000 		lds r27,elapsedMillis+3
 3229               	.LBE142:
 3230               	.LBE141:
 643:main.c        **** 			MOTOR_6.last_step_time = millis();
 3231               		.loc 1 643 0
 3232 105e 8093 0000 		sts Gripper+32,r24
 3233 1062 9093 0000 		sts Gripper+32+1,r25
 3234 1066 A093 0000 		sts Gripper+32+2,r26
 3235 106a B093 0000 		sts Gripper+32+3,r27
 644:main.c        **** 			stepOne(&MOTOR_6,signum(error[5]));
 3236               		.loc 1 644 0
 3237 106e 8B85      		ldd r24,Y+11
 3238 1070 9C85      		ldd r25,Y+12
 3239               	.LVL243:
 3240               	.LBB143:
 3241               	.LBB144:
  93:main.c        **** }
 3242               		.loc 1 93 0
 3243 1072 97FD      		sbrc r25,7
 3244 1074 00C0      		rjmp .L222
 3245 1076 61E0      		ldi r22,lo8(1)
 3246 1078 70E0      		ldi r23,0
 3247 107a 1816      		cp __zero_reg__,r24
 3248 107c 1906      		cpc __zero_reg__,r25
 3249 107e 04F0      		brlt .L215
 3250 1080 60E0      		ldi r22,0
 3251 1082 00C0      		rjmp .L215
 3252               	.L222:
 3253 1084 6FEF      		ldi r22,lo8(-1)
 3254 1086 7FEF      		ldi r23,lo8(-1)
 3255               	.L215:
 3256               	.LVL244:
 3257               	.LBE144:
 3258               	.LBE143:
 3259               		.loc 1 644 0
 3260 1088 80E0      		ldi r24,lo8(Gripper)
 3261 108a 90E0      		ldi r25,hi8(Gripper)
 3262               	/* epilogue start */
 645:main.c        **** 		}
 646:main.c        **** 	//}
 647:main.c        **** 	
 648:main.c        **** }
 3263               		.loc 1 648 0
 3264 108c 6896      		adiw r28,24
 3265 108e CDBF      		out __SP_L__,r28
 3266 1090 DEBF      		out __SP_H__,r29
 3267 1092 DF91      		pop r29
 3268 1094 CF91      		pop r28
 3269 1096 1F91      		pop r17
 3270 1098 0F91      		pop r16
 3271 109a FF90      		pop r15
 3272 109c EF90      		pop r14
 3273 109e DF90      		pop r13
 3274 10a0 CF90      		pop r12
GAS LISTING /tmp/ccjciOO6.s 			page 81


 3275 10a2 BF90      		pop r11
 3276 10a4 AF90      		pop r10
 3277               	.LVL245:
 3278 10a6 9F90      		pop r9
 3279 10a8 8F90      		pop r8
 3280 10aa 7F90      		pop r7
 3281 10ac 6F90      		pop r6
 3282 10ae 5F90      		pop r5
 3283 10b0 4F90      		pop r4
 3284 10b2 3F90      		pop r3
 3285 10b4 2F90      		pop r2
 644:main.c        **** 		}
 3286               		.loc 1 644 0
 3287 10b6 0C94 0000 		jmp stepOne
 3288               	.LVL246:
 3289               	.L187:
 3290               	/* epilogue start */
 3291               		.loc 1 648 0
 3292 10ba 6896      		adiw r28,24
 3293 10bc CDBF      		out __SP_L__,r28
 3294 10be DEBF      		out __SP_H__,r29
 3295 10c0 DF91      		pop r29
 3296 10c2 CF91      		pop r28
 3297 10c4 1F91      		pop r17
 3298 10c6 0F91      		pop r16
 3299 10c8 FF90      		pop r15
 3300 10ca EF90      		pop r14
 3301 10cc DF90      		pop r13
 3302 10ce CF90      		pop r12
 3303 10d0 BF90      		pop r11
 3304 10d2 AF90      		pop r10
 3305               	.LVL247:
 3306 10d4 9F90      		pop r9
 3307 10d6 8F90      		pop r8
 3308 10d8 7F90      		pop r7
 3309 10da 6F90      		pop r6
 3310 10dc 5F90      		pop r5
 3311 10de 4F90      		pop r4
 3312 10e0 3F90      		pop r3
 3313 10e2 2F90      		pop r2
 3314 10e4 0895      		ret
 3315               		.cfi_endproc
 3316               	.LFE40:
 3317               		.size	moveToGoal, .-moveToGoal
 3318               	.global	updateSign
 3319               		.type	updateSign, @function
 3320               	updateSign:
 3321               	.LFB42:
 649:main.c        **** 
 650:main.c        **** /* Debug Tests:
 651:main.c        ****  *  * Wave Flag
 652:main.c        ****   	if(debugFlag > 3) debugFlag = 0;
 653:main.c        **** 	if(debugFlag == 0) changeGoal(-850,-200,-200,-200,-200,0);
 654:main.c        **** 	if(debugFlag == 1) changeGoal(-1700,-400,-400,-400,-400,0);
 655:main.c        **** 	if(debugFlag == 2) changeGoal(-850,-200,-200,-200,-200,0);
 656:main.c        **** 	if(debugFlag == 3) changeGoal(0,0,0,0,0,0);
 657:main.c        ****  * 
GAS LISTING /tmp/ccjciOO6.s 			page 82


 658:main.c        ****  * * Handshake
 659:main.c        ****  	if(debugFlag > 2) debugFlag = 1;
 660:main.c        **** 	if(debugFlag == 0) changeGoal(0,-1200,250,0,0,0);
 661:main.c        **** 	if(debugFlag == 1) changeGoal(0,-850,-250,-200,200,0);
 662:main.c        **** 	if(debugFlag == 2) changeGoal(0,-1200,250,0,0,0);
 663:main.c        ****  * 
 664:main.c        ****  */
 665:main.c        **** 
 666:main.c        **** 
 667:main.c        **** // Main Loop, called after init() in main()
 668:main.c        **** void mainLoop(void){
 669:main.c        **** 	while(1){
 670:main.c        **** 		if(state == DEBUG){
 671:main.c        **** 			
 672:main.c        **** 		} else if(state == INIT){
 673:main.c        **** 			setSpeed(&MOTOR_1,maxSpeed/2);
 674:main.c        **** 			setSpeed(&MOTOR_2,maxSpeed/2);
 675:main.c        **** 			setSpeed(&MOTOR_3,maxSpeed/2);
 676:main.c        **** 			setSpeed(&MOTOR_4,maxSpeed/2);
 677:main.c        **** 			setSpeed(&MOTOR_5,maxSpeed/2);
 678:main.c        **** 			setSpeed(&MOTOR_6,maxSpeed/2);
 679:main.c        **** 			while((PORTD.IN & _BV(4))){ //Localize Base
 680:main.c        **** 				break;
 681:main.c        **** 			}
 682:main.c        **** 			pose[0]=0;
 683:main.c        **** 			while((PORTD.IN & _BV(5))){ //Localize Shoulder
 684:main.c        **** 			
 685:main.c        **** 				break;
 686:main.c        **** 			}
 687:main.c        **** 			pose[1]=0;
 688:main.c        **** 			
 689:main.c        **** 			while((PORTE.IN & _BV(0))){ //Localize Elbow
 690:main.c        **** 				break;
 691:main.c        **** 			}
 692:main.c        **** 			pose[2]=0;
 693:main.c        **** 			
 694:main.c        **** 			while(1){ // Localize Gripper
 695:main.c        **** 				gripperState = !(PORTD.IN & _BV(4));
 696:main.c        **** 				
 697:main.c        **** 				if(gripperState == 1){
 698:main.c        **** 					if (gripperStatePrev == 0){
 699:main.c        **** 						int i;
 700:main.c        **** 						for (i=0;i<15;i++){ //Preload by 15 steps only if we detected a switch from on to off.
 701:main.c        **** 							delay_ms(MOTOR_6.step_delay);
 702:main.c        **** 							stepOne(&MOTOR_6,1);
 703:main.c        **** 						}
 704:main.c        **** 					}					
 705:main.c        **** 					break;
 706:main.c        **** 				}
 707:main.c        **** 				if (millis() - MOTOR_6.last_step_time >= MOTOR_6.step_delay){
 708:main.c        **** 					MOTOR_6.last_step_time = millis();
 709:main.c        **** 					stepOne(&MOTOR_6,1);
 710:main.c        **** 				}
 711:main.c        **** 				gripperStatePrev = gripperState;
 712:main.c        **** 			}
 713:main.c        **** 			pose[5]=0;
 714:main.c        **** 			
GAS LISTING /tmp/ccjciOO6.s 			page 83


 715:main.c        **** 			while((PORTE.IN & _BV(0))){ //Localize Wrist
 716:main.c        **** 			/*
 717:main.c        **** 				int i;
 718:main.c        **** 				for (i=0;i<200;i++){
 719:main.c        **** 					delay_ms(MOTOR_5.step_delay);
 720:main.c        **** 					stepOne(&MOTOR_4,-1);
 721:main.c        **** 					stepOne(&MOTOR_5,1);
 722:main.c        **** 				}
 723:main.c        **** 			
 724:main.c        **** 			*/
 725:main.c        **** 				break;
 726:main.c        **** 			}
 727:main.c        **** 			pose[3]=0;
 728:main.c        **** 			pose[4]=0;
 729:main.c        **** 			
 730:main.c        ****             printf("ready\n");	
 731:main.c        **** 			state = IDLE;
 732:main.c        **** 		} else if(state == IDLE){
 733:main.c        ****             //printf("idle\n");	
 734:main.c        **** 
 735:main.c        **** 			// update();
 736:main.c        **** 			updateSign();
 737:main.c        **** 			if(!compareArray(pose,goal)){
 738:main.c        **** 				state = MOVING;
 739:main.c        ****                 printf("moving\n");
 740:main.c        **** 			}
 741:main.c        **** 		} else if(state == MOVING){
 742:main.c        **** 			//If we're not there yet
 743:main.c        **** 			if(!compareArray(pose,goal)){
 744:main.c        **** 				moveToGoal();
 745:main.c        **** 			} else if(compareArray(pose,goal)){ //If we got there
 746:main.c        **** 					printf("gotThere\n");
 747:main.c        **** 					state = IDLE;
 748:main.c        **** 			}
 749:main.c        **** 		} else if(state == LOST){
 750:main.c        **** 			
 751:main.c        **** 		}	
 752:main.c        **** 	}
 753:main.c        **** }
 754:main.c        **** 
 755:main.c        **** void updateSign(void){
 3322               		.loc 1 755 0
 3323               		.cfi_startproc
 3324               	/* prologue: function */
 3325               	/* frame size = 0 */
 3326               	/* stack size = 0 */
 3327               	.L__stack_usage = 0
 756:main.c        ****   	if(debugFlag > 3) debugFlag = 0;
 3328               		.loc 1 756 0
 3329 10e6 8091 0000 		lds r24,debugFlag
 3330 10ea 9091 0000 		lds r25,debugFlag+1
 3331 10ee 0497      		sbiw r24,4
 3332 10f0 04F0      		brlt .L226
 3333               		.loc 1 756 0 is_stmt 0 discriminator 1
 3334 10f2 1092 0000 		sts debugFlag,__zero_reg__
 3335 10f6 1092 0000 		sts debugFlag+1,__zero_reg__
 3336               	.L226:
GAS LISTING /tmp/ccjciOO6.s 			page 84


 757:main.c        **** 	if(debugFlag == 0) changeGoal(-850,-200,-200,-200,-200,0);
 3337               		.loc 1 757 0 is_stmt 1
 3338 10fa 8091 0000 		lds r24,debugFlag
 3339 10fe 9091 0000 		lds r25,debugFlag+1
 3340 1102 0097      		sbiw r24,0
 3341 1104 01F0      		breq .L232
 758:main.c        **** 	if(debugFlag == 1) changeGoal(-1700,-400,-400,-400,-400,0);
 3342               		.loc 1 758 0
 3343 1106 8130      		cpi r24,1
 3344 1108 9105      		cpc r25,__zero_reg__
 3345 110a 01F4      		brne .L229
 3346               	.LVL248:
 3347               	.LBB161:
 3348               	.LBB162:
 578:main.c        **** 	goal[1] = val1;
 3349               		.loc 1 578 0
 3350 110c 8CE5      		ldi r24,lo8(92)
 3351 110e 99EF      		ldi r25,lo8(-7)
 3352 1110 8093 0000 		sts goal,r24
 3353 1114 9093 0000 		sts goal+1,r25
 579:main.c        **** 	goal[2] = val2;
 3354               		.loc 1 579 0
 3355 1118 80E7      		ldi r24,lo8(112)
 3356 111a 9EEF      		ldi r25,lo8(-2)
 3357 111c 00C0      		rjmp .L233
 3358               	.LVL249:
 3359               	.L229:
 3360               	.LBE162:
 3361               	.LBE161:
 759:main.c        **** 	if(debugFlag == 2) changeGoal(-850,-200,-200,-200,-200,0);
 3362               		.loc 1 759 0
 3363 111e 8230      		cpi r24,2
 3364 1120 9105      		cpc r25,__zero_reg__
 3365 1122 01F4      		brne .L230
 3366               	.L232:
 3367               	.LVL250:
 3368               	.LBB163:
 3369               	.LBB164:
 578:main.c        **** 	goal[1] = val1;
 3370               		.loc 1 578 0
 3371 1124 8EEA      		ldi r24,lo8(-82)
 3372 1126 9CEF      		ldi r25,lo8(-4)
 3373 1128 8093 0000 		sts goal,r24
 3374 112c 9093 0000 		sts goal+1,r25
 579:main.c        **** 	goal[2] = val2;
 3375               		.loc 1 579 0
 3376 1130 88E3      		ldi r24,lo8(56)
 3377 1132 9FEF      		ldi r25,lo8(-1)
 3378               	.LVL251:
 3379               	.L233:
 3380 1134 8093 0000 		sts goal+2,r24
 3381 1138 9093 0000 		sts goal+2+1,r25
 580:main.c        **** 	goal[3] = val3;
 3382               		.loc 1 580 0
 3383 113c 8093 0000 		sts goal+4,r24
 3384 1140 9093 0000 		sts goal+4+1,r25
 581:main.c        **** 	goal[4] = val4;
GAS LISTING /tmp/ccjciOO6.s 			page 85


 3385               		.loc 1 581 0
 3386 1144 8093 0000 		sts goal+6,r24
 3387 1148 9093 0000 		sts goal+6+1,r25
 582:main.c        **** 	goal[5] = val5;
 3388               		.loc 1 582 0
 3389 114c 8093 0000 		sts goal+8,r24
 3390 1150 9093 0000 		sts goal+8+1,r25
 3391 1154 00C0      		rjmp .L231
 3392               	.L230:
 3393               	.LBE164:
 3394               	.LBE163:
 760:main.c        **** 	if(debugFlag == 3) changeGoal(0,0,0,0,0,0);
 3395               		.loc 1 760 0
 3396 1156 0397      		sbiw r24,3
 3397 1158 01F4      		brne .L225
 3398               	.LVL252:
 3399               	.LBB165:
 3400               	.LBB166:
 578:main.c        **** 	goal[1] = val1;
 3401               		.loc 1 578 0
 3402 115a 1092 0000 		sts goal,__zero_reg__
 3403 115e 1092 0000 		sts goal+1,__zero_reg__
 579:main.c        **** 	goal[2] = val2;
 3404               		.loc 1 579 0
 3405 1162 1092 0000 		sts goal+2,__zero_reg__
 3406 1166 1092 0000 		sts goal+2+1,__zero_reg__
 580:main.c        **** 	goal[3] = val3;
 3407               		.loc 1 580 0
 3408 116a 1092 0000 		sts goal+4,__zero_reg__
 3409 116e 1092 0000 		sts goal+4+1,__zero_reg__
 581:main.c        **** 	goal[4] = val4;
 3410               		.loc 1 581 0
 3411 1172 1092 0000 		sts goal+6,__zero_reg__
 3412 1176 1092 0000 		sts goal+6+1,__zero_reg__
 582:main.c        **** 	goal[5] = val5;
 3413               		.loc 1 582 0
 3414 117a 1092 0000 		sts goal+8,__zero_reg__
 3415 117e 1092 0000 		sts goal+8+1,__zero_reg__
 3416               	.LVL253:
 3417               	.L231:
 583:main.c        **** }
 3418               		.loc 1 583 0
 3419 1182 1092 0000 		sts goal+10,__zero_reg__
 3420 1186 1092 0000 		sts goal+10+1,__zero_reg__
 3421               	.L225:
 3422 118a 0895      		ret
 3423               	.LBE166:
 3424               	.LBE165:
 3425               		.cfi_endproc
 3426               	.LFE42:
 3427               		.size	updateSign, .-updateSign
 3428               		.section	.rodata.str1.1,"aMS",@progbits,1
 3429               	.LC0:
 3430 0000 7265 6164 		.string	"ready"
 3430      7900 
 3431               	.LC1:
 3432 0006 6D6F 7669 		.string	"moving"
GAS LISTING /tmp/ccjciOO6.s 			page 86


 3432      6E67 00
 3433               	.LC2:
 3434 000d 676F 7454 		.string	"gotThere"
 3434      6865 7265 
 3434      00
 3435               		.text
 3436               	.global	mainLoop
 3437               		.type	mainLoop, @function
 3438               	mainLoop:
 3439               	.LFB41:
 668:main.c        **** 	while(1){
 3440               		.loc 1 668 0
 3441               		.cfi_startproc
 3442               	/* prologue: function */
 3443               	/* frame size = 0 */
 3444               	/* stack size = 0 */
 3445               	.L__stack_usage = 0
 747:main.c        **** 			}
 3446               		.loc 1 747 0
 3447 118c C2E0      		ldi r28,lo8(2)
 3448 118e D0E0      		ldi r29,0
 738:main.c        ****                 printf("moving\n");
 3449               		.loc 1 738 0
 3450 1190 03E0      		ldi r16,lo8(3)
 3451 1192 10E0      		ldi r17,0
 3452               	.LBB167:
 3453               	.LBB168:
 392:main.c        **** }
 3454               		.loc 1 392 0
 3455 1194 20E6      		ldi r18,lo8(96)
 3456 1196 822E      		mov r8,r18
 3457 1198 2AEE      		ldi r18,lo8(-22)
 3458 119a 922E      		mov r9,r18
 3459 119c A12C      		mov r10,__zero_reg__
 3460 119e B12C      		mov r11,__zero_reg__
 3461               	.L235:
 3462               	.LBE168:
 3463               	.LBE167:
 670:main.c        **** 			
 3464               		.loc 1 670 0
 3465 11a0 8091 0000 		lds r24,state
 3466 11a4 9091 0000 		lds r25,state+1
 3467               	.L236:
 3468 11a8 0097      		sbiw r24,0
 3469 11aa 01F0      		breq .L236
 672:main.c        **** 			setSpeed(&MOTOR_1,maxSpeed/2);
 3470               		.loc 1 672 0
 3471 11ac 8130      		cpi r24,1
 3472 11ae 9105      		cpc r25,__zero_reg__
 3473 11b0 01F0      		breq .+2
 3474 11b2 00C0      		rjmp .L237
 673:main.c        **** 			setSpeed(&MOTOR_2,maxSpeed/2);
 3475               		.loc 1 673 0
 3476 11b4 C090 0000 		lds r12,maxSpeed
 3477 11b8 D090 0000 		lds r13,maxSpeed+1
 3478 11bc D7FE      		sbrs r13,7
 3479 11be 00C0      		rjmp .L238
GAS LISTING /tmp/ccjciOO6.s 			page 87


 3480 11c0 8FEF      		ldi r24,-1
 3481 11c2 C81A      		sub r12,r24
 3482 11c4 D80A      		sbc r13,r24
 3483               	.L238:
 3484 11c6 D594      		asr r13
 3485 11c8 C794      		ror r12
 3486 11ca 0D2C      		mov __tmp_reg__,r13
 3487 11cc 000C      		lsl r0
 3488 11ce EE08      		sbc r14,r14
 3489 11d0 FF08      		sbc r15,r15
 3490               	.LVL254:
 3491               	.LBB170:
 3492               	.LBB169:
 392:main.c        **** }
 3493               		.loc 1 392 0
 3494 11d2 2091 0000 		lds r18,Base+10
 3495 11d6 3091 0000 		lds r19,Base+10+1
 3496 11da 032E      		mov __tmp_reg__,r19
 3497 11dc 000C      		lsl r0
 3498 11de 440B      		sbc r20,r20
 3499 11e0 550B      		sbc r21,r21
 3500 11e2 C501      		movw r24,r10
 3501 11e4 B401      		movw r22,r8
 3502 11e6 0E94 0000 		call __divmodsi4
 3503 11ea CA01      		movw r24,r20
 3504 11ec B901      		movw r22,r18
 3505 11ee A701      		movw r20,r14
 3506 11f0 9601      		movw r18,r12
 3507 11f2 0E94 0000 		call __divmodsi4
 3508 11f6 2093 0000 		sts Base+6,r18
 3509 11fa 3093 0000 		sts Base+6+1,r19
 3510 11fe 4093 0000 		sts Base+6+2,r20
 3511 1202 5093 0000 		sts Base+6+3,r21
 3512               	.LVL255:
 3513               	.LBE169:
 3514               	.LBE170:
 3515               	.LBB171:
 3516               	.LBB172:
 3517 1206 2091 0000 		lds r18,Shoulder+10
 3518 120a 3091 0000 		lds r19,Shoulder+10+1
 3519 120e 032E      		mov __tmp_reg__,r19
 3520 1210 000C      		lsl r0
 3521 1212 440B      		sbc r20,r20
 3522 1214 550B      		sbc r21,r21
 3523 1216 C501      		movw r24,r10
 3524 1218 B401      		movw r22,r8
 3525 121a 0E94 0000 		call __divmodsi4
 3526 121e CA01      		movw r24,r20
 3527 1220 B901      		movw r22,r18
 3528 1222 A701      		movw r20,r14
 3529 1224 9601      		movw r18,r12
 3530 1226 0E94 0000 		call __divmodsi4
 3531 122a 2093 0000 		sts Shoulder+6,r18
 3532 122e 3093 0000 		sts Shoulder+6+1,r19
 3533 1232 4093 0000 		sts Shoulder+6+2,r20
 3534 1236 5093 0000 		sts Shoulder+6+3,r21
 3535               	.LVL256:
GAS LISTING /tmp/ccjciOO6.s 			page 88


 3536               	.LBE172:
 3537               	.LBE171:
 3538               	.LBB173:
 3539               	.LBB174:
 3540 123a 2091 0000 		lds r18,Elbow+10
 3541 123e 3091 0000 		lds r19,Elbow+10+1
 3542 1242 032E      		mov __tmp_reg__,r19
 3543 1244 000C      		lsl r0
 3544 1246 440B      		sbc r20,r20
 3545 1248 550B      		sbc r21,r21
 3546 124a C501      		movw r24,r10
 3547 124c B401      		movw r22,r8
 3548 124e 0E94 0000 		call __divmodsi4
 3549 1252 CA01      		movw r24,r20
 3550 1254 B901      		movw r22,r18
 3551 1256 A701      		movw r20,r14
 3552 1258 9601      		movw r18,r12
 3553 125a 0E94 0000 		call __divmodsi4
 3554 125e 2093 0000 		sts Elbow+6,r18
 3555 1262 3093 0000 		sts Elbow+6+1,r19
 3556 1266 4093 0000 		sts Elbow+6+2,r20
 3557 126a 5093 0000 		sts Elbow+6+3,r21
 3558               	.LVL257:
 3559               	.LBE174:
 3560               	.LBE173:
 3561               	.LBB175:
 3562               	.LBB176:
 3563 126e 2091 0000 		lds r18,Right_Wrist+10
 3564 1272 3091 0000 		lds r19,Right_Wrist+10+1
 3565 1276 032E      		mov __tmp_reg__,r19
 3566 1278 000C      		lsl r0
 3567 127a 440B      		sbc r20,r20
 3568 127c 550B      		sbc r21,r21
 3569 127e C501      		movw r24,r10
 3570 1280 B401      		movw r22,r8
 3571 1282 0E94 0000 		call __divmodsi4
 3572 1286 CA01      		movw r24,r20
 3573 1288 B901      		movw r22,r18
 3574 128a A701      		movw r20,r14
 3575 128c 9601      		movw r18,r12
 3576 128e 0E94 0000 		call __divmodsi4
 3577 1292 2093 0000 		sts Right_Wrist+6,r18
 3578 1296 3093 0000 		sts Right_Wrist+6+1,r19
 3579 129a 4093 0000 		sts Right_Wrist+6+2,r20
 3580 129e 5093 0000 		sts Right_Wrist+6+3,r21
 3581               	.LVL258:
 3582               	.LBE176:
 3583               	.LBE175:
 3584               	.LBB177:
 3585               	.LBB178:
 3586 12a2 2091 0000 		lds r18,Left_Wrist+10
 3587 12a6 3091 0000 		lds r19,Left_Wrist+10+1
 3588 12aa 032E      		mov __tmp_reg__,r19
 3589 12ac 000C      		lsl r0
 3590 12ae 440B      		sbc r20,r20
 3591 12b0 550B      		sbc r21,r21
 3592 12b2 C501      		movw r24,r10
GAS LISTING /tmp/ccjciOO6.s 			page 89


 3593 12b4 B401      		movw r22,r8
 3594 12b6 0E94 0000 		call __divmodsi4
 3595 12ba CA01      		movw r24,r20
 3596 12bc B901      		movw r22,r18
 3597 12be A701      		movw r20,r14
 3598 12c0 9601      		movw r18,r12
 3599 12c2 0E94 0000 		call __divmodsi4
 3600 12c6 2093 0000 		sts Left_Wrist+6,r18
 3601 12ca 3093 0000 		sts Left_Wrist+6+1,r19
 3602 12ce 4093 0000 		sts Left_Wrist+6+2,r20
 3603 12d2 5093 0000 		sts Left_Wrist+6+3,r21
 3604               	.LVL259:
 3605               	.LBE178:
 3606               	.LBE177:
 3607               	.LBB179:
 3608               	.LBB180:
 3609 12d6 2091 0000 		lds r18,Gripper+10
 3610 12da 3091 0000 		lds r19,Gripper+10+1
 3611 12de 032E      		mov __tmp_reg__,r19
 3612 12e0 000C      		lsl r0
 3613 12e2 440B      		sbc r20,r20
 3614 12e4 550B      		sbc r21,r21
 3615 12e6 C501      		movw r24,r10
 3616 12e8 B401      		movw r22,r8
 3617 12ea 0E94 0000 		call __divmodsi4
 3618 12ee CA01      		movw r24,r20
 3619 12f0 B901      		movw r22,r18
 3620 12f2 A701      		movw r20,r14
 3621 12f4 9601      		movw r18,r12
 3622 12f6 0E94 0000 		call __divmodsi4
 3623 12fa 2093 0000 		sts Gripper+6,r18
 3624 12fe 3093 0000 		sts Gripper+6+1,r19
 3625 1302 4093 0000 		sts Gripper+6+2,r20
 3626 1306 5093 0000 		sts Gripper+6+3,r21
 3627               	.LVL260:
 3628               	.LBE180:
 3629               	.LBE179:
 679:main.c        **** 				break;
 3630               		.loc 1 679 0
 3631 130a 8091 6806 		lds r24,1640
 682:main.c        **** 			while((PORTD.IN & _BV(5))){ //Localize Shoulder
 3632               		.loc 1 682 0
 3633 130e 1092 0000 		sts pose,__zero_reg__
 3634 1312 1092 0000 		sts pose+1,__zero_reg__
 683:main.c        **** 			
 3635               		.loc 1 683 0
 3636 1316 8091 6806 		lds r24,1640
 687:main.c        **** 			
 3637               		.loc 1 687 0
 3638 131a 1092 0000 		sts pose+2,__zero_reg__
 3639 131e 1092 0000 		sts pose+2+1,__zero_reg__
 689:main.c        **** 				break;
 3640               		.loc 1 689 0
 3641 1322 8091 8806 		lds r24,1672
 692:main.c        **** 			
 3642               		.loc 1 692 0
 3643 1326 1092 0000 		sts pose+4,__zero_reg__
GAS LISTING /tmp/ccjciOO6.s 			page 90


 3644 132a 1092 0000 		sts pose+4+1,__zero_reg__
 3645               	.L244:
 695:main.c        **** 				
 3646               		.loc 1 695 0
 3647 132e 2091 6806 		lds r18,1640
 3648 1332 81E0      		ldi r24,lo8(1)
 3649 1334 90E0      		ldi r25,0
 3650 1336 322F      		mov r19,r18
 3651 1338 3071      		andi r19,lo8(16)
 3652 133a 24FF      		sbrs r18,4
 3653 133c 00C0      		rjmp .L239
 3654 133e 80E0      		ldi r24,0
 3655 1340 90E0      		ldi r25,0
 3656               	.L239:
 3657 1342 8093 0000 		sts gripperState,r24
 3658 1346 9093 0000 		sts gripperState+1,r25
 697:main.c        **** 					if (gripperStatePrev == 0){
 3659               		.loc 1 697 0
 3660 134a 3111      		cpse r19,__zero_reg__
 3661 134c 00C0      		rjmp .L240
 698:main.c        **** 						int i;
 3662               		.loc 1 698 0
 3663 134e 8091 0000 		lds r24,gripperStatePrev
 3664 1352 9091 0000 		lds r25,gripperStatePrev+1
 3665 1356 892B      		or r24,r25
 3666 1358 01F0      		breq .+2
 3667 135a 00C0      		rjmp .L241
 3668 135c 8FE0      		ldi r24,lo8(15)
 3669 135e E82E      		mov r14,r24
 3670 1360 F12C      		mov r15,__zero_reg__
 3671               	.L242:
 3672               	.LVL261:
 3673               	.LBB181:
 701:main.c        **** 							stepOne(&MOTOR_6,1);
 3674               		.loc 1 701 0 discriminator 3
 3675 1362 8091 0000 		lds r24,Gripper+6
 3676 1366 9091 0000 		lds r25,Gripper+6+1
 3677 136a 0E94 0000 		call delay_ms
 3678               	.LVL262:
 702:main.c        **** 						}
 3679               		.loc 1 702 0 discriminator 3
 3680 136e 61E0      		ldi r22,lo8(1)
 3681 1370 70E0      		ldi r23,0
 3682 1372 80E0      		ldi r24,lo8(Gripper)
 3683 1374 90E0      		ldi r25,hi8(Gripper)
 3684 1376 0E94 0000 		call stepOne
 3685               	.LVL263:
 3686 137a 81E0      		ldi r24,1
 3687 137c E81A      		sub r14,r24
 3688 137e F108      		sbc r15,__zero_reg__
 3689               	.LVL264:
 700:main.c        **** 							delay_ms(MOTOR_6.step_delay);
 3690               		.loc 1 700 0 discriminator 3
 3691 1380 01F4      		brne .L242
 3692 1382 00C0      		rjmp .L241
 3693               	.LVL265:
 3694               	.L240:
GAS LISTING /tmp/ccjciOO6.s 			page 91


 3695               	.LBE181:
 3696               	.LBB182:
 3697               	.LBB183:
 109:main.c        **** }
 3698               		.loc 1 109 0
 3699 1384 8091 0000 		lds r24,elapsedMillis
 3700 1388 9091 0000 		lds r25,elapsedMillis+1
 3701 138c A091 0000 		lds r26,elapsedMillis+2
 3702 1390 B091 0000 		lds r27,elapsedMillis+3
 3703               	.LBE183:
 3704               	.LBE182:
 707:main.c        **** 					MOTOR_6.last_step_time = millis();
 3705               		.loc 1 707 0
 3706 1394 4091 0000 		lds r20,Gripper+32
 3707 1398 5091 0000 		lds r21,Gripper+32+1
 3708 139c 6091 0000 		lds r22,Gripper+32+2
 3709 13a0 7091 0000 		lds r23,Gripper+32+3
 3710 13a4 841B      		sub r24,r20
 3711 13a6 950B      		sbc r25,r21
 3712 13a8 A60B      		sbc r26,r22
 3713 13aa B70B      		sbc r27,r23
 3714 13ac 4091 0000 		lds r20,Gripper+6
 3715 13b0 5091 0000 		lds r21,Gripper+6+1
 3716 13b4 6091 0000 		lds r22,Gripper+6+2
 3717 13b8 7091 0000 		lds r23,Gripper+6+3
 3718 13bc 8417      		cp r24,r20
 3719 13be 9507      		cpc r25,r21
 3720 13c0 A607      		cpc r26,r22
 3721 13c2 B707      		cpc r27,r23
 3722 13c4 00F0      		brlo .L243
 3723               	.LBB184:
 3724               	.LBB185:
 109:main.c        **** }
 3725               		.loc 1 109 0
 3726 13c6 8091 0000 		lds r24,elapsedMillis
 3727 13ca 9091 0000 		lds r25,elapsedMillis+1
 3728 13ce A091 0000 		lds r26,elapsedMillis+2
 3729 13d2 B091 0000 		lds r27,elapsedMillis+3
 3730               	.LBE185:
 3731               	.LBE184:
 708:main.c        **** 					stepOne(&MOTOR_6,1);
 3732               		.loc 1 708 0
 3733 13d6 8093 0000 		sts Gripper+32,r24
 3734 13da 9093 0000 		sts Gripper+32+1,r25
 3735 13de A093 0000 		sts Gripper+32+2,r26
 3736 13e2 B093 0000 		sts Gripper+32+3,r27
 709:main.c        **** 				}
 3737               		.loc 1 709 0
 3738 13e6 61E0      		ldi r22,lo8(1)
 3739 13e8 70E0      		ldi r23,0
 3740 13ea 80E0      		ldi r24,lo8(Gripper)
 3741 13ec 90E0      		ldi r25,hi8(Gripper)
 3742 13ee 0E94 0000 		call stepOne
 3743               	.LVL266:
 3744               	.L243:
 711:main.c        **** 			}
 3745               		.loc 1 711 0
GAS LISTING /tmp/ccjciOO6.s 			page 92


 3746 13f2 8091 0000 		lds r24,gripperState
 3747 13f6 9091 0000 		lds r25,gripperState+1
 3748 13fa 8093 0000 		sts gripperStatePrev,r24
 3749 13fe 9093 0000 		sts gripperStatePrev+1,r25
 712:main.c        **** 			pose[5]=0;
 3750               		.loc 1 712 0
 3751 1402 00C0      		rjmp .L244
 3752               	.L241:
 713:main.c        **** 			
 3753               		.loc 1 713 0
 3754 1404 1092 0000 		sts pose+10,__zero_reg__
 3755 1408 1092 0000 		sts pose+10+1,__zero_reg__
 715:main.c        **** 			/*
 3756               		.loc 1 715 0
 3757 140c 8091 8806 		lds r24,1672
 727:main.c        **** 			pose[4]=0;
 3758               		.loc 1 727 0
 3759 1410 1092 0000 		sts pose+6,__zero_reg__
 3760 1414 1092 0000 		sts pose+6+1,__zero_reg__
 728:main.c        **** 			
 3761               		.loc 1 728 0
 3762 1418 1092 0000 		sts pose+8,__zero_reg__
 3763 141c 1092 0000 		sts pose+8+1,__zero_reg__
 730:main.c        **** 			state = IDLE;
 3764               		.loc 1 730 0
 3765 1420 80E0      		ldi r24,lo8(.LC0)
 3766 1422 90E0      		ldi r25,hi8(.LC0)
 3767 1424 00C0      		rjmp .L255
 3768               	.L237:
 732:main.c        ****             //printf("idle\n");	
 3769               		.loc 1 732 0
 3770 1426 8230      		cpi r24,2
 3771 1428 9105      		cpc r25,__zero_reg__
 3772 142a 01F4      		brne .L246
 736:main.c        **** 			if(!compareArray(pose,goal)){
 3773               		.loc 1 736 0
 3774 142c 0E94 0000 		call updateSign
 3775               	.LVL267:
 737:main.c        **** 				state = MOVING;
 3776               		.loc 1 737 0
 3777 1430 60E0      		ldi r22,lo8(goal)
 3778 1432 70E0      		ldi r23,hi8(goal)
 3779 1434 80E0      		ldi r24,lo8(pose)
 3780 1436 90E0      		ldi r25,hi8(pose)
 3781 1438 0E94 0000 		call compareArray
 3782               	.LVL268:
 3783 143c 892B      		or r24,r25
 3784 143e 01F0      		breq .+2
 3785 1440 00C0      		rjmp .L235
 738:main.c        ****                 printf("moving\n");
 3786               		.loc 1 738 0
 3787 1442 0093 0000 		sts state,r16
 3788 1446 1093 0000 		sts state+1,r17
 739:main.c        **** 			}
 3789               		.loc 1 739 0
 3790 144a 80E0      		ldi r24,lo8(.LC1)
 3791 144c 90E0      		ldi r25,hi8(.LC1)
GAS LISTING /tmp/ccjciOO6.s 			page 93


 3792 144e 0E94 0000 		call puts
 3793               	.LVL269:
 3794 1452 00C0      		rjmp .L235
 3795               	.L246:
 741:main.c        **** 			//If we're not there yet
 3796               		.loc 1 741 0
 3797 1454 0397      		sbiw r24,3
 3798 1456 01F0      		breq .+2
 3799 1458 00C0      		rjmp .L235
 743:main.c        **** 				moveToGoal();
 3800               		.loc 1 743 0
 3801 145a 60E0      		ldi r22,lo8(goal)
 3802 145c 70E0      		ldi r23,hi8(goal)
 3803 145e 80E0      		ldi r24,lo8(pose)
 3804 1460 90E0      		ldi r25,hi8(pose)
 3805 1462 0E94 0000 		call compareArray
 3806               	.LVL270:
 3807 1466 892B      		or r24,r25
 3808 1468 01F4      		brne .L248
 744:main.c        **** 			} else if(compareArray(pose,goal)){ //If we got there
 3809               		.loc 1 744 0
 3810 146a 0E94 0000 		call moveToGoal
 3811               	.LVL271:
 3812 146e 00C0      		rjmp .L235
 3813               	.L248:
 746:main.c        **** 					state = IDLE;
 3814               		.loc 1 746 0
 3815 1470 80E0      		ldi r24,lo8(.LC2)
 3816 1472 90E0      		ldi r25,hi8(.LC2)
 3817               	.L255:
 3818 1474 0E94 0000 		call puts
 3819               	.LVL272:
 747:main.c        **** 			}
 3820               		.loc 1 747 0
 3821 1478 C093 0000 		sts state,r28
 3822 147c D093 0000 		sts state+1,r29
 3823 1480 00C0      		rjmp .L235
 3824               		.cfi_endproc
 3825               	.LFE41:
 3826               		.size	mainLoop, .-mainLoop
 3827               		.section	.rodata.str1.1
 3828               	.LC3:
 3829 0016 6769 6D6D 		.string	"gimme"
 3829      6500 
 3830               		.text
 3831               	.global	update
 3832               		.type	update, @function
 3833               	update:
 3834               	.LFB43:
 761:main.c        **** }
 762:main.c        **** 
 763:main.c        **** void update(void){
 3835               		.loc 1 763 0
 3836               		.cfi_startproc
 3837 1482 BF92      		push r11
 3838               	.LCFI90:
 3839               		.cfi_def_cfa_offset 3
GAS LISTING /tmp/ccjciOO6.s 			page 94


 3840               		.cfi_offset 11, -2
 3841 1484 CF92      		push r12
 3842               	.LCFI91:
 3843               		.cfi_def_cfa_offset 4
 3844               		.cfi_offset 12, -3
 3845 1486 DF92      		push r13
 3846               	.LCFI92:
 3847               		.cfi_def_cfa_offset 5
 3848               		.cfi_offset 13, -4
 3849 1488 EF92      		push r14
 3850               	.LCFI93:
 3851               		.cfi_def_cfa_offset 6
 3852               		.cfi_offset 14, -5
 3853 148a FF92      		push r15
 3854               	.LCFI94:
 3855               		.cfi_def_cfa_offset 7
 3856               		.cfi_offset 15, -6
 3857 148c 0F93      		push r16
 3858               	.LCFI95:
 3859               		.cfi_def_cfa_offset 8
 3860               		.cfi_offset 16, -7
 3861 148e 1F93      		push r17
 3862               	.LCFI96:
 3863               		.cfi_def_cfa_offset 9
 3864               		.cfi_offset 17, -8
 3865 1490 CF93      		push r28
 3866               	.LCFI97:
 3867               		.cfi_def_cfa_offset 10
 3868               		.cfi_offset 28, -9
 3869 1492 DF93      		push r29
 3870               	.LCFI98:
 3871               		.cfi_def_cfa_offset 11
 3872               		.cfi_offset 29, -10
 3873 1494 CDB7      		in r28,__SP_L__
 3874 1496 DEB7      		in r29,__SP_H__
 3875               	.LCFI99:
 3876               		.cfi_def_cfa_register 28
 3877 1498 2E97      		sbiw r28,14
 3878               	.LCFI100:
 3879               		.cfi_def_cfa_offset 25
 3880 149a CDBF      		out __SP_L__,r28
 3881 149c DEBF      		out __SP_H__,r29
 3882               	/* prologue: function */
 3883               	/* frame size = 14 */
 3884               	/* stack size = 23 */
 3885               	.L__stack_usage = 23
 764:main.c        ****     printf("gimme\n");
 3886               		.loc 1 764 0
 3887 149e 80E0      		ldi r24,lo8(.LC3)
 3888 14a0 90E0      		ldi r25,hi8(.LC3)
 3889 14a2 0E94 0000 		call puts
 3890               	.LVL273:
 765:main.c        ****     int vals[7] = {0,0,0,0,0,0,0};
 3891               		.loc 1 765 0
 3892 14a6 FE01      		movw r30,r28
 3893 14a8 3196      		adiw r30,1
 3894 14aa 8EE0      		ldi r24,lo8(14)
GAS LISTING /tmp/ccjciOO6.s 			page 95


 3895 14ac DF01      		movw r26,r30
 3896               		0:
 3897 14ae 1D92      		st X+,__zero_reg__
 3898 14b0 8A95      		dec r24
 3899 14b2 01F4      		brne 0b
 3900               	.LVL274:
 3901 14b4 8F01      		movw r16,r30
 3902 14b6 6E01      		movw r12,r28
 3903 14b8 BFE0      		ldi r27,15
 3904 14ba CB0E      		add r12,r27
 3905 14bc D11C      		adc r13,__zero_reg__
 766:main.c        ****     int c;
 767:main.c        ****     int i;
 768:main.c        ****     int f = 1;
 769:main.c        ****     for(i = 0; i < 7; i++){
 770:main.c        ****         f = 1;
 771:main.c        ****         while(1){
 772:main.c        ****             c = uart_getchar();
 773:main.c        ****             if(c == ','){
 774:main.c        ****                 break;
 775:main.c        ****             }else if(c == '\n'){
 776:main.c        ****                 break;
 777:main.c        ****             }else if (c == '-'){
 778:main.c        ****                 f = -1;
 779:main.c        ****             }else if((c - '0')<0){
 780:main.c        ****             }else{
 781:main.c        ****                 vals[i] = vals[i]*10+(c - '0');
 3906               		.loc 1 781 0
 3907 14be 2AE0      		ldi r18,lo8(10)
 3908 14c0 B22E      		mov r11,r18
 3909               	.LVL275:
 3910               	.L257:
 778:main.c        ****             }else if((c - '0')<0){
 3911               		.loc 1 778 0
 3912 14c2 EE24      		clr r14
 3913 14c4 E394      		inc r14
 3914 14c6 F12C      		mov r15,__zero_reg__
 3915               	.L261:
 3916               	.LVL276:
 772:main.c        ****             if(c == ','){
 3917               		.loc 1 772 0
 3918 14c8 0E94 0000 		call uart_getchar
 3919               	.LVL277:
 773:main.c        ****                 break;
 3920               		.loc 1 773 0
 3921 14cc 8C32      		cpi r24,44
 3922 14ce 9105      		cpc r25,__zero_reg__
 3923 14d0 01F0      		breq .L258
 775:main.c        ****                 break;
 3924               		.loc 1 775 0
 3925 14d2 8A30      		cpi r24,10
 3926 14d4 9105      		cpc r25,__zero_reg__
 3927 14d6 01F0      		breq .L258
 777:main.c        ****                 f = -1;
 3928               		.loc 1 777 0
 3929 14d8 8D32      		cpi r24,45
 3930 14da 9105      		cpc r25,__zero_reg__
GAS LISTING /tmp/ccjciOO6.s 			page 96


 3931 14dc 01F4      		brne .L269
 778:main.c        ****             }else if((c - '0')<0){
 3932               		.loc 1 778 0
 3933 14de EE24      		clr r14
 3934 14e0 EA94      		dec r14
 3935 14e2 FE2C      		mov r15,r14
 3936               	.LVL278:
 3937 14e4 00C0      		rjmp .L261
 3938               	.LVL279:
 3939               	.L269:
 779:main.c        ****             }else{
 3940               		.loc 1 779 0
 3941 14e6 8033      		cpi r24,48
 3942 14e8 9105      		cpc r25,__zero_reg__
 3943 14ea 04F0      		brlt .L261
 3944               		.loc 1 781 0
 3945 14ec F801      		movw r30,r16
 3946 14ee 4081      		ld r20,Z
 3947 14f0 5181      		ldd r21,Z+1
 3948 14f2 B49E      		mul r11,r20
 3949 14f4 9001      		movw r18,r0
 3950 14f6 B59E      		mul r11,r21
 3951 14f8 300D      		add r19,r0
 3952 14fa 1124      		clr __zero_reg__
 3953 14fc C097      		sbiw r24,48
 3954               	.LVL280:
 3955 14fe 820F      		add r24,r18
 3956 1500 931F      		adc r25,r19
 3957               	.LVL281:
 3958 1502 8083      		st Z,r24
 3959 1504 9183      		std Z+1,r25
 3960 1506 00C0      		rjmp .L261
 3961               	.LVL282:
 3962               	.L258:
 782:main.c        ****             }
 783:main.c        ****         }
 784:main.c        ****         vals[i] = vals[i]*f;
 3963               		.loc 1 784 0
 3964 1508 D801      		movw r26,r16
 3965 150a 2D91      		ld r18,X+
 3966 150c 3C91      		ld r19,X
 3967 150e 2E9D      		mul r18,r14
 3968 1510 C001      		movw r24,r0
 3969 1512 2F9D      		mul r18,r15
 3970 1514 900D      		add r25,r0
 3971 1516 3E9D      		mul r19,r14
 3972 1518 900D      		add r25,r0
 3973 151a 1124      		clr r1
 3974               	.LVL283:
 3975 151c F801      		movw r30,r16
 3976 151e 8193      		st Z+,r24
 3977 1520 9193      		st Z+,r25
 3978 1522 8F01      		movw r16,r30
 769:main.c        ****         f = 1;
 3979               		.loc 1 769 0
 3980 1524 EC15      		cp r30,r12
 3981 1526 FD05      		cpc r31,r13
GAS LISTING /tmp/ccjciOO6.s 			page 97


 3982 1528 01F4      		brne .L257
 785:main.c        ****     }
 786:main.c        ****     changeGoal(vals[0],vals[1],vals[2],vals[3],vals[4],vals[5]);
 3983               		.loc 1 786 0
 3984 152a 8B85      		ldd r24,Y+11
 3985 152c 9C85      		ldd r25,Y+12
 3986 152e 2985      		ldd r18,Y+9
 3987 1530 3A85      		ldd r19,Y+10
 3988 1532 4F81      		ldd r20,Y+7
 3989 1534 5885      		ldd r21,Y+8
 3990 1536 6D81      		ldd r22,Y+5
 3991 1538 7E81      		ldd r23,Y+6
 3992 153a EB81      		ldd r30,Y+3
 3993 153c FC81      		ldd r31,Y+4
 3994               	.LVL284:
 3995               	.LBB186:
 3996               	.LBB187:
 578:main.c        **** 	goal[1] = val1;
 3997               		.loc 1 578 0
 3998 153e A981      		ldd r26,Y+1
 3999 1540 BA81      		ldd r27,Y+2
 4000 1542 A093 0000 		sts goal,r26
 4001 1546 B093 0000 		sts goal+1,r27
 579:main.c        **** 	goal[2] = val2;
 4002               		.loc 1 579 0
 4003 154a E093 0000 		sts goal+2,r30
 4004 154e F093 0000 		sts goal+2+1,r31
 580:main.c        **** 	goal[3] = val3;
 4005               		.loc 1 580 0
 4006 1552 6093 0000 		sts goal+4,r22
 4007 1556 7093 0000 		sts goal+4+1,r23
 581:main.c        **** 	goal[4] = val4;
 4008               		.loc 1 581 0
 4009 155a 4093 0000 		sts goal+6,r20
 4010 155e 5093 0000 		sts goal+6+1,r21
 582:main.c        **** 	goal[5] = val5;
 4011               		.loc 1 582 0
 4012 1562 2093 0000 		sts goal+8,r18
 4013 1566 3093 0000 		sts goal+8+1,r19
 583:main.c        **** }
 4014               		.loc 1 583 0
 4015 156a 8093 0000 		sts goal+10,r24
 4016 156e 9093 0000 		sts goal+10+1,r25
 4017               	.LVL285:
 4018               	.LBE187:
 4019               	.LBE186:
 787:main.c        ****     maxSpeed = vals[6];
 4020               		.loc 1 787 0
 4021 1572 8D85      		ldd r24,Y+13
 4022 1574 9E85      		ldd r25,Y+14
 4023 1576 8093 0000 		sts maxSpeed,r24
 4024 157a 9093 0000 		sts maxSpeed+1,r25
 4025               	/* epilogue start */
 788:main.c        **** }
 4026               		.loc 1 788 0
 4027 157e 2E96      		adiw r28,14
 4028 1580 CDBF      		out __SP_L__,r28
GAS LISTING /tmp/ccjciOO6.s 			page 98


 4029 1582 DEBF      		out __SP_H__,r29
 4030 1584 DF91      		pop r29
 4031 1586 CF91      		pop r28
 4032 1588 1F91      		pop r17
 4033 158a 0F91      		pop r16
 4034 158c FF90      		pop r15
 4035 158e EF90      		pop r14
 4036               	.LVL286:
 4037 1590 DF90      		pop r13
 4038 1592 CF90      		pop r12
 4039 1594 BF90      		pop r11
 4040 1596 0895      		ret
 4041               		.cfi_endproc
 4042               	.LFE43:
 4043               		.size	update, .-update
 4044               	.global	init
 4045               		.type	init, @function
 4046               	init:
 4047               	.LFB44:
 789:main.c        **** 
 790:main.c        **** void init(void){
 4048               		.loc 1 790 0
 4049               		.cfi_startproc
 4050               	/* prologue: function */
 4051               	/* frame size = 0 */
 4052               	/* stack size = 0 */
 4053               	.L__stack_usage = 0
 791:main.c        ****         
 792:main.c        **** 	Config32MHzClock();// Set Clock Speed to 32MHz	
 4054               		.loc 1 792 0
 4055 1598 0E94 0000 		call Config32MHzClock
 4056               	.LVL287:
 793:main.c        **** 	
 794:main.c        **** 	/* Timer for keeping track of milliseconds:
 795:main.c        **** 	 * The result of this triggers the interrupt once per millisecond.
 796:main.c        **** 	 */
 797:main.c        **** 	TCC0.PER = 4000;// Set HIGH to 4000 and LOW to 0
 4057               		.loc 1 797 0
 4058 159c E0E0      		ldi r30,0
 4059 159e F8E0      		ldi r31,lo8(8)
 4060 15a0 80EA      		ldi r24,lo8(-96)
 4061 15a2 9FE0      		ldi r25,lo8(15)
 4062 15a4 86A3      		std Z+38,r24
 4063 15a6 97A3      		std Z+39,r25
 798:main.c        **** 	TCC0.CTRLA = ( TCC0.CTRLA & ~TC0_CLKSEL_gm ) | TC_CLKSEL_DIV8_gc; // Work from CPUCLK/8
 4064               		.loc 1 798 0
 4065 15a8 8081      		ld r24,Z
 4066 15aa 807F      		andi r24,lo8(-16)
 4067 15ac 8460      		ori r24,lo8(4)
 4068 15ae 8083      		st Z,r24
 799:main.c        **** 	TCC0.INTCTRLA = ( TCC0.INTCTRLA & ~TC0_OVFINTLVL_gm ) | TC_OVFINTLVL_HI_gc; // Enable overflow int
 4069               		.loc 1 799 0
 4070 15b0 8681      		ldd r24,Z+6
 4071 15b2 8360      		ori r24,lo8(3)
 4072 15b4 8683      		std Z+6,r24
 800:main.c        **** 	// Enable low interrupt level in PMIC and enable global interrupts.
 801:main.c        **** 	PMIC.CTRL |= PMIC_HILVLEN_bm;
GAS LISTING /tmp/ccjciOO6.s 			page 99


 4073               		.loc 1 801 0
 4074 15b6 E0EA      		ldi r30,lo8(-96)
 4075 15b8 F0E0      		ldi r31,0
 4076 15ba 8281      		ldd r24,Z+2
 4077 15bc 8460      		ori r24,lo8(4)
 4078 15be 8283      		std Z+2,r24
 802:main.c        **** 	sei();
 4079               		.loc 1 802 0
 4080               	/* #APP */
 4081               	 ;  802 "main.c" 1
 4082 15c0 7894      		sei
 4083               	 ;  0 "" 2
 803:main.c        **** 
 804:main.c        **** 	/* Set I/O */
 805:main.c        **** 	PORTA.DIRSET |= 0XFF;// Set PortA 0-7 to output
 4084               		.loc 1 805 0
 4085               	/* #NOAPP */
 4086 15c2 E0E0      		ldi r30,0
 4087 15c4 F6E0      		ldi r31,lo8(6)
 4088 15c6 8181      		ldd r24,Z+1
 4089 15c8 8FEF      		ldi r24,lo8(-1)
 4090 15ca 8183      		std Z+1,r24
 806:main.c        **** 	PORTB.DIRSET |= 0xFF;// Set PortB 0-7 to output
 4091               		.loc 1 806 0
 4092 15cc E0E2      		ldi r30,lo8(32)
 4093 15ce F6E0      		ldi r31,lo8(6)
 4094 15d0 9181      		ldd r25,Z+1
 4095 15d2 8183      		std Z+1,r24
 807:main.c        **** 	PORTC.DIRSET |= 0xFF;// Set PortC 0-7 to output
 4096               		.loc 1 807 0
 4097 15d4 E0E4      		ldi r30,lo8(64)
 4098 15d6 F6E0      		ldi r31,lo8(6)
 4099 15d8 9181      		ldd r25,Z+1
 4100 15da 8183      		std Z+1,r24
 808:main.c        **** 	PORTD.DIRSET |= 0x0F;// Set PortD pins 0-3 to output
 4101               		.loc 1 808 0
 4102 15dc E0E6      		ldi r30,lo8(96)
 4103 15de F6E0      		ldi r31,lo8(6)
 4104 15e0 8181      		ldd r24,Z+1
 4105 15e2 8F60      		ori r24,lo8(15)
 4106 15e4 8183      		std Z+1,r24
 809:main.c        **** 
 810:main.c        **** 	PORTD.PIN4CTRL = PORT_OPC_PULLUP_gc; //Set pin D4 as INPUT and as a pullup (Detect when pulled LOW
 4107               		.loc 1 810 0
 4108 15e6 88E1      		ldi r24,lo8(24)
 4109 15e8 848B      		std Z+20,r24
 811:main.c        **** 	PORTD.PIN5CTRL = PORT_OPC_PULLUP_gc; //Set pin D5 as INPUT and as a pullup (Detect when pulled LOW
 4110               		.loc 1 811 0
 4111 15ea 858B      		std Z+21,r24
 812:main.c        **** 	//PORTE.PIN0CTRL = PORT_OPC_PULLUP_gc; //Set pin E0 as INPUT and as a pullup (Detect when pulled L
 813:main.c        **** 	PORTE.PIN1CTRL = PORT_OPC_PULLUP_gc; //Set pin E1 as INPUT and as a pullup (Detect when pulled LOW
 4112               		.loc 1 813 0
 4113 15ec A0E8      		ldi r26,lo8(-128)
 4114 15ee B6E0      		ldi r27,lo8(6)
 4115 15f0 5196      		adiw r26,17
 4116 15f2 8C93      		st X,r24
 4117 15f4 5197      		sbiw r26,17
GAS LISTING /tmp/ccjciOO6.s 			page 100


 814:main.c        **** 	PORTE.PIN2CTRL = PORT_OPC_PULLUP_gc; //Set pin E2 as INPUT and as a pullup (Detect when pulled LOW
 4118               		.loc 1 814 0
 4119 15f6 5296      		adiw r26,18
 4120 15f8 8C93      		st X,r24
 4121 15fa 5297      		sbiw r26,18
 815:main.c        **** 	PORTE.PIN3CTRL = PORT_OPC_PULLUP_gc; //Set pin E3 as INPUT and as a pullup (Detect when pulled LOW
 4122               		.loc 1 815 0
 4123 15fc 5396      		adiw r26,19
 4124 15fe 8C93      		st X,r24
 4125               	.LBB190:
 4126               	.LBB191:
  55:main.c        **** 
 4127               		.loc 1 55 0
 4128 1600 90E8      		ldi r25,lo8(-128)
 4129 1602 9583      		std Z+5,r25
  58:main.c        **** 
 4130               		.loc 1 58 0
 4131 1604 9183      		std Z+1,r25
  62:main.c        ****     USARTD1.BAUDCTRLA = 51; //16 for 32MHz at 115200, 12 for 2MHz at 9600, 51 for  38400 at 32MHz
 4132               		.loc 1 62 0
 4133 1606 E0EB      		ldi r30,lo8(-80)
 4134 1608 F9E0      		ldi r31,lo8(9)
 4135 160a 1782      		std Z+7,__zero_reg__
  63:main.c        **** 
 4136               		.loc 1 63 0
 4137 160c 93E3      		ldi r25,lo8(51)
 4138 160e 9683      		std Z+6,r25
  66:main.c        ****     USARTD1.CTRLC = 0x03;                       // async, no parity, 8 bit data, 1 stop bit 
 4139               		.loc 1 66 0
 4140 1610 1382      		std Z+3,__zero_reg__
  67:main.c        **** 
 4141               		.loc 1 67 0
 4142 1612 93E0      		ldi r25,lo8(3)
 4143 1614 9583      		std Z+5,r25
  70:main.c        ****      
 4144               		.loc 1 70 0
 4145 1616 8483      		std Z+4,r24
 4146 1618 0895      		ret
 4147               	.LBE191:
 4148               	.LBE190:
 4149               		.cfi_endproc
 4150               	.LFE44:
 4151               		.size	init, .-init
 4152               		.section	.rodata.str1.1
 4153               	.LC4:
 4154 001c 4C45 5453 		.string	"LETSDOTHIS"
 4154      444F 5448 
 4154      4953 00
 4155               		.section	.text.startup,"ax",@progbits
 4156               	.global	main
 4157               		.type	main, @function
 4158               	main:
 4159               	.LFB45:
 816:main.c        **** 	uart_init(); 
 817:main.c        **** }
 818:main.c        **** 
 819:main.c        **** int main (void){
GAS LISTING /tmp/ccjciOO6.s 			page 101


 4160               		.loc 1 819 0
 4161               		.cfi_startproc
 4162               	/* prologue: function */
 4163               	/* frame size = 0 */
 4164               	/* stack size = 0 */
 4165               	.L__stack_usage = 0
 820:main.c        ****     init();
 4166               		.loc 1 820 0
 4167 0000 0E94 0000 		call init
 4168               	.LVL288:
 821:main.c        ****     
 822:main.c        ****     //PORTE.DIRSET |= _BV(0); //Set pin E0 as OUTPUT
 823:main.c        ****     
 824:main.c        ****     stdout = &mystdout; 
 4169               		.loc 1 824 0
 4170 0004 80E0      		ldi r24,lo8(mystdout)
 4171 0006 90E0      		ldi r25,hi8(mystdout)
 4172 0008 8093 0000 		sts __iob+2,r24
 4173 000c 9093 0000 		sts __iob+2+1,r25
 825:main.c        ****     printf("LETSDOTHIS\n");	
 4174               		.loc 1 825 0
 4175 0010 80E0      		ldi r24,lo8(.LC4)
 4176 0012 90E0      		ldi r25,hi8(.LC4)
 4177 0014 0E94 0000 		call puts
 4178               	.LVL289:
 826:main.c        **** 	gripperState = !(PORTD.IN & _BV(4));
 4179               		.loc 1 826 0
 4180 0018 8091 6806 		lds r24,1640
 4181 001c 8295      		swap r24
 4182 001e 8F70      		andi r24,lo8(15)
 4183 0020 91E0      		ldi r25,lo8(1)
 4184 0022 8927      		eor r24,r25
 4185 0024 8170      		andi r24,1
 4186 0026 90E0      		ldi r25,0
 4187 0028 8093 0000 		sts gripperState,r24
 4188 002c 9093 0000 		sts gripperState+1,r25
 827:main.c        **** 	gripperStatePrev = gripperState;
 4189               		.loc 1 827 0
 4190 0030 8093 0000 		sts gripperStatePrev,r24
 4191 0034 9093 0000 		sts gripperStatePrev+1,r25
 828:main.c        ****     
 829:main.c        **** 	mainLoop();
 4192               		.loc 1 829 0
 4193 0038 0E94 0000 		call mainLoop
 4194               	.LVL290:
 4195               		.cfi_endproc
 4196               	.LFE45:
 4197               		.size	main, .-main
 4198               	.global	Gripper
 4199               		.data
 4200               		.type	Gripper, @object
 4201               		.size	Gripper, 36
 4202               	Gripper:
 4203 0000 0600      		.word	6
 4204 0002 0100      		.word	1
 4205 0004 2800      		.word	40
 4206 0006 0A        		.byte	10
GAS LISTING /tmp/ccjciOO6.s 			page 102


 4207 0007 00        		.byte	0
 4208 0008 00        		.byte	0
 4209 0009 00        		.byte	0
 4210 000a 6400      		.word	100
 4211 000c 0400      		.word	4
 4212 000e 0000      		.word	0
 4213 0010 0000      		.word	0
 4214 0012 2003      		.word	800
 4215 0014 44        		.byte	68
 4216 0015 0000      		.word	0
 4217 0017 44        		.byte	68
 4218 0018 0100      		.word	1
 4219 001a 44        		.byte	68
 4220 001b 0200      		.word	2
 4221 001d 44        		.byte	68
 4222 001e 0300      		.word	3
 4223 0020 0000 0000 		.zero	4
 4224               	.global	Right_Wrist
 4225               		.type	Right_Wrist, @object
 4226               		.size	Right_Wrist, 36
 4227               	Right_Wrist:
 4228 0024 0400      		.word	4
 4229 0026 0100      		.word	1
 4230 0028 2800      		.word	40
 4231 002a 0A        		.byte	10
 4232 002b 00        		.byte	0
 4233 002c 00        		.byte	0
 4234 002d 00        		.byte	0
 4235 002e 6400      		.word	100
 4236 0030 0400      		.word	4
 4237 0032 0000      		.word	0
 4238 0034 C800      		.word	200
 4239 0036 38FF      		.word	-200
 4240 0038 43        		.byte	67
 4241 0039 0000      		.word	0
 4242 003b 43        		.byte	67
 4243 003c 0100      		.word	1
 4244 003e 43        		.byte	67
 4245 003f 0200      		.word	2
 4246 0041 43        		.byte	67
 4247 0042 0300      		.word	3
 4248 0044 0000 0000 		.zero	4
 4249               	.global	Left_Wrist
 4250               		.type	Left_Wrist, @object
 4251               		.size	Left_Wrist, 36
 4252               	Left_Wrist:
 4253 0048 0500      		.word	5
 4254 004a 0100      		.word	1
 4255 004c 2800      		.word	40
 4256 004e 0A        		.byte	10
 4257 004f 00        		.byte	0
 4258 0050 00        		.byte	0
 4259 0051 00        		.byte	0
 4260 0052 6400      		.word	100
 4261 0054 0400      		.word	4
 4262 0056 0000      		.word	0
 4263 0058 38FF      		.word	-200
GAS LISTING /tmp/ccjciOO6.s 			page 103


 4264 005a C800      		.word	200
 4265 005c 43        		.byte	67
 4266 005d 0400      		.word	4
 4267 005f 43        		.byte	67
 4268 0060 0500      		.word	5
 4269 0062 43        		.byte	67
 4270 0063 0600      		.word	6
 4271 0065 43        		.byte	67
 4272 0066 0700      		.word	7
 4273 0068 0000 0000 		.zero	4
 4274               	.global	Elbow
 4275               		.type	Elbow, @object
 4276               		.size	Elbow, 36
 4277               	Elbow:
 4278 006c 0300      		.word	3
 4279 006e 0100      		.word	1
 4280 0070 2800      		.word	40
 4281 0072 0A        		.byte	10
 4282 0073 00        		.byte	0
 4283 0074 00        		.byte	0
 4284 0075 00        		.byte	0
 4285 0076 6400      		.word	100
 4286 0078 0400      		.word	4
 4287 007a 0000      		.word	0
 4288 007c 0000      		.word	0
 4289 007e AA05      		.word	1450
 4290 0080 42        		.byte	66
 4291 0081 0000      		.word	0
 4292 0083 42        		.byte	66
 4293 0084 0100      		.word	1
 4294 0086 42        		.byte	66
 4295 0087 0200      		.word	2
 4296 0089 42        		.byte	66
 4297 008a 0300      		.word	3
 4298 008c 0000 0000 		.zero	4
 4299               	.global	Shoulder
 4300               		.type	Shoulder, @object
 4301               		.size	Shoulder, 36
 4302               	Shoulder:
 4303 0090 0200      		.word	2
 4304 0092 0100      		.word	1
 4305 0094 2800      		.word	40
 4306 0096 0A        		.byte	10
 4307 0097 00        		.byte	0
 4308 0098 00        		.byte	0
 4309 0099 00        		.byte	0
 4310 009a 6400      		.word	100
 4311 009c 0400      		.word	4
 4312 009e 0000      		.word	0
 4313 00a0 0000      		.word	0
 4314 00a2 5CF9      		.word	-1700
 4315 00a4 41        		.byte	65
 4316 00a5 0400      		.word	4
 4317 00a7 41        		.byte	65
 4318 00a8 0500      		.word	5
 4319 00aa 41        		.byte	65
 4320 00ab 0600      		.word	6
GAS LISTING /tmp/ccjciOO6.s 			page 104


 4321 00ad 41        		.byte	65
 4322 00ae 0700      		.word	7
 4323 00b0 0000 0000 		.zero	4
 4324               	.global	Base
 4325               		.type	Base, @object
 4326               		.size	Base, 36
 4327               	Base:
 4328 00b4 0100      		.word	1
 4329 00b6 0100      		.word	1
 4330 00b8 2800      		.word	40
 4331 00ba 0A        		.byte	10
 4332 00bb 00        		.byte	0
 4333 00bc 00        		.byte	0
 4334 00bd 00        		.byte	0
 4335 00be 6400      		.word	100
 4336 00c0 0400      		.word	4
 4337 00c2 0000      		.word	0
 4338 00c4 7CFC      		.word	-900
 4339 00c6 8403      		.word	900
 4340 00c8 41        		.byte	65
 4341 00c9 0000      		.word	0
 4342 00cb 41        		.byte	65
 4343 00cc 0100      		.word	1
 4344 00ce 41        		.byte	65
 4345 00cf 0200      		.word	2
 4346 00d1 41        		.byte	65
 4347 00d2 0300      		.word	3
 4348 00d4 0000 0000 		.zero	4
 4349               		.type	mystdout, @object
 4350               		.size	mystdout, 14
 4351               	mystdout:
 4352 00d8 0000 00   		.zero	3
 4353 00db 02        		.byte	2
 4354 00dc 0000 0000 		.zero	4
 4355 00e0 0000      		.word	gs(uart_putchar)
 4356 00e2 0000      		.word	0
 4357 00e4 0000      		.word	0
 4358               	.global	gripperStatePrev
 4359               		.section .bss
 4360               		.type	gripperStatePrev, @object
 4361               		.size	gripperStatePrev, 2
 4362               	gripperStatePrev:
 4363 0000 0000      		.zero	2
 4364               	.global	gripperState
 4365               		.type	gripperState, @object
 4366               		.size	gripperState, 2
 4367               	gripperState:
 4368 0002 0000      		.zero	2
 4369               	.global	maxSpeed
 4370               		.data
 4371               		.type	maxSpeed, @object
 4372               		.size	maxSpeed, 2
 4373               	maxSpeed:
 4374 00e6 3200      		.word	50
 4375               	.global	elapsedMillis
 4376               		.section .bss
 4377               		.type	elapsedMillis, @object
GAS LISTING /tmp/ccjciOO6.s 			page 105


 4378               		.size	elapsedMillis, 4
 4379               	elapsedMillis:
 4380 0004 0000 0000 		.zero	4
 4381               	.global	pose
 4382               		.type	pose, @object
 4383               		.size	pose, 12
 4384               	pose:
 4385 0008 0000 0000 		.zero	12
 4385      0000 0000 
 4385      0000 0000 
 4386               	.global	goal
 4387               		.type	goal, @object
 4388               		.size	goal, 12
 4389               	goal:
 4390 0014 0000 0000 		.zero	12
 4390      0000 0000 
 4390      0000 0000 
 4391               	.global	debugFlag
 4392               		.type	debugFlag, @object
 4393               		.size	debugFlag, 2
 4394               	debugFlag:
 4395 0020 0000      		.zero	2
 4396               	.global	state
 4397               		.data
 4398               		.type	state, @object
 4399               		.size	state, 2
 4400               	state:
 4401 00e8 0100      		.word	1
 4402               		.text
 4403               	.Letext0:
 4404               		.file 4 "/usr/lib/avr/include/stdint.h"
 4405               		.file 5 "/usr/lib/avr/include/stdio.h"
 4406               		.file 6 "/usr/lib/avr/include/avr/iox16a4.h"
 4407               		.file 7 "main.h"
 4408               		.file 8 "<built-in>"
 4409               		.section	.debug_info,"",@progbits
 4410               	.Ldebug_info0:
 4411 0000 6B20 0000 		.long	0x206b
 4412 0004 0200      		.word	0x2
 4413 0006 0000 0000 		.long	.Ldebug_abbrev0
 4414 000a 04        		.byte	0x4
 4415 000b 01        		.uleb128 0x1
 4416 000c 0000 0000 		.long	.LASF332
 4417 0010 0C        		.byte	0xc
 4418 0011 0000 0000 		.long	.LASF333
 4419 0015 0000 0000 		.long	.LASF334
 4420 0019 0000 0000 		.long	.Ldebug_ranges0+0x18
 4421 001d 0000 0000 		.long	0
 4422 0021 0000 0000 		.long	0
 4423 0025 0000 0000 		.long	.Ldebug_line0
 4424 0029 02        		.uleb128 0x2
 4425 002a 04        		.byte	0x4
 4426 002b 04        		.byte	0x4
 4427 002c 0000 0000 		.long	.LASF0
 4428 0030 03        		.uleb128 0x3
 4429 0031 02        		.byte	0x2
 4430 0032 05        		.byte	0x5
GAS LISTING /tmp/ccjciOO6.s 			page 106


 4431 0033 696E 7400 		.string	"int"
 4432 0037 02        		.uleb128 0x2
 4433 0038 01        		.byte	0x1
 4434 0039 06        		.byte	0x6
 4435 003a 0000 0000 		.long	.LASF1
 4436 003e 04        		.uleb128 0x4
 4437 003f 0000 0000 		.long	.LASF3
 4438 0043 04        		.byte	0x4
 4439 0044 7E        		.byte	0x7e
 4440 0045 4900 0000 		.long	0x49
 4441 0049 02        		.uleb128 0x2
 4442 004a 01        		.byte	0x1
 4443 004b 08        		.byte	0x8
 4444 004c 0000 0000 		.long	.LASF2
 4445 0050 04        		.uleb128 0x4
 4446 0051 0000 0000 		.long	.LASF4
 4447 0055 04        		.byte	0x4
 4448 0056 80        		.byte	0x80
 4449 0057 5B00 0000 		.long	0x5b
 4450 005b 02        		.uleb128 0x2
 4451 005c 02        		.byte	0x2
 4452 005d 07        		.byte	0x7
 4453 005e 0000 0000 		.long	.LASF5
 4454 0062 02        		.uleb128 0x2
 4455 0063 04        		.byte	0x4
 4456 0064 05        		.byte	0x5
 4457 0065 0000 0000 		.long	.LASF6
 4458 0069 04        		.uleb128 0x4
 4459 006a 0000 0000 		.long	.LASF7
 4460 006e 04        		.byte	0x4
 4461 006f 82        		.byte	0x82
 4462 0070 7400 0000 		.long	0x74
 4463 0074 02        		.uleb128 0x2
 4464 0075 04        		.byte	0x4
 4465 0076 07        		.byte	0x7
 4466 0077 0000 0000 		.long	.LASF8
 4467 007b 02        		.uleb128 0x2
 4468 007c 08        		.byte	0x8
 4469 007d 05        		.byte	0x5
 4470 007e 0000 0000 		.long	.LASF9
 4471 0082 02        		.uleb128 0x2
 4472 0083 08        		.byte	0x8
 4473 0084 07        		.byte	0x7
 4474 0085 0000 0000 		.long	.LASF10
 4475 0089 05        		.uleb128 0x5
 4476 008a 0000 0000 		.long	.LASF21
 4477 008e 0E        		.byte	0xe
 4478 008f 05        		.byte	0x5
 4479 0090 F4        		.byte	0xf4
 4480 0091 0B01 0000 		.long	0x10b
 4481 0095 06        		.uleb128 0x6
 4482 0096 6275 6600 		.string	"buf"
 4483 009a 05        		.byte	0x5
 4484 009b F5        		.byte	0xf5
 4485 009c 0B01 0000 		.long	0x10b
 4486 00a0 02        		.byte	0x2
 4487 00a1 23        		.byte	0x23
GAS LISTING /tmp/ccjciOO6.s 			page 107


 4488 00a2 00        		.uleb128 0
 4489 00a3 07        		.uleb128 0x7
 4490 00a4 0000 0000 		.long	.LASF11
 4491 00a8 05        		.byte	0x5
 4492 00a9 F6        		.byte	0xf6
 4493 00aa 4900 0000 		.long	0x49
 4494 00ae 02        		.byte	0x2
 4495 00af 23        		.byte	0x23
 4496 00b0 02        		.uleb128 0x2
 4497 00b1 07        		.uleb128 0x7
 4498 00b2 0000 0000 		.long	.LASF12
 4499 00b6 05        		.byte	0x5
 4500 00b7 F7        		.byte	0xf7
 4501 00b8 3E00 0000 		.long	0x3e
 4502 00bc 02        		.byte	0x2
 4503 00bd 23        		.byte	0x23
 4504 00be 03        		.uleb128 0x3
 4505 00bf 08        		.uleb128 0x8
 4506 00c0 0000 0000 		.long	.LASF13
 4507 00c4 05        		.byte	0x5
 4508 00c5 0701      		.word	0x107
 4509 00c7 3000 0000 		.long	0x30
 4510 00cb 02        		.byte	0x2
 4511 00cc 23        		.byte	0x23
 4512 00cd 04        		.uleb128 0x4
 4513 00ce 09        		.uleb128 0x9
 4514 00cf 6C65 6E00 		.string	"len"
 4515 00d3 05        		.byte	0x5
 4516 00d4 0801      		.word	0x108
 4517 00d6 3000 0000 		.long	0x30
 4518 00da 02        		.byte	0x2
 4519 00db 23        		.byte	0x23
 4520 00dc 06        		.uleb128 0x6
 4521 00dd 09        		.uleb128 0x9
 4522 00de 7075 7400 		.string	"put"
 4523 00e2 05        		.byte	0x5
 4524 00e3 0901      		.word	0x109
 4525 00e5 3301 0000 		.long	0x133
 4526 00e9 02        		.byte	0x2
 4527 00ea 23        		.byte	0x23
 4528 00eb 08        		.uleb128 0x8
 4529 00ec 09        		.uleb128 0x9
 4530 00ed 6765 7400 		.string	"get"
 4531 00f1 05        		.byte	0x5
 4532 00f2 0A01      		.word	0x10a
 4533 00f4 4901 0000 		.long	0x149
 4534 00f8 02        		.byte	0x2
 4535 00f9 23        		.byte	0x23
 4536 00fa 0A        		.uleb128 0xa
 4537 00fb 08        		.uleb128 0x8
 4538 00fc 0000 0000 		.long	.LASF14
 4539 0100 05        		.byte	0x5
 4540 0101 0B01      		.word	0x10b
 4541 0103 4F01 0000 		.long	0x14f
 4542 0107 02        		.byte	0x2
 4543 0108 23        		.byte	0x23
 4544 0109 0C        		.uleb128 0xc
GAS LISTING /tmp/ccjciOO6.s 			page 108


 4545 010a 00        		.byte	0
 4546 010b 0A        		.uleb128 0xa
 4547 010c 02        		.byte	0x2
 4548 010d 1101 0000 		.long	0x111
 4549 0111 02        		.uleb128 0x2
 4550 0112 01        		.byte	0x1
 4551 0113 08        		.byte	0x8
 4552 0114 0000 0000 		.long	.LASF15
 4553 0118 0B        		.uleb128 0xb
 4554 0119 01        		.byte	0x1
 4555 011a 3000 0000 		.long	0x30
 4556 011e 2D01 0000 		.long	0x12d
 4557 0122 0C        		.uleb128 0xc
 4558 0123 1101 0000 		.long	0x111
 4559 0127 0C        		.uleb128 0xc
 4560 0128 2D01 0000 		.long	0x12d
 4561 012c 00        		.byte	0
 4562 012d 0A        		.uleb128 0xa
 4563 012e 02        		.byte	0x2
 4564 012f 8900 0000 		.long	0x89
 4565 0133 0A        		.uleb128 0xa
 4566 0134 02        		.byte	0x2
 4567 0135 1801 0000 		.long	0x118
 4568 0139 0B        		.uleb128 0xb
 4569 013a 01        		.byte	0x1
 4570 013b 3000 0000 		.long	0x30
 4571 013f 4901 0000 		.long	0x149
 4572 0143 0C        		.uleb128 0xc
 4573 0144 2D01 0000 		.long	0x12d
 4574 0148 00        		.byte	0
 4575 0149 0A        		.uleb128 0xa
 4576 014a 02        		.byte	0x2
 4577 014b 3901 0000 		.long	0x139
 4578 014f 0D        		.uleb128 0xd
 4579 0150 02        		.byte	0x2
 4580 0151 0E        		.uleb128 0xe
 4581 0152 0000 0000 		.long	.LASF16
 4582 0156 05        		.byte	0x5
 4583 0157 1501      		.word	0x115
 4584 0159 8900 0000 		.long	0x89
 4585 015d 04        		.uleb128 0x4
 4586 015e 0000 0000 		.long	.LASF17
 4587 0162 06        		.byte	0x6
 4588 0163 68        		.byte	0x68
 4589 0164 6801 0000 		.long	0x168
 4590 0168 0F        		.uleb128 0xf
 4591 0169 3E00 0000 		.long	0x3e
 4592 016d 04        		.uleb128 0x4
 4593 016e 0000 0000 		.long	.LASF18
 4594 0172 06        		.byte	0x6
 4595 0173 69        		.byte	0x69
 4596 0174 7801 0000 		.long	0x178
 4597 0178 0F        		.uleb128 0xf
 4598 0179 5000 0000 		.long	0x50
 4599 017d 10        		.uleb128 0x10
 4600 017e 0000 0000 		.long	.LASF28
 4601 0182 01        		.byte	0x1
GAS LISTING /tmp/ccjciOO6.s 			page 109


 4602 0183 4900 0000 		.long	0x49
 4603 0187 06        		.byte	0x6
 4604 0188 A2        		.byte	0xa2
 4605 0189 9A01 0000 		.long	0x19a
 4606 018d 11        		.uleb128 0x11
 4607 018e 0000 0000 		.long	.LASF19
 4608 0192 9D        		.byte	0x9d
 4609 0193 11        		.uleb128 0x11
 4610 0194 0000 0000 		.long	.LASF20
 4611 0198 D8        		.byte	0xd8
 4612 0199 00        		.byte	0
 4613 019a 05        		.uleb128 0x5
 4614 019b 0000 0000 		.long	.LASF22
 4615 019f 04        		.byte	0x4
 4616 01a0 06        		.byte	0x6
 4617 01a1 B0        		.byte	0xb0
 4618 01a2 DF01 0000 		.long	0x1df
 4619 01a6 07        		.uleb128 0x7
 4620 01a7 0000 0000 		.long	.LASF23
 4621 01ab 06        		.byte	0x6
 4622 01ac B2        		.byte	0xb2
 4623 01ad 5D01 0000 		.long	0x15d
 4624 01b1 02        		.byte	0x2
 4625 01b2 23        		.byte	0x23
 4626 01b3 00        		.uleb128 0
 4627 01b4 07        		.uleb128 0x7
 4628 01b5 0000 0000 		.long	.LASF24
 4629 01b9 06        		.byte	0x6
 4630 01ba B3        		.byte	0xb3
 4631 01bb 5D01 0000 		.long	0x15d
 4632 01bf 02        		.byte	0x2
 4633 01c0 23        		.byte	0x23
 4634 01c1 01        		.uleb128 0x1
 4635 01c2 07        		.uleb128 0x7
 4636 01c3 0000 0000 		.long	.LASF25
 4637 01c7 06        		.byte	0x6
 4638 01c8 B4        		.byte	0xb4
 4639 01c9 5D01 0000 		.long	0x15d
 4640 01cd 02        		.byte	0x2
 4641 01ce 23        		.byte	0x23
 4642 01cf 02        		.uleb128 0x2
 4643 01d0 07        		.uleb128 0x7
 4644 01d1 0000 0000 		.long	.LASF26
 4645 01d5 06        		.byte	0x6
 4646 01d6 B5        		.byte	0xb5
 4647 01d7 5D01 0000 		.long	0x15d
 4648 01db 02        		.byte	0x2
 4649 01dc 23        		.byte	0x23
 4650 01dd 03        		.uleb128 0x3
 4651 01de 00        		.byte	0
 4652 01df 04        		.uleb128 0x4
 4653 01e0 0000 0000 		.long	.LASF27
 4654 01e4 06        		.byte	0x6
 4655 01e5 B6        		.byte	0xb6
 4656 01e6 9A01 0000 		.long	0x19a
 4657 01ea 10        		.uleb128 0x10
 4658 01eb 0000 0000 		.long	.LASF29
GAS LISTING /tmp/ccjciOO6.s 			page 110


 4659 01ef 01        		.byte	0x1
 4660 01f0 4900 0000 		.long	0x49
 4661 01f4 06        		.byte	0x6
 4662 01f5 CB        		.byte	0xcb
 4663 01f6 1902 0000 		.long	0x219
 4664 01fa 11        		.uleb128 0x11
 4665 01fb 0000 0000 		.long	.LASF30
 4666 01ff 00        		.byte	0
 4667 0200 11        		.uleb128 0x11
 4668 0201 0000 0000 		.long	.LASF31
 4669 0205 01        		.byte	0x1
 4670 0206 11        		.uleb128 0x11
 4671 0207 0000 0000 		.long	.LASF32
 4672 020b 02        		.byte	0x2
 4673 020c 11        		.uleb128 0x11
 4674 020d 0000 0000 		.long	.LASF33
 4675 0211 03        		.byte	0x3
 4676 0212 11        		.uleb128 0x11
 4677 0213 0000 0000 		.long	.LASF34
 4678 0217 04        		.byte	0x4
 4679 0218 00        		.byte	0
 4680 0219 04        		.uleb128 0x4
 4681 021a 0000 0000 		.long	.LASF35
 4682 021e 06        		.byte	0x6
 4683 021f D2        		.byte	0xd2
 4684 0220 EA01 0000 		.long	0x1ea
 4685 0224 10        		.uleb128 0x10
 4686 0225 0000 0000 		.long	.LASF36
 4687 0229 01        		.byte	0x1
 4688 022a 4900 0000 		.long	0x49
 4689 022e 06        		.byte	0x6
 4690 022f D5        		.byte	0xd5
 4691 0230 7102 0000 		.long	0x271
 4692 0234 11        		.uleb128 0x11
 4693 0235 0000 0000 		.long	.LASF37
 4694 0239 00        		.byte	0
 4695 023a 11        		.uleb128 0x11
 4696 023b 0000 0000 		.long	.LASF38
 4697 023f 04        		.byte	0x4
 4698 0240 11        		.uleb128 0x11
 4699 0241 0000 0000 		.long	.LASF39
 4700 0245 0C        		.byte	0xc
 4701 0246 11        		.uleb128 0x11
 4702 0247 0000 0000 		.long	.LASF40
 4703 024b 14        		.byte	0x14
 4704 024c 11        		.uleb128 0x11
 4705 024d 0000 0000 		.long	.LASF41
 4706 0251 1C        		.byte	0x1c
 4707 0252 11        		.uleb128 0x11
 4708 0253 0000 0000 		.long	.LASF42
 4709 0257 24        		.byte	0x24
 4710 0258 11        		.uleb128 0x11
 4711 0259 0000 0000 		.long	.LASF43
 4712 025d 2C        		.byte	0x2c
 4713 025e 11        		.uleb128 0x11
 4714 025f 0000 0000 		.long	.LASF44
 4715 0263 34        		.byte	0x34
GAS LISTING /tmp/ccjciOO6.s 			page 111


 4716 0264 11        		.uleb128 0x11
 4717 0265 0000 0000 		.long	.LASF45
 4718 0269 3C        		.byte	0x3c
 4719 026a 11        		.uleb128 0x11
 4720 026b 0000 0000 		.long	.LASF46
 4721 026f 44        		.byte	0x44
 4722 0270 00        		.byte	0
 4723 0271 04        		.uleb128 0x4
 4724 0272 0000 0000 		.long	.LASF47
 4725 0276 06        		.byte	0x6
 4726 0277 E1        		.byte	0xe1
 4727 0278 2402 0000 		.long	0x224
 4728 027c 10        		.uleb128 0x10
 4729 027d 0000 0000 		.long	.LASF48
 4730 0281 01        		.byte	0x1
 4731 0282 4900 0000 		.long	0x49
 4732 0286 06        		.byte	0x6
 4733 0287 E4        		.byte	0xe4
 4734 0288 A502 0000 		.long	0x2a5
 4735 028c 11        		.uleb128 0x11
 4736 028d 0000 0000 		.long	.LASF49
 4737 0291 00        		.byte	0
 4738 0292 11        		.uleb128 0x11
 4739 0293 0000 0000 		.long	.LASF50
 4740 0297 01        		.byte	0x1
 4741 0298 11        		.uleb128 0x11
 4742 0299 0000 0000 		.long	.LASF51
 4743 029d 02        		.byte	0x2
 4744 029e 11        		.uleb128 0x11
 4745 029f 0000 0000 		.long	.LASF52
 4746 02a3 03        		.byte	0x3
 4747 02a4 00        		.byte	0
 4748 02a5 04        		.uleb128 0x4
 4749 02a6 0000 0000 		.long	.LASF53
 4750 02aa 06        		.byte	0x6
 4751 02ab EA        		.byte	0xea
 4752 02ac 7C02 0000 		.long	0x27c
 4753 02b0 10        		.uleb128 0x10
 4754 02b1 0000 0000 		.long	.LASF54
 4755 02b5 01        		.byte	0x1
 4756 02b6 4900 0000 		.long	0x49
 4757 02ba 06        		.byte	0x6
 4758 02bb ED        		.byte	0xed
 4759 02bc D902 0000 		.long	0x2d9
 4760 02c0 11        		.uleb128 0x11
 4761 02c1 0000 0000 		.long	.LASF55
 4762 02c5 00        		.byte	0
 4763 02c6 11        		.uleb128 0x11
 4764 02c7 0000 0000 		.long	.LASF56
 4765 02cb 02        		.byte	0x2
 4766 02cc 11        		.uleb128 0x11
 4767 02cd 0000 0000 		.long	.LASF57
 4768 02d1 04        		.byte	0x4
 4769 02d2 11        		.uleb128 0x11
 4770 02d3 0000 0000 		.long	.LASF58
 4771 02d7 0A        		.byte	0xa
 4772 02d8 00        		.byte	0
GAS LISTING /tmp/ccjciOO6.s 			page 112


 4773 02d9 04        		.uleb128 0x4
 4774 02da 0000 0000 		.long	.LASF59
 4775 02de 06        		.byte	0x6
 4776 02df F3        		.byte	0xf3
 4777 02e0 B002 0000 		.long	0x2b0
 4778 02e4 12        		.uleb128 0x12
 4779 02e5 0000 0000 		.long	.LASF60
 4780 02e9 07        		.byte	0x7
 4781 02ea 06        		.byte	0x6
 4782 02eb 1B01      		.word	0x11b
 4783 02ed 5B03 0000 		.long	0x35b
 4784 02f1 08        		.uleb128 0x8
 4785 02f2 0000 0000 		.long	.LASF23
 4786 02f6 06        		.byte	0x6
 4787 02f7 1D01      		.word	0x11d
 4788 02f9 5D01 0000 		.long	0x15d
 4789 02fd 02        		.byte	0x2
 4790 02fe 23        		.byte	0x23
 4791 02ff 00        		.uleb128 0
 4792 0300 08        		.uleb128 0x8
 4793 0301 0000 0000 		.long	.LASF61
 4794 0305 06        		.byte	0x6
 4795 0306 1E01      		.word	0x11e
 4796 0308 5D01 0000 		.long	0x15d
 4797 030c 02        		.byte	0x2
 4798 030d 23        		.byte	0x23
 4799 030e 01        		.uleb128 0x1
 4800 030f 08        		.uleb128 0x8
 4801 0310 0000 0000 		.long	.LASF62
 4802 0314 06        		.byte	0x6
 4803 0315 1F01      		.word	0x11f
 4804 0317 5D01 0000 		.long	0x15d
 4805 031b 02        		.byte	0x2
 4806 031c 23        		.byte	0x23
 4807 031d 02        		.uleb128 0x2
 4808 031e 08        		.uleb128 0x8
 4809 031f 0000 0000 		.long	.LASF63
 4810 0323 06        		.byte	0x6
 4811 0324 2001      		.word	0x120
 4812 0326 5D01 0000 		.long	0x15d
 4813 032a 02        		.byte	0x2
 4814 032b 23        		.byte	0x23
 4815 032c 03        		.uleb128 0x3
 4816 032d 08        		.uleb128 0x8
 4817 032e 0000 0000 		.long	.LASF64
 4818 0332 06        		.byte	0x6
 4819 0333 2101      		.word	0x121
 4820 0335 5D01 0000 		.long	0x15d
 4821 0339 02        		.byte	0x2
 4822 033a 23        		.byte	0x23
 4823 033b 04        		.uleb128 0x4
 4824 033c 08        		.uleb128 0x8
 4825 033d 0000 0000 		.long	.LASF65
 4826 0341 06        		.byte	0x6
 4827 0342 2201      		.word	0x122
 4828 0344 5D01 0000 		.long	0x15d
 4829 0348 02        		.byte	0x2
GAS LISTING /tmp/ccjciOO6.s 			page 113


 4830 0349 23        		.byte	0x23
 4831 034a 05        		.uleb128 0x5
 4832 034b 08        		.uleb128 0x8
 4833 034c 0000 0000 		.long	.LASF66
 4834 0350 06        		.byte	0x6
 4835 0351 2301      		.word	0x123
 4836 0353 5D01 0000 		.long	0x15d
 4837 0357 02        		.byte	0x2
 4838 0358 23        		.byte	0x23
 4839 0359 06        		.uleb128 0x6
 4840 035a 00        		.byte	0
 4841 035b 0E        		.uleb128 0xe
 4842 035c 0000 0000 		.long	.LASF67
 4843 0360 06        		.byte	0x6
 4844 0361 2401      		.word	0x124
 4845 0363 E402 0000 		.long	0x2e4
 4846 0367 13        		.uleb128 0x13
 4847 0368 0000 0000 		.long	.LASF68
 4848 036c 01        		.byte	0x1
 4849 036d 4900 0000 		.long	0x49
 4850 0371 06        		.byte	0x6
 4851 0372 2701      		.word	0x127
 4852 0374 9103 0000 		.long	0x391
 4853 0378 11        		.uleb128 0x11
 4854 0379 0000 0000 		.long	.LASF69
 4855 037d 00        		.byte	0
 4856 037e 11        		.uleb128 0x11
 4857 037f 0000 0000 		.long	.LASF70
 4858 0383 40        		.byte	0x40
 4859 0384 11        		.uleb128 0x11
 4860 0385 0000 0000 		.long	.LASF71
 4861 0389 80        		.byte	0x80
 4862 038a 11        		.uleb128 0x11
 4863 038b 0000 0000 		.long	.LASF72
 4864 038f C0        		.byte	0xc0
 4865 0390 00        		.byte	0
 4866 0391 0E        		.uleb128 0xe
 4867 0392 0000 0000 		.long	.LASF73
 4868 0396 06        		.byte	0x6
 4869 0397 2D01      		.word	0x12d
 4870 0399 6703 0000 		.long	0x367
 4871 039d 13        		.uleb128 0x13
 4872 039e 0000 0000 		.long	.LASF74
 4873 03a2 01        		.byte	0x1
 4874 03a3 4900 0000 		.long	0x49
 4875 03a7 06        		.byte	0x6
 4876 03a8 3001      		.word	0x130
 4877 03aa CD03 0000 		.long	0x3cd
 4878 03ae 11        		.uleb128 0x11
 4879 03af 0000 0000 		.long	.LASF75
 4880 03b3 00        		.byte	0
 4881 03b4 11        		.uleb128 0x11
 4882 03b5 0000 0000 		.long	.LASF76
 4883 03b9 02        		.byte	0x2
 4884 03ba 11        		.uleb128 0x11
 4885 03bb 0000 0000 		.long	.LASF77
 4886 03bf 03        		.byte	0x3
GAS LISTING /tmp/ccjciOO6.s 			page 114


 4887 03c0 11        		.uleb128 0x11
 4888 03c1 0000 0000 		.long	.LASF78
 4889 03c5 07        		.byte	0x7
 4890 03c6 11        		.uleb128 0x11
 4891 03c7 0000 0000 		.long	.LASF79
 4892 03cb 0B        		.byte	0xb
 4893 03cc 00        		.byte	0
 4894 03cd 0E        		.uleb128 0xe
 4895 03ce 0000 0000 		.long	.LASF80
 4896 03d2 06        		.byte	0x6
 4897 03d3 3701      		.word	0x137
 4898 03d5 9D03 0000 		.long	0x39d
 4899 03d9 13        		.uleb128 0x13
 4900 03da 0000 0000 		.long	.LASF81
 4901 03de 01        		.byte	0x1
 4902 03df 4900 0000 		.long	0x49
 4903 03e3 06        		.byte	0x6
 4904 03e4 3A01      		.word	0x13a
 4905 03e6 FD03 0000 		.long	0x3fd
 4906 03ea 11        		.uleb128 0x11
 4907 03eb 0000 0000 		.long	.LASF82
 4908 03ef 00        		.byte	0
 4909 03f0 11        		.uleb128 0x11
 4910 03f1 0000 0000 		.long	.LASF83
 4911 03f5 80        		.byte	0x80
 4912 03f6 11        		.uleb128 0x11
 4913 03f7 0000 0000 		.long	.LASF84
 4914 03fb C0        		.byte	0xc0
 4915 03fc 00        		.byte	0
 4916 03fd 0E        		.uleb128 0xe
 4917 03fe 0000 0000 		.long	.LASF85
 4918 0402 06        		.byte	0x6
 4919 0403 3F01      		.word	0x13f
 4920 0405 D903 0000 		.long	0x3d9
 4921 0409 12        		.uleb128 0x12
 4922 040a 0000 0000 		.long	.LASF86
 4923 040e 08        		.byte	0x8
 4924 040f 06        		.byte	0x6
 4925 0410 4901      		.word	0x149
 4926 0412 8F04 0000 		.long	0x48f
 4927 0416 08        		.uleb128 0x8
 4928 0417 0000 0000 		.long	.LASF23
 4929 041b 06        		.byte	0x6
 4930 041c 4B01      		.word	0x14b
 4931 041e 5D01 0000 		.long	0x15d
 4932 0422 02        		.byte	0x2
 4933 0423 23        		.byte	0x23
 4934 0424 00        		.uleb128 0
 4935 0425 08        		.uleb128 0x8
 4936 0426 0000 0000 		.long	.LASF87
 4937 042a 06        		.byte	0x6
 4938 042b 4C01      		.word	0x14c
 4939 042d 5D01 0000 		.long	0x15d
 4940 0431 02        		.byte	0x2
 4941 0432 23        		.byte	0x23
 4942 0433 01        		.uleb128 0x1
 4943 0434 08        		.uleb128 0x8
GAS LISTING /tmp/ccjciOO6.s 			page 115


 4944 0435 0000 0000 		.long	.LASF88
 4945 0439 06        		.byte	0x6
 4946 043a 4D01      		.word	0x14d
 4947 043c 5D01 0000 		.long	0x15d
 4948 0440 02        		.byte	0x2
 4949 0441 23        		.byte	0x23
 4950 0442 02        		.uleb128 0x2
 4951 0443 08        		.uleb128 0x8
 4952 0444 0000 0000 		.long	.LASF89
 4953 0448 06        		.byte	0x6
 4954 0449 4E01      		.word	0x14e
 4955 044b 5D01 0000 		.long	0x15d
 4956 044f 02        		.byte	0x2
 4957 0450 23        		.byte	0x23
 4958 0451 03        		.uleb128 0x3
 4959 0452 08        		.uleb128 0x8
 4960 0453 0000 0000 		.long	.LASF90
 4961 0457 06        		.byte	0x6
 4962 0458 4F01      		.word	0x14f
 4963 045a 5D01 0000 		.long	0x15d
 4964 045e 02        		.byte	0x2
 4965 045f 23        		.byte	0x23
 4966 0460 04        		.uleb128 0x4
 4967 0461 08        		.uleb128 0x8
 4968 0462 0000 0000 		.long	.LASF91
 4969 0466 06        		.byte	0x6
 4970 0467 5001      		.word	0x150
 4971 0469 5D01 0000 		.long	0x15d
 4972 046d 02        		.byte	0x2
 4973 046e 23        		.byte	0x23
 4974 046f 05        		.uleb128 0x5
 4975 0470 08        		.uleb128 0x8
 4976 0471 0000 0000 		.long	.LASF92
 4977 0475 06        		.byte	0x6
 4978 0476 5101      		.word	0x151
 4979 0478 5D01 0000 		.long	0x15d
 4980 047c 02        		.byte	0x2
 4981 047d 23        		.byte	0x23
 4982 047e 06        		.uleb128 0x6
 4983 047f 08        		.uleb128 0x8
 4984 0480 0000 0000 		.long	.LASF93
 4985 0484 06        		.byte	0x6
 4986 0485 5201      		.word	0x152
 4987 0487 5D01 0000 		.long	0x15d
 4988 048b 02        		.byte	0x2
 4989 048c 23        		.byte	0x23
 4990 048d 07        		.uleb128 0x7
 4991 048e 00        		.byte	0
 4992 048f 0E        		.uleb128 0xe
 4993 0490 0000 0000 		.long	.LASF94
 4994 0494 06        		.byte	0x6
 4995 0495 5301      		.word	0x153
 4996 0497 0904 0000 		.long	0x409
 4997 049b 12        		.uleb128 0x12
 4998 049c 0000 0000 		.long	.LASF95
 4999 04a0 03        		.byte	0x3
 5000 04a1 06        		.byte	0x6
GAS LISTING /tmp/ccjciOO6.s 			page 116


 5001 04a2 B201      		.word	0x1b2
 5002 04a4 D604 0000 		.long	0x4d6
 5003 04a8 08        		.uleb128 0x8
 5004 04a9 0000 0000 		.long	.LASF61
 5005 04ad 06        		.byte	0x6
 5006 04ae B401      		.word	0x1b4
 5007 04b0 5D01 0000 		.long	0x15d
 5008 04b4 02        		.byte	0x2
 5009 04b5 23        		.byte	0x23
 5010 04b6 00        		.uleb128 0
 5011 04b7 08        		.uleb128 0x8
 5012 04b8 0000 0000 		.long	.LASF96
 5013 04bc 06        		.byte	0x6
 5014 04bd B501      		.word	0x1b5
 5015 04bf 5D01 0000 		.long	0x15d
 5016 04c3 02        		.byte	0x2
 5017 04c4 23        		.byte	0x23
 5018 04c5 01        		.uleb128 0x1
 5019 04c6 08        		.uleb128 0x8
 5020 04c7 0000 0000 		.long	.LASF23
 5021 04cb 06        		.byte	0x6
 5022 04cc B601      		.word	0x1b6
 5023 04ce 5D01 0000 		.long	0x15d
 5024 04d2 02        		.byte	0x2
 5025 04d3 23        		.byte	0x23
 5026 04d4 02        		.uleb128 0x2
 5027 04d5 00        		.byte	0
 5028 04d6 0E        		.uleb128 0xe
 5029 04d7 0000 0000 		.long	.LASF97
 5030 04db 06        		.byte	0x6
 5031 04dc B701      		.word	0x1b7
 5032 04de 9B04 0000 		.long	0x49b
 5033 04e2 12        		.uleb128 0x12
 5034 04e3 0000 0000 		.long	.LASF98
 5035 04e7 18        		.byte	0x18
 5036 04e8 06        		.byte	0x6
 5037 04e9 9407      		.word	0x794
 5038 04eb 5706 0000 		.long	0x657
 5039 04ef 09        		.uleb128 0x9
 5040 04f0 4449 5200 		.string	"DIR"
 5041 04f4 06        		.byte	0x6
 5042 04f5 9607      		.word	0x796
 5043 04f7 5D01 0000 		.long	0x15d
 5044 04fb 02        		.byte	0x2
 5045 04fc 23        		.byte	0x23
 5046 04fd 00        		.uleb128 0
 5047 04fe 08        		.uleb128 0x8
 5048 04ff 0000 0000 		.long	.LASF99
 5049 0503 06        		.byte	0x6
 5050 0504 9707      		.word	0x797
 5051 0506 5D01 0000 		.long	0x15d
 5052 050a 02        		.byte	0x2
 5053 050b 23        		.byte	0x23
 5054 050c 01        		.uleb128 0x1
 5055 050d 08        		.uleb128 0x8
 5056 050e 0000 0000 		.long	.LASF100
 5057 0512 06        		.byte	0x6
GAS LISTING /tmp/ccjciOO6.s 			page 117


 5058 0513 9807      		.word	0x798
 5059 0515 5D01 0000 		.long	0x15d
 5060 0519 02        		.byte	0x2
 5061 051a 23        		.byte	0x23
 5062 051b 02        		.uleb128 0x2
 5063 051c 08        		.uleb128 0x8
 5064 051d 0000 0000 		.long	.LASF101
 5065 0521 06        		.byte	0x6
 5066 0522 9907      		.word	0x799
 5067 0524 5D01 0000 		.long	0x15d
 5068 0528 02        		.byte	0x2
 5069 0529 23        		.byte	0x23
 5070 052a 03        		.uleb128 0x3
 5071 052b 09        		.uleb128 0x9
 5072 052c 4F55 5400 		.string	"OUT"
 5073 0530 06        		.byte	0x6
 5074 0531 9A07      		.word	0x79a
 5075 0533 5D01 0000 		.long	0x15d
 5076 0537 02        		.byte	0x2
 5077 0538 23        		.byte	0x23
 5078 0539 04        		.uleb128 0x4
 5079 053a 08        		.uleb128 0x8
 5080 053b 0000 0000 		.long	.LASF102
 5081 053f 06        		.byte	0x6
 5082 0540 9B07      		.word	0x79b
 5083 0542 5D01 0000 		.long	0x15d
 5084 0546 02        		.byte	0x2
 5085 0547 23        		.byte	0x23
 5086 0548 05        		.uleb128 0x5
 5087 0549 08        		.uleb128 0x8
 5088 054a 0000 0000 		.long	.LASF103
 5089 054e 06        		.byte	0x6
 5090 054f 9C07      		.word	0x79c
 5091 0551 5D01 0000 		.long	0x15d
 5092 0555 02        		.byte	0x2
 5093 0556 23        		.byte	0x23
 5094 0557 06        		.uleb128 0x6
 5095 0558 08        		.uleb128 0x8
 5096 0559 0000 0000 		.long	.LASF104
 5097 055d 06        		.byte	0x6
 5098 055e 9D07      		.word	0x79d
 5099 0560 5D01 0000 		.long	0x15d
 5100 0564 02        		.byte	0x2
 5101 0565 23        		.byte	0x23
 5102 0566 07        		.uleb128 0x7
 5103 0567 09        		.uleb128 0x9
 5104 0568 494E 00   		.string	"IN"
 5105 056b 06        		.byte	0x6
 5106 056c 9E07      		.word	0x79e
 5107 056e 5D01 0000 		.long	0x15d
 5108 0572 02        		.byte	0x2
 5109 0573 23        		.byte	0x23
 5110 0574 08        		.uleb128 0x8
 5111 0575 08        		.uleb128 0x8
 5112 0576 0000 0000 		.long	.LASF105
 5113 057a 06        		.byte	0x6
 5114 057b 9F07      		.word	0x79f
GAS LISTING /tmp/ccjciOO6.s 			page 118


 5115 057d 5D01 0000 		.long	0x15d
 5116 0581 02        		.byte	0x2
 5117 0582 23        		.byte	0x23
 5118 0583 09        		.uleb128 0x9
 5119 0584 08        		.uleb128 0x8
 5120 0585 0000 0000 		.long	.LASF106
 5121 0589 06        		.byte	0x6
 5122 058a A007      		.word	0x7a0
 5123 058c 5D01 0000 		.long	0x15d
 5124 0590 02        		.byte	0x2
 5125 0591 23        		.byte	0x23
 5126 0592 0A        		.uleb128 0xa
 5127 0593 08        		.uleb128 0x8
 5128 0594 0000 0000 		.long	.LASF107
 5129 0598 06        		.byte	0x6
 5130 0599 A107      		.word	0x7a1
 5131 059b 5D01 0000 		.long	0x15d
 5132 059f 02        		.byte	0x2
 5133 05a0 23        		.byte	0x23
 5134 05a1 0B        		.uleb128 0xb
 5135 05a2 08        		.uleb128 0x8
 5136 05a3 0000 0000 		.long	.LASF108
 5137 05a7 06        		.byte	0x6
 5138 05a8 A207      		.word	0x7a2
 5139 05aa 5D01 0000 		.long	0x15d
 5140 05ae 02        		.byte	0x2
 5141 05af 23        		.byte	0x23
 5142 05b0 0C        		.uleb128 0xc
 5143 05b1 08        		.uleb128 0x8
 5144 05b2 0000 0000 		.long	.LASF109
 5145 05b6 06        		.byte	0x6
 5146 05b7 A307      		.word	0x7a3
 5147 05b9 5D01 0000 		.long	0x15d
 5148 05bd 02        		.byte	0x2
 5149 05be 23        		.byte	0x23
 5150 05bf 0D        		.uleb128 0xd
 5151 05c0 08        		.uleb128 0x8
 5152 05c1 0000 0000 		.long	.LASF110
 5153 05c5 06        		.byte	0x6
 5154 05c6 A407      		.word	0x7a4
 5155 05c8 5D01 0000 		.long	0x15d
 5156 05cc 02        		.byte	0x2
 5157 05cd 23        		.byte	0x23
 5158 05ce 0E        		.uleb128 0xe
 5159 05cf 08        		.uleb128 0x8
 5160 05d0 0000 0000 		.long	.LASF111
 5161 05d4 06        		.byte	0x6
 5162 05d5 A507      		.word	0x7a5
 5163 05d7 5D01 0000 		.long	0x15d
 5164 05db 02        		.byte	0x2
 5165 05dc 23        		.byte	0x23
 5166 05dd 0F        		.uleb128 0xf
 5167 05de 08        		.uleb128 0x8
 5168 05df 0000 0000 		.long	.LASF112
 5169 05e3 06        		.byte	0x6
 5170 05e4 A607      		.word	0x7a6
 5171 05e6 5D01 0000 		.long	0x15d
GAS LISTING /tmp/ccjciOO6.s 			page 119


 5172 05ea 02        		.byte	0x2
 5173 05eb 23        		.byte	0x23
 5174 05ec 10        		.uleb128 0x10
 5175 05ed 08        		.uleb128 0x8
 5176 05ee 0000 0000 		.long	.LASF113
 5177 05f2 06        		.byte	0x6
 5178 05f3 A707      		.word	0x7a7
 5179 05f5 5D01 0000 		.long	0x15d
 5180 05f9 02        		.byte	0x2
 5181 05fa 23        		.byte	0x23
 5182 05fb 11        		.uleb128 0x11
 5183 05fc 08        		.uleb128 0x8
 5184 05fd 0000 0000 		.long	.LASF114
 5185 0601 06        		.byte	0x6
 5186 0602 A807      		.word	0x7a8
 5187 0604 5D01 0000 		.long	0x15d
 5188 0608 02        		.byte	0x2
 5189 0609 23        		.byte	0x23
 5190 060a 12        		.uleb128 0x12
 5191 060b 08        		.uleb128 0x8
 5192 060c 0000 0000 		.long	.LASF115
 5193 0610 06        		.byte	0x6
 5194 0611 A907      		.word	0x7a9
 5195 0613 5D01 0000 		.long	0x15d
 5196 0617 02        		.byte	0x2
 5197 0618 23        		.byte	0x23
 5198 0619 13        		.uleb128 0x13
 5199 061a 08        		.uleb128 0x8
 5200 061b 0000 0000 		.long	.LASF116
 5201 061f 06        		.byte	0x6
 5202 0620 AA07      		.word	0x7aa
 5203 0622 5D01 0000 		.long	0x15d
 5204 0626 02        		.byte	0x2
 5205 0627 23        		.byte	0x23
 5206 0628 14        		.uleb128 0x14
 5207 0629 08        		.uleb128 0x8
 5208 062a 0000 0000 		.long	.LASF117
 5209 062e 06        		.byte	0x6
 5210 062f AB07      		.word	0x7ab
 5211 0631 5D01 0000 		.long	0x15d
 5212 0635 02        		.byte	0x2
 5213 0636 23        		.byte	0x23
 5214 0637 15        		.uleb128 0x15
 5215 0638 08        		.uleb128 0x8
 5216 0639 0000 0000 		.long	.LASF118
 5217 063d 06        		.byte	0x6
 5218 063e AC07      		.word	0x7ac
 5219 0640 5D01 0000 		.long	0x15d
 5220 0644 02        		.byte	0x2
 5221 0645 23        		.byte	0x23
 5222 0646 16        		.uleb128 0x16
 5223 0647 08        		.uleb128 0x8
 5224 0648 0000 0000 		.long	.LASF119
 5225 064c 06        		.byte	0x6
 5226 064d AD07      		.word	0x7ad
 5227 064f 5D01 0000 		.long	0x15d
 5228 0653 02        		.byte	0x2
GAS LISTING /tmp/ccjciOO6.s 			page 120


 5229 0654 23        		.byte	0x23
 5230 0655 17        		.uleb128 0x17
 5231 0656 00        		.byte	0
 5232 0657 0E        		.uleb128 0xe
 5233 0658 0000 0000 		.long	.LASF120
 5234 065c 06        		.byte	0x6
 5235 065d AE07      		.word	0x7ae
 5236 065f E204 0000 		.long	0x4e2
 5237 0663 13        		.uleb128 0x13
 5238 0664 0000 0000 		.long	.LASF121
 5239 0668 01        		.byte	0x1
 5240 0669 4900 0000 		.long	0x49
 5241 066d 06        		.byte	0x6
 5242 066e 2908      		.word	0x829
 5243 0670 A506 0000 		.long	0x6a5
 5244 0674 11        		.uleb128 0x11
 5245 0675 0000 0000 		.long	.LASF122
 5246 0679 00        		.byte	0
 5247 067a 11        		.uleb128 0x11
 5248 067b 0000 0000 		.long	.LASF123
 5249 067f 08        		.byte	0x8
 5250 0680 11        		.uleb128 0x11
 5251 0681 0000 0000 		.long	.LASF124
 5252 0685 10        		.byte	0x10
 5253 0686 11        		.uleb128 0x11
 5254 0687 0000 0000 		.long	.LASF125
 5255 068b 18        		.byte	0x18
 5256 068c 11        		.uleb128 0x11
 5257 068d 0000 0000 		.long	.LASF126
 5258 0691 20        		.byte	0x20
 5259 0692 11        		.uleb128 0x11
 5260 0693 0000 0000 		.long	.LASF127
 5261 0697 28        		.byte	0x28
 5262 0698 11        		.uleb128 0x11
 5263 0699 0000 0000 		.long	.LASF128
 5264 069d 30        		.byte	0x30
 5265 069e 11        		.uleb128 0x11
 5266 069f 0000 0000 		.long	.LASF129
 5267 06a3 38        		.byte	0x38
 5268 06a4 00        		.byte	0
 5269 06a5 14        		.uleb128 0x14
 5270 06a6 02        		.byte	0x2
 5271 06a7 06        		.byte	0x6
 5272 06a8 6908      		.word	0x869
 5273 06aa CD06 0000 		.long	0x6cd
 5274 06ae 08        		.uleb128 0x8
 5275 06af 0000 0000 		.long	.LASF130
 5276 06b3 06        		.byte	0x6
 5277 06b4 6908      		.word	0x869
 5278 06b6 5D01 0000 		.long	0x15d
 5279 06ba 02        		.byte	0x2
 5280 06bb 23        		.byte	0x23
 5281 06bc 00        		.uleb128 0
 5282 06bd 08        		.uleb128 0x8
 5283 06be 0000 0000 		.long	.LASF131
 5284 06c2 06        		.byte	0x6
 5285 06c3 6908      		.word	0x869
GAS LISTING /tmp/ccjciOO6.s 			page 121


 5286 06c5 5D01 0000 		.long	0x15d
 5287 06c9 02        		.byte	0x2
 5288 06ca 23        		.byte	0x23
 5289 06cb 01        		.uleb128 0x1
 5290 06cc 00        		.byte	0
 5291 06cd 15        		.uleb128 0x15
 5292 06ce 02        		.byte	0x2
 5293 06cf 06        		.byte	0x6
 5294 06d0 6908      		.word	0x869
 5295 06d2 E806 0000 		.long	0x6e8
 5296 06d6 16        		.uleb128 0x16
 5297 06d7 434E 5400 		.string	"CNT"
 5298 06db 06        		.byte	0x6
 5299 06dc 6908      		.word	0x869
 5300 06de 6D01 0000 		.long	0x16d
 5301 06e2 17        		.uleb128 0x17
 5302 06e3 A506 0000 		.long	0x6a5
 5303 06e7 00        		.byte	0
 5304 06e8 14        		.uleb128 0x14
 5305 06e9 02        		.byte	0x2
 5306 06ea 06        		.byte	0x6
 5307 06eb 6E08      		.word	0x86e
 5308 06ed 1007 0000 		.long	0x710
 5309 06f1 08        		.uleb128 0x8
 5310 06f2 0000 0000 		.long	.LASF132
 5311 06f6 06        		.byte	0x6
 5312 06f7 6E08      		.word	0x86e
 5313 06f9 5D01 0000 		.long	0x15d
 5314 06fd 02        		.byte	0x2
 5315 06fe 23        		.byte	0x23
 5316 06ff 00        		.uleb128 0
 5317 0700 08        		.uleb128 0x8
 5318 0701 0000 0000 		.long	.LASF133
 5319 0705 06        		.byte	0x6
 5320 0706 6E08      		.word	0x86e
 5321 0708 5D01 0000 		.long	0x15d
 5322 070c 02        		.byte	0x2
 5323 070d 23        		.byte	0x23
 5324 070e 01        		.uleb128 0x1
 5325 070f 00        		.byte	0
 5326 0710 15        		.uleb128 0x15
 5327 0711 02        		.byte	0x2
 5328 0712 06        		.byte	0x6
 5329 0713 6E08      		.word	0x86e
 5330 0715 2B07 0000 		.long	0x72b
 5331 0719 16        		.uleb128 0x16
 5332 071a 5045 5200 		.string	"PER"
 5333 071e 06        		.byte	0x6
 5334 071f 6E08      		.word	0x86e
 5335 0721 6D01 0000 		.long	0x16d
 5336 0725 17        		.uleb128 0x17
 5337 0726 E806 0000 		.long	0x6e8
 5338 072a 00        		.byte	0
 5339 072b 14        		.uleb128 0x14
 5340 072c 02        		.byte	0x2
 5341 072d 06        		.byte	0x6
 5342 072e 6F08      		.word	0x86f
GAS LISTING /tmp/ccjciOO6.s 			page 122


 5343 0730 5307 0000 		.long	0x753
 5344 0734 08        		.uleb128 0x8
 5345 0735 0000 0000 		.long	.LASF134
 5346 0739 06        		.byte	0x6
 5347 073a 6F08      		.word	0x86f
 5348 073c 5D01 0000 		.long	0x15d
 5349 0740 02        		.byte	0x2
 5350 0741 23        		.byte	0x23
 5351 0742 00        		.uleb128 0
 5352 0743 08        		.uleb128 0x8
 5353 0744 0000 0000 		.long	.LASF135
 5354 0748 06        		.byte	0x6
 5355 0749 6F08      		.word	0x86f
 5356 074b 5D01 0000 		.long	0x15d
 5357 074f 02        		.byte	0x2
 5358 0750 23        		.byte	0x23
 5359 0751 01        		.uleb128 0x1
 5360 0752 00        		.byte	0
 5361 0753 15        		.uleb128 0x15
 5362 0754 02        		.byte	0x2
 5363 0755 06        		.byte	0x6
 5364 0756 6F08      		.word	0x86f
 5365 0758 6E07 0000 		.long	0x76e
 5366 075c 16        		.uleb128 0x16
 5367 075d 4343 4100 		.string	"CCA"
 5368 0761 06        		.byte	0x6
 5369 0762 6F08      		.word	0x86f
 5370 0764 6D01 0000 		.long	0x16d
 5371 0768 17        		.uleb128 0x17
 5372 0769 2B07 0000 		.long	0x72b
 5373 076d 00        		.byte	0
 5374 076e 14        		.uleb128 0x14
 5375 076f 02        		.byte	0x2
 5376 0770 06        		.byte	0x6
 5377 0771 7008      		.word	0x870
 5378 0773 9607 0000 		.long	0x796
 5379 0777 08        		.uleb128 0x8
 5380 0778 0000 0000 		.long	.LASF136
 5381 077c 06        		.byte	0x6
 5382 077d 7008      		.word	0x870
 5383 077f 5D01 0000 		.long	0x15d
 5384 0783 02        		.byte	0x2
 5385 0784 23        		.byte	0x23
 5386 0785 00        		.uleb128 0
 5387 0786 08        		.uleb128 0x8
 5388 0787 0000 0000 		.long	.LASF137
 5389 078b 06        		.byte	0x6
 5390 078c 7008      		.word	0x870
 5391 078e 5D01 0000 		.long	0x15d
 5392 0792 02        		.byte	0x2
 5393 0793 23        		.byte	0x23
 5394 0794 01        		.uleb128 0x1
 5395 0795 00        		.byte	0
 5396 0796 15        		.uleb128 0x15
 5397 0797 02        		.byte	0x2
 5398 0798 06        		.byte	0x6
 5399 0799 7008      		.word	0x870
GAS LISTING /tmp/ccjciOO6.s 			page 123


 5400 079b B107 0000 		.long	0x7b1
 5401 079f 16        		.uleb128 0x16
 5402 07a0 4343 4200 		.string	"CCB"
 5403 07a4 06        		.byte	0x6
 5404 07a5 7008      		.word	0x870
 5405 07a7 6D01 0000 		.long	0x16d
 5406 07ab 17        		.uleb128 0x17
 5407 07ac 6E07 0000 		.long	0x76e
 5408 07b0 00        		.byte	0
 5409 07b1 14        		.uleb128 0x14
 5410 07b2 02        		.byte	0x2
 5411 07b3 06        		.byte	0x6
 5412 07b4 7108      		.word	0x871
 5413 07b6 D907 0000 		.long	0x7d9
 5414 07ba 08        		.uleb128 0x8
 5415 07bb 0000 0000 		.long	.LASF138
 5416 07bf 06        		.byte	0x6
 5417 07c0 7108      		.word	0x871
 5418 07c2 5D01 0000 		.long	0x15d
 5419 07c6 02        		.byte	0x2
 5420 07c7 23        		.byte	0x23
 5421 07c8 00        		.uleb128 0
 5422 07c9 08        		.uleb128 0x8
 5423 07ca 0000 0000 		.long	.LASF139
 5424 07ce 06        		.byte	0x6
 5425 07cf 7108      		.word	0x871
 5426 07d1 5D01 0000 		.long	0x15d
 5427 07d5 02        		.byte	0x2
 5428 07d6 23        		.byte	0x23
 5429 07d7 01        		.uleb128 0x1
 5430 07d8 00        		.byte	0
 5431 07d9 15        		.uleb128 0x15
 5432 07da 02        		.byte	0x2
 5433 07db 06        		.byte	0x6
 5434 07dc 7108      		.word	0x871
 5435 07de F407 0000 		.long	0x7f4
 5436 07e2 16        		.uleb128 0x16
 5437 07e3 4343 4300 		.string	"CCC"
 5438 07e7 06        		.byte	0x6
 5439 07e8 7108      		.word	0x871
 5440 07ea 6D01 0000 		.long	0x16d
 5441 07ee 17        		.uleb128 0x17
 5442 07ef B107 0000 		.long	0x7b1
 5443 07f3 00        		.byte	0
 5444 07f4 14        		.uleb128 0x14
 5445 07f5 02        		.byte	0x2
 5446 07f6 06        		.byte	0x6
 5447 07f7 7208      		.word	0x872
 5448 07f9 1C08 0000 		.long	0x81c
 5449 07fd 08        		.uleb128 0x8
 5450 07fe 0000 0000 		.long	.LASF140
 5451 0802 06        		.byte	0x6
 5452 0803 7208      		.word	0x872
 5453 0805 5D01 0000 		.long	0x15d
 5454 0809 02        		.byte	0x2
 5455 080a 23        		.byte	0x23
 5456 080b 00        		.uleb128 0
GAS LISTING /tmp/ccjciOO6.s 			page 124


 5457 080c 08        		.uleb128 0x8
 5458 080d 0000 0000 		.long	.LASF141
 5459 0811 06        		.byte	0x6
 5460 0812 7208      		.word	0x872
 5461 0814 5D01 0000 		.long	0x15d
 5462 0818 02        		.byte	0x2
 5463 0819 23        		.byte	0x23
 5464 081a 01        		.uleb128 0x1
 5465 081b 00        		.byte	0
 5466 081c 15        		.uleb128 0x15
 5467 081d 02        		.byte	0x2
 5468 081e 06        		.byte	0x6
 5469 081f 7208      		.word	0x872
 5470 0821 3708 0000 		.long	0x837
 5471 0825 16        		.uleb128 0x16
 5472 0826 4343 4400 		.string	"CCD"
 5473 082a 06        		.byte	0x6
 5474 082b 7208      		.word	0x872
 5475 082d 6D01 0000 		.long	0x16d
 5476 0831 17        		.uleb128 0x17
 5477 0832 F407 0000 		.long	0x7f4
 5478 0836 00        		.byte	0
 5479 0837 14        		.uleb128 0x14
 5480 0838 02        		.byte	0x2
 5481 0839 06        		.byte	0x6
 5482 083a 7908      		.word	0x879
 5483 083c 5F08 0000 		.long	0x85f
 5484 0840 08        		.uleb128 0x8
 5485 0841 0000 0000 		.long	.LASF142
 5486 0845 06        		.byte	0x6
 5487 0846 7908      		.word	0x879
 5488 0848 5D01 0000 		.long	0x15d
 5489 084c 02        		.byte	0x2
 5490 084d 23        		.byte	0x23
 5491 084e 00        		.uleb128 0
 5492 084f 08        		.uleb128 0x8
 5493 0850 0000 0000 		.long	.LASF143
 5494 0854 06        		.byte	0x6
 5495 0855 7908      		.word	0x879
 5496 0857 5D01 0000 		.long	0x15d
 5497 085b 02        		.byte	0x2
 5498 085c 23        		.byte	0x23
 5499 085d 01        		.uleb128 0x1
 5500 085e 00        		.byte	0
 5501 085f 15        		.uleb128 0x15
 5502 0860 02        		.byte	0x2
 5503 0861 06        		.byte	0x6
 5504 0862 7908      		.word	0x879
 5505 0864 7A08 0000 		.long	0x87a
 5506 0868 18        		.uleb128 0x18
 5507 0869 0000 0000 		.long	.LASF144
 5508 086d 06        		.byte	0x6
 5509 086e 7908      		.word	0x879
 5510 0870 6D01 0000 		.long	0x16d
 5511 0874 17        		.uleb128 0x17
 5512 0875 3708 0000 		.long	0x837
 5513 0879 00        		.byte	0
GAS LISTING /tmp/ccjciOO6.s 			page 125


 5514 087a 14        		.uleb128 0x14
 5515 087b 02        		.byte	0x2
 5516 087c 06        		.byte	0x6
 5517 087d 7A08      		.word	0x87a
 5518 087f A208 0000 		.long	0x8a2
 5519 0883 08        		.uleb128 0x8
 5520 0884 0000 0000 		.long	.LASF145
 5521 0888 06        		.byte	0x6
 5522 0889 7A08      		.word	0x87a
 5523 088b 5D01 0000 		.long	0x15d
 5524 088f 02        		.byte	0x2
 5525 0890 23        		.byte	0x23
 5526 0891 00        		.uleb128 0
 5527 0892 08        		.uleb128 0x8
 5528 0893 0000 0000 		.long	.LASF146
 5529 0897 06        		.byte	0x6
 5530 0898 7A08      		.word	0x87a
 5531 089a 5D01 0000 		.long	0x15d
 5532 089e 02        		.byte	0x2
 5533 089f 23        		.byte	0x23
 5534 08a0 01        		.uleb128 0x1
 5535 08a1 00        		.byte	0
 5536 08a2 15        		.uleb128 0x15
 5537 08a3 02        		.byte	0x2
 5538 08a4 06        		.byte	0x6
 5539 08a5 7A08      		.word	0x87a
 5540 08a7 BD08 0000 		.long	0x8bd
 5541 08ab 18        		.uleb128 0x18
 5542 08ac 0000 0000 		.long	.LASF147
 5543 08b0 06        		.byte	0x6
 5544 08b1 7A08      		.word	0x87a
 5545 08b3 6D01 0000 		.long	0x16d
 5546 08b7 17        		.uleb128 0x17
 5547 08b8 7A08 0000 		.long	0x87a
 5548 08bc 00        		.byte	0
 5549 08bd 14        		.uleb128 0x14
 5550 08be 02        		.byte	0x2
 5551 08bf 06        		.byte	0x6
 5552 08c0 7B08      		.word	0x87b
 5553 08c2 E508 0000 		.long	0x8e5
 5554 08c6 08        		.uleb128 0x8
 5555 08c7 0000 0000 		.long	.LASF148
 5556 08cb 06        		.byte	0x6
 5557 08cc 7B08      		.word	0x87b
 5558 08ce 5D01 0000 		.long	0x15d
 5559 08d2 02        		.byte	0x2
 5560 08d3 23        		.byte	0x23
 5561 08d4 00        		.uleb128 0
 5562 08d5 08        		.uleb128 0x8
 5563 08d6 0000 0000 		.long	.LASF149
 5564 08da 06        		.byte	0x6
 5565 08db 7B08      		.word	0x87b
 5566 08dd 5D01 0000 		.long	0x15d
 5567 08e1 02        		.byte	0x2
 5568 08e2 23        		.byte	0x23
 5569 08e3 01        		.uleb128 0x1
 5570 08e4 00        		.byte	0
GAS LISTING /tmp/ccjciOO6.s 			page 126


 5571 08e5 15        		.uleb128 0x15
 5572 08e6 02        		.byte	0x2
 5573 08e7 06        		.byte	0x6
 5574 08e8 7B08      		.word	0x87b
 5575 08ea 0009 0000 		.long	0x900
 5576 08ee 18        		.uleb128 0x18
 5577 08ef 0000 0000 		.long	.LASF150
 5578 08f3 06        		.byte	0x6
 5579 08f4 7B08      		.word	0x87b
 5580 08f6 6D01 0000 		.long	0x16d
 5581 08fa 17        		.uleb128 0x17
 5582 08fb BD08 0000 		.long	0x8bd
 5583 08ff 00        		.byte	0
 5584 0900 14        		.uleb128 0x14
 5585 0901 02        		.byte	0x2
 5586 0902 06        		.byte	0x6
 5587 0903 7C08      		.word	0x87c
 5588 0905 2809 0000 		.long	0x928
 5589 0909 08        		.uleb128 0x8
 5590 090a 0000 0000 		.long	.LASF151
 5591 090e 06        		.byte	0x6
 5592 090f 7C08      		.word	0x87c
 5593 0911 5D01 0000 		.long	0x15d
 5594 0915 02        		.byte	0x2
 5595 0916 23        		.byte	0x23
 5596 0917 00        		.uleb128 0
 5597 0918 08        		.uleb128 0x8
 5598 0919 0000 0000 		.long	.LASF152
 5599 091d 06        		.byte	0x6
 5600 091e 7C08      		.word	0x87c
 5601 0920 5D01 0000 		.long	0x15d
 5602 0924 02        		.byte	0x2
 5603 0925 23        		.byte	0x23
 5604 0926 01        		.uleb128 0x1
 5605 0927 00        		.byte	0
 5606 0928 15        		.uleb128 0x15
 5607 0929 02        		.byte	0x2
 5608 092a 06        		.byte	0x6
 5609 092b 7C08      		.word	0x87c
 5610 092d 4309 0000 		.long	0x943
 5611 0931 18        		.uleb128 0x18
 5612 0932 0000 0000 		.long	.LASF153
 5613 0936 06        		.byte	0x6
 5614 0937 7C08      		.word	0x87c
 5615 0939 6D01 0000 		.long	0x16d
 5616 093d 17        		.uleb128 0x17
 5617 093e 0009 0000 		.long	0x900
 5618 0942 00        		.byte	0
 5619 0943 14        		.uleb128 0x14
 5620 0944 02        		.byte	0x2
 5621 0945 06        		.byte	0x6
 5622 0946 7D08      		.word	0x87d
 5623 0948 6B09 0000 		.long	0x96b
 5624 094c 08        		.uleb128 0x8
 5625 094d 0000 0000 		.long	.LASF154
 5626 0951 06        		.byte	0x6
 5627 0952 7D08      		.word	0x87d
GAS LISTING /tmp/ccjciOO6.s 			page 127


 5628 0954 5D01 0000 		.long	0x15d
 5629 0958 02        		.byte	0x2
 5630 0959 23        		.byte	0x23
 5631 095a 00        		.uleb128 0
 5632 095b 08        		.uleb128 0x8
 5633 095c 0000 0000 		.long	.LASF155
 5634 0960 06        		.byte	0x6
 5635 0961 7D08      		.word	0x87d
 5636 0963 5D01 0000 		.long	0x15d
 5637 0967 02        		.byte	0x2
 5638 0968 23        		.byte	0x23
 5639 0969 01        		.uleb128 0x1
 5640 096a 00        		.byte	0
 5641 096b 15        		.uleb128 0x15
 5642 096c 02        		.byte	0x2
 5643 096d 06        		.byte	0x6
 5644 096e 7D08      		.word	0x87d
 5645 0970 8609 0000 		.long	0x986
 5646 0974 18        		.uleb128 0x18
 5647 0975 0000 0000 		.long	.LASF156
 5648 0979 06        		.byte	0x6
 5649 097a 7D08      		.word	0x87d
 5650 097c 6D01 0000 		.long	0x16d
 5651 0980 17        		.uleb128 0x17
 5652 0981 4309 0000 		.long	0x943
 5653 0985 00        		.byte	0
 5654 0986 12        		.uleb128 0x12
 5655 0987 0000 0000 		.long	.LASF157
 5656 098b 40        		.byte	0x40
 5657 098c 06        		.byte	0x6
 5658 098d 4708      		.word	0x847
 5659 098f 620C 0000 		.long	0xc62
 5660 0993 08        		.uleb128 0x8
 5661 0994 0000 0000 		.long	.LASF158
 5662 0998 06        		.byte	0x6
 5663 0999 4908      		.word	0x849
 5664 099b 5D01 0000 		.long	0x15d
 5665 099f 02        		.byte	0x2
 5666 09a0 23        		.byte	0x23
 5667 09a1 00        		.uleb128 0
 5668 09a2 08        		.uleb128 0x8
 5669 09a3 0000 0000 		.long	.LASF159
 5670 09a7 06        		.byte	0x6
 5671 09a8 4A08      		.word	0x84a
 5672 09aa 5D01 0000 		.long	0x15d
 5673 09ae 02        		.byte	0x2
 5674 09af 23        		.byte	0x23
 5675 09b0 01        		.uleb128 0x1
 5676 09b1 08        		.uleb128 0x8
 5677 09b2 0000 0000 		.long	.LASF160
 5678 09b6 06        		.byte	0x6
 5679 09b7 4B08      		.word	0x84b
 5680 09b9 5D01 0000 		.long	0x15d
 5681 09bd 02        		.byte	0x2
 5682 09be 23        		.byte	0x23
 5683 09bf 02        		.uleb128 0x2
 5684 09c0 08        		.uleb128 0x8
GAS LISTING /tmp/ccjciOO6.s 			page 128


 5685 09c1 0000 0000 		.long	.LASF161
 5686 09c5 06        		.byte	0x6
 5687 09c6 4C08      		.word	0x84c
 5688 09c8 5D01 0000 		.long	0x15d
 5689 09cc 02        		.byte	0x2
 5690 09cd 23        		.byte	0x23
 5691 09ce 03        		.uleb128 0x3
 5692 09cf 08        		.uleb128 0x8
 5693 09d0 0000 0000 		.long	.LASF162
 5694 09d4 06        		.byte	0x6
 5695 09d5 4D08      		.word	0x84d
 5696 09d7 5D01 0000 		.long	0x15d
 5697 09db 02        		.byte	0x2
 5698 09dc 23        		.byte	0x23
 5699 09dd 04        		.uleb128 0x4
 5700 09de 08        		.uleb128 0x8
 5701 09df 0000 0000 		.long	.LASF163
 5702 09e3 06        		.byte	0x6
 5703 09e4 4E08      		.word	0x84e
 5704 09e6 5D01 0000 		.long	0x15d
 5705 09ea 02        		.byte	0x2
 5706 09eb 23        		.byte	0x23
 5707 09ec 05        		.uleb128 0x5
 5708 09ed 08        		.uleb128 0x8
 5709 09ee 0000 0000 		.long	.LASF164
 5710 09f2 06        		.byte	0x6
 5711 09f3 4F08      		.word	0x84f
 5712 09f5 5D01 0000 		.long	0x15d
 5713 09f9 02        		.byte	0x2
 5714 09fa 23        		.byte	0x23
 5715 09fb 06        		.uleb128 0x6
 5716 09fc 08        		.uleb128 0x8
 5717 09fd 0000 0000 		.long	.LASF165
 5718 0a01 06        		.byte	0x6
 5719 0a02 5008      		.word	0x850
 5720 0a04 5D01 0000 		.long	0x15d
 5721 0a08 02        		.byte	0x2
 5722 0a09 23        		.byte	0x23
 5723 0a0a 07        		.uleb128 0x7
 5724 0a0b 08        		.uleb128 0x8
 5725 0a0c 0000 0000 		.long	.LASF166
 5726 0a10 06        		.byte	0x6
 5727 0a11 5108      		.word	0x851
 5728 0a13 5D01 0000 		.long	0x15d
 5729 0a17 02        		.byte	0x2
 5730 0a18 23        		.byte	0x23
 5731 0a19 08        		.uleb128 0x8
 5732 0a1a 08        		.uleb128 0x8
 5733 0a1b 0000 0000 		.long	.LASF167
 5734 0a1f 06        		.byte	0x6
 5735 0a20 5208      		.word	0x852
 5736 0a22 5D01 0000 		.long	0x15d
 5737 0a26 02        		.byte	0x2
 5738 0a27 23        		.byte	0x23
 5739 0a28 09        		.uleb128 0x9
 5740 0a29 08        		.uleb128 0x8
 5741 0a2a 0000 0000 		.long	.LASF168
GAS LISTING /tmp/ccjciOO6.s 			page 129


 5742 0a2e 06        		.byte	0x6
 5743 0a2f 5308      		.word	0x853
 5744 0a31 5D01 0000 		.long	0x15d
 5745 0a35 02        		.byte	0x2
 5746 0a36 23        		.byte	0x23
 5747 0a37 0A        		.uleb128 0xa
 5748 0a38 08        		.uleb128 0x8
 5749 0a39 0000 0000 		.long	.LASF169
 5750 0a3d 06        		.byte	0x6
 5751 0a3e 5408      		.word	0x854
 5752 0a40 5D01 0000 		.long	0x15d
 5753 0a44 02        		.byte	0x2
 5754 0a45 23        		.byte	0x23
 5755 0a46 0B        		.uleb128 0xb
 5756 0a47 08        		.uleb128 0x8
 5757 0a48 0000 0000 		.long	.LASF108
 5758 0a4c 06        		.byte	0x6
 5759 0a4d 5508      		.word	0x855
 5760 0a4f 5D01 0000 		.long	0x15d
 5761 0a53 02        		.byte	0x2
 5762 0a54 23        		.byte	0x23
 5763 0a55 0C        		.uleb128 0xc
 5764 0a56 08        		.uleb128 0x8
 5765 0a57 0000 0000 		.long	.LASF109
 5766 0a5b 06        		.byte	0x6
 5767 0a5c 5608      		.word	0x856
 5768 0a5e 5D01 0000 		.long	0x15d
 5769 0a62 02        		.byte	0x2
 5770 0a63 23        		.byte	0x23
 5771 0a64 0D        		.uleb128 0xd
 5772 0a65 08        		.uleb128 0x8
 5773 0a66 0000 0000 		.long	.LASF110
 5774 0a6a 06        		.byte	0x6
 5775 0a6b 5708      		.word	0x857
 5776 0a6d 5D01 0000 		.long	0x15d
 5777 0a71 02        		.byte	0x2
 5778 0a72 23        		.byte	0x23
 5779 0a73 0E        		.uleb128 0xe
 5780 0a74 08        		.uleb128 0x8
 5781 0a75 0000 0000 		.long	.LASF170
 5782 0a79 06        		.byte	0x6
 5783 0a7a 5808      		.word	0x858
 5784 0a7c 5D01 0000 		.long	0x15d
 5785 0a80 02        		.byte	0x2
 5786 0a81 23        		.byte	0x23
 5787 0a82 0F        		.uleb128 0xf
 5788 0a83 08        		.uleb128 0x8
 5789 0a84 0000 0000 		.long	.LASF171
 5790 0a88 06        		.byte	0x6
 5791 0a89 5908      		.word	0x859
 5792 0a8b 5D01 0000 		.long	0x15d
 5793 0a8f 02        		.byte	0x2
 5794 0a90 23        		.byte	0x23
 5795 0a91 10        		.uleb128 0x10
 5796 0a92 08        		.uleb128 0x8
 5797 0a93 0000 0000 		.long	.LASF172
 5798 0a97 06        		.byte	0x6
GAS LISTING /tmp/ccjciOO6.s 			page 130


 5799 0a98 5A08      		.word	0x85a
 5800 0a9a 5D01 0000 		.long	0x15d
 5801 0a9e 02        		.byte	0x2
 5802 0a9f 23        		.byte	0x23
 5803 0aa0 11        		.uleb128 0x11
 5804 0aa1 08        		.uleb128 0x8
 5805 0aa2 0000 0000 		.long	.LASF173
 5806 0aa6 06        		.byte	0x6
 5807 0aa7 5B08      		.word	0x85b
 5808 0aa9 5D01 0000 		.long	0x15d
 5809 0aad 02        		.byte	0x2
 5810 0aae 23        		.byte	0x23
 5811 0aaf 12        		.uleb128 0x12
 5812 0ab0 08        		.uleb128 0x8
 5813 0ab1 0000 0000 		.long	.LASF174
 5814 0ab5 06        		.byte	0x6
 5815 0ab6 5C08      		.word	0x85c
 5816 0ab8 5D01 0000 		.long	0x15d
 5817 0abc 02        		.byte	0x2
 5818 0abd 23        		.byte	0x23
 5819 0abe 13        		.uleb128 0x13
 5820 0abf 08        		.uleb128 0x8
 5821 0ac0 0000 0000 		.long	.LASF175
 5822 0ac4 06        		.byte	0x6
 5823 0ac5 5D08      		.word	0x85d
 5824 0ac7 5D01 0000 		.long	0x15d
 5825 0acb 02        		.byte	0x2
 5826 0acc 23        		.byte	0x23
 5827 0acd 14        		.uleb128 0x14
 5828 0ace 08        		.uleb128 0x8
 5829 0acf 0000 0000 		.long	.LASF176
 5830 0ad3 06        		.byte	0x6
 5831 0ad4 5E08      		.word	0x85e
 5832 0ad6 5D01 0000 		.long	0x15d
 5833 0ada 02        		.byte	0x2
 5834 0adb 23        		.byte	0x23
 5835 0adc 15        		.uleb128 0x15
 5836 0add 08        		.uleb128 0x8
 5837 0ade 0000 0000 		.long	.LASF177
 5838 0ae2 06        		.byte	0x6
 5839 0ae3 5F08      		.word	0x85f
 5840 0ae5 5D01 0000 		.long	0x15d
 5841 0ae9 02        		.byte	0x2
 5842 0aea 23        		.byte	0x23
 5843 0aeb 16        		.uleb128 0x16
 5844 0aec 08        		.uleb128 0x8
 5845 0aed 0000 0000 		.long	.LASF178
 5846 0af1 06        		.byte	0x6
 5847 0af2 6008      		.word	0x860
 5848 0af4 5D01 0000 		.long	0x15d
 5849 0af8 02        		.byte	0x2
 5850 0af9 23        		.byte	0x23
 5851 0afa 17        		.uleb128 0x17
 5852 0afb 08        		.uleb128 0x8
 5853 0afc 0000 0000 		.long	.LASF179
 5854 0b00 06        		.byte	0x6
 5855 0b01 6108      		.word	0x861
GAS LISTING /tmp/ccjciOO6.s 			page 131


 5856 0b03 5D01 0000 		.long	0x15d
 5857 0b07 02        		.byte	0x2
 5858 0b08 23        		.byte	0x23
 5859 0b09 18        		.uleb128 0x18
 5860 0b0a 08        		.uleb128 0x8
 5861 0b0b 0000 0000 		.long	.LASF180
 5862 0b0f 06        		.byte	0x6
 5863 0b10 6208      		.word	0x862
 5864 0b12 5D01 0000 		.long	0x15d
 5865 0b16 02        		.byte	0x2
 5866 0b17 23        		.byte	0x23
 5867 0b18 19        		.uleb128 0x19
 5868 0b19 08        		.uleb128 0x8
 5869 0b1a 0000 0000 		.long	.LASF181
 5870 0b1e 06        		.byte	0x6
 5871 0b1f 6308      		.word	0x863
 5872 0b21 5D01 0000 		.long	0x15d
 5873 0b25 02        		.byte	0x2
 5874 0b26 23        		.byte	0x23
 5875 0b27 1A        		.uleb128 0x1a
 5876 0b28 08        		.uleb128 0x8
 5877 0b29 0000 0000 		.long	.LASF182
 5878 0b2d 06        		.byte	0x6
 5879 0b2e 6408      		.word	0x864
 5880 0b30 5D01 0000 		.long	0x15d
 5881 0b34 02        		.byte	0x2
 5882 0b35 23        		.byte	0x23
 5883 0b36 1B        		.uleb128 0x1b
 5884 0b37 08        		.uleb128 0x8
 5885 0b38 0000 0000 		.long	.LASF183
 5886 0b3c 06        		.byte	0x6
 5887 0b3d 6508      		.word	0x865
 5888 0b3f 5D01 0000 		.long	0x15d
 5889 0b43 02        		.byte	0x2
 5890 0b44 23        		.byte	0x23
 5891 0b45 1C        		.uleb128 0x1c
 5892 0b46 08        		.uleb128 0x8
 5893 0b47 0000 0000 		.long	.LASF184
 5894 0b4b 06        		.byte	0x6
 5895 0b4c 6608      		.word	0x866
 5896 0b4e 5D01 0000 		.long	0x15d
 5897 0b52 02        		.byte	0x2
 5898 0b53 23        		.byte	0x23
 5899 0b54 1D        		.uleb128 0x1d
 5900 0b55 08        		.uleb128 0x8
 5901 0b56 0000 0000 		.long	.LASF185
 5902 0b5a 06        		.byte	0x6
 5903 0b5b 6708      		.word	0x867
 5904 0b5d 5D01 0000 		.long	0x15d
 5905 0b61 02        		.byte	0x2
 5906 0b62 23        		.byte	0x23
 5907 0b63 1E        		.uleb128 0x1e
 5908 0b64 08        		.uleb128 0x8
 5909 0b65 0000 0000 		.long	.LASF186
 5910 0b69 06        		.byte	0x6
 5911 0b6a 6808      		.word	0x868
 5912 0b6c 5D01 0000 		.long	0x15d
GAS LISTING /tmp/ccjciOO6.s 			page 132


 5913 0b70 02        		.byte	0x2
 5914 0b71 23        		.byte	0x23
 5915 0b72 1F        		.uleb128 0x1f
 5916 0b73 19        		.uleb128 0x19
 5917 0b74 CD06 0000 		.long	0x6cd
 5918 0b78 02        		.byte	0x2
 5919 0b79 23        		.byte	0x23
 5920 0b7a 20        		.uleb128 0x20
 5921 0b7b 08        		.uleb128 0x8
 5922 0b7c 0000 0000 		.long	.LASF187
 5923 0b80 06        		.byte	0x6
 5924 0b81 6A08      		.word	0x86a
 5925 0b83 5D01 0000 		.long	0x15d
 5926 0b87 02        		.byte	0x2
 5927 0b88 23        		.byte	0x23
 5928 0b89 22        		.uleb128 0x22
 5929 0b8a 08        		.uleb128 0x8
 5930 0b8b 0000 0000 		.long	.LASF188
 5931 0b8f 06        		.byte	0x6
 5932 0b90 6B08      		.word	0x86b
 5933 0b92 5D01 0000 		.long	0x15d
 5934 0b96 02        		.byte	0x2
 5935 0b97 23        		.byte	0x23
 5936 0b98 23        		.uleb128 0x23
 5937 0b99 08        		.uleb128 0x8
 5938 0b9a 0000 0000 		.long	.LASF189
 5939 0b9e 06        		.byte	0x6
 5940 0b9f 6C08      		.word	0x86c
 5941 0ba1 5D01 0000 		.long	0x15d
 5942 0ba5 02        		.byte	0x2
 5943 0ba6 23        		.byte	0x23
 5944 0ba7 24        		.uleb128 0x24
 5945 0ba8 08        		.uleb128 0x8
 5946 0ba9 0000 0000 		.long	.LASF190
 5947 0bad 06        		.byte	0x6
 5948 0bae 6D08      		.word	0x86d
 5949 0bb0 5D01 0000 		.long	0x15d
 5950 0bb4 02        		.byte	0x2
 5951 0bb5 23        		.byte	0x23
 5952 0bb6 25        		.uleb128 0x25
 5953 0bb7 19        		.uleb128 0x19
 5954 0bb8 1007 0000 		.long	0x710
 5955 0bbc 02        		.byte	0x2
 5956 0bbd 23        		.byte	0x23
 5957 0bbe 26        		.uleb128 0x26
 5958 0bbf 19        		.uleb128 0x19
 5959 0bc0 5307 0000 		.long	0x753
 5960 0bc4 02        		.byte	0x2
 5961 0bc5 23        		.byte	0x23
 5962 0bc6 28        		.uleb128 0x28
 5963 0bc7 19        		.uleb128 0x19
 5964 0bc8 9607 0000 		.long	0x796
 5965 0bcc 02        		.byte	0x2
 5966 0bcd 23        		.byte	0x23
 5967 0bce 2A        		.uleb128 0x2a
 5968 0bcf 19        		.uleb128 0x19
 5969 0bd0 D907 0000 		.long	0x7d9
GAS LISTING /tmp/ccjciOO6.s 			page 133


 5970 0bd4 02        		.byte	0x2
 5971 0bd5 23        		.byte	0x23
 5972 0bd6 2C        		.uleb128 0x2c
 5973 0bd7 19        		.uleb128 0x19
 5974 0bd8 1C08 0000 		.long	0x81c
 5975 0bdc 02        		.byte	0x2
 5976 0bdd 23        		.byte	0x23
 5977 0bde 2E        		.uleb128 0x2e
 5978 0bdf 08        		.uleb128 0x8
 5979 0be0 0000 0000 		.long	.LASF191
 5980 0be4 06        		.byte	0x6
 5981 0be5 7308      		.word	0x873
 5982 0be7 5D01 0000 		.long	0x15d
 5983 0beb 02        		.byte	0x2
 5984 0bec 23        		.byte	0x23
 5985 0bed 30        		.uleb128 0x30
 5986 0bee 08        		.uleb128 0x8
 5987 0bef 0000 0000 		.long	.LASF192
 5988 0bf3 06        		.byte	0x6
 5989 0bf4 7408      		.word	0x874
 5990 0bf6 5D01 0000 		.long	0x15d
 5991 0bfa 02        		.byte	0x2
 5992 0bfb 23        		.byte	0x23
 5993 0bfc 31        		.uleb128 0x31
 5994 0bfd 08        		.uleb128 0x8
 5995 0bfe 0000 0000 		.long	.LASF193
 5996 0c02 06        		.byte	0x6
 5997 0c03 7508      		.word	0x875
 5998 0c05 5D01 0000 		.long	0x15d
 5999 0c09 02        		.byte	0x2
 6000 0c0a 23        		.byte	0x23
 6001 0c0b 32        		.uleb128 0x32
 6002 0c0c 08        		.uleb128 0x8
 6003 0c0d 0000 0000 		.long	.LASF194
 6004 0c11 06        		.byte	0x6
 6005 0c12 7608      		.word	0x876
 6006 0c14 5D01 0000 		.long	0x15d
 6007 0c18 02        		.byte	0x2
 6008 0c19 23        		.byte	0x23
 6009 0c1a 33        		.uleb128 0x33
 6010 0c1b 08        		.uleb128 0x8
 6011 0c1c 0000 0000 		.long	.LASF195
 6012 0c20 06        		.byte	0x6
 6013 0c21 7708      		.word	0x877
 6014 0c23 5D01 0000 		.long	0x15d
 6015 0c27 02        		.byte	0x2
 6016 0c28 23        		.byte	0x23
 6017 0c29 34        		.uleb128 0x34
 6018 0c2a 08        		.uleb128 0x8
 6019 0c2b 0000 0000 		.long	.LASF196
 6020 0c2f 06        		.byte	0x6
 6021 0c30 7808      		.word	0x878
 6022 0c32 5D01 0000 		.long	0x15d
 6023 0c36 02        		.byte	0x2
 6024 0c37 23        		.byte	0x23
 6025 0c38 35        		.uleb128 0x35
 6026 0c39 19        		.uleb128 0x19
GAS LISTING /tmp/ccjciOO6.s 			page 134


 6027 0c3a 5F08 0000 		.long	0x85f
 6028 0c3e 02        		.byte	0x2
 6029 0c3f 23        		.byte	0x23
 6030 0c40 36        		.uleb128 0x36
 6031 0c41 19        		.uleb128 0x19
 6032 0c42 A208 0000 		.long	0x8a2
 6033 0c46 02        		.byte	0x2
 6034 0c47 23        		.byte	0x23
 6035 0c48 38        		.uleb128 0x38
 6036 0c49 19        		.uleb128 0x19
 6037 0c4a E508 0000 		.long	0x8e5
 6038 0c4e 02        		.byte	0x2
 6039 0c4f 23        		.byte	0x23
 6040 0c50 3A        		.uleb128 0x3a
 6041 0c51 19        		.uleb128 0x19
 6042 0c52 2809 0000 		.long	0x928
 6043 0c56 02        		.byte	0x2
 6044 0c57 23        		.byte	0x23
 6045 0c58 3C        		.uleb128 0x3c
 6046 0c59 19        		.uleb128 0x19
 6047 0c5a 6B09 0000 		.long	0x96b
 6048 0c5e 02        		.byte	0x2
 6049 0c5f 23        		.byte	0x23
 6050 0c60 3E        		.uleb128 0x3e
 6051 0c61 00        		.byte	0
 6052 0c62 0E        		.uleb128 0xe
 6053 0c63 0000 0000 		.long	.LASF197
 6054 0c67 06        		.byte	0x6
 6055 0c68 7E08      		.word	0x87e
 6056 0c6a 8609 0000 		.long	0x986
 6057 0c6e 13        		.uleb128 0x13
 6058 0c6f 0000 0000 		.long	.LASF198
 6059 0c73 01        		.byte	0x1
 6060 0c74 4900 0000 		.long	0x49
 6061 0c78 06        		.byte	0x6
 6062 0c79 E508      		.word	0x8e5
 6063 0c7b E00C 0000 		.long	0xce0
 6064 0c7f 11        		.uleb128 0x11
 6065 0c80 0000 0000 		.long	.LASF199
 6066 0c84 00        		.byte	0
 6067 0c85 11        		.uleb128 0x11
 6068 0c86 0000 0000 		.long	.LASF200
 6069 0c8a 01        		.byte	0x1
 6070 0c8b 11        		.uleb128 0x11
 6071 0c8c 0000 0000 		.long	.LASF201
 6072 0c90 02        		.byte	0x2
 6073 0c91 11        		.uleb128 0x11
 6074 0c92 0000 0000 		.long	.LASF202
 6075 0c96 03        		.byte	0x3
 6076 0c97 11        		.uleb128 0x11
 6077 0c98 0000 0000 		.long	.LASF203
 6078 0c9c 04        		.byte	0x4
 6079 0c9d 11        		.uleb128 0x11
 6080 0c9e 0000 0000 		.long	.LASF204
 6081 0ca2 05        		.byte	0x5
 6082 0ca3 11        		.uleb128 0x11
 6083 0ca4 0000 0000 		.long	.LASF205
GAS LISTING /tmp/ccjciOO6.s 			page 135


 6084 0ca8 06        		.byte	0x6
 6085 0ca9 11        		.uleb128 0x11
 6086 0caa 0000 0000 		.long	.LASF206
 6087 0cae 07        		.byte	0x7
 6088 0caf 11        		.uleb128 0x11
 6089 0cb0 0000 0000 		.long	.LASF207
 6090 0cb4 08        		.byte	0x8
 6091 0cb5 11        		.uleb128 0x11
 6092 0cb6 0000 0000 		.long	.LASF208
 6093 0cba 09        		.byte	0x9
 6094 0cbb 11        		.uleb128 0x11
 6095 0cbc 0000 0000 		.long	.LASF209
 6096 0cc0 0A        		.byte	0xa
 6097 0cc1 11        		.uleb128 0x11
 6098 0cc2 0000 0000 		.long	.LASF210
 6099 0cc6 0B        		.byte	0xb
 6100 0cc7 11        		.uleb128 0x11
 6101 0cc8 0000 0000 		.long	.LASF211
 6102 0ccc 0C        		.byte	0xc
 6103 0ccd 11        		.uleb128 0x11
 6104 0cce 0000 0000 		.long	.LASF212
 6105 0cd2 0D        		.byte	0xd
 6106 0cd3 11        		.uleb128 0x11
 6107 0cd4 0000 0000 		.long	.LASF213
 6108 0cd8 0E        		.byte	0xe
 6109 0cd9 11        		.uleb128 0x11
 6110 0cda 0000 0000 		.long	.LASF214
 6111 0cde 0F        		.byte	0xf
 6112 0cdf 00        		.byte	0
 6113 0ce0 13        		.uleb128 0x13
 6114 0ce1 0000 0000 		.long	.LASF215
 6115 0ce5 01        		.byte	0x1
 6116 0ce6 4900 0000 		.long	0x49
 6117 0cea 06        		.byte	0x6
 6118 0ceb 2909      		.word	0x929
 6119 0ced 0A0D 0000 		.long	0xd0a
 6120 0cf1 11        		.uleb128 0x11
 6121 0cf2 0000 0000 		.long	.LASF216
 6122 0cf6 00        		.byte	0
 6123 0cf7 11        		.uleb128 0x11
 6124 0cf8 0000 0000 		.long	.LASF217
 6125 0cfc 01        		.byte	0x1
 6126 0cfd 11        		.uleb128 0x11
 6127 0cfe 0000 0000 		.long	.LASF218
 6128 0d02 02        		.byte	0x2
 6129 0d03 11        		.uleb128 0x11
 6130 0d04 0000 0000 		.long	.LASF219
 6131 0d08 03        		.byte	0x3
 6132 0d09 00        		.byte	0
 6133 0d0a 12        		.uleb128 0x12
 6134 0d0b 0000 0000 		.long	.LASF220
 6135 0d0f 08        		.byte	0x8
 6136 0d10 06        		.byte	0x6
 6137 0d11 7709      		.word	0x977
 6138 0d13 900D 0000 		.long	0xd90
 6139 0d17 08        		.uleb128 0x8
 6140 0d18 0000 0000 		.long	.LASF221
GAS LISTING /tmp/ccjciOO6.s 			page 136


 6141 0d1c 06        		.byte	0x6
 6142 0d1d 7909      		.word	0x979
 6143 0d1f 5D01 0000 		.long	0x15d
 6144 0d23 02        		.byte	0x2
 6145 0d24 23        		.byte	0x23
 6146 0d25 00        		.uleb128 0
 6147 0d26 08        		.uleb128 0x8
 6148 0d27 0000 0000 		.long	.LASF61
 6149 0d2b 06        		.byte	0x6
 6150 0d2c 7A09      		.word	0x97a
 6151 0d2e 5D01 0000 		.long	0x15d
 6152 0d32 02        		.byte	0x2
 6153 0d33 23        		.byte	0x23
 6154 0d34 01        		.uleb128 0x1
 6155 0d35 08        		.uleb128 0x8
 6156 0d36 0000 0000 		.long	.LASF222
 6157 0d3a 06        		.byte	0x6
 6158 0d3b 7B09      		.word	0x97b
 6159 0d3d 5D01 0000 		.long	0x15d
 6160 0d41 02        		.byte	0x2
 6161 0d42 23        		.byte	0x23
 6162 0d43 02        		.uleb128 0x2
 6163 0d44 08        		.uleb128 0x8
 6164 0d45 0000 0000 		.long	.LASF158
 6165 0d49 06        		.byte	0x6
 6166 0d4a 7C09      		.word	0x97c
 6167 0d4c 5D01 0000 		.long	0x15d
 6168 0d50 02        		.byte	0x2
 6169 0d51 23        		.byte	0x23
 6170 0d52 03        		.uleb128 0x3
 6171 0d53 08        		.uleb128 0x8
 6172 0d54 0000 0000 		.long	.LASF159
 6173 0d58 06        		.byte	0x6
 6174 0d59 7D09      		.word	0x97d
 6175 0d5b 5D01 0000 		.long	0x15d
 6176 0d5f 02        		.byte	0x2
 6177 0d60 23        		.byte	0x23
 6178 0d61 04        		.uleb128 0x4
 6179 0d62 08        		.uleb128 0x8
 6180 0d63 0000 0000 		.long	.LASF160
 6181 0d67 06        		.byte	0x6
 6182 0d68 7E09      		.word	0x97e
 6183 0d6a 5D01 0000 		.long	0x15d
 6184 0d6e 02        		.byte	0x2
 6185 0d6f 23        		.byte	0x23
 6186 0d70 05        		.uleb128 0x5
 6187 0d71 08        		.uleb128 0x8
 6188 0d72 0000 0000 		.long	.LASF223
 6189 0d76 06        		.byte	0x6
 6190 0d77 7F09      		.word	0x97f
 6191 0d79 5D01 0000 		.long	0x15d
 6192 0d7d 02        		.byte	0x2
 6193 0d7e 23        		.byte	0x23
 6194 0d7f 06        		.uleb128 0x6
 6195 0d80 08        		.uleb128 0x8
 6196 0d81 0000 0000 		.long	.LASF224
 6197 0d85 06        		.byte	0x6
GAS LISTING /tmp/ccjciOO6.s 			page 137


 6198 0d86 8009      		.word	0x980
 6199 0d88 5D01 0000 		.long	0x15d
 6200 0d8c 02        		.byte	0x2
 6201 0d8d 23        		.byte	0x23
 6202 0d8e 07        		.uleb128 0x7
 6203 0d8f 00        		.byte	0
 6204 0d90 0E        		.uleb128 0xe
 6205 0d91 0000 0000 		.long	.LASF225
 6206 0d95 06        		.byte	0x6
 6207 0d96 8109      		.word	0x981
 6208 0d98 0A0D 0000 		.long	0xd0a
 6209 0d9c 02        		.uleb128 0x2
 6210 0d9d 02        		.byte	0x2
 6211 0d9e 07        		.byte	0x7
 6212 0d9f 0000 0000 		.long	.LASF226
 6213 0da3 05        		.uleb128 0x5
 6214 0da4 0000 0000 		.long	.LASF227
 6215 0da8 24        		.byte	0x24
 6216 0da9 01        		.byte	0x1
 6217 0daa ED        		.byte	0xed
 6218 0dab AF0E 0000 		.long	0xeaf
 6219 0daf 07        		.uleb128 0x7
 6220 0db0 0000 0000 		.long	.LASF228
 6221 0db4 01        		.byte	0x1
 6222 0db5 EE        		.byte	0xee
 6223 0db6 3000 0000 		.long	0x30
 6224 0dba 02        		.byte	0x2
 6225 0dbb 23        		.byte	0x23
 6226 0dbc 00        		.uleb128 0
 6227 0dbd 07        		.uleb128 0x7
 6228 0dbe 0000 0000 		.long	.LASF229
 6229 0dc2 01        		.byte	0x1
 6230 0dc3 EF        		.byte	0xef
 6231 0dc4 3000 0000 		.long	0x30
 6232 0dc8 02        		.byte	0x2
 6233 0dc9 23        		.byte	0x23
 6234 0dca 02        		.uleb128 0x2
 6235 0dcb 07        		.uleb128 0x7
 6236 0dcc 0000 0000 		.long	.LASF230
 6237 0dd0 01        		.byte	0x1
 6238 0dd1 F0        		.byte	0xf0
 6239 0dd2 3000 0000 		.long	0x30
 6240 0dd6 02        		.byte	0x2
 6241 0dd7 23        		.byte	0x23
 6242 0dd8 04        		.uleb128 0x4
 6243 0dd9 07        		.uleb128 0x7
 6244 0dda 0000 0000 		.long	.LASF231
 6245 0dde 01        		.byte	0x1
 6246 0ddf F1        		.byte	0xf1
 6247 0de0 7400 0000 		.long	0x74
 6248 0de4 02        		.byte	0x2
 6249 0de5 23        		.byte	0x23
 6250 0de6 06        		.uleb128 0x6
 6251 0de7 07        		.uleb128 0x7
 6252 0de8 0000 0000 		.long	.LASF232
 6253 0dec 01        		.byte	0x1
 6254 0ded F2        		.byte	0xf2
GAS LISTING /tmp/ccjciOO6.s 			page 138


 6255 0dee 3000 0000 		.long	0x30
 6256 0df2 02        		.byte	0x2
 6257 0df3 23        		.byte	0x23
 6258 0df4 0A        		.uleb128 0xa
 6259 0df5 07        		.uleb128 0x7
 6260 0df6 0000 0000 		.long	.LASF233
 6261 0dfa 01        		.byte	0x1
 6262 0dfb F3        		.byte	0xf3
 6263 0dfc 3000 0000 		.long	0x30
 6264 0e00 02        		.byte	0x2
 6265 0e01 23        		.byte	0x23
 6266 0e02 0C        		.uleb128 0xc
 6267 0e03 07        		.uleb128 0x7
 6268 0e04 0000 0000 		.long	.LASF234
 6269 0e08 01        		.byte	0x1
 6270 0e09 F4        		.byte	0xf4
 6271 0e0a 3000 0000 		.long	0x30
 6272 0e0e 02        		.byte	0x2
 6273 0e0f 23        		.byte	0x23
 6274 0e10 0E        		.uleb128 0xe
 6275 0e11 07        		.uleb128 0x7
 6276 0e12 0000 0000 		.long	.LASF235
 6277 0e16 01        		.byte	0x1
 6278 0e17 F5        		.byte	0xf5
 6279 0e18 3000 0000 		.long	0x30
 6280 0e1c 02        		.byte	0x2
 6281 0e1d 23        		.byte	0x23
 6282 0e1e 10        		.uleb128 0x10
 6283 0e1f 07        		.uleb128 0x7
 6284 0e20 0000 0000 		.long	.LASF236
 6285 0e24 01        		.byte	0x1
 6286 0e25 F6        		.byte	0xf6
 6287 0e26 3000 0000 		.long	0x30
 6288 0e2a 02        		.byte	0x2
 6289 0e2b 23        		.byte	0x23
 6290 0e2c 12        		.uleb128 0x12
 6291 0e2d 07        		.uleb128 0x7
 6292 0e2e 0000 0000 		.long	.LASF237
 6293 0e32 01        		.byte	0x1
 6294 0e33 FA        		.byte	0xfa
 6295 0e34 1101 0000 		.long	0x111
 6296 0e38 02        		.byte	0x2
 6297 0e39 23        		.byte	0x23
 6298 0e3a 14        		.uleb128 0x14
 6299 0e3b 07        		.uleb128 0x7
 6300 0e3c 0000 0000 		.long	.LASF238
 6301 0e40 01        		.byte	0x1
 6302 0e41 FB        		.byte	0xfb
 6303 0e42 3000 0000 		.long	0x30
 6304 0e46 02        		.byte	0x2
 6305 0e47 23        		.byte	0x23
 6306 0e48 15        		.uleb128 0x15
 6307 0e49 07        		.uleb128 0x7
 6308 0e4a 0000 0000 		.long	.LASF239
 6309 0e4e 01        		.byte	0x1
 6310 0e4f FC        		.byte	0xfc
 6311 0e50 1101 0000 		.long	0x111
GAS LISTING /tmp/ccjciOO6.s 			page 139


 6312 0e54 02        		.byte	0x2
 6313 0e55 23        		.byte	0x23
 6314 0e56 17        		.uleb128 0x17
 6315 0e57 07        		.uleb128 0x7
 6316 0e58 0000 0000 		.long	.LASF240
 6317 0e5c 01        		.byte	0x1
 6318 0e5d FD        		.byte	0xfd
 6319 0e5e 3000 0000 		.long	0x30
 6320 0e62 02        		.byte	0x2
 6321 0e63 23        		.byte	0x23
 6322 0e64 18        		.uleb128 0x18
 6323 0e65 07        		.uleb128 0x7
 6324 0e66 0000 0000 		.long	.LASF241
 6325 0e6a 01        		.byte	0x1
 6326 0e6b FE        		.byte	0xfe
 6327 0e6c 1101 0000 		.long	0x111
 6328 0e70 02        		.byte	0x2
 6329 0e71 23        		.byte	0x23
 6330 0e72 1A        		.uleb128 0x1a
 6331 0e73 07        		.uleb128 0x7
 6332 0e74 0000 0000 		.long	.LASF242
 6333 0e78 01        		.byte	0x1
 6334 0e79 FF        		.byte	0xff
 6335 0e7a 3000 0000 		.long	0x30
 6336 0e7e 02        		.byte	0x2
 6337 0e7f 23        		.byte	0x23
 6338 0e80 1B        		.uleb128 0x1b
 6339 0e81 08        		.uleb128 0x8
 6340 0e82 0000 0000 		.long	.LASF243
 6341 0e86 01        		.byte	0x1
 6342 0e87 0001      		.word	0x100
 6343 0e89 1101 0000 		.long	0x111
 6344 0e8d 02        		.byte	0x2
 6345 0e8e 23        		.byte	0x23
 6346 0e8f 1D        		.uleb128 0x1d
 6347 0e90 08        		.uleb128 0x8
 6348 0e91 0000 0000 		.long	.LASF244
 6349 0e95 01        		.byte	0x1
 6350 0e96 0101      		.word	0x101
 6351 0e98 3000 0000 		.long	0x30
 6352 0e9c 02        		.byte	0x2
 6353 0e9d 23        		.byte	0x23
 6354 0e9e 1E        		.uleb128 0x1e
 6355 0e9f 08        		.uleb128 0x8
 6356 0ea0 0000 0000 		.long	.LASF245
 6357 0ea4 01        		.byte	0x1
 6358 0ea5 0301      		.word	0x103
 6359 0ea7 6200 0000 		.long	0x62
 6360 0eab 02        		.byte	0x2
 6361 0eac 23        		.byte	0x23
 6362 0ead 20        		.uleb128 0x20
 6363 0eae 00        		.byte	0
 6364 0eaf 1A        		.uleb128 0x1a
 6365 0eb0 0000 0000 		.long	.LASF335
 6366 0eb4 03        		.byte	0x3
 6367 0eb5 FF        		.byte	0xff
 6368 0eb6 01        		.byte	0x1
GAS LISTING /tmp/ccjciOO6.s 			page 140


 6369 0eb7 03        		.byte	0x3
 6370 0eb8 EB0E 0000 		.long	0xeeb
 6371 0ebc 1B        		.uleb128 0x1b
 6372 0ebd 0000 0000 		.long	.LASF249
 6373 0ec1 03        		.byte	0x3
 6374 0ec2 FF        		.byte	0xff
 6375 0ec3 EB0E 0000 		.long	0xeeb
 6376 0ec7 1C        		.uleb128 0x1c
 6377 0ec8 0000 0000 		.long	.LASF246
 6378 0ecc 03        		.byte	0x3
 6379 0ecd 0101      		.word	0x101
 6380 0ecf EB0E 0000 		.long	0xeeb
 6381 0ed3 1C        		.uleb128 0x1c
 6382 0ed4 0000 0000 		.long	.LASF247
 6383 0ed8 03        		.byte	0x3
 6384 0ed9 0501      		.word	0x105
 6385 0edb 6900 0000 		.long	0x69
 6386 0edf 1D        		.uleb128 0x1d
 6387 0ee0 01        		.byte	0x1
 6388 0ee1 0000 0000 		.long	.LASF260
 6389 0ee5 03        		.byte	0x3
 6390 0ee6 0601      		.word	0x106
 6391 0ee8 01        		.byte	0x1
 6392 0ee9 00        		.byte	0
 6393 0eea 00        		.byte	0
 6394 0eeb 02        		.uleb128 0x2
 6395 0eec 04        		.byte	0x4
 6396 0eed 04        		.byte	0x4
 6397 0eee 0000 0000 		.long	.LASF248
 6398 0ef2 1E        		.uleb128 0x1e
 6399 0ef3 01        		.byte	0x1
 6400 0ef4 0000 0000 		.long	.LASF336
 6401 0ef8 01        		.byte	0x1
 6402 0ef9 6C        		.byte	0x6c
 6403 0efa 01        		.byte	0x1
 6404 0efb 6200 0000 		.long	0x62
 6405 0eff 01        		.byte	0x1
 6406 0f00 1F        		.uleb128 0x1f
 6407 0f01 01        		.byte	0x1
 6408 0f02 0000 0000 		.long	.LASF252
 6409 0f06 01        		.byte	0x1
 6410 0f07 8701      		.word	0x187
 6411 0f09 01        		.byte	0x1
 6412 0f0a 01        		.byte	0x1
 6413 0f0b 280F 0000 		.long	0xf28
 6414 0f0f 20        		.uleb128 0x20
 6415 0f10 0000 0000 		.long	.LASF250
 6416 0f14 01        		.byte	0x1
 6417 0f15 8701      		.word	0x187
 6418 0f17 280F 0000 		.long	0xf28
 6419 0f1b 20        		.uleb128 0x20
 6420 0f1c 0000 0000 		.long	.LASF251
 6421 0f20 01        		.byte	0x1
 6422 0f21 8701      		.word	0x187
 6423 0f23 6200 0000 		.long	0x62
 6424 0f27 00        		.byte	0
 6425 0f28 0A        		.uleb128 0xa
GAS LISTING /tmp/ccjciOO6.s 			page 141


 6426 0f29 02        		.byte	0x2
 6427 0f2a A30D 0000 		.long	0xda3
 6428 0f2e 21        		.uleb128 0x21
 6429 0f2f 01        		.byte	0x1
 6430 0f30 0000 0000 		.long	.LASF337
 6431 0f34 01        		.byte	0x1
 6432 0f35 5C        		.byte	0x5c
 6433 0f36 01        		.byte	0x1
 6434 0f37 3000 0000 		.long	0x30
 6435 0f3b 01        		.byte	0x1
 6436 0f3c 4A0F 0000 		.long	0xf4a
 6437 0f40 22        		.uleb128 0x22
 6438 0f41 6E00      		.string	"n"
 6439 0f43 01        		.byte	0x1
 6440 0f44 5C        		.byte	0x5c
 6441 0f45 3000 0000 		.long	0x30
 6442 0f49 00        		.byte	0
 6443 0f4a 1F        		.uleb128 0x1f
 6444 0f4b 01        		.byte	0x1
 6445 0f4c 0000 0000 		.long	.LASF253
 6446 0f50 01        		.byte	0x1
 6447 0f51 2E02      		.word	0x22e
 6448 0f53 01        		.byte	0x1
 6449 0f54 01        		.byte	0x1
 6450 0f55 A20F 0000 		.long	0xfa2
 6451 0f59 20        		.uleb128 0x20
 6452 0f5a 0000 0000 		.long	.LASF254
 6453 0f5e 01        		.byte	0x1
 6454 0f5f 2E02      		.word	0x22e
 6455 0f61 3000 0000 		.long	0x30
 6456 0f65 20        		.uleb128 0x20
 6457 0f66 0000 0000 		.long	.LASF255
 6458 0f6a 01        		.byte	0x1
 6459 0f6b 2E02      		.word	0x22e
 6460 0f6d 3000 0000 		.long	0x30
 6461 0f71 20        		.uleb128 0x20
 6462 0f72 0000 0000 		.long	.LASF256
 6463 0f76 01        		.byte	0x1
 6464 0f77 2E02      		.word	0x22e
 6465 0f79 3000 0000 		.long	0x30
 6466 0f7d 20        		.uleb128 0x20
 6467 0f7e 0000 0000 		.long	.LASF257
 6468 0f82 01        		.byte	0x1
 6469 0f83 2E02      		.word	0x22e
 6470 0f85 3000 0000 		.long	0x30
 6471 0f89 20        		.uleb128 0x20
 6472 0f8a 0000 0000 		.long	.LASF258
 6473 0f8e 01        		.byte	0x1
 6474 0f8f 2E02      		.word	0x22e
 6475 0f91 3000 0000 		.long	0x30
 6476 0f95 20        		.uleb128 0x20
 6477 0f96 0000 0000 		.long	.LASF259
 6478 0f9a 01        		.byte	0x1
 6479 0f9b 2E02      		.word	0x22e
 6480 0f9d 3000 0000 		.long	0x30
 6481 0fa1 00        		.byte	0
 6482 0fa2 1D        		.uleb128 0x1d
GAS LISTING /tmp/ccjciOO6.s 			page 142


 6483 0fa3 01        		.byte	0x1
 6484 0fa4 0000 0000 		.long	.LASF261
 6485 0fa8 01        		.byte	0x1
 6486 0fa9 F302      		.word	0x2f3
 6487 0fab 01        		.byte	0x1
 6488 0fac 01        		.byte	0x1
 6489 0fad 23        		.uleb128 0x23
 6490 0fae 0000 0000 		.long	.LASF338
 6491 0fb2 01        		.byte	0x1
 6492 0fb3 1B        		.byte	0x1b
 6493 0fb4 01        		.byte	0x1
 6494 0fb5 3000 0000 		.long	0x30
 6495 0fb9 0000 0000 		.long	.LFB23
 6496 0fbd 0000 0000 		.long	.LFE23
 6497 0fc1 0000 0000 		.long	.LLST0
 6498 0fc5 01        		.byte	0x1
 6499 0fc6 0210 0000 		.long	0x1002
 6500 0fca 24        		.uleb128 0x24
 6501 0fcb 6300      		.string	"c"
 6502 0fcd 01        		.byte	0x1
 6503 0fce 1B        		.byte	0x1b
 6504 0fcf 1101 0000 		.long	0x111
 6505 0fd3 0000 0000 		.long	.LLST1
 6506 0fd7 25        		.uleb128 0x25
 6507 0fd8 0000 0000 		.long	.LASF262
 6508 0fdc 01        		.byte	0x1
 6509 0fdd 1B        		.byte	0x1b
 6510 0fde 0210 0000 		.long	0x1002
 6511 0fe2 0000 0000 		.long	.LLST2
 6512 0fe6 26        		.uleb128 0x26
 6513 0fe7 0000 0000 		.long	.LVL2
 6514 0feb AD0F 0000 		.long	0xfad
 6515 0fef 27        		.uleb128 0x27
 6516 0ff0 01        		.byte	0x1
 6517 0ff1 68        		.byte	0x68
 6518 0ff2 01        		.byte	0x1
 6519 0ff3 3D        		.byte	0x3d
 6520 0ff4 27        		.uleb128 0x27
 6521 0ff5 06        		.byte	0x6
 6522 0ff6 66        		.byte	0x66
 6523 0ff7 93        		.byte	0x93
 6524 0ff8 01        		.uleb128 0x1
 6525 0ff9 67        		.byte	0x67
 6526 0ffa 93        		.byte	0x93
 6527 0ffb 01        		.uleb128 0x1
 6528 0ffc 03        		.byte	0x3
 6529 0ffd F3        		.byte	0xf3
 6530 0ffe 01        		.uleb128 0x1
 6531 0fff 66        		.byte	0x66
 6532 1000 00        		.byte	0
 6533 1001 00        		.byte	0
 6534 1002 0A        		.uleb128 0xa
 6535 1003 02        		.byte	0x2
 6536 1004 5101 0000 		.long	0x151
 6537 1008 28        		.uleb128 0x28
 6538 1009 01        		.byte	0x1
 6539 100a 0000 0000 		.long	.LASF267
GAS LISTING /tmp/ccjciOO6.s 			page 143


 6540 100e 02        		.byte	0x2
 6541 100f 4D        		.byte	0x4d
 6542 1010 01        		.byte	0x1
 6543 1011 0000 0000 		.long	.LFB12
 6544 1015 0000 0000 		.long	.LFE12
 6545 1019 0000 0000 		.long	.LLST3
 6546 101d 01        		.byte	0x1
 6547 101e 5C10 0000 		.long	0x105c
 6548 1022 25        		.uleb128 0x25
 6549 1023 0000 0000 		.long	.LASF263
 6550 1027 02        		.byte	0x2
 6551 1028 4D        		.byte	0x4d
 6552 1029 5C10 0000 		.long	0x105c
 6553 102d 0000 0000 		.long	.LLST4
 6554 1031 29        		.uleb128 0x29
 6555 1032 0000 0000 		.long	.LASF264
 6556 1036 02        		.byte	0x2
 6557 1037 4D        		.byte	0x4d
 6558 1038 3E00 0000 		.long	0x3e
 6559 103c 01        		.byte	0x1
 6560 103d 66        		.byte	0x66
 6561 103e 2A        		.uleb128 0x2a
 6562 103f 0000 0000 		.long	.LASF265
 6563 1043 02        		.byte	0x2
 6564 1044 6C        		.byte	0x6c
 6565 1045 6801 0000 		.long	0x168
 6566 1049 02        		.byte	0x2
 6567 104a 8C        		.byte	0x8c
 6568 104b 01        		.sleb128 1
 6569 104c 2B        		.uleb128 0x2b
 6570 104d 0000 0000 		.long	.LASF266
 6571 1051 02        		.byte	0x2
 6572 1052 6D        		.byte	0x6d
 6573 1053 5C10 0000 		.long	0x105c
 6574 1057 0000 0000 		.long	.LLST5
 6575 105b 00        		.byte	0
 6576 105c 0A        		.uleb128 0xa
 6577 105d 02        		.byte	0x2
 6578 105e 6801 0000 		.long	0x168
 6579 1062 2C        		.uleb128 0x2c
 6580 1063 01        		.byte	0x1
 6581 1064 0000 0000 		.long	.LASF268
 6582 1068 02        		.byte	0x2
 6583 1069 8D        		.byte	0x8d
 6584 106a 01        		.byte	0x1
 6585 106b 0000 0000 		.long	.LFB13
 6586 106f 0000 0000 		.long	.LFE13
 6587 1073 03        		.byte	0x3
 6588 1074 92        		.byte	0x92
 6589 1075 20        		.uleb128 0x20
 6590 1076 02        		.sleb128 2
 6591 1077 01        		.byte	0x1
 6592 1078 A610 0000 		.long	0x10a6
 6593 107c 25        		.uleb128 0x25
 6594 107d 0000 0000 		.long	.LASF269
 6595 1081 02        		.byte	0x2
 6596 1082 8D        		.byte	0x8d
GAS LISTING /tmp/ccjciOO6.s 			page 144


 6597 1083 9103 0000 		.long	0x391
 6598 1087 0000 0000 		.long	.LLST6
 6599 108b 29        		.uleb128 0x29
 6600 108c 0000 0000 		.long	.LASF270
 6601 1090 02        		.byte	0x2
 6602 1091 8E        		.byte	0x8e
 6603 1092 A610 0000 		.long	0x10a6
 6604 1096 01        		.byte	0x1
 6605 1097 66        		.byte	0x66
 6606 1098 29        		.uleb128 0x29
 6607 1099 0000 0000 		.long	.LASF271
 6608 109d 02        		.byte	0x2
 6609 109e 8F        		.byte	0x8f
 6610 109f CD03 0000 		.long	0x3cd
 6611 10a3 01        		.byte	0x1
 6612 10a4 64        		.byte	0x64
 6613 10a5 00        		.byte	0
 6614 10a6 02        		.uleb128 0x2
 6615 10a7 01        		.byte	0x1
 6616 10a8 02        		.byte	0x2
 6617 10a9 0000 0000 		.long	.LASF272
 6618 10ad 2C        		.uleb128 0x2c
 6619 10ae 01        		.byte	0x1
 6620 10af 0000 0000 		.long	.LASF273
 6621 10b3 02        		.byte	0x2
 6622 10b4 A7        		.byte	0xa7
 6623 10b5 01        		.byte	0x1
 6624 10b6 0000 0000 		.long	.LFB14
 6625 10ba 0000 0000 		.long	.LFE14
 6626 10be 03        		.byte	0x3
 6627 10bf 92        		.byte	0x92
 6628 10c0 20        		.uleb128 0x20
 6629 10c1 02        		.sleb128 2
 6630 10c2 01        		.byte	0x1
 6631 10c3 E610 0000 		.long	0x10e6
 6632 10c7 25        		.uleb128 0x25
 6633 10c8 0000 0000 		.long	.LASF274
 6634 10cc 02        		.byte	0x2
 6635 10cd A7        		.byte	0xa7
 6636 10ce FD03 0000 		.long	0x3fd
 6637 10d2 0000 0000 		.long	.LLST7
 6638 10d6 25        		.uleb128 0x25
 6639 10d7 0000 0000 		.long	.LASF275
 6640 10db 02        		.byte	0x2
 6641 10dc A7        		.byte	0xa7
 6642 10dd 3E00 0000 		.long	0x3e
 6643 10e1 0000 0000 		.long	.LLST8
 6644 10e5 00        		.byte	0
 6645 10e6 2D        		.uleb128 0x2d
 6646 10e7 01        		.byte	0x1
 6647 10e8 0000 0000 		.long	.LASF282
 6648 10ec 02        		.byte	0x2
 6649 10ed BB        		.byte	0xbb
 6650 10ee 01        		.byte	0x1
 6651 10ef 3E00 0000 		.long	0x3e
 6652 10f3 0000 0000 		.long	.LFB15
 6653 10f7 0000 0000 		.long	.LFE15
GAS LISTING /tmp/ccjciOO6.s 			page 145


 6654 10fb 03        		.byte	0x3
 6655 10fc 92        		.byte	0x92
 6656 10fd 20        		.uleb128 0x20
 6657 10fe 02        		.sleb128 2
 6658 10ff 01        		.byte	0x1
 6659 1100 2311 0000 		.long	0x1123
 6660 1104 25        		.uleb128 0x25
 6661 1105 0000 0000 		.long	.LASF276
 6662 1109 02        		.byte	0x2
 6663 110a BB        		.byte	0xbb
 6664 110b 3E00 0000 		.long	0x3e
 6665 110f 0000 0000 		.long	.LLST9
 6666 1113 2B        		.uleb128 0x2b
 6667 1114 0000 0000 		.long	.LASF277
 6668 1118 02        		.byte	0x2
 6669 1119 BE        		.byte	0xbe
 6670 111a 3E00 0000 		.long	0x3e
 6671 111e 0000 0000 		.long	.LLST10
 6672 1122 00        		.byte	0
 6673 1123 2C        		.uleb128 0x2c
 6674 1124 01        		.byte	0x1
 6675 1125 0000 0000 		.long	.LASF278
 6676 1129 02        		.byte	0x2
 6677 112a CE        		.byte	0xce
 6678 112b 01        		.byte	0x1
 6679 112c 0000 0000 		.long	.LFB16
 6680 1130 0000 0000 		.long	.LFE16
 6681 1134 03        		.byte	0x3
 6682 1135 92        		.byte	0x92
 6683 1136 20        		.uleb128 0x20
 6684 1137 02        		.sleb128 2
 6685 1138 01        		.byte	0x1
 6686 1139 8C11 0000 		.long	0x118c
 6687 113d 25        		.uleb128 0x25
 6688 113e 0000 0000 		.long	.LASF279
 6689 1142 02        		.byte	0x2
 6690 1143 CE        		.byte	0xce
 6691 1144 7102 0000 		.long	0x271
 6692 1148 0000 0000 		.long	.LLST11
 6693 114c 25        		.uleb128 0x25
 6694 114d 0000 0000 		.long	.LASF280
 6695 1151 02        		.byte	0x2
 6696 1152 CF        		.byte	0xcf
 6697 1153 A502 0000 		.long	0x2a5
 6698 1157 0000 0000 		.long	.LLST12
 6699 115b 2B        		.uleb128 0x2b
 6700 115c 0000 0000 		.long	.LASF281
 6701 1160 02        		.byte	0x2
 6702 1161 D1        		.byte	0xd1
 6703 1162 3E00 0000 		.long	0x3e
 6704 1166 0000 0000 		.long	.LLST13
 6705 116a 2E        		.uleb128 0x2e
 6706 116b 0000 0000 		.long	.LVL18
 6707 116f 01        		.byte	0x1
 6708 1170 0810 0000 		.long	0x1008
 6709 1174 27        		.uleb128 0x27
 6710 1175 06        		.byte	0x6
GAS LISTING /tmp/ccjciOO6.s 			page 146


 6711 1176 68        		.byte	0x68
 6712 1177 93        		.byte	0x93
 6713 1178 01        		.uleb128 0x1
 6714 1179 69        		.byte	0x69
 6715 117a 93        		.byte	0x93
 6716 117b 01        		.uleb128 0x1
 6717 117c 02        		.byte	0x2
 6718 117d 08        		.byte	0x8
 6719 117e 41        		.byte	0x41
 6720 117f 27        		.uleb128 0x27
 6721 1180 01        		.byte	0x1
 6722 1181 66        		.byte	0x66
 6723 1182 07        		.byte	0x7
 6724 1183 F3        		.byte	0xf3
 6725 1184 01        		.uleb128 0x1
 6726 1185 68        		.byte	0x68
 6727 1186 F3        		.byte	0xf3
 6728 1187 01        		.uleb128 0x1
 6729 1188 66        		.byte	0x66
 6730 1189 21        		.byte	0x21
 6731 118a 00        		.byte	0
 6732 118b 00        		.byte	0
 6733 118c 2F        		.uleb128 0x2f
 6734 118d 01        		.byte	0x1
 6735 118e 0000 0000 		.long	.LASF283
 6736 1192 02        		.byte	0x2
 6737 1193 E1        		.byte	0xe1
 6738 1194 01        		.byte	0x1
 6739 1195 3E00 0000 		.long	0x3e
 6740 1199 0000 0000 		.long	.LFB17
 6741 119d 0000 0000 		.long	.LFE17
 6742 11a1 0000 0000 		.long	.LLST14
 6743 11a5 01        		.byte	0x1
 6744 11a6 DE11 0000 		.long	0x11de
 6745 11aa 25        		.uleb128 0x25
 6746 11ab 0000 0000 		.long	.LASF274
 6747 11af 02        		.byte	0x2
 6748 11b0 E1        		.byte	0xe1
 6749 11b1 1902 0000 		.long	0x219
 6750 11b5 0000 0000 		.long	.LLST15
 6751 11b9 2B        		.uleb128 0x2b
 6752 11ba 0000 0000 		.long	.LASF284
 6753 11be 02        		.byte	0x2
 6754 11bf E3        		.byte	0xe3
 6755 11c0 3E00 0000 		.long	0x3e
 6756 11c4 0000 0000 		.long	.LLST16
 6757 11c8 26        		.uleb128 0x26
 6758 11c9 0000 0000 		.long	.LVL24
 6759 11cd 0810 0000 		.long	0x1008
 6760 11d1 27        		.uleb128 0x27
 6761 11d2 06        		.byte	0x6
 6762 11d3 68        		.byte	0x68
 6763 11d4 93        		.byte	0x93
 6764 11d5 01        		.uleb128 0x1
 6765 11d6 69        		.byte	0x69
 6766 11d7 93        		.byte	0x93
 6767 11d8 01        		.uleb128 0x1
GAS LISTING /tmp/ccjciOO6.s 			page 147


 6768 11d9 02        		.byte	0x2
 6769 11da 80        		.byte	0x80
 6770 11db 00        		.sleb128 0
 6771 11dc 00        		.byte	0
 6772 11dd 00        		.byte	0
 6773 11de 2C        		.uleb128 0x2c
 6774 11df 01        		.byte	0x1
 6775 11e0 0000 0000 		.long	.LASF285
 6776 11e4 02        		.byte	0x2
 6777 11e5 F1        		.byte	0xf1
 6778 11e6 01        		.byte	0x1
 6779 11e7 0000 0000 		.long	.LFB18
 6780 11eb 0000 0000 		.long	.LFE18
 6781 11ef 03        		.byte	0x3
 6782 11f0 92        		.byte	0x92
 6783 11f1 20        		.uleb128 0x20
 6784 11f2 02        		.sleb128 2
 6785 11f3 01        		.byte	0x1
 6786 11f4 0812 0000 		.long	0x1208
 6787 11f8 25        		.uleb128 0x25
 6788 11f9 0000 0000 		.long	.LASF274
 6789 11fd 02        		.byte	0x2
 6790 11fe F1        		.byte	0xf1
 6791 11ff D902 0000 		.long	0x2d9
 6792 1203 0000 0000 		.long	.LLST17
 6793 1207 00        		.byte	0
 6794 1208 30        		.uleb128 0x30
 6795 1209 01        		.byte	0x1
 6796 120a 0000 0000 		.long	.LASF286
 6797 120e 02        		.byte	0x2
 6798 120f 0401      		.word	0x104
 6799 1211 01        		.byte	0x1
 6800 1212 0000 0000 		.long	.LFB19
 6801 1216 0000 0000 		.long	.LFE19
 6802 121a 03        		.byte	0x3
 6803 121b 92        		.byte	0x92
 6804 121c 20        		.uleb128 0x20
 6805 121d 02        		.sleb128 2
 6806 121e 01        		.byte	0x1
 6807 121f 4212 0000 		.long	0x1242
 6808 1223 31        		.uleb128 0x31
 6809 1224 0000 0000 		.long	.LASF287
 6810 1228 02        		.byte	0x2
 6811 1229 0401      		.word	0x104
 6812 122b 3E00 0000 		.long	0x3e
 6813 122f 0000 0000 		.long	.LLST18
 6814 1233 32        		.uleb128 0x32
 6815 1234 0000 0000 		.long	.LASF288
 6816 1238 02        		.byte	0x2
 6817 1239 0401      		.word	0x104
 6818 123b A610 0000 		.long	0x10a6
 6819 123f 01        		.byte	0x1
 6820 1240 66        		.byte	0x66
 6821 1241 00        		.byte	0
 6822 1242 30        		.uleb128 0x30
 6823 1243 01        		.byte	0x1
 6824 1244 0000 0000 		.long	.LASF289
GAS LISTING /tmp/ccjciOO6.s 			page 148


 6825 1248 02        		.byte	0x2
 6826 1249 1801      		.word	0x118
 6827 124b 01        		.byte	0x1
 6828 124c 0000 0000 		.long	.LFB20
 6829 1250 0000 0000 		.long	.LFE20
 6830 1254 03        		.byte	0x3
 6831 1255 92        		.byte	0x92
 6832 1256 20        		.uleb128 0x20
 6833 1257 02        		.sleb128 2
 6834 1258 01        		.byte	0x1
 6835 1259 7912 0000 		.long	0x1279
 6836 125d 2E        		.uleb128 0x2e
 6837 125e 0000 0000 		.long	.LVL34
 6838 1262 01        		.byte	0x1
 6839 1263 0810 0000 		.long	0x1008
 6840 1267 27        		.uleb128 0x27
 6841 1268 06        		.byte	0x6
 6842 1269 68        		.byte	0x68
 6843 126a 93        		.byte	0x93
 6844 126b 01        		.uleb128 0x1
 6845 126c 69        		.byte	0x69
 6846 126d 93        		.byte	0x93
 6847 126e 01        		.uleb128 0x1
 6848 126f 02        		.byte	0x2
 6849 1270 08        		.byte	0x8
 6850 1271 53        		.byte	0x53
 6851 1272 27        		.uleb128 0x27
 6852 1273 01        		.byte	0x1
 6853 1274 66        		.byte	0x66
 6854 1275 01        		.byte	0x1
 6855 1276 33        		.byte	0x33
 6856 1277 00        		.byte	0
 6857 1278 00        		.byte	0
 6858 1279 30        		.uleb128 0x30
 6859 127a 01        		.byte	0x1
 6860 127b 0000 0000 		.long	.LASF290
 6861 127f 02        		.byte	0x2
 6862 1280 2401      		.word	0x124
 6863 1282 01        		.byte	0x1
 6864 1283 0000 0000 		.long	.LFB21
 6865 1287 0000 0000 		.long	.LFE21
 6866 128b 03        		.byte	0x3
 6867 128c 92        		.byte	0x92
 6868 128d 20        		.uleb128 0x20
 6869 128e 02        		.sleb128 2
 6870 128f 01        		.byte	0x1
 6871 1290 B012 0000 		.long	0x12b0
 6872 1294 2E        		.uleb128 0x2e
 6873 1295 0000 0000 		.long	.LVL35
 6874 1299 01        		.byte	0x1
 6875 129a 0810 0000 		.long	0x1008
 6876 129e 27        		.uleb128 0x27
 6877 129f 06        		.byte	0x6
 6878 12a0 68        		.byte	0x68
 6879 12a1 93        		.byte	0x93
 6880 12a2 01        		.uleb128 0x1
 6881 12a3 69        		.byte	0x69
GAS LISTING /tmp/ccjciOO6.s 			page 149


 6882 12a4 93        		.byte	0x93
 6883 12a5 01        		.uleb128 0x1
 6884 12a6 02        		.byte	0x2
 6885 12a7 08        		.byte	0x8
 6886 12a8 42        		.byte	0x42
 6887 12a9 27        		.uleb128 0x27
 6888 12aa 01        		.byte	0x1
 6889 12ab 66        		.byte	0x66
 6890 12ac 01        		.byte	0x1
 6891 12ad 31        		.byte	0x31
 6892 12ae 00        		.byte	0
 6893 12af 00        		.byte	0
 6894 12b0 33        		.uleb128 0x33
 6895 12b1 01        		.byte	0x1
 6896 12b2 0000 0000 		.long	.LASF293
 6897 12b6 01        		.byte	0x1
 6898 12b7 17        		.byte	0x17
 6899 12b8 01        		.byte	0x1
 6900 12b9 0000 0000 		.long	.LFB22
 6901 12bd 0000 0000 		.long	.LFE22
 6902 12c1 0000 0000 		.long	.LLST19
 6903 12c5 01        		.byte	0x1
 6904 12c6 34        		.uleb128 0x34
 6905 12c7 01        		.byte	0x1
 6906 12c8 0000 0000 		.long	.LASF339
 6907 12cc 01        		.byte	0x1
 6908 12cd 28        		.byte	0x28
 6909 12ce 01        		.byte	0x1
 6910 12cf 3000 0000 		.long	0x30
 6911 12d3 0000 0000 		.long	.LFB24
 6912 12d7 0000 0000 		.long	.LFE24
 6913 12db 03        		.byte	0x3
 6914 12dc 92        		.byte	0x92
 6915 12dd 20        		.uleb128 0x20
 6916 12de 02        		.sleb128 2
 6917 12df 01        		.byte	0x1
 6918 12e0 2C        		.uleb128 0x2c
 6919 12e1 01        		.byte	0x1
 6920 12e2 0000 0000 		.long	.LASF291
 6921 12e6 01        		.byte	0x1
 6922 12e7 4B        		.byte	0x4b
 6923 12e8 01        		.byte	0x1
 6924 12e9 0000 0000 		.long	.LFB26
 6925 12ed 0000 0000 		.long	.LFE26
 6926 12f1 03        		.byte	0x3
 6927 12f2 92        		.byte	0x92
 6928 12f3 20        		.uleb128 0x20
 6929 12f4 02        		.sleb128 2
 6930 12f5 01        		.byte	0x1
 6931 12f6 3E13 0000 		.long	0x133e
 6932 12fa 24        		.uleb128 0x24
 6933 12fb 6D73 00   		.string	"ms"
 6934 12fe 01        		.byte	0x1
 6935 12ff 4B        		.byte	0x4b
 6936 1300 3000 0000 		.long	0x30
 6937 1304 0000 0000 		.long	.LLST20
 6938 1308 35        		.uleb128 0x35
GAS LISTING /tmp/ccjciOO6.s 			page 150


 6939 1309 AF0E 0000 		.long	0xeaf
 6940 130d 0000 0000 		.long	.LBB91
 6941 1311 0000 0000 		.long	.LBE91
 6942 1315 01        		.byte	0x1
 6943 1316 4E        		.byte	0x4e
 6944 1317 36        		.uleb128 0x36
 6945 1318 BC0E 0000 		.long	0xebc
 6946 131c 0000 0000 		.long	.LLST21
 6947 1320 37        		.uleb128 0x37
 6948 1321 0000 0000 		.long	.LBB92
 6949 1325 0000 0000 		.long	.LBE92
 6950 1329 38        		.uleb128 0x38
 6951 132a C70E 0000 		.long	0xec7
 6952 132e 0000 0000 		.long	.LLST22
 6953 1332 38        		.uleb128 0x38
 6954 1333 D30E 0000 		.long	0xed3
 6955 1337 0000 0000 		.long	.LLST23
 6956 133b 00        		.byte	0
 6957 133c 00        		.byte	0
 6958 133d 00        		.byte	0
 6959 133e 2D        		.uleb128 0x2d
 6960 133f 01        		.byte	0x1
 6961 1340 0000 0000 		.long	.LASF292
 6962 1344 01        		.byte	0x1
 6963 1345 52        		.byte	0x52
 6964 1346 01        		.byte	0x1
 6965 1347 3000 0000 		.long	0x30
 6966 134b 0000 0000 		.long	.LFB27
 6967 134f 0000 0000 		.long	.LFE27
 6968 1353 03        		.byte	0x3
 6969 1354 92        		.byte	0x92
 6970 1355 20        		.uleb128 0x20
 6971 1356 02        		.sleb128 2
 6972 1357 01        		.byte	0x1
 6973 1358 7713 0000 		.long	0x1377
 6974 135c 24        		.uleb128 0x24
 6975 135d 6100      		.string	"a"
 6976 135f 01        		.byte	0x1
 6977 1360 52        		.byte	0x52
 6978 1361 7713 0000 		.long	0x1377
 6979 1365 0000 0000 		.long	.LLST24
 6980 1369 24        		.uleb128 0x24
 6981 136a 6200      		.string	"b"
 6982 136c 01        		.byte	0x1
 6983 136d 52        		.byte	0x52
 6984 136e 7713 0000 		.long	0x1377
 6985 1372 0000 0000 		.long	.LLST25
 6986 1376 00        		.byte	0
 6987 1377 0A        		.uleb128 0xa
 6988 1378 02        		.byte	0x2
 6989 1379 3000 0000 		.long	0x30
 6990 137d 39        		.uleb128 0x39
 6991 137e 2E0F 0000 		.long	0xf2e
 6992 1382 0000 0000 		.long	.LFB28
 6993 1386 0000 0000 		.long	.LFE28
 6994 138a 03        		.byte	0x3
 6995 138b 92        		.byte	0x92
GAS LISTING /tmp/ccjciOO6.s 			page 151


 6996 138c 20        		.uleb128 0x20
 6997 138d 02        		.sleb128 2
 6998 138e 01        		.byte	0x1
 6999 138f 9D13 0000 		.long	0x139d
 7000 1393 36        		.uleb128 0x36
 7001 1394 400F 0000 		.long	0xf40
 7002 1398 0000 0000 		.long	.LLST26
 7003 139c 00        		.byte	0
 7004 139d 3A        		.uleb128 0x3a
 7005 139e 01        		.byte	0x1
 7006 139f 0000 0000 		.long	.LASF294
 7007 13a3 01        		.byte	0x1
 7008 13a4 61        		.byte	0x61
 7009 13a5 01        		.byte	0x1
 7010 13a6 0000 0000 		.long	.LFB29
 7011 13aa 0000 0000 		.long	.LFE29
 7012 13ae 03        		.byte	0x3
 7013 13af 92        		.byte	0x92
 7014 13b0 20        		.uleb128 0x20
 7015 13b1 02        		.sleb128 2
 7016 13b2 01        		.byte	0x1
 7017 13b3 3B        		.uleb128 0x3b
 7018 13b4 F20E 0000 		.long	0xef2
 7019 13b8 0000 0000 		.long	.LFB30
 7020 13bc 0000 0000 		.long	.LFE30
 7021 13c0 03        		.byte	0x3
 7022 13c1 92        		.byte	0x92
 7023 13c2 20        		.uleb128 0x20
 7024 13c3 02        		.sleb128 2
 7025 13c4 01        		.byte	0x1
 7026 13c5 28        		.uleb128 0x28
 7027 13c6 01        		.byte	0x1
 7028 13c7 0000 0000 		.long	.LASF295
 7029 13cb 01        		.byte	0x1
 7030 13cc 70        		.byte	0x70
 7031 13cd 01        		.byte	0x1
 7032 13ce 0000 0000 		.long	.LFB31
 7033 13d2 0000 0000 		.long	.LFE31
 7034 13d6 0000 0000 		.long	.LLST27
 7035 13da 01        		.byte	0x1
 7036 13db 1F14 0000 		.long	0x141f
 7037 13df 25        		.uleb128 0x25
 7038 13e0 0000 0000 		.long	.LASF296
 7039 13e4 01        		.byte	0x1
 7040 13e5 70        		.byte	0x70
 7041 13e6 3000 0000 		.long	0x30
 7042 13ea 0000 0000 		.long	.LLST28
 7043 13ee 3C        		.uleb128 0x3c
 7044 13ef 0000 0000 		.long	.LVL47
 7045 13f3 E012 0000 		.long	0x12e0
 7046 13f7 0714 0000 		.long	0x1407
 7047 13fb 27        		.uleb128 0x27
 7048 13fc 06        		.byte	0x6
 7049 13fd 68        		.byte	0x68
 7050 13fe 93        		.byte	0x93
 7051 13ff 01        		.uleb128 0x1
 7052 1400 69        		.byte	0x69
GAS LISTING /tmp/ccjciOO6.s 			page 152


 7053 1401 93        		.byte	0x93
 7054 1402 01        		.uleb128 0x1
 7055 1403 02        		.byte	0x2
 7056 1404 8C        		.byte	0x8c
 7057 1405 00        		.sleb128 0
 7058 1406 00        		.byte	0
 7059 1407 2E        		.uleb128 0x2e
 7060 1408 0000 0000 		.long	.LVL49
 7061 140c 01        		.byte	0x1
 7062 140d E012 0000 		.long	0x12e0
 7063 1411 27        		.uleb128 0x27
 7064 1412 06        		.byte	0x6
 7065 1413 68        		.byte	0x68
 7066 1414 93        		.byte	0x93
 7067 1415 01        		.uleb128 0x1
 7068 1416 69        		.byte	0x69
 7069 1417 93        		.byte	0x93
 7070 1418 01        		.uleb128 0x1
 7071 1419 03        		.byte	0x3
 7072 141a F3        		.byte	0xf3
 7073 141b 01        		.uleb128 0x1
 7074 141c 68        		.byte	0x68
 7075 141d 00        		.byte	0
 7076 141e 00        		.byte	0
 7077 141f 28        		.uleb128 0x28
 7078 1420 01        		.byte	0x1
 7079 1421 0000 0000 		.long	.LASF297
 7080 1425 01        		.byte	0x1
 7081 1426 77        		.byte	0x77
 7082 1427 01        		.byte	0x1
 7083 1428 0000 0000 		.long	.LFB32
 7084 142c 0000 0000 		.long	.LFE32
 7085 1430 0000 0000 		.long	.LLST29
 7086 1434 01        		.byte	0x1
 7087 1435 6914 0000 		.long	0x1469
 7088 1439 24        		.uleb128 0x24
 7089 143a 6E00      		.string	"n"
 7090 143c 01        		.byte	0x1
 7091 143d 77        		.byte	0x77
 7092 143e 3000 0000 		.long	0x30
 7093 1442 0000 0000 		.long	.LLST30
 7094 1446 3D        		.uleb128 0x3d
 7095 1447 6900      		.string	"i"
 7096 1449 01        		.byte	0x1
 7097 144a 78        		.byte	0x78
 7098 144b 3000 0000 		.long	0x30
 7099 144f 0000 0000 		.long	.LLST31
 7100 1453 26        		.uleb128 0x26
 7101 1454 0000 0000 		.long	.LVL53
 7102 1458 C513 0000 		.long	0x13c5
 7103 145c 27        		.uleb128 0x27
 7104 145d 06        		.byte	0x6
 7105 145e 68        		.byte	0x68
 7106 145f 93        		.byte	0x93
 7107 1460 01        		.uleb128 0x1
 7108 1461 69        		.byte	0x69
 7109 1462 93        		.byte	0x93
GAS LISTING /tmp/ccjciOO6.s 			page 153


 7110 1463 01        		.uleb128 0x1
 7111 1464 02        		.byte	0x2
 7112 1465 08        		.byte	0x8
 7113 1466 32        		.byte	0x32
 7114 1467 00        		.byte	0
 7115 1468 00        		.byte	0
 7116 1469 2C        		.uleb128 0x2c
 7117 146a 01        		.byte	0x1
 7118 146b 0000 0000 		.long	.LASF298
 7119 146f 01        		.byte	0x1
 7120 1470 80        		.byte	0x80
 7121 1471 01        		.byte	0x1
 7122 1472 0000 0000 		.long	.LFB33
 7123 1476 0000 0000 		.long	.LFE33
 7124 147a 03        		.byte	0x3
 7125 147b 92        		.byte	0x92
 7126 147c 20        		.uleb128 0x20
 7127 147d 02        		.sleb128 2
 7128 147e 01        		.byte	0x1
 7129 147f A514 0000 		.long	0x14a5
 7130 1483 25        		.uleb128 0x25
 7131 1484 0000 0000 		.long	.LASF299
 7132 1488 01        		.byte	0x1
 7133 1489 80        		.byte	0x80
 7134 148a 1101 0000 		.long	0x111
 7135 148e 0000 0000 		.long	.LLST32
 7136 1492 29        		.uleb128 0x29
 7137 1493 0000 0000 		.long	.LASF300
 7138 1497 01        		.byte	0x1
 7139 1498 80        		.byte	0x80
 7140 1499 3000 0000 		.long	0x30
 7141 149d 06        		.byte	0x6
 7142 149e 66        		.byte	0x66
 7143 149f 93        		.byte	0x93
 7144 14a0 01        		.uleb128 0x1
 7145 14a1 67        		.byte	0x67
 7146 14a2 93        		.byte	0x93
 7147 14a3 01        		.uleb128 0x1
 7148 14a4 00        		.byte	0
 7149 14a5 2C        		.uleb128 0x2c
 7150 14a6 01        		.byte	0x1
 7151 14a7 0000 0000 		.long	.LASF301
 7152 14ab 01        		.byte	0x1
 7153 14ac B7        		.byte	0xb7
 7154 14ad 01        		.byte	0x1
 7155 14ae 0000 0000 		.long	.LFB34
 7156 14b2 0000 0000 		.long	.LFE34
 7157 14b6 03        		.byte	0x3
 7158 14b7 92        		.byte	0x92
 7159 14b8 20        		.uleb128 0x20
 7160 14b9 02        		.sleb128 2
 7161 14ba 01        		.byte	0x1
 7162 14bb E114 0000 		.long	0x14e1
 7163 14bf 25        		.uleb128 0x25
 7164 14c0 0000 0000 		.long	.LASF299
 7165 14c4 01        		.byte	0x1
 7166 14c5 B7        		.byte	0xb7
GAS LISTING /tmp/ccjciOO6.s 			page 154


 7167 14c6 1101 0000 		.long	0x111
 7168 14ca 0000 0000 		.long	.LLST33
 7169 14ce 29        		.uleb128 0x29
 7170 14cf 0000 0000 		.long	.LASF300
 7171 14d3 01        		.byte	0x1
 7172 14d4 B7        		.byte	0xb7
 7173 14d5 3000 0000 		.long	0x30
 7174 14d9 06        		.byte	0x6
 7175 14da 66        		.byte	0x66
 7176 14db 93        		.byte	0x93
 7177 14dc 01        		.uleb128 0x1
 7178 14dd 67        		.byte	0x67
 7179 14de 93        		.byte	0x93
 7180 14df 01        		.uleb128 0x1
 7181 14e0 00        		.byte	0
 7182 14e1 3E        		.uleb128 0x3e
 7183 14e2 000F 0000 		.long	0xf00
 7184 14e6 0000 0000 		.long	.LFB35
 7185 14ea 0000 0000 		.long	.LFE35
 7186 14ee 0000 0000 		.long	.LLST34
 7187 14f2 01        		.byte	0x1
 7188 14f3 1615 0000 		.long	0x1516
 7189 14f7 3F        		.uleb128 0x3f
 7190 14f8 0F0F 0000 		.long	0xf0f
 7191 14fc 06        		.byte	0x6
 7192 14fd 68        		.byte	0x68
 7193 14fe 93        		.byte	0x93
 7194 14ff 01        		.uleb128 0x1
 7195 1500 69        		.byte	0x69
 7196 1501 93        		.byte	0x93
 7197 1502 01        		.uleb128 0x1
 7198 1503 3F        		.uleb128 0x3f
 7199 1504 1B0F 0000 		.long	0xf1b
 7200 1508 0C        		.byte	0xc
 7201 1509 64        		.byte	0x64
 7202 150a 93        		.byte	0x93
 7203 150b 01        		.uleb128 0x1
 7204 150c 65        		.byte	0x65
 7205 150d 93        		.byte	0x93
 7206 150e 01        		.uleb128 0x1
 7207 150f 66        		.byte	0x66
 7208 1510 93        		.byte	0x93
 7209 1511 01        		.uleb128 0x1
 7210 1512 67        		.byte	0x67
 7211 1513 93        		.byte	0x93
 7212 1514 01        		.uleb128 0x1
 7213 1515 00        		.byte	0
 7214 1516 40        		.uleb128 0x40
 7215 1517 01        		.byte	0x1
 7216 1518 0000 0000 		.long	.LASF302
 7217 151c 01        		.byte	0x1
 7218 151d 8C01      		.word	0x18c
 7219 151f 01        		.byte	0x1
 7220 1520 0000 0000 		.long	.LFB36
 7221 1524 0000 0000 		.long	.LFE36
 7222 1528 0000 0000 		.long	.LLST35
 7223 152c 01        		.byte	0x1
GAS LISTING /tmp/ccjciOO6.s 			page 155


 7224 152d 8216 0000 		.long	0x1682
 7225 1531 31        		.uleb128 0x31
 7226 1532 0000 0000 		.long	.LASF250
 7227 1536 01        		.byte	0x1
 7228 1537 8C01      		.word	0x18c
 7229 1539 A30D 0000 		.long	0xda3
 7230 153d 0000 0000 		.long	.LLST36
 7231 1541 31        		.uleb128 0x31
 7232 1542 0000 0000 		.long	.LASF303
 7233 1546 01        		.byte	0x1
 7234 1547 8C01      		.word	0x18c
 7235 1549 3000 0000 		.long	0x30
 7236 154d 0000 0000 		.long	.LLST37
 7237 1551 3C        		.uleb128 0x3c
 7238 1552 0000 0000 		.long	.LVL160
 7239 1556 A514 0000 		.long	0x14a5
 7240 155a 7415 0000 		.long	0x1574
 7241 155e 27        		.uleb128 0x27
 7242 155f 01        		.byte	0x1
 7243 1560 68        		.byte	0x68
 7244 1561 04        		.byte	0x4
 7245 1562 91        		.byte	0x91
 7246 1563 15        		.sleb128 21
 7247 1564 94        		.byte	0x94
 7248 1565 01        		.byte	0x1
 7249 1566 27        		.uleb128 0x27
 7250 1567 06        		.byte	0x6
 7251 1568 66        		.byte	0x66
 7252 1569 93        		.byte	0x93
 7253 156a 01        		.uleb128 0x1
 7254 156b 67        		.byte	0x67
 7255 156c 93        		.byte	0x93
 7256 156d 01        		.uleb128 0x1
 7257 156e 04        		.byte	0x4
 7258 156f 91        		.byte	0x91
 7259 1570 16        		.sleb128 22
 7260 1571 94        		.byte	0x94
 7261 1572 02        		.byte	0x2
 7262 1573 00        		.byte	0
 7263 1574 41        		.uleb128 0x41
 7264 1575 0000 0000 		.long	.LVL162
 7265 1579 A514 0000 		.long	0x14a5
 7266 157d 41        		.uleb128 0x41
 7267 157e 0000 0000 		.long	.LVL164
 7268 1582 6914 0000 		.long	0x1469
 7269 1586 41        		.uleb128 0x41
 7270 1587 0000 0000 		.long	.LVL166
 7271 158b 6914 0000 		.long	0x1469
 7272 158f 41        		.uleb128 0x41
 7273 1590 0000 0000 		.long	.LVL168
 7274 1594 6914 0000 		.long	0x1469
 7275 1598 3C        		.uleb128 0x3c
 7276 1599 0000 0000 		.long	.LVL169
 7277 159d A514 0000 		.long	0x14a5
 7278 15a1 B715 0000 		.long	0x15b7
 7279 15a5 27        		.uleb128 0x27
 7280 15a6 01        		.byte	0x1
GAS LISTING /tmp/ccjciOO6.s 			page 156


 7281 15a7 68        		.byte	0x68
 7282 15a8 02        		.byte	0x2
 7283 15a9 81        		.byte	0x81
 7284 15aa 00        		.sleb128 0
 7285 15ab 27        		.uleb128 0x27
 7286 15ac 06        		.byte	0x6
 7287 15ad 66        		.byte	0x66
 7288 15ae 93        		.byte	0x93
 7289 15af 01        		.uleb128 0x1
 7290 15b0 67        		.byte	0x67
 7291 15b1 93        		.byte	0x93
 7292 15b2 01        		.uleb128 0x1
 7293 15b3 02        		.byte	0x2
 7294 15b4 7E        		.byte	0x7e
 7295 15b5 00        		.sleb128 0
 7296 15b6 00        		.byte	0
 7297 15b7 41        		.uleb128 0x41
 7298 15b8 0000 0000 		.long	.LVL171
 7299 15bc 6914 0000 		.long	0x1469
 7300 15c0 3C        		.uleb128 0x3c
 7301 15c1 0000 0000 		.long	.LVL172
 7302 15c5 A514 0000 		.long	0x14a5
 7303 15c9 DF15 0000 		.long	0x15df
 7304 15cd 27        		.uleb128 0x27
 7305 15ce 01        		.byte	0x1
 7306 15cf 68        		.byte	0x68
 7307 15d0 02        		.byte	0x2
 7308 15d1 81        		.byte	0x81
 7309 15d2 00        		.sleb128 0
 7310 15d3 27        		.uleb128 0x27
 7311 15d4 06        		.byte	0x6
 7312 15d5 66        		.byte	0x66
 7313 15d6 93        		.byte	0x93
 7314 15d7 01        		.uleb128 0x1
 7315 15d8 67        		.byte	0x67
 7316 15d9 93        		.byte	0x93
 7317 15da 01        		.uleb128 0x1
 7318 15db 02        		.byte	0x2
 7319 15dc 7E        		.byte	0x7e
 7320 15dd 00        		.sleb128 0
 7321 15de 00        		.byte	0
 7322 15df 41        		.uleb128 0x41
 7323 15e0 0000 0000 		.long	.LVL174
 7324 15e4 A514 0000 		.long	0x14a5
 7325 15e8 3C        		.uleb128 0x3c
 7326 15e9 0000 0000 		.long	.LVL175
 7327 15ed 6914 0000 		.long	0x1469
 7328 15f1 0716 0000 		.long	0x1607
 7329 15f5 27        		.uleb128 0x27
 7330 15f6 01        		.byte	0x1
 7331 15f7 68        		.byte	0x68
 7332 15f8 02        		.byte	0x2
 7333 15f9 81        		.byte	0x81
 7334 15fa 00        		.sleb128 0
 7335 15fb 27        		.uleb128 0x27
 7336 15fc 06        		.byte	0x6
 7337 15fd 66        		.byte	0x66
GAS LISTING /tmp/ccjciOO6.s 			page 157


 7338 15fe 93        		.byte	0x93
 7339 15ff 01        		.uleb128 0x1
 7340 1600 67        		.byte	0x67
 7341 1601 93        		.byte	0x93
 7342 1602 01        		.uleb128 0x1
 7343 1603 02        		.byte	0x2
 7344 1604 7E        		.byte	0x7e
 7345 1605 00        		.sleb128 0
 7346 1606 00        		.byte	0
 7347 1607 3C        		.uleb128 0x3c
 7348 1608 0000 0000 		.long	.LVL176
 7349 160c 6914 0000 		.long	0x1469
 7350 1610 2616 0000 		.long	0x1626
 7351 1614 27        		.uleb128 0x27
 7352 1615 01        		.byte	0x1
 7353 1616 68        		.byte	0x68
 7354 1617 02        		.byte	0x2
 7355 1618 79        		.byte	0x79
 7356 1619 00        		.sleb128 0
 7357 161a 27        		.uleb128 0x27
 7358 161b 06        		.byte	0x6
 7359 161c 66        		.byte	0x66
 7360 161d 93        		.byte	0x93
 7361 161e 01        		.uleb128 0x1
 7362 161f 67        		.byte	0x67
 7363 1620 93        		.byte	0x93
 7364 1621 01        		.uleb128 0x1
 7365 1622 02        		.byte	0x2
 7366 1623 7A        		.byte	0x7a
 7367 1624 00        		.sleb128 0
 7368 1625 00        		.byte	0
 7369 1626 42        		.uleb128 0x42
 7370 1627 0000 0000 		.long	.LVL179
 7371 162b 01        		.byte	0x1
 7372 162c A514 0000 		.long	0x14a5
 7373 1630 41        		.uleb128 0x41
 7374 1631 0000 0000 		.long	.LVL180
 7375 1635 A514 0000 		.long	0x14a5
 7376 1639 3C        		.uleb128 0x3c
 7377 163a 0000 0000 		.long	.LVL181
 7378 163e 6914 0000 		.long	0x1469
 7379 1642 5816 0000 		.long	0x1658
 7380 1646 27        		.uleb128 0x27
 7381 1647 01        		.byte	0x1
 7382 1648 68        		.byte	0x68
 7383 1649 02        		.byte	0x2
 7384 164a 81        		.byte	0x81
 7385 164b 00        		.sleb128 0
 7386 164c 27        		.uleb128 0x27
 7387 164d 06        		.byte	0x6
 7388 164e 66        		.byte	0x66
 7389 164f 93        		.byte	0x93
 7390 1650 01        		.uleb128 0x1
 7391 1651 67        		.byte	0x67
 7392 1652 93        		.byte	0x93
 7393 1653 01        		.uleb128 0x1
 7394 1654 02        		.byte	0x2
GAS LISTING /tmp/ccjciOO6.s 			page 158


 7395 1655 7E        		.byte	0x7e
 7396 1656 00        		.sleb128 0
 7397 1657 00        		.byte	0
 7398 1658 3C        		.uleb128 0x3c
 7399 1659 0000 0000 		.long	.LVL182
 7400 165d A514 0000 		.long	0x14a5
 7401 1661 7716 0000 		.long	0x1677
 7402 1665 27        		.uleb128 0x27
 7403 1666 01        		.byte	0x1
 7404 1667 68        		.byte	0x68
 7405 1668 02        		.byte	0x2
 7406 1669 79        		.byte	0x79
 7407 166a 00        		.sleb128 0
 7408 166b 27        		.uleb128 0x27
 7409 166c 06        		.byte	0x6
 7410 166d 66        		.byte	0x66
 7411 166e 93        		.byte	0x93
 7412 166f 01        		.uleb128 0x1
 7413 1670 67        		.byte	0x67
 7414 1671 93        		.byte	0x93
 7415 1672 01        		.uleb128 0x1
 7416 1673 02        		.byte	0x2
 7417 1674 7A        		.byte	0x7a
 7418 1675 00        		.sleb128 0
 7419 1676 00        		.byte	0
 7420 1677 42        		.uleb128 0x42
 7421 1678 0000 0000 		.long	.LVL185
 7422 167c 01        		.byte	0x1
 7423 167d 6914 0000 		.long	0x1469
 7424 1681 00        		.byte	0
 7425 1682 43        		.uleb128 0x43
 7426 1683 01        		.byte	0x1
 7427 1684 0000 0000 		.long	.LASF304
 7428 1688 01        		.byte	0x1
 7429 1689 C001      		.word	0x1c0
 7430 168b 01        		.byte	0x1
 7431 168c 0000 0000 		.long	.LFB37
 7432 1690 0000 0000 		.long	.LFE37
 7433 1694 0000 0000 		.long	.LLST38
 7434 1698 01        		.byte	0x1
 7435 1699 F016 0000 		.long	0x16f0
 7436 169d 32        		.uleb128 0x32
 7437 169e 0000 0000 		.long	.LASF250
 7438 16a2 01        		.byte	0x1
 7439 16a3 C001      		.word	0x1c0
 7440 16a5 280F 0000 		.long	0xf28
 7441 16a9 06        		.byte	0x6
 7442 16aa 6C        		.byte	0x6c
 7443 16ab 93        		.byte	0x93
 7444 16ac 01        		.uleb128 0x1
 7445 16ad 6D        		.byte	0x6d
 7446 16ae 93        		.byte	0x93
 7447 16af 01        		.uleb128 0x1
 7448 16b0 32        		.uleb128 0x32
 7449 16b1 0000 0000 		.long	.LASF305
 7450 16b5 01        		.byte	0x1
 7451 16b6 C001      		.word	0x1c0
GAS LISTING /tmp/ccjciOO6.s 			page 159


 7452 16b8 3000 0000 		.long	0x30
 7453 16bc 06        		.byte	0x6
 7454 16bd 60        		.byte	0x60
 7455 16be 93        		.byte	0x93
 7456 16bf 01        		.uleb128 0x1
 7457 16c0 61        		.byte	0x61
 7458 16c1 93        		.byte	0x93
 7459 16c2 01        		.uleb128 0x1
 7460 16c3 1C        		.uleb128 0x1c
 7461 16c4 0000 0000 		.long	.LASF306
 7462 16c8 01        		.byte	0x1
 7463 16c9 C101      		.word	0x1c1
 7464 16cb 3000 0000 		.long	0x30
 7465 16cf 44        		.uleb128 0x44
 7466 16d0 F20E 0000 		.long	0xef2
 7467 16d4 0000 0000 		.long	.LBB93
 7468 16d8 0000 0000 		.long	.LBE93
 7469 16dc 01        		.byte	0x1
 7470 16dd CD01      		.word	0x1cd
 7471 16df 44        		.uleb128 0x44
 7472 16e0 F20E 0000 		.long	0xef2
 7473 16e4 0000 0000 		.long	.LBB95
 7474 16e8 0000 0000 		.long	.LBE95
 7475 16ec 01        		.byte	0x1
 7476 16ed CF01      		.word	0x1cf
 7477 16ef 00        		.byte	0
 7478 16f0 43        		.uleb128 0x43
 7479 16f1 01        		.byte	0x1
 7480 16f2 0000 0000 		.long	.LASF307
 7481 16f6 01        		.byte	0x1
 7482 16f7 0002      		.word	0x200
 7483 16f9 01        		.byte	0x1
 7484 16fa 0000 0000 		.long	.LFB38
 7485 16fe 0000 0000 		.long	.LFE38
 7486 1702 0000 0000 		.long	.LLST39
 7487 1706 01        		.byte	0x1
 7488 1707 3217 0000 		.long	0x1732
 7489 170b 32        		.uleb128 0x32
 7490 170c 0000 0000 		.long	.LASF250
 7491 1710 01        		.byte	0x1
 7492 1711 0002      		.word	0x200
 7493 1713 280F 0000 		.long	0xf28
 7494 1717 06        		.byte	0x6
 7495 1718 6C        		.byte	0x6c
 7496 1719 93        		.byte	0x93
 7497 171a 01        		.uleb128 0x1
 7498 171b 6D        		.byte	0x6d
 7499 171c 93        		.byte	0x93
 7500 171d 01        		.uleb128 0x1
 7501 171e 32        		.uleb128 0x32
 7502 171f 0000 0000 		.long	.LASF308
 7503 1723 01        		.byte	0x1
 7504 1724 0002      		.word	0x200
 7505 1726 3000 0000 		.long	0x30
 7506 172a 06        		.byte	0x6
 7507 172b 66        		.byte	0x66
 7508 172c 93        		.byte	0x93
GAS LISTING /tmp/ccjciOO6.s 			page 160


 7509 172d 01        		.uleb128 0x1
 7510 172e 67        		.byte	0x67
 7511 172f 93        		.byte	0x93
 7512 1730 01        		.uleb128 0x1
 7513 1731 00        		.byte	0
 7514 1732 3E        		.uleb128 0x3e
 7515 1733 4A0F 0000 		.long	0xf4a
 7516 1737 0000 0000 		.long	.LFB39
 7517 173b 0000 0000 		.long	.LFE39
 7518 173f 0000 0000 		.long	.LLST40
 7519 1743 01        		.byte	0x1
 7520 1744 8B17 0000 		.long	0x178b
 7521 1748 3F        		.uleb128 0x3f
 7522 1749 590F 0000 		.long	0xf59
 7523 174d 06        		.byte	0x6
 7524 174e 68        		.byte	0x68
 7525 174f 93        		.byte	0x93
 7526 1750 01        		.uleb128 0x1
 7527 1751 69        		.byte	0x69
 7528 1752 93        		.byte	0x93
 7529 1753 01        		.uleb128 0x1
 7530 1754 3F        		.uleb128 0x3f
 7531 1755 650F 0000 		.long	0xf65
 7532 1759 06        		.byte	0x6
 7533 175a 66        		.byte	0x66
 7534 175b 93        		.byte	0x93
 7535 175c 01        		.uleb128 0x1
 7536 175d 67        		.byte	0x67
 7537 175e 93        		.byte	0x93
 7538 175f 01        		.uleb128 0x1
 7539 1760 3F        		.uleb128 0x3f
 7540 1761 710F 0000 		.long	0xf71
 7541 1765 06        		.byte	0x6
 7542 1766 64        		.byte	0x64
 7543 1767 93        		.byte	0x93
 7544 1768 01        		.uleb128 0x1
 7545 1769 65        		.byte	0x65
 7546 176a 93        		.byte	0x93
 7547 176b 01        		.uleb128 0x1
 7548 176c 3F        		.uleb128 0x3f
 7549 176d 7D0F 0000 		.long	0xf7d
 7550 1771 06        		.byte	0x6
 7551 1772 62        		.byte	0x62
 7552 1773 93        		.byte	0x93
 7553 1774 01        		.uleb128 0x1
 7554 1775 63        		.byte	0x63
 7555 1776 93        		.byte	0x93
 7556 1777 01        		.uleb128 0x1
 7557 1778 36        		.uleb128 0x36
 7558 1779 890F 0000 		.long	0xf89
 7559 177d 0000 0000 		.long	.LLST41
 7560 1781 36        		.uleb128 0x36
 7561 1782 950F 0000 		.long	0xf95
 7562 1786 0000 0000 		.long	.LLST42
 7563 178a 00        		.byte	0
 7564 178b 43        		.uleb128 0x43
 7565 178c 01        		.byte	0x1
GAS LISTING /tmp/ccjciOO6.s 			page 161


 7566 178d 0000 0000 		.long	.LASF309
 7567 1791 01        		.byte	0x1
 7568 1792 4A02      		.word	0x24a
 7569 1794 01        		.byte	0x1
 7570 1795 0000 0000 		.long	.LFB40
 7571 1799 0000 0000 		.long	.LFE40
 7572 179d 0000 0000 		.long	.LLST43
 7573 17a1 01        		.byte	0x1
 7574 17a2 BF1A 0000 		.long	0x1abf
 7575 17a6 45        		.uleb128 0x45
 7576 17a7 0000 0000 		.long	.LASF310
 7577 17ab 01        		.byte	0x1
 7578 17ac 4C02      		.word	0x24c
 7579 17ae BF1A 0000 		.long	0x1abf
 7580 17b2 02        		.byte	0x2
 7581 17b3 8C        		.byte	0x8c
 7582 17b4 01        		.sleb128 1
 7583 17b5 46        		.uleb128 0x46
 7584 17b6 0000 0000 		.long	.LASF311
 7585 17ba 01        		.byte	0x1
 7586 17bb 5602      		.word	0x256
 7587 17bd 3000 0000 		.long	0x30
 7588 17c1 0000 0000 		.long	.LLST44
 7589 17c5 47        		.uleb128 0x47
 7590 17c6 6900      		.string	"i"
 7591 17c8 01        		.byte	0x1
 7592 17c9 5702      		.word	0x257
 7593 17cb 3000 0000 		.long	0x30
 7594 17cf 0000 0000 		.long	.LLST45
 7595 17d3 48        		.uleb128 0x48
 7596 17d4 000F 0000 		.long	0xf00
 7597 17d8 0000 0000 		.long	.LBB97
 7598 17dc 0000 0000 		.long	.LBE97
 7599 17e0 01        		.byte	0x1
 7600 17e1 6002      		.word	0x260
 7601 17e3 F617 0000 		.long	0x17f6
 7602 17e7 36        		.uleb128 0x36
 7603 17e8 1B0F 0000 		.long	0xf1b
 7604 17ec 0000 0000 		.long	.LLST46
 7605 17f0 49        		.uleb128 0x49
 7606 17f1 0F0F 0000 		.long	0xf0f
 7607 17f5 00        		.byte	0
 7608 17f6 48        		.uleb128 0x48
 7609 17f7 000F 0000 		.long	0xf00
 7610 17fb 0000 0000 		.long	.LBB99
 7611 17ff 0000 0000 		.long	.LBE99
 7612 1803 01        		.byte	0x1
 7613 1804 6102      		.word	0x261
 7614 1806 1918 0000 		.long	0x1819
 7615 180a 36        		.uleb128 0x36
 7616 180b 1B0F 0000 		.long	0xf1b
 7617 180f 0000 0000 		.long	.LLST47
 7618 1813 49        		.uleb128 0x49
 7619 1814 0F0F 0000 		.long	0xf0f
 7620 1818 00        		.byte	0
 7621 1819 48        		.uleb128 0x48
 7622 181a 000F 0000 		.long	0xf00
GAS LISTING /tmp/ccjciOO6.s 			page 162


 7623 181e 0000 0000 		.long	.LBB101
 7624 1822 0000 0000 		.long	.LBE101
 7625 1826 01        		.byte	0x1
 7626 1827 6202      		.word	0x262
 7627 1829 3C18 0000 		.long	0x183c
 7628 182d 36        		.uleb128 0x36
 7629 182e 1B0F 0000 		.long	0xf1b
 7630 1832 0000 0000 		.long	.LLST48
 7631 1836 49        		.uleb128 0x49
 7632 1837 0F0F 0000 		.long	0xf0f
 7633 183b 00        		.byte	0
 7634 183c 48        		.uleb128 0x48
 7635 183d 000F 0000 		.long	0xf00
 7636 1841 0000 0000 		.long	.LBB103
 7637 1845 0000 0000 		.long	.LBE103
 7638 1849 01        		.byte	0x1
 7639 184a 6302      		.word	0x263
 7640 184c 5F18 0000 		.long	0x185f
 7641 1850 36        		.uleb128 0x36
 7642 1851 1B0F 0000 		.long	0xf1b
 7643 1855 0000 0000 		.long	.LLST49
 7644 1859 49        		.uleb128 0x49
 7645 185a 0F0F 0000 		.long	0xf0f
 7646 185e 00        		.byte	0
 7647 185f 48        		.uleb128 0x48
 7648 1860 000F 0000 		.long	0xf00
 7649 1864 0000 0000 		.long	.LBB105
 7650 1868 0000 0000 		.long	.LBE105
 7651 186c 01        		.byte	0x1
 7652 186d 6402      		.word	0x264
 7653 186f 8218 0000 		.long	0x1882
 7654 1873 36        		.uleb128 0x36
 7655 1874 1B0F 0000 		.long	0xf1b
 7656 1878 0000 0000 		.long	.LLST50
 7657 187c 49        		.uleb128 0x49
 7658 187d 0F0F 0000 		.long	0xf0f
 7659 1881 00        		.byte	0
 7660 1882 48        		.uleb128 0x48
 7661 1883 000F 0000 		.long	0xf00
 7662 1887 0000 0000 		.long	.LBB107
 7663 188b 0000 0000 		.long	.LBE107
 7664 188f 01        		.byte	0x1
 7665 1890 6502      		.word	0x265
 7666 1892 A518 0000 		.long	0x18a5
 7667 1896 36        		.uleb128 0x36
 7668 1897 1B0F 0000 		.long	0xf1b
 7669 189b 0000 0000 		.long	.LLST51
 7670 189f 49        		.uleb128 0x49
 7671 18a0 0F0F 0000 		.long	0xf0f
 7672 18a4 00        		.byte	0
 7673 18a5 44        		.uleb128 0x44
 7674 18a6 F20E 0000 		.long	0xef2
 7675 18aa 0000 0000 		.long	.LBB109
 7676 18ae 0000 0000 		.long	.LBE109
 7677 18b2 01        		.byte	0x1
 7678 18b3 6E02      		.word	0x26e
 7679 18b5 44        		.uleb128 0x44
GAS LISTING /tmp/ccjciOO6.s 			page 163


 7680 18b6 F20E 0000 		.long	0xef2
 7681 18ba 0000 0000 		.long	.LBB111
 7682 18be 0000 0000 		.long	.LBE111
 7683 18c2 01        		.byte	0x1
 7684 18c3 6F02      		.word	0x26f
 7685 18c5 48        		.uleb128 0x48
 7686 18c6 2E0F 0000 		.long	0xf2e
 7687 18ca 0000 0000 		.long	.LBB113
 7688 18ce 0000 0000 		.long	.LBE113
 7689 18d2 01        		.byte	0x1
 7690 18d3 7002      		.word	0x270
 7691 18d5 E318 0000 		.long	0x18e3
 7692 18d9 36        		.uleb128 0x36
 7693 18da 400F 0000 		.long	0xf40
 7694 18de 0000 0000 		.long	.LLST52
 7695 18e2 00        		.byte	0
 7696 18e3 44        		.uleb128 0x44
 7697 18e4 F20E 0000 		.long	0xef2
 7698 18e8 0000 0000 		.long	.LBB115
 7699 18ec 0000 0000 		.long	.LBE115
 7700 18f0 01        		.byte	0x1
 7701 18f1 7202      		.word	0x272
 7702 18f3 44        		.uleb128 0x44
 7703 18f4 F20E 0000 		.long	0xef2
 7704 18f8 0000 0000 		.long	.LBB117
 7705 18fc 0000 0000 		.long	.LBE117
 7706 1900 01        		.byte	0x1
 7707 1901 7302      		.word	0x273
 7708 1903 48        		.uleb128 0x48
 7709 1904 2E0F 0000 		.long	0xf2e
 7710 1908 0000 0000 		.long	.LBB119
 7711 190c 0000 0000 		.long	.LBE119
 7712 1910 01        		.byte	0x1
 7713 1911 7402      		.word	0x274
 7714 1913 2119 0000 		.long	0x1921
 7715 1917 36        		.uleb128 0x36
 7716 1918 400F 0000 		.long	0xf40
 7717 191c 0000 0000 		.long	.LLST53
 7718 1920 00        		.byte	0
 7719 1921 44        		.uleb128 0x44
 7720 1922 F20E 0000 		.long	0xef2
 7721 1926 0000 0000 		.long	.LBB121
 7722 192a 0000 0000 		.long	.LBE121
 7723 192e 01        		.byte	0x1
 7724 192f 7602      		.word	0x276
 7725 1931 44        		.uleb128 0x44
 7726 1932 F20E 0000 		.long	0xef2
 7727 1936 0000 0000 		.long	.LBB123
 7728 193a 0000 0000 		.long	.LBE123
 7729 193e 01        		.byte	0x1
 7730 193f 7702      		.word	0x277
 7731 1941 48        		.uleb128 0x48
 7732 1942 2E0F 0000 		.long	0xf2e
 7733 1946 0000 0000 		.long	.LBB125
 7734 194a 0000 0000 		.long	.LBE125
 7735 194e 01        		.byte	0x1
 7736 194f 7802      		.word	0x278
GAS LISTING /tmp/ccjciOO6.s 			page 164


 7737 1951 5F19 0000 		.long	0x195f
 7738 1955 36        		.uleb128 0x36
 7739 1956 400F 0000 		.long	0xf40
 7740 195a 0000 0000 		.long	.LLST54
 7741 195e 00        		.byte	0
 7742 195f 44        		.uleb128 0x44
 7743 1960 F20E 0000 		.long	0xef2
 7744 1964 0000 0000 		.long	.LBB127
 7745 1968 0000 0000 		.long	.LBE127
 7746 196c 01        		.byte	0x1
 7747 196d 7A02      		.word	0x27a
 7748 196f 44        		.uleb128 0x44
 7749 1970 F20E 0000 		.long	0xef2
 7750 1974 0000 0000 		.long	.LBB129
 7751 1978 0000 0000 		.long	.LBE129
 7752 197c 01        		.byte	0x1
 7753 197d 7B02      		.word	0x27b
 7754 197f 48        		.uleb128 0x48
 7755 1980 2E0F 0000 		.long	0xf2e
 7756 1984 0000 0000 		.long	.LBB131
 7757 1988 0000 0000 		.long	.LBE131
 7758 198c 01        		.byte	0x1
 7759 198d 7C02      		.word	0x27c
 7760 198f 9D19 0000 		.long	0x199d
 7761 1993 36        		.uleb128 0x36
 7762 1994 400F 0000 		.long	0xf40
 7763 1998 0000 0000 		.long	.LLST55
 7764 199c 00        		.byte	0
 7765 199d 44        		.uleb128 0x44
 7766 199e F20E 0000 		.long	0xef2
 7767 19a2 0000 0000 		.long	.LBB133
 7768 19a6 0000 0000 		.long	.LBE133
 7769 19aa 01        		.byte	0x1
 7770 19ab 7E02      		.word	0x27e
 7771 19ad 44        		.uleb128 0x44
 7772 19ae F20E 0000 		.long	0xef2
 7773 19b2 0000 0000 		.long	.LBB135
 7774 19b6 0000 0000 		.long	.LBE135
 7775 19ba 01        		.byte	0x1
 7776 19bb 7F02      		.word	0x27f
 7777 19bd 48        		.uleb128 0x48
 7778 19be 2E0F 0000 		.long	0xf2e
 7779 19c2 0000 0000 		.long	.LBB137
 7780 19c6 0000 0000 		.long	.LBE137
 7781 19ca 01        		.byte	0x1
 7782 19cb 8002      		.word	0x280
 7783 19cd DB19 0000 		.long	0x19db
 7784 19d1 36        		.uleb128 0x36
 7785 19d2 400F 0000 		.long	0xf40
 7786 19d6 0000 0000 		.long	.LLST56
 7787 19da 00        		.byte	0
 7788 19db 44        		.uleb128 0x44
 7789 19dc F20E 0000 		.long	0xef2
 7790 19e0 0000 0000 		.long	.LBB139
 7791 19e4 0000 0000 		.long	.LBE139
 7792 19e8 01        		.byte	0x1
 7793 19e9 8202      		.word	0x282
GAS LISTING /tmp/ccjciOO6.s 			page 165


 7794 19eb 44        		.uleb128 0x44
 7795 19ec F20E 0000 		.long	0xef2
 7796 19f0 0000 0000 		.long	.LBB141
 7797 19f4 0000 0000 		.long	.LBE141
 7798 19f8 01        		.byte	0x1
 7799 19f9 8302      		.word	0x283
 7800 19fb 48        		.uleb128 0x48
 7801 19fc 2E0F 0000 		.long	0xf2e
 7802 1a00 0000 0000 		.long	.LBB143
 7803 1a04 0000 0000 		.long	.LBE143
 7804 1a08 01        		.byte	0x1
 7805 1a09 8402      		.word	0x284
 7806 1a0b 191A 0000 		.long	0x1a19
 7807 1a0f 36        		.uleb128 0x36
 7808 1a10 400F 0000 		.long	0xf40
 7809 1a14 0000 0000 		.long	.LLST57
 7810 1a18 00        		.byte	0
 7811 1a19 3C        		.uleb128 0x3c
 7812 1a1a 0000 0000 		.long	.LVL230
 7813 1a1e F016 0000 		.long	0x16f0
 7814 1a22 351A 0000 		.long	0x1a35
 7815 1a26 27        		.uleb128 0x27
 7816 1a27 06        		.byte	0x6
 7817 1a28 68        		.byte	0x68
 7818 1a29 93        		.byte	0x93
 7819 1a2a 01        		.uleb128 0x1
 7820 1a2b 69        		.byte	0x69
 7821 1a2c 93        		.byte	0x93
 7822 1a2d 01        		.uleb128 0x1
 7823 1a2e 05        		.byte	0x5
 7824 1a2f 03        		.byte	0x3
 7825 1a30 0000 0000 		.long	Base
 7826 1a34 00        		.byte	0
 7827 1a35 3C        		.uleb128 0x3c
 7828 1a36 0000 0000 		.long	.LVL233
 7829 1a3a F016 0000 		.long	0x16f0
 7830 1a3e 511A 0000 		.long	0x1a51
 7831 1a42 27        		.uleb128 0x27
 7832 1a43 06        		.byte	0x6
 7833 1a44 68        		.byte	0x68
 7834 1a45 93        		.byte	0x93
 7835 1a46 01        		.uleb128 0x1
 7836 1a47 69        		.byte	0x69
 7837 1a48 93        		.byte	0x93
 7838 1a49 01        		.uleb128 0x1
 7839 1a4a 05        		.byte	0x5
 7840 1a4b 03        		.byte	0x3
 7841 1a4c 0000 0000 		.long	Shoulder
 7842 1a50 00        		.byte	0
 7843 1a51 3C        		.uleb128 0x3c
 7844 1a52 0000 0000 		.long	.LVL236
 7845 1a56 F016 0000 		.long	0x16f0
 7846 1a5a 6D1A 0000 		.long	0x1a6d
 7847 1a5e 27        		.uleb128 0x27
 7848 1a5f 06        		.byte	0x6
 7849 1a60 68        		.byte	0x68
 7850 1a61 93        		.byte	0x93
GAS LISTING /tmp/ccjciOO6.s 			page 166


 7851 1a62 01        		.uleb128 0x1
 7852 1a63 69        		.byte	0x69
 7853 1a64 93        		.byte	0x93
 7854 1a65 01        		.uleb128 0x1
 7855 1a66 05        		.byte	0x5
 7856 1a67 03        		.byte	0x3
 7857 1a68 0000 0000 		.long	Elbow
 7858 1a6c 00        		.byte	0
 7859 1a6d 3C        		.uleb128 0x3c
 7860 1a6e 0000 0000 		.long	.LVL239
 7861 1a72 F016 0000 		.long	0x16f0
 7862 1a76 891A 0000 		.long	0x1a89
 7863 1a7a 27        		.uleb128 0x27
 7864 1a7b 06        		.byte	0x6
 7865 1a7c 68        		.byte	0x68
 7866 1a7d 93        		.byte	0x93
 7867 1a7e 01        		.uleb128 0x1
 7868 1a7f 69        		.byte	0x69
 7869 1a80 93        		.byte	0x93
 7870 1a81 01        		.uleb128 0x1
 7871 1a82 05        		.byte	0x5
 7872 1a83 03        		.byte	0x3
 7873 1a84 0000 0000 		.long	Right_Wrist
 7874 1a88 00        		.byte	0
 7875 1a89 3C        		.uleb128 0x3c
 7876 1a8a 0000 0000 		.long	.LVL242
 7877 1a8e F016 0000 		.long	0x16f0
 7878 1a92 A51A 0000 		.long	0x1aa5
 7879 1a96 27        		.uleb128 0x27
 7880 1a97 06        		.byte	0x6
 7881 1a98 68        		.byte	0x68
 7882 1a99 93        		.byte	0x93
 7883 1a9a 01        		.uleb128 0x1
 7884 1a9b 69        		.byte	0x69
 7885 1a9c 93        		.byte	0x93
 7886 1a9d 01        		.uleb128 0x1
 7887 1a9e 05        		.byte	0x5
 7888 1a9f 03        		.byte	0x3
 7889 1aa0 0000 0000 		.long	Left_Wrist
 7890 1aa4 00        		.byte	0
 7891 1aa5 2E        		.uleb128 0x2e
 7892 1aa6 0000 0000 		.long	.LVL246
 7893 1aaa 01        		.byte	0x1
 7894 1aab F016 0000 		.long	0x16f0
 7895 1aaf 27        		.uleb128 0x27
 7896 1ab0 06        		.byte	0x6
 7897 1ab1 68        		.byte	0x68
 7898 1ab2 93        		.byte	0x93
 7899 1ab3 01        		.uleb128 0x1
 7900 1ab4 69        		.byte	0x69
 7901 1ab5 93        		.byte	0x93
 7902 1ab6 01        		.uleb128 0x1
 7903 1ab7 05        		.byte	0x5
 7904 1ab8 03        		.byte	0x3
 7905 1ab9 0000 0000 		.long	Gripper
 7906 1abd 00        		.byte	0
 7907 1abe 00        		.byte	0
GAS LISTING /tmp/ccjciOO6.s 			page 167


 7908 1abf 4A        		.uleb128 0x4a
 7909 1ac0 3000 0000 		.long	0x30
 7910 1ac4 CF1A 0000 		.long	0x1acf
 7911 1ac8 4B        		.uleb128 0x4b
 7912 1ac9 9C0D 0000 		.long	0xd9c
 7913 1acd 05        		.byte	0x5
 7914 1ace 00        		.byte	0
 7915 1acf 39        		.uleb128 0x39
 7916 1ad0 A20F 0000 		.long	0xfa2
 7917 1ad4 0000 0000 		.long	.LFB42
 7918 1ad8 0000 0000 		.long	.LFE42
 7919 1adc 03        		.byte	0x3
 7920 1add 92        		.byte	0x92
 7921 1ade 20        		.uleb128 0x20
 7922 1adf 02        		.sleb128 2
 7923 1ae0 01        		.byte	0x1
 7924 1ae1 C31B 0000 		.long	0x1bc3
 7925 1ae5 48        		.uleb128 0x48
 7926 1ae6 4A0F 0000 		.long	0xf4a
 7927 1aea 0000 0000 		.long	.LBB161
 7928 1aee 0000 0000 		.long	.LBE161
 7929 1af2 01        		.byte	0x1
 7930 1af3 F602      		.word	0x2f6
 7931 1af5 301B 0000 		.long	0x1b30
 7932 1af9 36        		.uleb128 0x36
 7933 1afa 950F 0000 		.long	0xf95
 7934 1afe 0000 0000 		.long	.LLST58
 7935 1b02 36        		.uleb128 0x36
 7936 1b03 890F 0000 		.long	0xf89
 7937 1b07 0000 0000 		.long	.LLST59
 7938 1b0b 36        		.uleb128 0x36
 7939 1b0c 7D0F 0000 		.long	0xf7d
 7940 1b10 0000 0000 		.long	.LLST59
 7941 1b14 36        		.uleb128 0x36
 7942 1b15 710F 0000 		.long	0xf71
 7943 1b19 0000 0000 		.long	.LLST59
 7944 1b1d 36        		.uleb128 0x36
 7945 1b1e 650F 0000 		.long	0xf65
 7946 1b22 0000 0000 		.long	.LLST59
 7947 1b26 36        		.uleb128 0x36
 7948 1b27 590F 0000 		.long	0xf59
 7949 1b2b 0000 0000 		.long	.LLST63
 7950 1b2f 00        		.byte	0
 7951 1b30 48        		.uleb128 0x48
 7952 1b31 4A0F 0000 		.long	0xf4a
 7953 1b35 0000 0000 		.long	.LBB163
 7954 1b39 0000 0000 		.long	.LBE163
 7955 1b3d 01        		.byte	0x1
 7956 1b3e F702      		.word	0x2f7
 7957 1b40 7B1B 0000 		.long	0x1b7b
 7958 1b44 36        		.uleb128 0x36
 7959 1b45 950F 0000 		.long	0xf95
 7960 1b49 0000 0000 		.long	.LLST64
 7961 1b4d 36        		.uleb128 0x36
 7962 1b4e 890F 0000 		.long	0xf89
 7963 1b52 0000 0000 		.long	.LLST65
 7964 1b56 36        		.uleb128 0x36
GAS LISTING /tmp/ccjciOO6.s 			page 168


 7965 1b57 7D0F 0000 		.long	0xf7d
 7966 1b5b 0000 0000 		.long	.LLST65
 7967 1b5f 36        		.uleb128 0x36
 7968 1b60 710F 0000 		.long	0xf71
 7969 1b64 0000 0000 		.long	.LLST65
 7970 1b68 36        		.uleb128 0x36
 7971 1b69 650F 0000 		.long	0xf65
 7972 1b6d 0000 0000 		.long	.LLST65
 7973 1b71 36        		.uleb128 0x36
 7974 1b72 590F 0000 		.long	0xf59
 7975 1b76 0000 0000 		.long	.LLST69
 7976 1b7a 00        		.byte	0
 7977 1b7b 4C        		.uleb128 0x4c
 7978 1b7c 4A0F 0000 		.long	0xf4a
 7979 1b80 0000 0000 		.long	.LBB165
 7980 1b84 0000 0000 		.long	.LBE165
 7981 1b88 01        		.byte	0x1
 7982 1b89 F802      		.word	0x2f8
 7983 1b8b 36        		.uleb128 0x36
 7984 1b8c 950F 0000 		.long	0xf95
 7985 1b90 0000 0000 		.long	.LLST70
 7986 1b94 36        		.uleb128 0x36
 7987 1b95 890F 0000 		.long	0xf89
 7988 1b99 0000 0000 		.long	.LLST70
 7989 1b9d 36        		.uleb128 0x36
 7990 1b9e 7D0F 0000 		.long	0xf7d
 7991 1ba2 0000 0000 		.long	.LLST70
 7992 1ba6 36        		.uleb128 0x36
 7993 1ba7 710F 0000 		.long	0xf71
 7994 1bab 0000 0000 		.long	.LLST70
 7995 1baf 36        		.uleb128 0x36
 7996 1bb0 650F 0000 		.long	0xf65
 7997 1bb4 0000 0000 		.long	.LLST70
 7998 1bb8 36        		.uleb128 0x36
 7999 1bb9 590F 0000 		.long	0xf59
 8000 1bbd 0000 0000 		.long	.LLST70
 8001 1bc1 00        		.byte	0
 8002 1bc2 00        		.byte	0
 8003 1bc3 4D        		.uleb128 0x4d
 8004 1bc4 01        		.byte	0x1
 8005 1bc5 0000 0000 		.long	.LASF312
 8006 1bc9 01        		.byte	0x1
 8007 1bca 9C02      		.word	0x29c
 8008 1bcc 01        		.byte	0x1
 8009 1bcd 01        		.byte	0x1
 8010 1bce 0000 0000 		.long	.LFB41
 8011 1bd2 0000 0000 		.long	.LFE41
 8012 1bd6 03        		.byte	0x3
 8013 1bd7 92        		.byte	0x92
 8014 1bd8 20        		.uleb128 0x20
 8015 1bd9 02        		.sleb128 2
 8016 1bda 01        		.byte	0x1
 8017 1bdb CA1D 0000 		.long	0x1dca
 8018 1bdf 4E        		.uleb128 0x4e
 8019 1be0 000F 0000 		.long	0xf00
 8020 1be4 0000 0000 		.long	.LBB167
 8021 1be8 0000 0000 		.long	.Ldebug_ranges0+0
GAS LISTING /tmp/ccjciOO6.s 			page 169


 8022 1bec 01        		.byte	0x1
 8023 1bed A102      		.word	0x2a1
 8024 1bef 021C 0000 		.long	0x1c02
 8025 1bf3 36        		.uleb128 0x36
 8026 1bf4 1B0F 0000 		.long	0xf1b
 8027 1bf8 0000 0000 		.long	.LLST76
 8028 1bfc 49        		.uleb128 0x49
 8029 1bfd 0F0F 0000 		.long	0xf0f
 8030 1c01 00        		.byte	0
 8031 1c02 48        		.uleb128 0x48
 8032 1c03 000F 0000 		.long	0xf00
 8033 1c07 0000 0000 		.long	.LBB171
 8034 1c0b 0000 0000 		.long	.LBE171
 8035 1c0f 01        		.byte	0x1
 8036 1c10 A202      		.word	0x2a2
 8037 1c12 251C 0000 		.long	0x1c25
 8038 1c16 36        		.uleb128 0x36
 8039 1c17 1B0F 0000 		.long	0xf1b
 8040 1c1b 0000 0000 		.long	.LLST77
 8041 1c1f 49        		.uleb128 0x49
 8042 1c20 0F0F 0000 		.long	0xf0f
 8043 1c24 00        		.byte	0
 8044 1c25 48        		.uleb128 0x48
 8045 1c26 000F 0000 		.long	0xf00
 8046 1c2a 0000 0000 		.long	.LBB173
 8047 1c2e 0000 0000 		.long	.LBE173
 8048 1c32 01        		.byte	0x1
 8049 1c33 A302      		.word	0x2a3
 8050 1c35 481C 0000 		.long	0x1c48
 8051 1c39 36        		.uleb128 0x36
 8052 1c3a 1B0F 0000 		.long	0xf1b
 8053 1c3e 0000 0000 		.long	.LLST78
 8054 1c42 49        		.uleb128 0x49
 8055 1c43 0F0F 0000 		.long	0xf0f
 8056 1c47 00        		.byte	0
 8057 1c48 48        		.uleb128 0x48
 8058 1c49 000F 0000 		.long	0xf00
 8059 1c4d 0000 0000 		.long	.LBB175
 8060 1c51 0000 0000 		.long	.LBE175
 8061 1c55 01        		.byte	0x1
 8062 1c56 A402      		.word	0x2a4
 8063 1c58 6B1C 0000 		.long	0x1c6b
 8064 1c5c 36        		.uleb128 0x36
 8065 1c5d 1B0F 0000 		.long	0xf1b
 8066 1c61 0000 0000 		.long	.LLST79
 8067 1c65 49        		.uleb128 0x49
 8068 1c66 0F0F 0000 		.long	0xf0f
 8069 1c6a 00        		.byte	0
 8070 1c6b 48        		.uleb128 0x48
 8071 1c6c 000F 0000 		.long	0xf00
 8072 1c70 0000 0000 		.long	.LBB177
 8073 1c74 0000 0000 		.long	.LBE177
 8074 1c78 01        		.byte	0x1
 8075 1c79 A502      		.word	0x2a5
 8076 1c7b 8E1C 0000 		.long	0x1c8e
 8077 1c7f 36        		.uleb128 0x36
 8078 1c80 1B0F 0000 		.long	0xf1b
GAS LISTING /tmp/ccjciOO6.s 			page 170


 8079 1c84 0000 0000 		.long	.LLST80
 8080 1c88 49        		.uleb128 0x49
 8081 1c89 0F0F 0000 		.long	0xf0f
 8082 1c8d 00        		.byte	0
 8083 1c8e 48        		.uleb128 0x48
 8084 1c8f 000F 0000 		.long	0xf00
 8085 1c93 0000 0000 		.long	.LBB179
 8086 1c97 0000 0000 		.long	.LBE179
 8087 1c9b 01        		.byte	0x1
 8088 1c9c A602      		.word	0x2a6
 8089 1c9e B11C 0000 		.long	0x1cb1
 8090 1ca2 36        		.uleb128 0x36
 8091 1ca3 1B0F 0000 		.long	0xf1b
 8092 1ca7 0000 0000 		.long	.LLST81
 8093 1cab 49        		.uleb128 0x49
 8094 1cac 0F0F 0000 		.long	0xf0f
 8095 1cb0 00        		.byte	0
 8096 1cb1 4F        		.uleb128 0x4f
 8097 1cb2 0000 0000 		.long	.LBB181
 8098 1cb6 0000 0000 		.long	.LBE181
 8099 1cba F81C 0000 		.long	0x1cf8
 8100 1cbe 47        		.uleb128 0x47
 8101 1cbf 6900      		.string	"i"
 8102 1cc1 01        		.byte	0x1
 8103 1cc2 BB02      		.word	0x2bb
 8104 1cc4 3000 0000 		.long	0x30
 8105 1cc8 0000 0000 		.long	.LLST82
 8106 1ccc 41        		.uleb128 0x41
 8107 1ccd 0000 0000 		.long	.LVL262
 8108 1cd1 E012 0000 		.long	0x12e0
 8109 1cd5 26        		.uleb128 0x26
 8110 1cd6 0000 0000 		.long	.LVL263
 8111 1cda F016 0000 		.long	0x16f0
 8112 1cde 27        		.uleb128 0x27
 8113 1cdf 06        		.byte	0x6
 8114 1ce0 68        		.byte	0x68
 8115 1ce1 93        		.byte	0x93
 8116 1ce2 01        		.uleb128 0x1
 8117 1ce3 69        		.byte	0x69
 8118 1ce4 93        		.byte	0x93
 8119 1ce5 01        		.uleb128 0x1
 8120 1ce6 05        		.byte	0x5
 8121 1ce7 03        		.byte	0x3
 8122 1ce8 0000 0000 		.long	Gripper
 8123 1cec 27        		.uleb128 0x27
 8124 1ced 06        		.byte	0x6
 8125 1cee 66        		.byte	0x66
 8126 1cef 93        		.byte	0x93
 8127 1cf0 01        		.uleb128 0x1
 8128 1cf1 67        		.byte	0x67
 8129 1cf2 93        		.byte	0x93
 8130 1cf3 01        		.uleb128 0x1
 8131 1cf4 01        		.byte	0x1
 8132 1cf5 31        		.byte	0x31
 8133 1cf6 00        		.byte	0
 8134 1cf7 00        		.byte	0
 8135 1cf8 44        		.uleb128 0x44
GAS LISTING /tmp/ccjciOO6.s 			page 171


 8136 1cf9 F20E 0000 		.long	0xef2
 8137 1cfd 0000 0000 		.long	.LBB182
 8138 1d01 0000 0000 		.long	.LBE182
 8139 1d05 01        		.byte	0x1
 8140 1d06 C302      		.word	0x2c3
 8141 1d08 44        		.uleb128 0x44
 8142 1d09 F20E 0000 		.long	0xef2
 8143 1d0d 0000 0000 		.long	.LBB184
 8144 1d11 0000 0000 		.long	.LBE184
 8145 1d15 01        		.byte	0x1
 8146 1d16 C402      		.word	0x2c4
 8147 1d18 3C        		.uleb128 0x3c
 8148 1d19 0000 0000 		.long	.LVL266
 8149 1d1d F016 0000 		.long	0x16f0
 8150 1d21 3E1D 0000 		.long	0x1d3e
 8151 1d25 27        		.uleb128 0x27
 8152 1d26 06        		.byte	0x6
 8153 1d27 68        		.byte	0x68
 8154 1d28 93        		.byte	0x93
 8155 1d29 01        		.uleb128 0x1
 8156 1d2a 69        		.byte	0x69
 8157 1d2b 93        		.byte	0x93
 8158 1d2c 01        		.uleb128 0x1
 8159 1d2d 05        		.byte	0x5
 8160 1d2e 03        		.byte	0x3
 8161 1d2f 0000 0000 		.long	Gripper
 8162 1d33 27        		.uleb128 0x27
 8163 1d34 06        		.byte	0x6
 8164 1d35 66        		.byte	0x66
 8165 1d36 93        		.byte	0x93
 8166 1d37 01        		.uleb128 0x1
 8167 1d38 67        		.byte	0x67
 8168 1d39 93        		.byte	0x93
 8169 1d3a 01        		.uleb128 0x1
 8170 1d3b 01        		.byte	0x1
 8171 1d3c 31        		.byte	0x31
 8172 1d3d 00        		.byte	0
 8173 1d3e 41        		.uleb128 0x41
 8174 1d3f 0000 0000 		.long	.LVL267
 8175 1d43 A20F 0000 		.long	0xfa2
 8176 1d47 3C        		.uleb128 0x3c
 8177 1d48 0000 0000 		.long	.LVL268
 8178 1d4c 3E13 0000 		.long	0x133e
 8179 1d50 711D 0000 		.long	0x1d71
 8180 1d54 27        		.uleb128 0x27
 8181 1d55 06        		.byte	0x6
 8182 1d56 68        		.byte	0x68
 8183 1d57 93        		.byte	0x93
 8184 1d58 01        		.uleb128 0x1
 8185 1d59 69        		.byte	0x69
 8186 1d5a 93        		.byte	0x93
 8187 1d5b 01        		.uleb128 0x1
 8188 1d5c 05        		.byte	0x5
 8189 1d5d 03        		.byte	0x3
 8190 1d5e 0000 0000 		.long	pose
 8191 1d62 27        		.uleb128 0x27
 8192 1d63 06        		.byte	0x6
GAS LISTING /tmp/ccjciOO6.s 			page 172


 8193 1d64 66        		.byte	0x66
 8194 1d65 93        		.byte	0x93
 8195 1d66 01        		.uleb128 0x1
 8196 1d67 67        		.byte	0x67
 8197 1d68 93        		.byte	0x93
 8198 1d69 01        		.uleb128 0x1
 8199 1d6a 05        		.byte	0x5
 8200 1d6b 03        		.byte	0x3
 8201 1d6c 0000 0000 		.long	goal
 8202 1d70 00        		.byte	0
 8203 1d71 3C        		.uleb128 0x3c
 8204 1d72 0000 0000 		.long	.LVL269
 8205 1d76 5D20 0000 		.long	0x205d
 8206 1d7a 8D1D 0000 		.long	0x1d8d
 8207 1d7e 27        		.uleb128 0x27
 8208 1d7f 06        		.byte	0x6
 8209 1d80 68        		.byte	0x68
 8210 1d81 93        		.byte	0x93
 8211 1d82 01        		.uleb128 0x1
 8212 1d83 69        		.byte	0x69
 8213 1d84 93        		.byte	0x93
 8214 1d85 01        		.uleb128 0x1
 8215 1d86 05        		.byte	0x5
 8216 1d87 03        		.byte	0x3
 8217 1d88 0000 0000 		.long	.LC1
 8218 1d8c 00        		.byte	0
 8219 1d8d 3C        		.uleb128 0x3c
 8220 1d8e 0000 0000 		.long	.LVL270
 8221 1d92 3E13 0000 		.long	0x133e
 8222 1d96 B71D 0000 		.long	0x1db7
 8223 1d9a 27        		.uleb128 0x27
 8224 1d9b 06        		.byte	0x6
 8225 1d9c 68        		.byte	0x68
 8226 1d9d 93        		.byte	0x93
 8227 1d9e 01        		.uleb128 0x1
 8228 1d9f 69        		.byte	0x69
 8229 1da0 93        		.byte	0x93
 8230 1da1 01        		.uleb128 0x1
 8231 1da2 05        		.byte	0x5
 8232 1da3 03        		.byte	0x3
 8233 1da4 0000 0000 		.long	pose
 8234 1da8 27        		.uleb128 0x27
 8235 1da9 06        		.byte	0x6
 8236 1daa 66        		.byte	0x66
 8237 1dab 93        		.byte	0x93
 8238 1dac 01        		.uleb128 0x1
 8239 1dad 67        		.byte	0x67
 8240 1dae 93        		.byte	0x93
 8241 1daf 01        		.uleb128 0x1
 8242 1db0 05        		.byte	0x5
 8243 1db1 03        		.byte	0x3
 8244 1db2 0000 0000 		.long	goal
 8245 1db6 00        		.byte	0
 8246 1db7 41        		.uleb128 0x41
 8247 1db8 0000 0000 		.long	.LVL271
 8248 1dbc 8B17 0000 		.long	0x178b
 8249 1dc0 41        		.uleb128 0x41
GAS LISTING /tmp/ccjciOO6.s 			page 173


 8250 1dc1 0000 0000 		.long	.LVL272
 8251 1dc5 5D20 0000 		.long	0x205d
 8252 1dc9 00        		.byte	0
 8253 1dca 40        		.uleb128 0x40
 8254 1dcb 01        		.byte	0x1
 8255 1dcc 0000 0000 		.long	.LASF313
 8256 1dd0 01        		.byte	0x1
 8257 1dd1 FB02      		.word	0x2fb
 8258 1dd3 01        		.byte	0x1
 8259 1dd4 0000 0000 		.long	.LFB43
 8260 1dd8 0000 0000 		.long	.LFE43
 8261 1ddc 0000 0000 		.long	.LLST83
 8262 1de0 01        		.byte	0x1
 8263 1de1 8F1E 0000 		.long	0x1e8f
 8264 1de5 45        		.uleb128 0x45
 8265 1de6 0000 0000 		.long	.LASF314
 8266 1dea 01        		.byte	0x1
 8267 1deb FD02      		.word	0x2fd
 8268 1ded 8F1E 0000 		.long	0x1e8f
 8269 1df1 02        		.byte	0x2
 8270 1df2 8C        		.byte	0x8c
 8271 1df3 01        		.sleb128 1
 8272 1df4 47        		.uleb128 0x47
 8273 1df5 6300      		.string	"c"
 8274 1df7 01        		.byte	0x1
 8275 1df8 FE02      		.word	0x2fe
 8276 1dfa 3000 0000 		.long	0x30
 8277 1dfe 0000 0000 		.long	.LLST84
 8278 1e02 47        		.uleb128 0x47
 8279 1e03 6900      		.string	"i"
 8280 1e05 01        		.byte	0x1
 8281 1e06 FF02      		.word	0x2ff
 8282 1e08 3000 0000 		.long	0x30
 8283 1e0c 0000 0000 		.long	.LLST85
 8284 1e10 47        		.uleb128 0x47
 8285 1e11 6600      		.string	"f"
 8286 1e13 01        		.byte	0x1
 8287 1e14 0003      		.word	0x300
 8288 1e16 3000 0000 		.long	0x30
 8289 1e1a 0000 0000 		.long	.LLST86
 8290 1e1e 48        		.uleb128 0x48
 8291 1e1f 4A0F 0000 		.long	0xf4a
 8292 1e23 0000 0000 		.long	.LBB186
 8293 1e27 0000 0000 		.long	.LBE186
 8294 1e2b 01        		.byte	0x1
 8295 1e2c 1203      		.word	0x312
 8296 1e2e 691E 0000 		.long	0x1e69
 8297 1e32 36        		.uleb128 0x36
 8298 1e33 950F 0000 		.long	0xf95
 8299 1e37 0000 0000 		.long	.LLST87
 8300 1e3b 36        		.uleb128 0x36
 8301 1e3c 890F 0000 		.long	0xf89
 8302 1e40 0000 0000 		.long	.LLST88
 8303 1e44 36        		.uleb128 0x36
 8304 1e45 7D0F 0000 		.long	0xf7d
 8305 1e49 0000 0000 		.long	.LLST89
 8306 1e4d 36        		.uleb128 0x36
GAS LISTING /tmp/ccjciOO6.s 			page 174


 8307 1e4e 710F 0000 		.long	0xf71
 8308 1e52 0000 0000 		.long	.LLST90
 8309 1e56 36        		.uleb128 0x36
 8310 1e57 650F 0000 		.long	0xf65
 8311 1e5b 0000 0000 		.long	.LLST91
 8312 1e5f 36        		.uleb128 0x36
 8313 1e60 590F 0000 		.long	0xf59
 8314 1e64 0000 0000 		.long	.LLST92
 8315 1e68 00        		.byte	0
 8316 1e69 3C        		.uleb128 0x3c
 8317 1e6a 0000 0000 		.long	.LVL273
 8318 1e6e 5D20 0000 		.long	0x205d
 8319 1e72 851E 0000 		.long	0x1e85
 8320 1e76 27        		.uleb128 0x27
 8321 1e77 06        		.byte	0x6
 8322 1e78 68        		.byte	0x68
 8323 1e79 93        		.byte	0x93
 8324 1e7a 01        		.uleb128 0x1
 8325 1e7b 69        		.byte	0x69
 8326 1e7c 93        		.byte	0x93
 8327 1e7d 01        		.uleb128 0x1
 8328 1e7e 05        		.byte	0x5
 8329 1e7f 03        		.byte	0x3
 8330 1e80 0000 0000 		.long	.LC3
 8331 1e84 00        		.byte	0
 8332 1e85 41        		.uleb128 0x41
 8333 1e86 0000 0000 		.long	.LVL277
 8334 1e8a C612 0000 		.long	0x12c6
 8335 1e8e 00        		.byte	0
 8336 1e8f 4A        		.uleb128 0x4a
 8337 1e90 3000 0000 		.long	0x30
 8338 1e94 9F1E 0000 		.long	0x1e9f
 8339 1e98 4B        		.uleb128 0x4b
 8340 1e99 9C0D 0000 		.long	0xd9c
 8341 1e9d 06        		.byte	0x6
 8342 1e9e 00        		.byte	0
 8343 1e9f 50        		.uleb128 0x50
 8344 1ea0 0000 0000 		.long	.LASF340
 8345 1ea4 01        		.byte	0x1
 8346 1ea5 35        		.byte	0x35
 8347 1ea6 01        		.byte	0x1
 8348 1ea7 01        		.byte	0x1
 8349 1ea8 30        		.uleb128 0x30
 8350 1ea9 01        		.byte	0x1
 8351 1eaa 0000 0000 		.long	.LASF315
 8352 1eae 01        		.byte	0x1
 8353 1eaf 1603      		.word	0x316
 8354 1eb1 01        		.byte	0x1
 8355 1eb2 0000 0000 		.long	.LFB44
 8356 1eb6 0000 0000 		.long	.LFE44
 8357 1eba 03        		.byte	0x3
 8358 1ebb 92        		.byte	0x92
 8359 1ebc 20        		.uleb128 0x20
 8360 1ebd 02        		.sleb128 2
 8361 1ebe 01        		.byte	0x1
 8362 1ebf DD1E 0000 		.long	0x1edd
 8363 1ec3 44        		.uleb128 0x44
GAS LISTING /tmp/ccjciOO6.s 			page 175


 8364 1ec4 9F1E 0000 		.long	0x1e9f
 8365 1ec8 0000 0000 		.long	.LBB190
 8366 1ecc 0000 0000 		.long	.LBE190
 8367 1ed0 01        		.byte	0x1
 8368 1ed1 3003      		.word	0x330
 8369 1ed3 41        		.uleb128 0x41
 8370 1ed4 0000 0000 		.long	.LVL287
 8371 1ed8 9D13 0000 		.long	0x139d
 8372 1edc 00        		.byte	0
 8373 1edd 51        		.uleb128 0x51
 8374 1ede 01        		.byte	0x1
 8375 1edf 0000 0000 		.long	.LASF341
 8376 1ee3 01        		.byte	0x1
 8377 1ee4 3303      		.word	0x333
 8378 1ee6 01        		.byte	0x1
 8379 1ee7 3000 0000 		.long	0x30
 8380 1eeb 01        		.byte	0x1
 8381 1eec 0000 0000 		.long	.LFB45
 8382 1ef0 0000 0000 		.long	.LFE45
 8383 1ef4 03        		.byte	0x3
 8384 1ef5 92        		.byte	0x92
 8385 1ef6 20        		.uleb128 0x20
 8386 1ef7 02        		.sleb128 2
 8387 1ef8 01        		.byte	0x1
 8388 1ef9 2C1F 0000 		.long	0x1f2c
 8389 1efd 41        		.uleb128 0x41
 8390 1efe 0000 0000 		.long	.LVL288
 8391 1f02 A81E 0000 		.long	0x1ea8
 8392 1f06 3C        		.uleb128 0x3c
 8393 1f07 0000 0000 		.long	.LVL289
 8394 1f0b 5D20 0000 		.long	0x205d
 8395 1f0f 221F 0000 		.long	0x1f22
 8396 1f13 27        		.uleb128 0x27
 8397 1f14 06        		.byte	0x6
 8398 1f15 68        		.byte	0x68
 8399 1f16 93        		.byte	0x93
 8400 1f17 01        		.uleb128 0x1
 8401 1f18 69        		.byte	0x69
 8402 1f19 93        		.byte	0x93
 8403 1f1a 01        		.uleb128 0x1
 8404 1f1b 05        		.byte	0x5
 8405 1f1c 03        		.byte	0x3
 8406 1f1d 0000 0000 		.long	.LC4
 8407 1f21 00        		.byte	0
 8408 1f22 41        		.uleb128 0x41
 8409 1f23 0000 0000 		.long	.LVL290
 8410 1f27 C31B 0000 		.long	0x1bc3
 8411 1f2b 00        		.byte	0
 8412 1f2c 2A        		.uleb128 0x2a
 8413 1f2d 0000 0000 		.long	.LASF316
 8414 1f31 07        		.byte	0x7
 8415 1f32 45        		.byte	0x45
 8416 1f33 5101 0000 		.long	0x151
 8417 1f37 05        		.byte	0x5
 8418 1f38 03        		.byte	0x3
 8419 1f39 0000 0000 		.long	mystdout
 8420 1f3d 4A        		.uleb128 0x4a
GAS LISTING /tmp/ccjciOO6.s 			page 176


 8421 1f3e 2D01 0000 		.long	0x12d
 8422 1f42 481F 0000 		.long	0x1f48
 8423 1f46 52        		.uleb128 0x52
 8424 1f47 00        		.byte	0
 8425 1f48 53        		.uleb128 0x53
 8426 1f49 0000 0000 		.long	.LASF317
 8427 1f4d 05        		.byte	0x5
 8428 1f4e 9701      		.word	0x197
 8429 1f50 3D1F 0000 		.long	0x1f3d
 8430 1f54 01        		.byte	0x1
 8431 1f55 01        		.byte	0x1
 8432 1f56 54        		.uleb128 0x54
 8433 1f57 0000 0000 		.long	.LASF318
 8434 1f5b 07        		.byte	0x7
 8435 1f5c 38        		.byte	0x38
 8436 1f5d 3000 0000 		.long	0x30
 8437 1f61 01        		.byte	0x1
 8438 1f62 05        		.byte	0x5
 8439 1f63 03        		.byte	0x3
 8440 1f64 0000 0000 		.long	state
 8441 1f68 54        		.uleb128 0x54
 8442 1f69 0000 0000 		.long	.LASF319
 8443 1f6d 07        		.byte	0x7
 8444 1f6e 39        		.byte	0x39
 8445 1f6f 3000 0000 		.long	0x30
 8446 1f73 01        		.byte	0x1
 8447 1f74 05        		.byte	0x5
 8448 1f75 03        		.byte	0x3
 8449 1f76 0000 0000 		.long	debugFlag
 8450 1f7a 54        		.uleb128 0x54
 8451 1f7b 0000 0000 		.long	.LASF320
 8452 1f7f 07        		.byte	0x7
 8453 1f80 3A        		.byte	0x3a
 8454 1f81 BF1A 0000 		.long	0x1abf
 8455 1f85 01        		.byte	0x1
 8456 1f86 05        		.byte	0x5
 8457 1f87 03        		.byte	0x3
 8458 1f88 0000 0000 		.long	goal
 8459 1f8c 54        		.uleb128 0x54
 8460 1f8d 0000 0000 		.long	.LASF321
 8461 1f91 07        		.byte	0x7
 8462 1f92 3B        		.byte	0x3b
 8463 1f93 BF1A 0000 		.long	0x1abf
 8464 1f97 01        		.byte	0x1
 8465 1f98 05        		.byte	0x5
 8466 1f99 03        		.byte	0x3
 8467 1f9a 0000 0000 		.long	pose
 8468 1f9e 54        		.uleb128 0x54
 8469 1f9f 0000 0000 		.long	.LASF322
 8470 1fa3 07        		.byte	0x7
 8471 1fa4 3C        		.byte	0x3c
 8472 1fa5 B01F 0000 		.long	0x1fb0
 8473 1fa9 01        		.byte	0x1
 8474 1faa 05        		.byte	0x5
 8475 1fab 03        		.byte	0x3
 8476 1fac 0000 0000 		.long	elapsedMillis
 8477 1fb0 0F        		.uleb128 0xf
GAS LISTING /tmp/ccjciOO6.s 			page 177


 8478 1fb1 7400 0000 		.long	0x74
 8479 1fb5 54        		.uleb128 0x54
 8480 1fb6 0000 0000 		.long	.LASF323
 8481 1fba 07        		.byte	0x7
 8482 1fbb 3D        		.byte	0x3d
 8483 1fbc 3000 0000 		.long	0x30
 8484 1fc0 01        		.byte	0x1
 8485 1fc1 05        		.byte	0x5
 8486 1fc2 03        		.byte	0x3
 8487 1fc3 0000 0000 		.long	maxSpeed
 8488 1fc7 54        		.uleb128 0x54
 8489 1fc8 0000 0000 		.long	.LASF324
 8490 1fcc 07        		.byte	0x7
 8491 1fcd 3F        		.byte	0x3f
 8492 1fce 3000 0000 		.long	0x30
 8493 1fd2 01        		.byte	0x1
 8494 1fd3 05        		.byte	0x5
 8495 1fd4 03        		.byte	0x3
 8496 1fd5 0000 0000 		.long	gripperState
 8497 1fd9 54        		.uleb128 0x54
 8498 1fda 0000 0000 		.long	.LASF325
 8499 1fde 07        		.byte	0x7
 8500 1fdf 40        		.byte	0x40
 8501 1fe0 3000 0000 		.long	0x30
 8502 1fe4 01        		.byte	0x1
 8503 1fe5 05        		.byte	0x5
 8504 1fe6 03        		.byte	0x3
 8505 1fe7 0000 0000 		.long	gripperStatePrev
 8506 1feb 55        		.uleb128 0x55
 8507 1fec 0000 0000 		.long	.LASF326
 8508 1ff0 01        		.byte	0x1
 8509 1ff1 1101      		.word	0x111
 8510 1ff3 A30D 0000 		.long	0xda3
 8511 1ff7 01        		.byte	0x1
 8512 1ff8 05        		.byte	0x5
 8513 1ff9 03        		.byte	0x3
 8514 1ffa 0000 0000 		.long	Base
 8515 1ffe 55        		.uleb128 0x55
 8516 1fff 0000 0000 		.long	.LASF327
 8517 2003 01        		.byte	0x1
 8518 2004 2401      		.word	0x124
 8519 2006 A30D 0000 		.long	0xda3
 8520 200a 01        		.byte	0x1
 8521 200b 05        		.byte	0x5
 8522 200c 03        		.byte	0x3
 8523 200d 0000 0000 		.long	Shoulder
 8524 2011 55        		.uleb128 0x55
 8525 2012 0000 0000 		.long	.LASF328
 8526 2016 01        		.byte	0x1
 8527 2017 3701      		.word	0x137
 8528 2019 A30D 0000 		.long	0xda3
 8529 201d 01        		.byte	0x1
 8530 201e 05        		.byte	0x5
 8531 201f 03        		.byte	0x3
 8532 2020 0000 0000 		.long	Elbow
 8533 2024 55        		.uleb128 0x55
 8534 2025 0000 0000 		.long	.LASF329
GAS LISTING /tmp/ccjciOO6.s 			page 178


 8535 2029 01        		.byte	0x1
 8536 202a 5D01      		.word	0x15d
 8537 202c A30D 0000 		.long	0xda3
 8538 2030 01        		.byte	0x1
 8539 2031 05        		.byte	0x5
 8540 2032 03        		.byte	0x3
 8541 2033 0000 0000 		.long	Left_Wrist
 8542 2037 55        		.uleb128 0x55
 8543 2038 0000 0000 		.long	.LASF330
 8544 203c 01        		.byte	0x1
 8545 203d 4A01      		.word	0x14a
 8546 203f A30D 0000 		.long	0xda3
 8547 2043 01        		.byte	0x1
 8548 2044 05        		.byte	0x5
 8549 2045 03        		.byte	0x3
 8550 2046 0000 0000 		.long	Right_Wrist
 8551 204a 55        		.uleb128 0x55
 8552 204b 0000 0000 		.long	.LASF331
 8553 204f 01        		.byte	0x1
 8554 2050 7001      		.word	0x170
 8555 2052 A30D 0000 		.long	0xda3
 8556 2056 01        		.byte	0x1
 8557 2057 05        		.byte	0x5
 8558 2058 03        		.byte	0x3
 8559 2059 0000 0000 		.long	Gripper
 8560 205d 56        		.uleb128 0x56
 8561 205e 01        		.byte	0x1
 8562 205f 01        		.byte	0x1
 8563 2060 0000 0000 		.long	.LASF342
 8564 2064 0000 0000 		.long	.LASF343
 8565 2068 08        		.byte	0x8
 8566 2069 00        		.byte	0
 8567 206a 0000 0000 		.long	.LASF342
 8568 206e 00        		.byte	0
 8569               		.section	.debug_abbrev,"",@progbits
 8570               	.Ldebug_abbrev0:
 8571 0000 01        		.uleb128 0x1
 8572 0001 11        		.uleb128 0x11
 8573 0002 01        		.byte	0x1
 8574 0003 25        		.uleb128 0x25
 8575 0004 0E        		.uleb128 0xe
 8576 0005 13        		.uleb128 0x13
 8577 0006 0B        		.uleb128 0xb
 8578 0007 03        		.uleb128 0x3
 8579 0008 0E        		.uleb128 0xe
 8580 0009 1B        		.uleb128 0x1b
 8581 000a 0E        		.uleb128 0xe
 8582 000b 55        		.uleb128 0x55
 8583 000c 06        		.uleb128 0x6
 8584 000d 11        		.uleb128 0x11
 8585 000e 01        		.uleb128 0x1
 8586 000f 52        		.uleb128 0x52
 8587 0010 01        		.uleb128 0x1
 8588 0011 10        		.uleb128 0x10
 8589 0012 06        		.uleb128 0x6
 8590 0013 00        		.byte	0
 8591 0014 00        		.byte	0
GAS LISTING /tmp/ccjciOO6.s 			page 179


 8592 0015 02        		.uleb128 0x2
 8593 0016 24        		.uleb128 0x24
 8594 0017 00        		.byte	0
 8595 0018 0B        		.uleb128 0xb
 8596 0019 0B        		.uleb128 0xb
 8597 001a 3E        		.uleb128 0x3e
 8598 001b 0B        		.uleb128 0xb
 8599 001c 03        		.uleb128 0x3
 8600 001d 0E        		.uleb128 0xe
 8601 001e 00        		.byte	0
 8602 001f 00        		.byte	0
 8603 0020 03        		.uleb128 0x3
 8604 0021 24        		.uleb128 0x24
 8605 0022 00        		.byte	0
 8606 0023 0B        		.uleb128 0xb
 8607 0024 0B        		.uleb128 0xb
 8608 0025 3E        		.uleb128 0x3e
 8609 0026 0B        		.uleb128 0xb
 8610 0027 03        		.uleb128 0x3
 8611 0028 08        		.uleb128 0x8
 8612 0029 00        		.byte	0
 8613 002a 00        		.byte	0
 8614 002b 04        		.uleb128 0x4
 8615 002c 16        		.uleb128 0x16
 8616 002d 00        		.byte	0
 8617 002e 03        		.uleb128 0x3
 8618 002f 0E        		.uleb128 0xe
 8619 0030 3A        		.uleb128 0x3a
 8620 0031 0B        		.uleb128 0xb
 8621 0032 3B        		.uleb128 0x3b
 8622 0033 0B        		.uleb128 0xb
 8623 0034 49        		.uleb128 0x49
 8624 0035 13        		.uleb128 0x13
 8625 0036 00        		.byte	0
 8626 0037 00        		.byte	0
 8627 0038 05        		.uleb128 0x5
 8628 0039 13        		.uleb128 0x13
 8629 003a 01        		.byte	0x1
 8630 003b 03        		.uleb128 0x3
 8631 003c 0E        		.uleb128 0xe
 8632 003d 0B        		.uleb128 0xb
 8633 003e 0B        		.uleb128 0xb
 8634 003f 3A        		.uleb128 0x3a
 8635 0040 0B        		.uleb128 0xb
 8636 0041 3B        		.uleb128 0x3b
 8637 0042 0B        		.uleb128 0xb
 8638 0043 01        		.uleb128 0x1
 8639 0044 13        		.uleb128 0x13
 8640 0045 00        		.byte	0
 8641 0046 00        		.byte	0
 8642 0047 06        		.uleb128 0x6
 8643 0048 0D        		.uleb128 0xd
 8644 0049 00        		.byte	0
 8645 004a 03        		.uleb128 0x3
 8646 004b 08        		.uleb128 0x8
 8647 004c 3A        		.uleb128 0x3a
 8648 004d 0B        		.uleb128 0xb
GAS LISTING /tmp/ccjciOO6.s 			page 180


 8649 004e 3B        		.uleb128 0x3b
 8650 004f 0B        		.uleb128 0xb
 8651 0050 49        		.uleb128 0x49
 8652 0051 13        		.uleb128 0x13
 8653 0052 38        		.uleb128 0x38
 8654 0053 0A        		.uleb128 0xa
 8655 0054 00        		.byte	0
 8656 0055 00        		.byte	0
 8657 0056 07        		.uleb128 0x7
 8658 0057 0D        		.uleb128 0xd
 8659 0058 00        		.byte	0
 8660 0059 03        		.uleb128 0x3
 8661 005a 0E        		.uleb128 0xe
 8662 005b 3A        		.uleb128 0x3a
 8663 005c 0B        		.uleb128 0xb
 8664 005d 3B        		.uleb128 0x3b
 8665 005e 0B        		.uleb128 0xb
 8666 005f 49        		.uleb128 0x49
 8667 0060 13        		.uleb128 0x13
 8668 0061 38        		.uleb128 0x38
 8669 0062 0A        		.uleb128 0xa
 8670 0063 00        		.byte	0
 8671 0064 00        		.byte	0
 8672 0065 08        		.uleb128 0x8
 8673 0066 0D        		.uleb128 0xd
 8674 0067 00        		.byte	0
 8675 0068 03        		.uleb128 0x3
 8676 0069 0E        		.uleb128 0xe
 8677 006a 3A        		.uleb128 0x3a
 8678 006b 0B        		.uleb128 0xb
 8679 006c 3B        		.uleb128 0x3b
 8680 006d 05        		.uleb128 0x5
 8681 006e 49        		.uleb128 0x49
 8682 006f 13        		.uleb128 0x13
 8683 0070 38        		.uleb128 0x38
 8684 0071 0A        		.uleb128 0xa
 8685 0072 00        		.byte	0
 8686 0073 00        		.byte	0
 8687 0074 09        		.uleb128 0x9
 8688 0075 0D        		.uleb128 0xd
 8689 0076 00        		.byte	0
 8690 0077 03        		.uleb128 0x3
 8691 0078 08        		.uleb128 0x8
 8692 0079 3A        		.uleb128 0x3a
 8693 007a 0B        		.uleb128 0xb
 8694 007b 3B        		.uleb128 0x3b
 8695 007c 05        		.uleb128 0x5
 8696 007d 49        		.uleb128 0x49
 8697 007e 13        		.uleb128 0x13
 8698 007f 38        		.uleb128 0x38
 8699 0080 0A        		.uleb128 0xa
 8700 0081 00        		.byte	0
 8701 0082 00        		.byte	0
 8702 0083 0A        		.uleb128 0xa
 8703 0084 0F        		.uleb128 0xf
 8704 0085 00        		.byte	0
 8705 0086 0B        		.uleb128 0xb
GAS LISTING /tmp/ccjciOO6.s 			page 181


 8706 0087 0B        		.uleb128 0xb
 8707 0088 49        		.uleb128 0x49
 8708 0089 13        		.uleb128 0x13
 8709 008a 00        		.byte	0
 8710 008b 00        		.byte	0
 8711 008c 0B        		.uleb128 0xb
 8712 008d 15        		.uleb128 0x15
 8713 008e 01        		.byte	0x1
 8714 008f 27        		.uleb128 0x27
 8715 0090 0C        		.uleb128 0xc
 8716 0091 49        		.uleb128 0x49
 8717 0092 13        		.uleb128 0x13
 8718 0093 01        		.uleb128 0x1
 8719 0094 13        		.uleb128 0x13
 8720 0095 00        		.byte	0
 8721 0096 00        		.byte	0
 8722 0097 0C        		.uleb128 0xc
 8723 0098 05        		.uleb128 0x5
 8724 0099 00        		.byte	0
 8725 009a 49        		.uleb128 0x49
 8726 009b 13        		.uleb128 0x13
 8727 009c 00        		.byte	0
 8728 009d 00        		.byte	0
 8729 009e 0D        		.uleb128 0xd
 8730 009f 0F        		.uleb128 0xf
 8731 00a0 00        		.byte	0
 8732 00a1 0B        		.uleb128 0xb
 8733 00a2 0B        		.uleb128 0xb
 8734 00a3 00        		.byte	0
 8735 00a4 00        		.byte	0
 8736 00a5 0E        		.uleb128 0xe
 8737 00a6 16        		.uleb128 0x16
 8738 00a7 00        		.byte	0
 8739 00a8 03        		.uleb128 0x3
 8740 00a9 0E        		.uleb128 0xe
 8741 00aa 3A        		.uleb128 0x3a
 8742 00ab 0B        		.uleb128 0xb
 8743 00ac 3B        		.uleb128 0x3b
 8744 00ad 05        		.uleb128 0x5
 8745 00ae 49        		.uleb128 0x49
 8746 00af 13        		.uleb128 0x13
 8747 00b0 00        		.byte	0
 8748 00b1 00        		.byte	0
 8749 00b2 0F        		.uleb128 0xf
 8750 00b3 35        		.uleb128 0x35
 8751 00b4 00        		.byte	0
 8752 00b5 49        		.uleb128 0x49
 8753 00b6 13        		.uleb128 0x13
 8754 00b7 00        		.byte	0
 8755 00b8 00        		.byte	0
 8756 00b9 10        		.uleb128 0x10
 8757 00ba 04        		.uleb128 0x4
 8758 00bb 01        		.byte	0x1
 8759 00bc 03        		.uleb128 0x3
 8760 00bd 0E        		.uleb128 0xe
 8761 00be 0B        		.uleb128 0xb
 8762 00bf 0B        		.uleb128 0xb
GAS LISTING /tmp/ccjciOO6.s 			page 182


 8763 00c0 49        		.uleb128 0x49
 8764 00c1 13        		.uleb128 0x13
 8765 00c2 3A        		.uleb128 0x3a
 8766 00c3 0B        		.uleb128 0xb
 8767 00c4 3B        		.uleb128 0x3b
 8768 00c5 0B        		.uleb128 0xb
 8769 00c6 01        		.uleb128 0x1
 8770 00c7 13        		.uleb128 0x13
 8771 00c8 00        		.byte	0
 8772 00c9 00        		.byte	0
 8773 00ca 11        		.uleb128 0x11
 8774 00cb 28        		.uleb128 0x28
 8775 00cc 00        		.byte	0
 8776 00cd 03        		.uleb128 0x3
 8777 00ce 0E        		.uleb128 0xe
 8778 00cf 1C        		.uleb128 0x1c
 8779 00d0 0B        		.uleb128 0xb
 8780 00d1 00        		.byte	0
 8781 00d2 00        		.byte	0
 8782 00d3 12        		.uleb128 0x12
 8783 00d4 13        		.uleb128 0x13
 8784 00d5 01        		.byte	0x1
 8785 00d6 03        		.uleb128 0x3
 8786 00d7 0E        		.uleb128 0xe
 8787 00d8 0B        		.uleb128 0xb
 8788 00d9 0B        		.uleb128 0xb
 8789 00da 3A        		.uleb128 0x3a
 8790 00db 0B        		.uleb128 0xb
 8791 00dc 3B        		.uleb128 0x3b
 8792 00dd 05        		.uleb128 0x5
 8793 00de 01        		.uleb128 0x1
 8794 00df 13        		.uleb128 0x13
 8795 00e0 00        		.byte	0
 8796 00e1 00        		.byte	0
 8797 00e2 13        		.uleb128 0x13
 8798 00e3 04        		.uleb128 0x4
 8799 00e4 01        		.byte	0x1
 8800 00e5 03        		.uleb128 0x3
 8801 00e6 0E        		.uleb128 0xe
 8802 00e7 0B        		.uleb128 0xb
 8803 00e8 0B        		.uleb128 0xb
 8804 00e9 49        		.uleb128 0x49
 8805 00ea 13        		.uleb128 0x13
 8806 00eb 3A        		.uleb128 0x3a
 8807 00ec 0B        		.uleb128 0xb
 8808 00ed 3B        		.uleb128 0x3b
 8809 00ee 05        		.uleb128 0x5
 8810 00ef 01        		.uleb128 0x1
 8811 00f0 13        		.uleb128 0x13
 8812 00f1 00        		.byte	0
 8813 00f2 00        		.byte	0
 8814 00f3 14        		.uleb128 0x14
 8815 00f4 13        		.uleb128 0x13
 8816 00f5 01        		.byte	0x1
 8817 00f6 0B        		.uleb128 0xb
 8818 00f7 0B        		.uleb128 0xb
 8819 00f8 3A        		.uleb128 0x3a
GAS LISTING /tmp/ccjciOO6.s 			page 183


 8820 00f9 0B        		.uleb128 0xb
 8821 00fa 3B        		.uleb128 0x3b
 8822 00fb 05        		.uleb128 0x5
 8823 00fc 01        		.uleb128 0x1
 8824 00fd 13        		.uleb128 0x13
 8825 00fe 00        		.byte	0
 8826 00ff 00        		.byte	0
 8827 0100 15        		.uleb128 0x15
 8828 0101 17        		.uleb128 0x17
 8829 0102 01        		.byte	0x1
 8830 0103 0B        		.uleb128 0xb
 8831 0104 0B        		.uleb128 0xb
 8832 0105 3A        		.uleb128 0x3a
 8833 0106 0B        		.uleb128 0xb
 8834 0107 3B        		.uleb128 0x3b
 8835 0108 05        		.uleb128 0x5
 8836 0109 01        		.uleb128 0x1
 8837 010a 13        		.uleb128 0x13
 8838 010b 00        		.byte	0
 8839 010c 00        		.byte	0
 8840 010d 16        		.uleb128 0x16
 8841 010e 0D        		.uleb128 0xd
 8842 010f 00        		.byte	0
 8843 0110 03        		.uleb128 0x3
 8844 0111 08        		.uleb128 0x8
 8845 0112 3A        		.uleb128 0x3a
 8846 0113 0B        		.uleb128 0xb
 8847 0114 3B        		.uleb128 0x3b
 8848 0115 05        		.uleb128 0x5
 8849 0116 49        		.uleb128 0x49
 8850 0117 13        		.uleb128 0x13
 8851 0118 00        		.byte	0
 8852 0119 00        		.byte	0
 8853 011a 17        		.uleb128 0x17
 8854 011b 0D        		.uleb128 0xd
 8855 011c 00        		.byte	0
 8856 011d 49        		.uleb128 0x49
 8857 011e 13        		.uleb128 0x13
 8858 011f 00        		.byte	0
 8859 0120 00        		.byte	0
 8860 0121 18        		.uleb128 0x18
 8861 0122 0D        		.uleb128 0xd
 8862 0123 00        		.byte	0
 8863 0124 03        		.uleb128 0x3
 8864 0125 0E        		.uleb128 0xe
 8865 0126 3A        		.uleb128 0x3a
 8866 0127 0B        		.uleb128 0xb
 8867 0128 3B        		.uleb128 0x3b
 8868 0129 05        		.uleb128 0x5
 8869 012a 49        		.uleb128 0x49
 8870 012b 13        		.uleb128 0x13
 8871 012c 00        		.byte	0
 8872 012d 00        		.byte	0
 8873 012e 19        		.uleb128 0x19
 8874 012f 0D        		.uleb128 0xd
 8875 0130 00        		.byte	0
 8876 0131 49        		.uleb128 0x49
GAS LISTING /tmp/ccjciOO6.s 			page 184


 8877 0132 13        		.uleb128 0x13
 8878 0133 38        		.uleb128 0x38
 8879 0134 0A        		.uleb128 0xa
 8880 0135 00        		.byte	0
 8881 0136 00        		.byte	0
 8882 0137 1A        		.uleb128 0x1a
 8883 0138 2E        		.uleb128 0x2e
 8884 0139 01        		.byte	0x1
 8885 013a 03        		.uleb128 0x3
 8886 013b 0E        		.uleb128 0xe
 8887 013c 3A        		.uleb128 0x3a
 8888 013d 0B        		.uleb128 0xb
 8889 013e 3B        		.uleb128 0x3b
 8890 013f 0B        		.uleb128 0xb
 8891 0140 27        		.uleb128 0x27
 8892 0141 0C        		.uleb128 0xc
 8893 0142 20        		.uleb128 0x20
 8894 0143 0B        		.uleb128 0xb
 8895 0144 01        		.uleb128 0x1
 8896 0145 13        		.uleb128 0x13
 8897 0146 00        		.byte	0
 8898 0147 00        		.byte	0
 8899 0148 1B        		.uleb128 0x1b
 8900 0149 05        		.uleb128 0x5
 8901 014a 00        		.byte	0
 8902 014b 03        		.uleb128 0x3
 8903 014c 0E        		.uleb128 0xe
 8904 014d 3A        		.uleb128 0x3a
 8905 014e 0B        		.uleb128 0xb
 8906 014f 3B        		.uleb128 0x3b
 8907 0150 0B        		.uleb128 0xb
 8908 0151 49        		.uleb128 0x49
 8909 0152 13        		.uleb128 0x13
 8910 0153 00        		.byte	0
 8911 0154 00        		.byte	0
 8912 0155 1C        		.uleb128 0x1c
 8913 0156 34        		.uleb128 0x34
 8914 0157 00        		.byte	0
 8915 0158 03        		.uleb128 0x3
 8916 0159 0E        		.uleb128 0xe
 8917 015a 3A        		.uleb128 0x3a
 8918 015b 0B        		.uleb128 0xb
 8919 015c 3B        		.uleb128 0x3b
 8920 015d 05        		.uleb128 0x5
 8921 015e 49        		.uleb128 0x49
 8922 015f 13        		.uleb128 0x13
 8923 0160 00        		.byte	0
 8924 0161 00        		.byte	0
 8925 0162 1D        		.uleb128 0x1d
 8926 0163 2E        		.uleb128 0x2e
 8927 0164 00        		.byte	0
 8928 0165 3F        		.uleb128 0x3f
 8929 0166 0C        		.uleb128 0xc
 8930 0167 03        		.uleb128 0x3
 8931 0168 0E        		.uleb128 0xe
 8932 0169 3A        		.uleb128 0x3a
 8933 016a 0B        		.uleb128 0xb
GAS LISTING /tmp/ccjciOO6.s 			page 185


 8934 016b 3B        		.uleb128 0x3b
 8935 016c 05        		.uleb128 0x5
 8936 016d 27        		.uleb128 0x27
 8937 016e 0C        		.uleb128 0xc
 8938 016f 20        		.uleb128 0x20
 8939 0170 0B        		.uleb128 0xb
 8940 0171 00        		.byte	0
 8941 0172 00        		.byte	0
 8942 0173 1E        		.uleb128 0x1e
 8943 0174 2E        		.uleb128 0x2e
 8944 0175 00        		.byte	0
 8945 0176 3F        		.uleb128 0x3f
 8946 0177 0C        		.uleb128 0xc
 8947 0178 03        		.uleb128 0x3
 8948 0179 0E        		.uleb128 0xe
 8949 017a 3A        		.uleb128 0x3a
 8950 017b 0B        		.uleb128 0xb
 8951 017c 3B        		.uleb128 0x3b
 8952 017d 0B        		.uleb128 0xb
 8953 017e 27        		.uleb128 0x27
 8954 017f 0C        		.uleb128 0xc
 8955 0180 49        		.uleb128 0x49
 8956 0181 13        		.uleb128 0x13
 8957 0182 20        		.uleb128 0x20
 8958 0183 0B        		.uleb128 0xb
 8959 0184 00        		.byte	0
 8960 0185 00        		.byte	0
 8961 0186 1F        		.uleb128 0x1f
 8962 0187 2E        		.uleb128 0x2e
 8963 0188 01        		.byte	0x1
 8964 0189 3F        		.uleb128 0x3f
 8965 018a 0C        		.uleb128 0xc
 8966 018b 03        		.uleb128 0x3
 8967 018c 0E        		.uleb128 0xe
 8968 018d 3A        		.uleb128 0x3a
 8969 018e 0B        		.uleb128 0xb
 8970 018f 3B        		.uleb128 0x3b
 8971 0190 05        		.uleb128 0x5
 8972 0191 27        		.uleb128 0x27
 8973 0192 0C        		.uleb128 0xc
 8974 0193 20        		.uleb128 0x20
 8975 0194 0B        		.uleb128 0xb
 8976 0195 01        		.uleb128 0x1
 8977 0196 13        		.uleb128 0x13
 8978 0197 00        		.byte	0
 8979 0198 00        		.byte	0
 8980 0199 20        		.uleb128 0x20
 8981 019a 05        		.uleb128 0x5
 8982 019b 00        		.byte	0
 8983 019c 03        		.uleb128 0x3
 8984 019d 0E        		.uleb128 0xe
 8985 019e 3A        		.uleb128 0x3a
 8986 019f 0B        		.uleb128 0xb
 8987 01a0 3B        		.uleb128 0x3b
 8988 01a1 05        		.uleb128 0x5
 8989 01a2 49        		.uleb128 0x49
 8990 01a3 13        		.uleb128 0x13
GAS LISTING /tmp/ccjciOO6.s 			page 186


 8991 01a4 00        		.byte	0
 8992 01a5 00        		.byte	0
 8993 01a6 21        		.uleb128 0x21
 8994 01a7 2E        		.uleb128 0x2e
 8995 01a8 01        		.byte	0x1
 8996 01a9 3F        		.uleb128 0x3f
 8997 01aa 0C        		.uleb128 0xc
 8998 01ab 03        		.uleb128 0x3
 8999 01ac 0E        		.uleb128 0xe
 9000 01ad 3A        		.uleb128 0x3a
 9001 01ae 0B        		.uleb128 0xb
 9002 01af 3B        		.uleb128 0x3b
 9003 01b0 0B        		.uleb128 0xb
 9004 01b1 27        		.uleb128 0x27
 9005 01b2 0C        		.uleb128 0xc
 9006 01b3 49        		.uleb128 0x49
 9007 01b4 13        		.uleb128 0x13
 9008 01b5 20        		.uleb128 0x20
 9009 01b6 0B        		.uleb128 0xb
 9010 01b7 01        		.uleb128 0x1
 9011 01b8 13        		.uleb128 0x13
 9012 01b9 00        		.byte	0
 9013 01ba 00        		.byte	0
 9014 01bb 22        		.uleb128 0x22
 9015 01bc 05        		.uleb128 0x5
 9016 01bd 00        		.byte	0
 9017 01be 03        		.uleb128 0x3
 9018 01bf 08        		.uleb128 0x8
 9019 01c0 3A        		.uleb128 0x3a
 9020 01c1 0B        		.uleb128 0xb
 9021 01c2 3B        		.uleb128 0x3b
 9022 01c3 0B        		.uleb128 0xb
 9023 01c4 49        		.uleb128 0x49
 9024 01c5 13        		.uleb128 0x13
 9025 01c6 00        		.byte	0
 9026 01c7 00        		.byte	0
 9027 01c8 23        		.uleb128 0x23
 9028 01c9 2E        		.uleb128 0x2e
 9029 01ca 01        		.byte	0x1
 9030 01cb 03        		.uleb128 0x3
 9031 01cc 0E        		.uleb128 0xe
 9032 01cd 3A        		.uleb128 0x3a
 9033 01ce 0B        		.uleb128 0xb
 9034 01cf 3B        		.uleb128 0x3b
 9035 01d0 0B        		.uleb128 0xb
 9036 01d1 27        		.uleb128 0x27
 9037 01d2 0C        		.uleb128 0xc
 9038 01d3 49        		.uleb128 0x49
 9039 01d4 13        		.uleb128 0x13
 9040 01d5 11        		.uleb128 0x11
 9041 01d6 01        		.uleb128 0x1
 9042 01d7 12        		.uleb128 0x12
 9043 01d8 01        		.uleb128 0x1
 9044 01d9 40        		.uleb128 0x40
 9045 01da 06        		.uleb128 0x6
 9046 01db 9742      		.uleb128 0x2117
 9047 01dd 0C        		.uleb128 0xc
GAS LISTING /tmp/ccjciOO6.s 			page 187


 9048 01de 01        		.uleb128 0x1
 9049 01df 13        		.uleb128 0x13
 9050 01e0 00        		.byte	0
 9051 01e1 00        		.byte	0
 9052 01e2 24        		.uleb128 0x24
 9053 01e3 05        		.uleb128 0x5
 9054 01e4 00        		.byte	0
 9055 01e5 03        		.uleb128 0x3
 9056 01e6 08        		.uleb128 0x8
 9057 01e7 3A        		.uleb128 0x3a
 9058 01e8 0B        		.uleb128 0xb
 9059 01e9 3B        		.uleb128 0x3b
 9060 01ea 0B        		.uleb128 0xb
 9061 01eb 49        		.uleb128 0x49
 9062 01ec 13        		.uleb128 0x13
 9063 01ed 02        		.uleb128 0x2
 9064 01ee 06        		.uleb128 0x6
 9065 01ef 00        		.byte	0
 9066 01f0 00        		.byte	0
 9067 01f1 25        		.uleb128 0x25
 9068 01f2 05        		.uleb128 0x5
 9069 01f3 00        		.byte	0
 9070 01f4 03        		.uleb128 0x3
 9071 01f5 0E        		.uleb128 0xe
 9072 01f6 3A        		.uleb128 0x3a
 9073 01f7 0B        		.uleb128 0xb
 9074 01f8 3B        		.uleb128 0x3b
 9075 01f9 0B        		.uleb128 0xb
 9076 01fa 49        		.uleb128 0x49
 9077 01fb 13        		.uleb128 0x13
 9078 01fc 02        		.uleb128 0x2
 9079 01fd 06        		.uleb128 0x6
 9080 01fe 00        		.byte	0
 9081 01ff 00        		.byte	0
 9082 0200 26        		.uleb128 0x26
 9083 0201 8982 01   		.uleb128 0x4109
 9084 0204 01        		.byte	0x1
 9085 0205 11        		.uleb128 0x11
 9086 0206 01        		.uleb128 0x1
 9087 0207 31        		.uleb128 0x31
 9088 0208 13        		.uleb128 0x13
 9089 0209 00        		.byte	0
 9090 020a 00        		.byte	0
 9091 020b 27        		.uleb128 0x27
 9092 020c 8A82 01   		.uleb128 0x410a
 9093 020f 00        		.byte	0
 9094 0210 02        		.uleb128 0x2
 9095 0211 0A        		.uleb128 0xa
 9096 0212 9142      		.uleb128 0x2111
 9097 0214 0A        		.uleb128 0xa
 9098 0215 00        		.byte	0
 9099 0216 00        		.byte	0
 9100 0217 28        		.uleb128 0x28
 9101 0218 2E        		.uleb128 0x2e
 9102 0219 01        		.byte	0x1
 9103 021a 3F        		.uleb128 0x3f
 9104 021b 0C        		.uleb128 0xc
GAS LISTING /tmp/ccjciOO6.s 			page 188


 9105 021c 03        		.uleb128 0x3
 9106 021d 0E        		.uleb128 0xe
 9107 021e 3A        		.uleb128 0x3a
 9108 021f 0B        		.uleb128 0xb
 9109 0220 3B        		.uleb128 0x3b
 9110 0221 0B        		.uleb128 0xb
 9111 0222 27        		.uleb128 0x27
 9112 0223 0C        		.uleb128 0xc
 9113 0224 11        		.uleb128 0x11
 9114 0225 01        		.uleb128 0x1
 9115 0226 12        		.uleb128 0x12
 9116 0227 01        		.uleb128 0x1
 9117 0228 40        		.uleb128 0x40
 9118 0229 06        		.uleb128 0x6
 9119 022a 9742      		.uleb128 0x2117
 9120 022c 0C        		.uleb128 0xc
 9121 022d 01        		.uleb128 0x1
 9122 022e 13        		.uleb128 0x13
 9123 022f 00        		.byte	0
 9124 0230 00        		.byte	0
 9125 0231 29        		.uleb128 0x29
 9126 0232 05        		.uleb128 0x5
 9127 0233 00        		.byte	0
 9128 0234 03        		.uleb128 0x3
 9129 0235 0E        		.uleb128 0xe
 9130 0236 3A        		.uleb128 0x3a
 9131 0237 0B        		.uleb128 0xb
 9132 0238 3B        		.uleb128 0x3b
 9133 0239 0B        		.uleb128 0xb
 9134 023a 49        		.uleb128 0x49
 9135 023b 13        		.uleb128 0x13
 9136 023c 02        		.uleb128 0x2
 9137 023d 0A        		.uleb128 0xa
 9138 023e 00        		.byte	0
 9139 023f 00        		.byte	0
 9140 0240 2A        		.uleb128 0x2a
 9141 0241 34        		.uleb128 0x34
 9142 0242 00        		.byte	0
 9143 0243 03        		.uleb128 0x3
 9144 0244 0E        		.uleb128 0xe
 9145 0245 3A        		.uleb128 0x3a
 9146 0246 0B        		.uleb128 0xb
 9147 0247 3B        		.uleb128 0x3b
 9148 0248 0B        		.uleb128 0xb
 9149 0249 49        		.uleb128 0x49
 9150 024a 13        		.uleb128 0x13
 9151 024b 02        		.uleb128 0x2
 9152 024c 0A        		.uleb128 0xa
 9153 024d 00        		.byte	0
 9154 024e 00        		.byte	0
 9155 024f 2B        		.uleb128 0x2b
 9156 0250 34        		.uleb128 0x34
 9157 0251 00        		.byte	0
 9158 0252 03        		.uleb128 0x3
 9159 0253 0E        		.uleb128 0xe
 9160 0254 3A        		.uleb128 0x3a
 9161 0255 0B        		.uleb128 0xb
GAS LISTING /tmp/ccjciOO6.s 			page 189


 9162 0256 3B        		.uleb128 0x3b
 9163 0257 0B        		.uleb128 0xb
 9164 0258 49        		.uleb128 0x49
 9165 0259 13        		.uleb128 0x13
 9166 025a 02        		.uleb128 0x2
 9167 025b 06        		.uleb128 0x6
 9168 025c 00        		.byte	0
 9169 025d 00        		.byte	0
 9170 025e 2C        		.uleb128 0x2c
 9171 025f 2E        		.uleb128 0x2e
 9172 0260 01        		.byte	0x1
 9173 0261 3F        		.uleb128 0x3f
 9174 0262 0C        		.uleb128 0xc
 9175 0263 03        		.uleb128 0x3
 9176 0264 0E        		.uleb128 0xe
 9177 0265 3A        		.uleb128 0x3a
 9178 0266 0B        		.uleb128 0xb
 9179 0267 3B        		.uleb128 0x3b
 9180 0268 0B        		.uleb128 0xb
 9181 0269 27        		.uleb128 0x27
 9182 026a 0C        		.uleb128 0xc
 9183 026b 11        		.uleb128 0x11
 9184 026c 01        		.uleb128 0x1
 9185 026d 12        		.uleb128 0x12
 9186 026e 01        		.uleb128 0x1
 9187 026f 40        		.uleb128 0x40
 9188 0270 0A        		.uleb128 0xa
 9189 0271 9742      		.uleb128 0x2117
 9190 0273 0C        		.uleb128 0xc
 9191 0274 01        		.uleb128 0x1
 9192 0275 13        		.uleb128 0x13
 9193 0276 00        		.byte	0
 9194 0277 00        		.byte	0
 9195 0278 2D        		.uleb128 0x2d
 9196 0279 2E        		.uleb128 0x2e
 9197 027a 01        		.byte	0x1
 9198 027b 3F        		.uleb128 0x3f
 9199 027c 0C        		.uleb128 0xc
 9200 027d 03        		.uleb128 0x3
 9201 027e 0E        		.uleb128 0xe
 9202 027f 3A        		.uleb128 0x3a
 9203 0280 0B        		.uleb128 0xb
 9204 0281 3B        		.uleb128 0x3b
 9205 0282 0B        		.uleb128 0xb
 9206 0283 27        		.uleb128 0x27
 9207 0284 0C        		.uleb128 0xc
 9208 0285 49        		.uleb128 0x49
 9209 0286 13        		.uleb128 0x13
 9210 0287 11        		.uleb128 0x11
 9211 0288 01        		.uleb128 0x1
 9212 0289 12        		.uleb128 0x12
 9213 028a 01        		.uleb128 0x1
 9214 028b 40        		.uleb128 0x40
 9215 028c 0A        		.uleb128 0xa
 9216 028d 9742      		.uleb128 0x2117
 9217 028f 0C        		.uleb128 0xc
 9218 0290 01        		.uleb128 0x1
GAS LISTING /tmp/ccjciOO6.s 			page 190


 9219 0291 13        		.uleb128 0x13
 9220 0292 00        		.byte	0
 9221 0293 00        		.byte	0
 9222 0294 2E        		.uleb128 0x2e
 9223 0295 8982 01   		.uleb128 0x4109
 9224 0298 01        		.byte	0x1
 9225 0299 11        		.uleb128 0x11
 9226 029a 01        		.uleb128 0x1
 9227 029b 9542      		.uleb128 0x2115
 9228 029d 0C        		.uleb128 0xc
 9229 029e 31        		.uleb128 0x31
 9230 029f 13        		.uleb128 0x13
 9231 02a0 00        		.byte	0
 9232 02a1 00        		.byte	0
 9233 02a2 2F        		.uleb128 0x2f
 9234 02a3 2E        		.uleb128 0x2e
 9235 02a4 01        		.byte	0x1
 9236 02a5 3F        		.uleb128 0x3f
 9237 02a6 0C        		.uleb128 0xc
 9238 02a7 03        		.uleb128 0x3
 9239 02a8 0E        		.uleb128 0xe
 9240 02a9 3A        		.uleb128 0x3a
 9241 02aa 0B        		.uleb128 0xb
 9242 02ab 3B        		.uleb128 0x3b
 9243 02ac 0B        		.uleb128 0xb
 9244 02ad 27        		.uleb128 0x27
 9245 02ae 0C        		.uleb128 0xc
 9246 02af 49        		.uleb128 0x49
 9247 02b0 13        		.uleb128 0x13
 9248 02b1 11        		.uleb128 0x11
 9249 02b2 01        		.uleb128 0x1
 9250 02b3 12        		.uleb128 0x12
 9251 02b4 01        		.uleb128 0x1
 9252 02b5 40        		.uleb128 0x40
 9253 02b6 06        		.uleb128 0x6
 9254 02b7 9742      		.uleb128 0x2117
 9255 02b9 0C        		.uleb128 0xc
 9256 02ba 01        		.uleb128 0x1
 9257 02bb 13        		.uleb128 0x13
 9258 02bc 00        		.byte	0
 9259 02bd 00        		.byte	0
 9260 02be 30        		.uleb128 0x30
 9261 02bf 2E        		.uleb128 0x2e
 9262 02c0 01        		.byte	0x1
 9263 02c1 3F        		.uleb128 0x3f
 9264 02c2 0C        		.uleb128 0xc
 9265 02c3 03        		.uleb128 0x3
 9266 02c4 0E        		.uleb128 0xe
 9267 02c5 3A        		.uleb128 0x3a
 9268 02c6 0B        		.uleb128 0xb
 9269 02c7 3B        		.uleb128 0x3b
 9270 02c8 05        		.uleb128 0x5
 9271 02c9 27        		.uleb128 0x27
 9272 02ca 0C        		.uleb128 0xc
 9273 02cb 11        		.uleb128 0x11
 9274 02cc 01        		.uleb128 0x1
 9275 02cd 12        		.uleb128 0x12
GAS LISTING /tmp/ccjciOO6.s 			page 191


 9276 02ce 01        		.uleb128 0x1
 9277 02cf 40        		.uleb128 0x40
 9278 02d0 0A        		.uleb128 0xa
 9279 02d1 9742      		.uleb128 0x2117
 9280 02d3 0C        		.uleb128 0xc
 9281 02d4 01        		.uleb128 0x1
 9282 02d5 13        		.uleb128 0x13
 9283 02d6 00        		.byte	0
 9284 02d7 00        		.byte	0
 9285 02d8 31        		.uleb128 0x31
 9286 02d9 05        		.uleb128 0x5
 9287 02da 00        		.byte	0
 9288 02db 03        		.uleb128 0x3
 9289 02dc 0E        		.uleb128 0xe
 9290 02dd 3A        		.uleb128 0x3a
 9291 02de 0B        		.uleb128 0xb
 9292 02df 3B        		.uleb128 0x3b
 9293 02e0 05        		.uleb128 0x5
 9294 02e1 49        		.uleb128 0x49
 9295 02e2 13        		.uleb128 0x13
 9296 02e3 02        		.uleb128 0x2
 9297 02e4 06        		.uleb128 0x6
 9298 02e5 00        		.byte	0
 9299 02e6 00        		.byte	0
 9300 02e7 32        		.uleb128 0x32
 9301 02e8 05        		.uleb128 0x5
 9302 02e9 00        		.byte	0
 9303 02ea 03        		.uleb128 0x3
 9304 02eb 0E        		.uleb128 0xe
 9305 02ec 3A        		.uleb128 0x3a
 9306 02ed 0B        		.uleb128 0xb
 9307 02ee 3B        		.uleb128 0x3b
 9308 02ef 05        		.uleb128 0x5
 9309 02f0 49        		.uleb128 0x49
 9310 02f1 13        		.uleb128 0x13
 9311 02f2 02        		.uleb128 0x2
 9312 02f3 0A        		.uleb128 0xa
 9313 02f4 00        		.byte	0
 9314 02f5 00        		.byte	0
 9315 02f6 33        		.uleb128 0x33
 9316 02f7 2E        		.uleb128 0x2e
 9317 02f8 00        		.byte	0
 9318 02f9 3F        		.uleb128 0x3f
 9319 02fa 0C        		.uleb128 0xc
 9320 02fb 03        		.uleb128 0x3
 9321 02fc 0E        		.uleb128 0xe
 9322 02fd 3A        		.uleb128 0x3a
 9323 02fe 0B        		.uleb128 0xb
 9324 02ff 3B        		.uleb128 0x3b
 9325 0300 0B        		.uleb128 0xb
 9326 0301 27        		.uleb128 0x27
 9327 0302 0C        		.uleb128 0xc
 9328 0303 11        		.uleb128 0x11
 9329 0304 01        		.uleb128 0x1
 9330 0305 12        		.uleb128 0x12
 9331 0306 01        		.uleb128 0x1
 9332 0307 40        		.uleb128 0x40
GAS LISTING /tmp/ccjciOO6.s 			page 192


 9333 0308 06        		.uleb128 0x6
 9334 0309 9742      		.uleb128 0x2117
 9335 030b 0C        		.uleb128 0xc
 9336 030c 00        		.byte	0
 9337 030d 00        		.byte	0
 9338 030e 34        		.uleb128 0x34
 9339 030f 2E        		.uleb128 0x2e
 9340 0310 00        		.byte	0
 9341 0311 3F        		.uleb128 0x3f
 9342 0312 0C        		.uleb128 0xc
 9343 0313 03        		.uleb128 0x3
 9344 0314 0E        		.uleb128 0xe
 9345 0315 3A        		.uleb128 0x3a
 9346 0316 0B        		.uleb128 0xb
 9347 0317 3B        		.uleb128 0x3b
 9348 0318 0B        		.uleb128 0xb
 9349 0319 27        		.uleb128 0x27
 9350 031a 0C        		.uleb128 0xc
 9351 031b 49        		.uleb128 0x49
 9352 031c 13        		.uleb128 0x13
 9353 031d 11        		.uleb128 0x11
 9354 031e 01        		.uleb128 0x1
 9355 031f 12        		.uleb128 0x12
 9356 0320 01        		.uleb128 0x1
 9357 0321 40        		.uleb128 0x40
 9358 0322 0A        		.uleb128 0xa
 9359 0323 9742      		.uleb128 0x2117
 9360 0325 0C        		.uleb128 0xc
 9361 0326 00        		.byte	0
 9362 0327 00        		.byte	0
 9363 0328 35        		.uleb128 0x35
 9364 0329 1D        		.uleb128 0x1d
 9365 032a 01        		.byte	0x1
 9366 032b 31        		.uleb128 0x31
 9367 032c 13        		.uleb128 0x13
 9368 032d 11        		.uleb128 0x11
 9369 032e 01        		.uleb128 0x1
 9370 032f 12        		.uleb128 0x12
 9371 0330 01        		.uleb128 0x1
 9372 0331 58        		.uleb128 0x58
 9373 0332 0B        		.uleb128 0xb
 9374 0333 59        		.uleb128 0x59
 9375 0334 0B        		.uleb128 0xb
 9376 0335 00        		.byte	0
 9377 0336 00        		.byte	0
 9378 0337 36        		.uleb128 0x36
 9379 0338 05        		.uleb128 0x5
 9380 0339 00        		.byte	0
 9381 033a 31        		.uleb128 0x31
 9382 033b 13        		.uleb128 0x13
 9383 033c 02        		.uleb128 0x2
 9384 033d 06        		.uleb128 0x6
 9385 033e 00        		.byte	0
 9386 033f 00        		.byte	0
 9387 0340 37        		.uleb128 0x37
 9388 0341 0B        		.uleb128 0xb
 9389 0342 01        		.byte	0x1
GAS LISTING /tmp/ccjciOO6.s 			page 193


 9390 0343 11        		.uleb128 0x11
 9391 0344 01        		.uleb128 0x1
 9392 0345 12        		.uleb128 0x12
 9393 0346 01        		.uleb128 0x1
 9394 0347 00        		.byte	0
 9395 0348 00        		.byte	0
 9396 0349 38        		.uleb128 0x38
 9397 034a 34        		.uleb128 0x34
 9398 034b 00        		.byte	0
 9399 034c 31        		.uleb128 0x31
 9400 034d 13        		.uleb128 0x13
 9401 034e 02        		.uleb128 0x2
 9402 034f 06        		.uleb128 0x6
 9403 0350 00        		.byte	0
 9404 0351 00        		.byte	0
 9405 0352 39        		.uleb128 0x39
 9406 0353 2E        		.uleb128 0x2e
 9407 0354 01        		.byte	0x1
 9408 0355 31        		.uleb128 0x31
 9409 0356 13        		.uleb128 0x13
 9410 0357 11        		.uleb128 0x11
 9411 0358 01        		.uleb128 0x1
 9412 0359 12        		.uleb128 0x12
 9413 035a 01        		.uleb128 0x1
 9414 035b 40        		.uleb128 0x40
 9415 035c 0A        		.uleb128 0xa
 9416 035d 9742      		.uleb128 0x2117
 9417 035f 0C        		.uleb128 0xc
 9418 0360 01        		.uleb128 0x1
 9419 0361 13        		.uleb128 0x13
 9420 0362 00        		.byte	0
 9421 0363 00        		.byte	0
 9422 0364 3A        		.uleb128 0x3a
 9423 0365 2E        		.uleb128 0x2e
 9424 0366 00        		.byte	0
 9425 0367 3F        		.uleb128 0x3f
 9426 0368 0C        		.uleb128 0xc
 9427 0369 03        		.uleb128 0x3
 9428 036a 0E        		.uleb128 0xe
 9429 036b 3A        		.uleb128 0x3a
 9430 036c 0B        		.uleb128 0xb
 9431 036d 3B        		.uleb128 0x3b
 9432 036e 0B        		.uleb128 0xb
 9433 036f 27        		.uleb128 0x27
 9434 0370 0C        		.uleb128 0xc
 9435 0371 11        		.uleb128 0x11
 9436 0372 01        		.uleb128 0x1
 9437 0373 12        		.uleb128 0x12
 9438 0374 01        		.uleb128 0x1
 9439 0375 40        		.uleb128 0x40
 9440 0376 0A        		.uleb128 0xa
 9441 0377 9742      		.uleb128 0x2117
 9442 0379 0C        		.uleb128 0xc
 9443 037a 00        		.byte	0
 9444 037b 00        		.byte	0
 9445 037c 3B        		.uleb128 0x3b
 9446 037d 2E        		.uleb128 0x2e
GAS LISTING /tmp/ccjciOO6.s 			page 194


 9447 037e 00        		.byte	0
 9448 037f 31        		.uleb128 0x31
 9449 0380 13        		.uleb128 0x13
 9450 0381 11        		.uleb128 0x11
 9451 0382 01        		.uleb128 0x1
 9452 0383 12        		.uleb128 0x12
 9453 0384 01        		.uleb128 0x1
 9454 0385 40        		.uleb128 0x40
 9455 0386 0A        		.uleb128 0xa
 9456 0387 9742      		.uleb128 0x2117
 9457 0389 0C        		.uleb128 0xc
 9458 038a 00        		.byte	0
 9459 038b 00        		.byte	0
 9460 038c 3C        		.uleb128 0x3c
 9461 038d 8982 01   		.uleb128 0x4109
 9462 0390 01        		.byte	0x1
 9463 0391 11        		.uleb128 0x11
 9464 0392 01        		.uleb128 0x1
 9465 0393 31        		.uleb128 0x31
 9466 0394 13        		.uleb128 0x13
 9467 0395 01        		.uleb128 0x1
 9468 0396 13        		.uleb128 0x13
 9469 0397 00        		.byte	0
 9470 0398 00        		.byte	0
 9471 0399 3D        		.uleb128 0x3d
 9472 039a 34        		.uleb128 0x34
 9473 039b 00        		.byte	0
 9474 039c 03        		.uleb128 0x3
 9475 039d 08        		.uleb128 0x8
 9476 039e 3A        		.uleb128 0x3a
 9477 039f 0B        		.uleb128 0xb
 9478 03a0 3B        		.uleb128 0x3b
 9479 03a1 0B        		.uleb128 0xb
 9480 03a2 49        		.uleb128 0x49
 9481 03a3 13        		.uleb128 0x13
 9482 03a4 02        		.uleb128 0x2
 9483 03a5 06        		.uleb128 0x6
 9484 03a6 00        		.byte	0
 9485 03a7 00        		.byte	0
 9486 03a8 3E        		.uleb128 0x3e
 9487 03a9 2E        		.uleb128 0x2e
 9488 03aa 01        		.byte	0x1
 9489 03ab 31        		.uleb128 0x31
 9490 03ac 13        		.uleb128 0x13
 9491 03ad 11        		.uleb128 0x11
 9492 03ae 01        		.uleb128 0x1
 9493 03af 12        		.uleb128 0x12
 9494 03b0 01        		.uleb128 0x1
 9495 03b1 40        		.uleb128 0x40
 9496 03b2 06        		.uleb128 0x6
 9497 03b3 9742      		.uleb128 0x2117
 9498 03b5 0C        		.uleb128 0xc
 9499 03b6 01        		.uleb128 0x1
 9500 03b7 13        		.uleb128 0x13
 9501 03b8 00        		.byte	0
 9502 03b9 00        		.byte	0
 9503 03ba 3F        		.uleb128 0x3f
GAS LISTING /tmp/ccjciOO6.s 			page 195


 9504 03bb 05        		.uleb128 0x5
 9505 03bc 00        		.byte	0
 9506 03bd 31        		.uleb128 0x31
 9507 03be 13        		.uleb128 0x13
 9508 03bf 02        		.uleb128 0x2
 9509 03c0 0A        		.uleb128 0xa
 9510 03c1 00        		.byte	0
 9511 03c2 00        		.byte	0
 9512 03c3 40        		.uleb128 0x40
 9513 03c4 2E        		.uleb128 0x2e
 9514 03c5 01        		.byte	0x1
 9515 03c6 3F        		.uleb128 0x3f
 9516 03c7 0C        		.uleb128 0xc
 9517 03c8 03        		.uleb128 0x3
 9518 03c9 0E        		.uleb128 0xe
 9519 03ca 3A        		.uleb128 0x3a
 9520 03cb 0B        		.uleb128 0xb
 9521 03cc 3B        		.uleb128 0x3b
 9522 03cd 05        		.uleb128 0x5
 9523 03ce 27        		.uleb128 0x27
 9524 03cf 0C        		.uleb128 0xc
 9525 03d0 11        		.uleb128 0x11
 9526 03d1 01        		.uleb128 0x1
 9527 03d2 12        		.uleb128 0x12
 9528 03d3 01        		.uleb128 0x1
 9529 03d4 40        		.uleb128 0x40
 9530 03d5 06        		.uleb128 0x6
 9531 03d6 9742      		.uleb128 0x2117
 9532 03d8 0C        		.uleb128 0xc
 9533 03d9 01        		.uleb128 0x1
 9534 03da 13        		.uleb128 0x13
 9535 03db 00        		.byte	0
 9536 03dc 00        		.byte	0
 9537 03dd 41        		.uleb128 0x41
 9538 03de 8982 01   		.uleb128 0x4109
 9539 03e1 00        		.byte	0
 9540 03e2 11        		.uleb128 0x11
 9541 03e3 01        		.uleb128 0x1
 9542 03e4 31        		.uleb128 0x31
 9543 03e5 13        		.uleb128 0x13
 9544 03e6 00        		.byte	0
 9545 03e7 00        		.byte	0
 9546 03e8 42        		.uleb128 0x42
 9547 03e9 8982 01   		.uleb128 0x4109
 9548 03ec 00        		.byte	0
 9549 03ed 11        		.uleb128 0x11
 9550 03ee 01        		.uleb128 0x1
 9551 03ef 9542      		.uleb128 0x2115
 9552 03f1 0C        		.uleb128 0xc
 9553 03f2 31        		.uleb128 0x31
 9554 03f3 13        		.uleb128 0x13
 9555 03f4 00        		.byte	0
 9556 03f5 00        		.byte	0
 9557 03f6 43        		.uleb128 0x43
 9558 03f7 2E        		.uleb128 0x2e
 9559 03f8 01        		.byte	0x1
 9560 03f9 3F        		.uleb128 0x3f
GAS LISTING /tmp/ccjciOO6.s 			page 196


 9561 03fa 0C        		.uleb128 0xc
 9562 03fb 03        		.uleb128 0x3
 9563 03fc 0E        		.uleb128 0xe
 9564 03fd 3A        		.uleb128 0x3a
 9565 03fe 0B        		.uleb128 0xb
 9566 03ff 3B        		.uleb128 0x3b
 9567 0400 05        		.uleb128 0x5
 9568 0401 27        		.uleb128 0x27
 9569 0402 0C        		.uleb128 0xc
 9570 0403 11        		.uleb128 0x11
 9571 0404 01        		.uleb128 0x1
 9572 0405 12        		.uleb128 0x12
 9573 0406 01        		.uleb128 0x1
 9574 0407 40        		.uleb128 0x40
 9575 0408 06        		.uleb128 0x6
 9576 0409 9642      		.uleb128 0x2116
 9577 040b 0C        		.uleb128 0xc
 9578 040c 01        		.uleb128 0x1
 9579 040d 13        		.uleb128 0x13
 9580 040e 00        		.byte	0
 9581 040f 00        		.byte	0
 9582 0410 44        		.uleb128 0x44
 9583 0411 1D        		.uleb128 0x1d
 9584 0412 00        		.byte	0
 9585 0413 31        		.uleb128 0x31
 9586 0414 13        		.uleb128 0x13
 9587 0415 11        		.uleb128 0x11
 9588 0416 01        		.uleb128 0x1
 9589 0417 12        		.uleb128 0x12
 9590 0418 01        		.uleb128 0x1
 9591 0419 58        		.uleb128 0x58
 9592 041a 0B        		.uleb128 0xb
 9593 041b 59        		.uleb128 0x59
 9594 041c 05        		.uleb128 0x5
 9595 041d 00        		.byte	0
 9596 041e 00        		.byte	0
 9597 041f 45        		.uleb128 0x45
 9598 0420 34        		.uleb128 0x34
 9599 0421 00        		.byte	0
 9600 0422 03        		.uleb128 0x3
 9601 0423 0E        		.uleb128 0xe
 9602 0424 3A        		.uleb128 0x3a
 9603 0425 0B        		.uleb128 0xb
 9604 0426 3B        		.uleb128 0x3b
 9605 0427 05        		.uleb128 0x5
 9606 0428 49        		.uleb128 0x49
 9607 0429 13        		.uleb128 0x13
 9608 042a 02        		.uleb128 0x2
 9609 042b 0A        		.uleb128 0xa
 9610 042c 00        		.byte	0
 9611 042d 00        		.byte	0
 9612 042e 46        		.uleb128 0x46
 9613 042f 34        		.uleb128 0x34
 9614 0430 00        		.byte	0
 9615 0431 03        		.uleb128 0x3
 9616 0432 0E        		.uleb128 0xe
 9617 0433 3A        		.uleb128 0x3a
GAS LISTING /tmp/ccjciOO6.s 			page 197


 9618 0434 0B        		.uleb128 0xb
 9619 0435 3B        		.uleb128 0x3b
 9620 0436 05        		.uleb128 0x5
 9621 0437 49        		.uleb128 0x49
 9622 0438 13        		.uleb128 0x13
 9623 0439 02        		.uleb128 0x2
 9624 043a 06        		.uleb128 0x6
 9625 043b 00        		.byte	0
 9626 043c 00        		.byte	0
 9627 043d 47        		.uleb128 0x47
 9628 043e 34        		.uleb128 0x34
 9629 043f 00        		.byte	0
 9630 0440 03        		.uleb128 0x3
 9631 0441 08        		.uleb128 0x8
 9632 0442 3A        		.uleb128 0x3a
 9633 0443 0B        		.uleb128 0xb
 9634 0444 3B        		.uleb128 0x3b
 9635 0445 05        		.uleb128 0x5
 9636 0446 49        		.uleb128 0x49
 9637 0447 13        		.uleb128 0x13
 9638 0448 02        		.uleb128 0x2
 9639 0449 06        		.uleb128 0x6
 9640 044a 00        		.byte	0
 9641 044b 00        		.byte	0
 9642 044c 48        		.uleb128 0x48
 9643 044d 1D        		.uleb128 0x1d
 9644 044e 01        		.byte	0x1
 9645 044f 31        		.uleb128 0x31
 9646 0450 13        		.uleb128 0x13
 9647 0451 11        		.uleb128 0x11
 9648 0452 01        		.uleb128 0x1
 9649 0453 12        		.uleb128 0x12
 9650 0454 01        		.uleb128 0x1
 9651 0455 58        		.uleb128 0x58
 9652 0456 0B        		.uleb128 0xb
 9653 0457 59        		.uleb128 0x59
 9654 0458 05        		.uleb128 0x5
 9655 0459 01        		.uleb128 0x1
 9656 045a 13        		.uleb128 0x13
 9657 045b 00        		.byte	0
 9658 045c 00        		.byte	0
 9659 045d 49        		.uleb128 0x49
 9660 045e 05        		.uleb128 0x5
 9661 045f 00        		.byte	0
 9662 0460 31        		.uleb128 0x31
 9663 0461 13        		.uleb128 0x13
 9664 0462 00        		.byte	0
 9665 0463 00        		.byte	0
 9666 0464 4A        		.uleb128 0x4a
 9667 0465 01        		.uleb128 0x1
 9668 0466 01        		.byte	0x1
 9669 0467 49        		.uleb128 0x49
 9670 0468 13        		.uleb128 0x13
 9671 0469 01        		.uleb128 0x1
 9672 046a 13        		.uleb128 0x13
 9673 046b 00        		.byte	0
 9674 046c 00        		.byte	0
GAS LISTING /tmp/ccjciOO6.s 			page 198


 9675 046d 4B        		.uleb128 0x4b
 9676 046e 21        		.uleb128 0x21
 9677 046f 00        		.byte	0
 9678 0470 49        		.uleb128 0x49
 9679 0471 13        		.uleb128 0x13
 9680 0472 2F        		.uleb128 0x2f
 9681 0473 0B        		.uleb128 0xb
 9682 0474 00        		.byte	0
 9683 0475 00        		.byte	0
 9684 0476 4C        		.uleb128 0x4c
 9685 0477 1D        		.uleb128 0x1d
 9686 0478 01        		.byte	0x1
 9687 0479 31        		.uleb128 0x31
 9688 047a 13        		.uleb128 0x13
 9689 047b 11        		.uleb128 0x11
 9690 047c 01        		.uleb128 0x1
 9691 047d 12        		.uleb128 0x12
 9692 047e 01        		.uleb128 0x1
 9693 047f 58        		.uleb128 0x58
 9694 0480 0B        		.uleb128 0xb
 9695 0481 59        		.uleb128 0x59
 9696 0482 05        		.uleb128 0x5
 9697 0483 00        		.byte	0
 9698 0484 00        		.byte	0
 9699 0485 4D        		.uleb128 0x4d
 9700 0486 2E        		.uleb128 0x2e
 9701 0487 01        		.byte	0x1
 9702 0488 3F        		.uleb128 0x3f
 9703 0489 0C        		.uleb128 0xc
 9704 048a 03        		.uleb128 0x3
 9705 048b 0E        		.uleb128 0xe
 9706 048c 3A        		.uleb128 0x3a
 9707 048d 0B        		.uleb128 0xb
 9708 048e 3B        		.uleb128 0x3b
 9709 048f 05        		.uleb128 0x5
 9710 0490 27        		.uleb128 0x27
 9711 0491 0C        		.uleb128 0xc
 9712 0492 8701      		.uleb128 0x87
 9713 0494 0C        		.uleb128 0xc
 9714 0495 11        		.uleb128 0x11
 9715 0496 01        		.uleb128 0x1
 9716 0497 12        		.uleb128 0x12
 9717 0498 01        		.uleb128 0x1
 9718 0499 40        		.uleb128 0x40
 9719 049a 0A        		.uleb128 0xa
 9720 049b 9742      		.uleb128 0x2117
 9721 049d 0C        		.uleb128 0xc
 9722 049e 01        		.uleb128 0x1
 9723 049f 13        		.uleb128 0x13
 9724 04a0 00        		.byte	0
 9725 04a1 00        		.byte	0
 9726 04a2 4E        		.uleb128 0x4e
 9727 04a3 1D        		.uleb128 0x1d
 9728 04a4 01        		.byte	0x1
 9729 04a5 31        		.uleb128 0x31
 9730 04a6 13        		.uleb128 0x13
 9731 04a7 52        		.uleb128 0x52
GAS LISTING /tmp/ccjciOO6.s 			page 199


 9732 04a8 01        		.uleb128 0x1
 9733 04a9 55        		.uleb128 0x55
 9734 04aa 06        		.uleb128 0x6
 9735 04ab 58        		.uleb128 0x58
 9736 04ac 0B        		.uleb128 0xb
 9737 04ad 59        		.uleb128 0x59
 9738 04ae 05        		.uleb128 0x5
 9739 04af 01        		.uleb128 0x1
 9740 04b0 13        		.uleb128 0x13
 9741 04b1 00        		.byte	0
 9742 04b2 00        		.byte	0
 9743 04b3 4F        		.uleb128 0x4f
 9744 04b4 0B        		.uleb128 0xb
 9745 04b5 01        		.byte	0x1
 9746 04b6 11        		.uleb128 0x11
 9747 04b7 01        		.uleb128 0x1
 9748 04b8 12        		.uleb128 0x12
 9749 04b9 01        		.uleb128 0x1
 9750 04ba 01        		.uleb128 0x1
 9751 04bb 13        		.uleb128 0x13
 9752 04bc 00        		.byte	0
 9753 04bd 00        		.byte	0
 9754 04be 50        		.uleb128 0x50
 9755 04bf 2E        		.uleb128 0x2e
 9756 04c0 00        		.byte	0
 9757 04c1 03        		.uleb128 0x3
 9758 04c2 0E        		.uleb128 0xe
 9759 04c3 3A        		.uleb128 0x3a
 9760 04c4 0B        		.uleb128 0xb
 9761 04c5 3B        		.uleb128 0x3b
 9762 04c6 0B        		.uleb128 0xb
 9763 04c7 27        		.uleb128 0x27
 9764 04c8 0C        		.uleb128 0xc
 9765 04c9 20        		.uleb128 0x20
 9766 04ca 0B        		.uleb128 0xb
 9767 04cb 00        		.byte	0
 9768 04cc 00        		.byte	0
 9769 04cd 51        		.uleb128 0x51
 9770 04ce 2E        		.uleb128 0x2e
 9771 04cf 01        		.byte	0x1
 9772 04d0 3F        		.uleb128 0x3f
 9773 04d1 0C        		.uleb128 0xc
 9774 04d2 03        		.uleb128 0x3
 9775 04d3 0E        		.uleb128 0xe
 9776 04d4 3A        		.uleb128 0x3a
 9777 04d5 0B        		.uleb128 0xb
 9778 04d6 3B        		.uleb128 0x3b
 9779 04d7 05        		.uleb128 0x5
 9780 04d8 27        		.uleb128 0x27
 9781 04d9 0C        		.uleb128 0xc
 9782 04da 49        		.uleb128 0x49
 9783 04db 13        		.uleb128 0x13
 9784 04dc 8701      		.uleb128 0x87
 9785 04de 0C        		.uleb128 0xc
 9786 04df 11        		.uleb128 0x11
 9787 04e0 01        		.uleb128 0x1
 9788 04e1 12        		.uleb128 0x12
GAS LISTING /tmp/ccjciOO6.s 			page 200


 9789 04e2 01        		.uleb128 0x1
 9790 04e3 40        		.uleb128 0x40
 9791 04e4 0A        		.uleb128 0xa
 9792 04e5 9742      		.uleb128 0x2117
 9793 04e7 0C        		.uleb128 0xc
 9794 04e8 01        		.uleb128 0x1
 9795 04e9 13        		.uleb128 0x13
 9796 04ea 00        		.byte	0
 9797 04eb 00        		.byte	0
 9798 04ec 52        		.uleb128 0x52
 9799 04ed 21        		.uleb128 0x21
 9800 04ee 00        		.byte	0
 9801 04ef 00        		.byte	0
 9802 04f0 00        		.byte	0
 9803 04f1 53        		.uleb128 0x53
 9804 04f2 34        		.uleb128 0x34
 9805 04f3 00        		.byte	0
 9806 04f4 03        		.uleb128 0x3
 9807 04f5 0E        		.uleb128 0xe
 9808 04f6 3A        		.uleb128 0x3a
 9809 04f7 0B        		.uleb128 0xb
 9810 04f8 3B        		.uleb128 0x3b
 9811 04f9 05        		.uleb128 0x5
 9812 04fa 49        		.uleb128 0x49
 9813 04fb 13        		.uleb128 0x13
 9814 04fc 3F        		.uleb128 0x3f
 9815 04fd 0C        		.uleb128 0xc
 9816 04fe 3C        		.uleb128 0x3c
 9817 04ff 0C        		.uleb128 0xc
 9818 0500 00        		.byte	0
 9819 0501 00        		.byte	0
 9820 0502 54        		.uleb128 0x54
 9821 0503 34        		.uleb128 0x34
 9822 0504 00        		.byte	0
 9823 0505 03        		.uleb128 0x3
 9824 0506 0E        		.uleb128 0xe
 9825 0507 3A        		.uleb128 0x3a
 9826 0508 0B        		.uleb128 0xb
 9827 0509 3B        		.uleb128 0x3b
 9828 050a 0B        		.uleb128 0xb
 9829 050b 49        		.uleb128 0x49
 9830 050c 13        		.uleb128 0x13
 9831 050d 3F        		.uleb128 0x3f
 9832 050e 0C        		.uleb128 0xc
 9833 050f 02        		.uleb128 0x2
 9834 0510 0A        		.uleb128 0xa
 9835 0511 00        		.byte	0
 9836 0512 00        		.byte	0
 9837 0513 55        		.uleb128 0x55
 9838 0514 34        		.uleb128 0x34
 9839 0515 00        		.byte	0
 9840 0516 03        		.uleb128 0x3
 9841 0517 0E        		.uleb128 0xe
 9842 0518 3A        		.uleb128 0x3a
 9843 0519 0B        		.uleb128 0xb
 9844 051a 3B        		.uleb128 0x3b
 9845 051b 05        		.uleb128 0x5
GAS LISTING /tmp/ccjciOO6.s 			page 201


 9846 051c 49        		.uleb128 0x49
 9847 051d 13        		.uleb128 0x13
 9848 051e 3F        		.uleb128 0x3f
 9849 051f 0C        		.uleb128 0xc
 9850 0520 02        		.uleb128 0x2
 9851 0521 0A        		.uleb128 0xa
 9852 0522 00        		.byte	0
 9853 0523 00        		.byte	0
 9854 0524 56        		.uleb128 0x56
 9855 0525 2E        		.uleb128 0x2e
 9856 0526 00        		.byte	0
 9857 0527 3F        		.uleb128 0x3f
 9858 0528 0C        		.uleb128 0xc
 9859 0529 3C        		.uleb128 0x3c
 9860 052a 0C        		.uleb128 0xc
 9861 052b 8740      		.uleb128 0x2007
 9862 052d 0E        		.uleb128 0xe
 9863 052e 03        		.uleb128 0x3
 9864 052f 0E        		.uleb128 0xe
 9865 0530 3A        		.uleb128 0x3a
 9866 0531 0B        		.uleb128 0xb
 9867 0532 3B        		.uleb128 0x3b
 9868 0533 0B        		.uleb128 0xb
 9869 0534 8740      		.uleb128 0x2007
 9870 0536 0E        		.uleb128 0xe
 9871 0537 00        		.byte	0
 9872 0538 00        		.byte	0
 9873 0539 00        		.byte	0
 9874               		.section	.debug_loc,"",@progbits
 9875               	.Ldebug_loc0:
 9876               	.LLST0:
 9877 0000 0000 0000 		.long	.LFB23
 9878 0004 0000 0000 		.long	.LCFI0
 9879 0008 0300      		.word	0x3
 9880 000a 92        		.byte	0x92
 9881 000b 20        		.uleb128 0x20
 9882 000c 02        		.sleb128 2
 9883 000d 0000 0000 		.long	.LCFI0
 9884 0011 0000 0000 		.long	.LFE23
 9885 0015 0300      		.word	0x3
 9886 0017 92        		.byte	0x92
 9887 0018 20        		.uleb128 0x20
 9888 0019 03        		.sleb128 3
 9889 001a 0000 0000 		.long	0
 9890 001e 0000 0000 		.long	0
 9891               	.LLST1:
 9892 0022 0000 0000 		.long	.LVL0
 9893 0026 0000 0000 		.long	.LVL1
 9894 002a 0100      		.word	0x1
 9895 002c 68        		.byte	0x68
 9896 002d 0000 0000 		.long	.LVL1
 9897 0031 0000 0000 		.long	.LVL3
 9898 0035 0100      		.word	0x1
 9899 0037 6C        		.byte	0x6c
 9900 0038 0000 0000 		.long	.LVL3
 9901 003c 0000 0000 		.long	.LFE23
 9902 0040 0300      		.word	0x3
GAS LISTING /tmp/ccjciOO6.s 			page 202


 9903 0042 0A        		.byte	0xa
 9904 0043 B009      		.word	0x9b0
 9905 0045 0000 0000 		.long	0
 9906 0049 0000 0000 		.long	0
 9907               	.LLST2:
 9908 004d 0000 0000 		.long	.LVL0
 9909 0051 0000 0000 		.long	.LVL2-1
 9910 0055 0600      		.word	0x6
 9911 0057 66        		.byte	0x66
 9912 0058 93        		.byte	0x93
 9913 0059 01        		.uleb128 0x1
 9914 005a 67        		.byte	0x67
 9915 005b 93        		.byte	0x93
 9916 005c 01        		.uleb128 0x1
 9917 005d 0000 0000 		.long	.LVL2-1
 9918 0061 0000 0000 		.long	.LFE23
 9919 0065 0400      		.word	0x4
 9920 0067 F3        		.byte	0xf3
 9921 0068 01        		.uleb128 0x1
 9922 0069 66        		.byte	0x66
 9923 006a 9F        		.byte	0x9f
 9924 006b 0000 0000 		.long	0
 9925 006f 0000 0000 		.long	0
 9926               	.LLST3:
 9927 0073 0000 0000 		.long	.LFB12
 9928 0077 0000 0000 		.long	.LCFI1
 9929 007b 0300      		.word	0x3
 9930 007d 92        		.byte	0x92
 9931 007e 20        		.uleb128 0x20
 9932 007f 02        		.sleb128 2
 9933 0080 0000 0000 		.long	.LCFI1
 9934 0084 0000 0000 		.long	.LCFI2
 9935 0088 0300      		.word	0x3
 9936 008a 92        		.byte	0x92
 9937 008b 20        		.uleb128 0x20
 9938 008c 03        		.sleb128 3
 9939 008d 0000 0000 		.long	.LCFI2
 9940 0091 0000 0000 		.long	.LCFI3
 9941 0095 0300      		.word	0x3
 9942 0097 92        		.byte	0x92
 9943 0098 20        		.uleb128 0x20
 9944 0099 04        		.sleb128 4
 9945 009a 0000 0000 		.long	.LCFI3
 9946 009e 0000 0000 		.long	.LCFI4
 9947 00a2 0300      		.word	0x3
 9948 00a4 92        		.byte	0x92
 9949 00a5 20        		.uleb128 0x20
 9950 00a6 05        		.sleb128 5
 9951 00a7 0000 0000 		.long	.LCFI4
 9952 00ab 0000 0000 		.long	.LCFI5
 9953 00af 0300      		.word	0x3
 9954 00b1 92        		.byte	0x92
 9955 00b2 20        		.uleb128 0x20
 9956 00b3 06        		.sleb128 6
 9957 00b4 0000 0000 		.long	.LCFI5
 9958 00b8 0000 0000 		.long	.LFE12
 9959 00bc 0200      		.word	0x2
GAS LISTING /tmp/ccjciOO6.s 			page 203


 9960 00be 8C        		.byte	0x8c
 9961 00bf 06        		.sleb128 6
 9962 00c0 0000 0000 		.long	0
 9963 00c4 0000 0000 		.long	0
 9964               	.LLST4:
 9965 00c8 0000 0000 		.long	.LVL4
 9966 00cc 0000 0000 		.long	.LVL6
 9967 00d0 0600      		.word	0x6
 9968 00d2 68        		.byte	0x68
 9969 00d3 93        		.byte	0x93
 9970 00d4 01        		.uleb128 0x1
 9971 00d5 69        		.byte	0x69
 9972 00d6 93        		.byte	0x93
 9973 00d7 01        		.uleb128 0x1
 9974 00d8 0000 0000 		.long	.LVL6
 9975 00dc 0000 0000 		.long	.LFE12
 9976 00e0 0400      		.word	0x4
 9977 00e2 F3        		.byte	0xf3
 9978 00e3 01        		.uleb128 0x1
 9979 00e4 68        		.byte	0x68
 9980 00e5 9F        		.byte	0x9f
 9981 00e6 0000 0000 		.long	0
 9982 00ea 0000 0000 		.long	0
 9983               	.LLST5:
 9984 00ee 0000 0000 		.long	.LVL5
 9985 00f2 0000 0000 		.long	.LVL6
 9986 00f6 0600      		.word	0x6
 9987 00f8 68        		.byte	0x68
 9988 00f9 93        		.byte	0x93
 9989 00fa 01        		.uleb128 0x1
 9990 00fb 69        		.byte	0x69
 9991 00fc 93        		.byte	0x93
 9992 00fd 01        		.uleb128 0x1
 9993 00fe 0000 0000 		.long	.LVL6
 9994 0102 0000 0000 		.long	.LFE12
 9995 0106 0400      		.word	0x4
 9996 0108 F3        		.byte	0xf3
 9997 0109 01        		.uleb128 0x1
 9998 010a 68        		.byte	0x68
 9999 010b 9F        		.byte	0x9f
 10000 010c 0000 0000 		.long	0
 10001 0110 0000 0000 		.long	0
 10002               	.LLST6:
 10003 0114 0000 0000 		.long	.LVL7
 10004 0118 0000 0000 		.long	.LVL8
 10005 011c 0100      		.word	0x1
 10006 011e 68        		.byte	0x68
 10007 011f 0000 0000 		.long	.LVL8
 10008 0123 0000 0000 		.long	.LFE13
 10009 0127 0400      		.word	0x4
 10010 0129 F3        		.byte	0xf3
 10011 012a 01        		.uleb128 0x1
 10012 012b 68        		.byte	0x68
 10013 012c 9F        		.byte	0x9f
 10014 012d 0000 0000 		.long	0
 10015 0131 0000 0000 		.long	0
 10016               	.LLST7:
GAS LISTING /tmp/ccjciOO6.s 			page 204


 10017 0135 0000 0000 		.long	.LVL9
 10018 0139 0000 0000 		.long	.LVL11
 10019 013d 0100      		.word	0x1
 10020 013f 68        		.byte	0x68
 10021 0140 0000 0000 		.long	.LVL11
 10022 0144 0000 0000 		.long	.LFE14
 10023 0148 0400      		.word	0x4
 10024 014a F3        		.byte	0xf3
 10025 014b 01        		.uleb128 0x1
 10026 014c 68        		.byte	0x68
 10027 014d 9F        		.byte	0x9f
 10028 014e 0000 0000 		.long	0
 10029 0152 0000 0000 		.long	0
 10030               	.LLST8:
 10031 0156 0000 0000 		.long	.LVL9
 10032 015a 0000 0000 		.long	.LVL9
 10033 015e 0100      		.word	0x1
 10034 0160 66        		.byte	0x66
 10035 0161 0000 0000 		.long	.LVL9
 10036 0165 0000 0000 		.long	.LVL10
 10037 0169 0500      		.word	0x5
 10038 016b 86        		.byte	0x86
 10039 016c 00        		.sleb128 0
 10040 016d 4F        		.byte	0x4f
 10041 016e 1A        		.byte	0x1a
 10042 016f 9F        		.byte	0x9f
 10043 0170 0000 0000 		.long	.LVL10
 10044 0174 0000 0000 		.long	.LFE14
 10045 0178 0100      		.word	0x1
 10046 017a 66        		.byte	0x66
 10047 017b 0000 0000 		.long	0
 10048 017f 0000 0000 		.long	0
 10049               	.LLST9:
 10050 0183 0000 0000 		.long	.LVL12
 10051 0187 0000 0000 		.long	.LVL14
 10052 018b 0100      		.word	0x1
 10053 018d 68        		.byte	0x68
 10054 018e 0000 0000 		.long	.LVL14
 10055 0192 0000 0000 		.long	.LFE15
 10056 0196 0400      		.word	0x4
 10057 0198 82        		.byte	0x82
 10058 0199 00        		.sleb128 0
 10059 019a 20        		.byte	0x20
 10060 019b 9F        		.byte	0x9f
 10061 019c 0000 0000 		.long	0
 10062 01a0 0000 0000 		.long	0
 10063               	.LLST10:
 10064 01a4 0000 0000 		.long	.LVL13
 10065 01a8 0000 0000 		.long	.LVL14
 10066 01ac 0600      		.word	0x6
 10067 01ae 88        		.byte	0x88
 10068 01af 00        		.sleb128 0
 10069 01b0 89        		.byte	0x89
 10070 01b1 00        		.sleb128 0
 10071 01b2 1A        		.byte	0x1a
 10072 01b3 9F        		.byte	0x9f
 10073 01b4 0000 0000 		.long	.LVL14
GAS LISTING /tmp/ccjciOO6.s 			page 205


 10074 01b8 0000 0000 		.long	.LFE15
 10075 01bc 0100      		.word	0x1
 10076 01be 68        		.byte	0x68
 10077 01bf 0000 0000 		.long	0
 10078 01c3 0000 0000 		.long	0
 10079               	.LLST11:
 10080 01c7 0000 0000 		.long	.LVL15
 10081 01cb 0000 0000 		.long	.LVL17
 10082 01cf 0100      		.word	0x1
 10083 01d1 68        		.byte	0x68
 10084 01d2 0000 0000 		.long	.LVL17
 10085 01d6 0000 0000 		.long	.LFE16
 10086 01da 0400      		.word	0x4
 10087 01dc F3        		.byte	0xf3
 10088 01dd 01        		.uleb128 0x1
 10089 01de 68        		.byte	0x68
 10090 01df 9F        		.byte	0x9f
 10091 01e0 0000 0000 		.long	0
 10092 01e4 0000 0000 		.long	0
 10093               	.LLST12:
 10094 01e8 0000 0000 		.long	.LVL15
 10095 01ec 0000 0000 		.long	.LVL16
 10096 01f0 0100      		.word	0x1
 10097 01f2 66        		.byte	0x66
 10098 01f3 0000 0000 		.long	.LVL16
 10099 01f7 0000 0000 		.long	.LFE16
 10100 01fb 0400      		.word	0x4
 10101 01fd F3        		.byte	0xf3
 10102 01fe 01        		.uleb128 0x1
 10103 01ff 66        		.byte	0x66
 10104 0200 9F        		.byte	0x9f
 10105 0201 0000 0000 		.long	0
 10106 0205 0000 0000 		.long	0
 10107               	.LLST13:
 10108 0209 0000 0000 		.long	.LVL15
 10109 020d 0000 0000 		.long	.LVL16
 10110 0211 0600      		.word	0x6
 10111 0213 88        		.byte	0x88
 10112 0214 00        		.sleb128 0
 10113 0215 86        		.byte	0x86
 10114 0216 00        		.sleb128 0
 10115 0217 21        		.byte	0x21
 10116 0218 9F        		.byte	0x9f
 10117 0219 0000 0000 		.long	.LVL16
 10118 021d 0000 0000 		.long	.LVL18-1
 10119 0221 0100      		.word	0x1
 10120 0223 66        		.byte	0x66
 10121 0224 0000 0000 		.long	.LVL18-1
 10122 0228 0000 0000 		.long	.LFE16
 10123 022c 0800      		.word	0x8
 10124 022e F3        		.byte	0xf3
 10125 022f 01        		.uleb128 0x1
 10126 0230 68        		.byte	0x68
 10127 0231 F3        		.byte	0xf3
 10128 0232 01        		.uleb128 0x1
 10129 0233 66        		.byte	0x66
 10130 0234 21        		.byte	0x21
GAS LISTING /tmp/ccjciOO6.s 			page 206


 10131 0235 9F        		.byte	0x9f
 10132 0236 0000 0000 		.long	0
 10133 023a 0000 0000 		.long	0
 10134               	.LLST14:
 10135 023e 0000 0000 		.long	.LFB17
 10136 0242 0000 0000 		.long	.LCFI6
 10137 0246 0300      		.word	0x3
 10138 0248 92        		.byte	0x92
 10139 0249 20        		.uleb128 0x20
 10140 024a 02        		.sleb128 2
 10141 024b 0000 0000 		.long	.LCFI6
 10142 024f 0000 0000 		.long	.LCFI7
 10143 0253 0300      		.word	0x3
 10144 0255 92        		.byte	0x92
 10145 0256 20        		.uleb128 0x20
 10146 0257 03        		.sleb128 3
 10147 0258 0000 0000 		.long	.LCFI7
 10148 025c 0000 0000 		.long	.LCFI8
 10149 0260 0300      		.word	0x3
 10150 0262 92        		.byte	0x92
 10151 0263 20        		.uleb128 0x20
 10152 0264 04        		.sleb128 4
 10153 0265 0000 0000 		.long	.LCFI8
 10154 0269 0000 0000 		.long	.LFE17
 10155 026d 0300      		.word	0x3
 10156 026f 92        		.byte	0x92
 10157 0270 20        		.uleb128 0x20
 10158 0271 05        		.sleb128 5
 10159 0272 0000 0000 		.long	0
 10160 0276 0000 0000 		.long	0
 10161               	.LLST15:
 10162 027a 0000 0000 		.long	.LVL19
 10163 027e 0000 0000 		.long	.LVL23
 10164 0282 0100      		.word	0x1
 10165 0284 68        		.byte	0x68
 10166 0285 0000 0000 		.long	.LVL23
 10167 0289 0000 0000 		.long	.LVL27
 10168 028d 0100      		.word	0x1
 10169 028f 6C        		.byte	0x6c
 10170 0290 0000 0000 		.long	.LVL27
 10171 0294 0000 0000 		.long	.LFE17
 10172 0298 0400      		.word	0x4
 10173 029a F3        		.byte	0xf3
 10174 029b 01        		.uleb128 0x1
 10175 029c 68        		.byte	0x68
 10176 029d 9F        		.byte	0x9f
 10177 029e 0000 0000 		.long	0
 10178 02a2 0000 0000 		.long	0
 10179               	.LLST16:
 10180 02a6 0000 0000 		.long	.LVL20
 10181 02aa 0000 0000 		.long	.LVL21
 10182 02ae 0900      		.word	0x9
 10183 02b0 86        		.byte	0x86
 10184 02b1 00        		.sleb128 0
 10185 02b2 09        		.byte	0x9
 10186 02b3 F8        		.byte	0xf8
 10187 02b4 1A        		.byte	0x1a
GAS LISTING /tmp/ccjciOO6.s 			page 207


 10188 02b5 88        		.byte	0x88
 10189 02b6 00        		.sleb128 0
 10190 02b7 21        		.byte	0x21
 10191 02b8 9F        		.byte	0x9f
 10192 02b9 0000 0000 		.long	.LVL22
 10193 02bd 0000 0000 		.long	.LVL24-1
 10194 02c1 0100      		.word	0x1
 10195 02c3 66        		.byte	0x66
 10196 02c4 0000 0000 		.long	.LVL25
 10197 02c8 0000 0000 		.long	.LVL26
 10198 02cc 0600      		.word	0x6
 10199 02ce 8C        		.byte	0x8c
 10200 02cf 00        		.sleb128 0
 10201 02d0 88        		.byte	0x88
 10202 02d1 00        		.sleb128 0
 10203 02d2 1A        		.byte	0x1a
 10204 02d3 9F        		.byte	0x9f
 10205 02d4 0000 0000 		.long	.LVL26
 10206 02d8 0000 0000 		.long	.LFE17
 10207 02dc 0100      		.word	0x1
 10208 02de 68        		.byte	0x68
 10209 02df 0000 0000 		.long	0
 10210 02e3 0000 0000 		.long	0
 10211               	.LLST17:
 10212 02e7 0000 0000 		.long	.LVL28
 10213 02eb 0000 0000 		.long	.LVL29
 10214 02ef 0100      		.word	0x1
 10215 02f1 68        		.byte	0x68
 10216 02f2 0000 0000 		.long	.LVL29
 10217 02f6 0000 0000 		.long	.LFE18
 10218 02fa 0400      		.word	0x4
 10219 02fc F3        		.byte	0xf3
 10220 02fd 01        		.uleb128 0x1
 10221 02fe 68        		.byte	0x68
 10222 02ff 9F        		.byte	0x9f
 10223 0300 0000 0000 		.long	0
 10224 0304 0000 0000 		.long	0
 10225               	.LLST18:
 10226 0308 0000 0000 		.long	.LVL30
 10227 030c 0000 0000 		.long	.LVL31
 10228 0310 0100      		.word	0x1
 10229 0312 68        		.byte	0x68
 10230 0313 0000 0000 		.long	.LVL31
 10231 0317 0000 0000 		.long	.LVL32
 10232 031b 0400      		.word	0x4
 10233 031d F3        		.byte	0xf3
 10234 031e 01        		.uleb128 0x1
 10235 031f 68        		.byte	0x68
 10236 0320 9F        		.byte	0x9f
 10237 0321 0000 0000 		.long	.LVL32
 10238 0325 0000 0000 		.long	.LVL33
 10239 0329 0100      		.word	0x1
 10240 032b 68        		.byte	0x68
 10241 032c 0000 0000 		.long	.LVL33
 10242 0330 0000 0000 		.long	.LFE19
 10243 0334 0400      		.word	0x4
 10244 0336 F3        		.byte	0xf3
GAS LISTING /tmp/ccjciOO6.s 			page 208


 10245 0337 01        		.uleb128 0x1
 10246 0338 68        		.byte	0x68
 10247 0339 9F        		.byte	0x9f
 10248 033a 0000 0000 		.long	0
 10249 033e 0000 0000 		.long	0
 10250               	.LLST19:
 10251 0342 0000 0000 		.long	.LFB22
 10252 0346 0000 0000 		.long	.LCFI9
 10253 034a 0300      		.word	0x3
 10254 034c 92        		.byte	0x92
 10255 034d 20        		.uleb128 0x20
 10256 034e 02        		.sleb128 2
 10257 034f 0000 0000 		.long	.LCFI9
 10258 0353 0000 0000 		.long	.LCFI10
 10259 0357 0300      		.word	0x3
 10260 0359 92        		.byte	0x92
 10261 035a 20        		.uleb128 0x20
 10262 035b 03        		.sleb128 3
 10263 035c 0000 0000 		.long	.LCFI10
 10264 0360 0000 0000 		.long	.LCFI11
 10265 0364 0300      		.word	0x3
 10266 0366 92        		.byte	0x92
 10267 0367 20        		.uleb128 0x20
 10268 0368 04        		.sleb128 4
 10269 0369 0000 0000 		.long	.LCFI11
 10270 036d 0000 0000 		.long	.LCFI12
 10271 0371 0300      		.word	0x3
 10272 0373 92        		.byte	0x92
 10273 0374 20        		.uleb128 0x20
 10274 0375 05        		.sleb128 5
 10275 0376 0000 0000 		.long	.LCFI12
 10276 037a 0000 0000 		.long	.LCFI13
 10277 037e 0300      		.word	0x3
 10278 0380 92        		.byte	0x92
 10279 0381 20        		.uleb128 0x20
 10280 0382 06        		.sleb128 6
 10281 0383 0000 0000 		.long	.LCFI13
 10282 0387 0000 0000 		.long	.LCFI14
 10283 038b 0300      		.word	0x3
 10284 038d 92        		.byte	0x92
 10285 038e 20        		.uleb128 0x20
 10286 038f 07        		.sleb128 7
 10287 0390 0000 0000 		.long	.LCFI14
 10288 0394 0000 0000 		.long	.LFE22
 10289 0398 0300      		.word	0x3
 10290 039a 92        		.byte	0x92
 10291 039b 20        		.uleb128 0x20
 10292 039c 08        		.sleb128 8
 10293 039d 0000 0000 		.long	0
 10294 03a1 0000 0000 		.long	0
 10295               	.LLST20:
 10296 03a5 0000 0000 		.long	.LVL36
 10297 03a9 0000 0000 		.long	.LVL36
 10298 03ad 0600      		.word	0x6
 10299 03af 68        		.byte	0x68
 10300 03b0 93        		.byte	0x93
 10301 03b1 01        		.uleb128 0x1
GAS LISTING /tmp/ccjciOO6.s 			page 209


 10302 03b2 69        		.byte	0x69
 10303 03b3 93        		.byte	0x93
 10304 03b4 01        		.uleb128 0x1
 10305 03b5 0000 0000 		.long	.LVL36
 10306 03b9 0000 0000 		.long	.LVL38
 10307 03bd 0300      		.word	0x3
 10308 03bf 88        		.byte	0x88
 10309 03c0 7F        		.sleb128 -1
 10310 03c1 9F        		.byte	0x9f
 10311 03c2 0000 0000 		.long	.LVL38
 10312 03c6 0000 0000 		.long	.LVL39
 10313 03ca 0600      		.word	0x6
 10314 03cc 68        		.byte	0x68
 10315 03cd 93        		.byte	0x93
 10316 03ce 01        		.uleb128 0x1
 10317 03cf 69        		.byte	0x69
 10318 03d0 93        		.byte	0x93
 10319 03d1 01        		.uleb128 0x1
 10320 03d2 0000 0000 		.long	.LVL39
 10321 03d6 0000 0000 		.long	.LFE26
 10322 03da 0300      		.word	0x3
 10323 03dc 88        		.byte	0x88
 10324 03dd 7F        		.sleb128 -1
 10325 03de 9F        		.byte	0x9f
 10326 03df 0000 0000 		.long	0
 10327 03e3 0000 0000 		.long	0
 10328               	.LLST21:
 10329 03e7 0000 0000 		.long	.LVL37
 10330 03eb 0000 0000 		.long	.LVL39
 10331 03ef 0600      		.word	0x6
 10332 03f1 9E        		.byte	0x9e
 10333 03f2 04        		.uleb128 0x4
 10334 03f3 0000 7A44 		.long	0x447a0000
 10335 03f7 0000 0000 		.long	0
 10336 03fb 0000 0000 		.long	0
 10337               	.LLST22:
 10338 03ff 0000 0000 		.long	.LVL37
 10339 0403 0000 0000 		.long	.LVL39
 10340 0407 0600      		.word	0x6
 10341 0409 9E        		.byte	0x9e
 10342 040a 04        		.uleb128 0x4
 10343 040b 0000 FA46 		.long	0x46fa0000
 10344 040f 0000 0000 		.long	0
 10345 0413 0000 0000 		.long	0
 10346               	.LLST23:
 10347 0417 0000 0000 		.long	.LVL37
 10348 041b 0000 0000 		.long	.LVL39
 10349 041f 0400      		.word	0x4
 10350 0421 0A        		.byte	0xa
 10351 0422 007D      		.word	0x7d00
 10352 0424 9F        		.byte	0x9f
 10353 0425 0000 0000 		.long	0
 10354 0429 0000 0000 		.long	0
 10355               	.LLST24:
 10356 042d 0000 0000 		.long	.LVL40
 10357 0431 0000 0000 		.long	.LVL41
 10358 0435 0600      		.word	0x6
GAS LISTING /tmp/ccjciOO6.s 			page 210


 10359 0437 68        		.byte	0x68
 10360 0438 93        		.byte	0x93
 10361 0439 01        		.uleb128 0x1
 10362 043a 69        		.byte	0x69
 10363 043b 93        		.byte	0x93
 10364 043c 01        		.uleb128 0x1
 10365 043d 0000 0000 		.long	.LVL41
 10366 0441 0000 0000 		.long	.LFE27
 10367 0445 0600      		.word	0x6
 10368 0447 6A        		.byte	0x6a
 10369 0448 93        		.byte	0x93
 10370 0449 01        		.uleb128 0x1
 10371 044a 6B        		.byte	0x6b
 10372 044b 93        		.byte	0x93
 10373 044c 01        		.uleb128 0x1
 10374 044d 0000 0000 		.long	0
 10375 0451 0000 0000 		.long	0
 10376               	.LLST25:
 10377 0455 0000 0000 		.long	.LVL40
 10378 0459 0000 0000 		.long	.LVL42
 10379 045d 0600      		.word	0x6
 10380 045f 66        		.byte	0x66
 10381 0460 93        		.byte	0x93
 10382 0461 01        		.uleb128 0x1
 10383 0462 67        		.byte	0x67
 10384 0463 93        		.byte	0x93
 10385 0464 01        		.uleb128 0x1
 10386 0465 0000 0000 		.long	.LVL42
 10387 0469 0000 0000 		.long	.LVL43
 10388 046d 0600      		.word	0x6
 10389 046f 6E        		.byte	0x6e
 10390 0470 93        		.byte	0x93
 10391 0471 01        		.uleb128 0x1
 10392 0472 6F        		.byte	0x6f
 10393 0473 93        		.byte	0x93
 10394 0474 01        		.uleb128 0x1
 10395 0475 0000 0000 		.long	.LVL43
 10396 0479 0000 0000 		.long	.LFE27
 10397 047d 0600      		.word	0x6
 10398 047f 66        		.byte	0x66
 10399 0480 93        		.byte	0x93
 10400 0481 01        		.uleb128 0x1
 10401 0482 67        		.byte	0x67
 10402 0483 93        		.byte	0x93
 10403 0484 01        		.uleb128 0x1
 10404 0485 0000 0000 		.long	0
 10405 0489 0000 0000 		.long	0
 10406               	.LLST26:
 10407 048d 0000 0000 		.long	.LVL44
 10408 0491 0000 0000 		.long	.LVL45
 10409 0495 0600      		.word	0x6
 10410 0497 68        		.byte	0x68
 10411 0498 93        		.byte	0x93
 10412 0499 01        		.uleb128 0x1
 10413 049a 69        		.byte	0x69
 10414 049b 93        		.byte	0x93
 10415 049c 01        		.uleb128 0x1
GAS LISTING /tmp/ccjciOO6.s 			page 211


 10416 049d 0000 0000 		.long	.LVL45
 10417 04a1 0000 0000 		.long	.LFE28
 10418 04a5 0600      		.word	0x6
 10419 04a7 64        		.byte	0x64
 10420 04a8 93        		.byte	0x93
 10421 04a9 01        		.uleb128 0x1
 10422 04aa 65        		.byte	0x65
 10423 04ab 93        		.byte	0x93
 10424 04ac 01        		.uleb128 0x1
 10425 04ad 0000 0000 		.long	0
 10426 04b1 0000 0000 		.long	0
 10427               	.LLST27:
 10428 04b5 0000 0000 		.long	.LFB31
 10429 04b9 0000 0000 		.long	.LCFI15
 10430 04bd 0300      		.word	0x3
 10431 04bf 92        		.byte	0x92
 10432 04c0 20        		.uleb128 0x20
 10433 04c1 02        		.sleb128 2
 10434 04c2 0000 0000 		.long	.LCFI15
 10435 04c6 0000 0000 		.long	.LCFI16
 10436 04ca 0300      		.word	0x3
 10437 04cc 92        		.byte	0x92
 10438 04cd 20        		.uleb128 0x20
 10439 04ce 03        		.sleb128 3
 10440 04cf 0000 0000 		.long	.LCFI16
 10441 04d3 0000 0000 		.long	.LCFI17
 10442 04d7 0300      		.word	0x3
 10443 04d9 92        		.byte	0x92
 10444 04da 20        		.uleb128 0x20
 10445 04db 04        		.sleb128 4
 10446 04dc 0000 0000 		.long	.LCFI17
 10447 04e0 0000 0000 		.long	.LCFI18
 10448 04e4 0300      		.word	0x3
 10449 04e6 92        		.byte	0x92
 10450 04e7 20        		.uleb128 0x20
 10451 04e8 05        		.sleb128 5
 10452 04e9 0000 0000 		.long	.LCFI18
 10453 04ed 0000 0000 		.long	.LCFI19
 10454 04f1 0300      		.word	0x3
 10455 04f3 92        		.byte	0x92
 10456 04f4 20        		.uleb128 0x20
 10457 04f5 06        		.sleb128 6
 10458 04f6 0000 0000 		.long	.LCFI19
 10459 04fa 0000 0000 		.long	.LFE31
 10460 04fe 0300      		.word	0x3
 10461 0500 92        		.byte	0x92
 10462 0501 20        		.uleb128 0x20
 10463 0502 07        		.sleb128 7
 10464 0503 0000 0000 		.long	0
 10465 0507 0000 0000 		.long	0
 10466               	.LLST28:
 10467 050b 0000 0000 		.long	.LVL46
 10468 050f 0000 0000 		.long	.LVL47-1
 10469 0513 0600      		.word	0x6
 10470 0515 68        		.byte	0x68
 10471 0516 93        		.byte	0x93
 10472 0517 01        		.uleb128 0x1
GAS LISTING /tmp/ccjciOO6.s 			page 212


 10473 0518 69        		.byte	0x69
 10474 0519 93        		.byte	0x93
 10475 051a 01        		.uleb128 0x1
 10476 051b 0000 0000 		.long	.LVL47-1
 10477 051f 0000 0000 		.long	.LVL48
 10478 0523 0600      		.word	0x6
 10479 0525 6C        		.byte	0x6c
 10480 0526 93        		.byte	0x93
 10481 0527 01        		.uleb128 0x1
 10482 0528 6D        		.byte	0x6d
 10483 0529 93        		.byte	0x93
 10484 052a 01        		.uleb128 0x1
 10485 052b 0000 0000 		.long	.LVL48
 10486 052f 0000 0000 		.long	.LVL49-1
 10487 0533 0600      		.word	0x6
 10488 0535 68        		.byte	0x68
 10489 0536 93        		.byte	0x93
 10490 0537 01        		.uleb128 0x1
 10491 0538 69        		.byte	0x69
 10492 0539 93        		.byte	0x93
 10493 053a 01        		.uleb128 0x1
 10494 053b 0000 0000 		.long	.LVL49-1
 10495 053f 0000 0000 		.long	.LFE31
 10496 0543 0400      		.word	0x4
 10497 0545 F3        		.byte	0xf3
 10498 0546 01        		.uleb128 0x1
 10499 0547 68        		.byte	0x68
 10500 0548 9F        		.byte	0x9f
 10501 0549 0000 0000 		.long	0
 10502 054d 0000 0000 		.long	0
 10503               	.LLST29:
 10504 0551 0000 0000 		.long	.LFB32
 10505 0555 0000 0000 		.long	.LCFI20
 10506 0559 0300      		.word	0x3
 10507 055b 92        		.byte	0x92
 10508 055c 20        		.uleb128 0x20
 10509 055d 02        		.sleb128 2
 10510 055e 0000 0000 		.long	.LCFI20
 10511 0562 0000 0000 		.long	.LCFI21
 10512 0566 0300      		.word	0x3
 10513 0568 92        		.byte	0x92
 10514 0569 20        		.uleb128 0x20
 10515 056a 03        		.sleb128 3
 10516 056b 0000 0000 		.long	.LCFI21
 10517 056f 0000 0000 		.long	.LCFI22
 10518 0573 0300      		.word	0x3
 10519 0575 92        		.byte	0x92
 10520 0576 20        		.uleb128 0x20
 10521 0577 04        		.sleb128 4
 10522 0578 0000 0000 		.long	.LCFI22
 10523 057c 0000 0000 		.long	.LCFI23
 10524 0580 0300      		.word	0x3
 10525 0582 92        		.byte	0x92
 10526 0583 20        		.uleb128 0x20
 10527 0584 05        		.sleb128 5
 10528 0585 0000 0000 		.long	.LCFI23
 10529 0589 0000 0000 		.long	.LFE32
GAS LISTING /tmp/ccjciOO6.s 			page 213


 10530 058d 0300      		.word	0x3
 10531 058f 92        		.byte	0x92
 10532 0590 20        		.uleb128 0x20
 10533 0591 06        		.sleb128 6
 10534 0592 0000 0000 		.long	0
 10535 0596 0000 0000 		.long	0
 10536               	.LLST30:
 10537 059a 0000 0000 		.long	.LVL50
 10538 059e 0000 0000 		.long	.LVL52
 10539 05a2 0600      		.word	0x6
 10540 05a4 68        		.byte	0x68
 10541 05a5 93        		.byte	0x93
 10542 05a6 01        		.uleb128 0x1
 10543 05a7 69        		.byte	0x69
 10544 05a8 93        		.byte	0x93
 10545 05a9 01        		.uleb128 0x1
 10546 05aa 0000 0000 		.long	.LVL52
 10547 05ae 0000 0000 		.long	.LVL56
 10548 05b2 0600      		.word	0x6
 10549 05b4 60        		.byte	0x60
 10550 05b5 93        		.byte	0x93
 10551 05b6 01        		.uleb128 0x1
 10552 05b7 61        		.byte	0x61
 10553 05b8 93        		.byte	0x93
 10554 05b9 01        		.uleb128 0x1
 10555 05ba 0000 0000 		.long	.LVL56
 10556 05be 0000 0000 		.long	.LFE32
 10557 05c2 0400      		.word	0x4
 10558 05c4 F3        		.byte	0xf3
 10559 05c5 01        		.uleb128 0x1
 10560 05c6 68        		.byte	0x68
 10561 05c7 9F        		.byte	0x9f
 10562 05c8 0000 0000 		.long	0
 10563 05cc 0000 0000 		.long	0
 10564               	.LLST31:
 10565 05d0 0000 0000 		.long	.LVL51
 10566 05d4 0000 0000 		.long	.LVL52
 10567 05d8 0200      		.word	0x2
 10568 05da 30        		.byte	0x30
 10569 05db 9F        		.byte	0x9f
 10570 05dc 0000 0000 		.long	.LVL52
 10571 05e0 0000 0000 		.long	.LVL55
 10572 05e4 0600      		.word	0x6
 10573 05e6 6C        		.byte	0x6c
 10574 05e7 93        		.byte	0x93
 10575 05e8 01        		.uleb128 0x1
 10576 05e9 6D        		.byte	0x6d
 10577 05ea 93        		.byte	0x93
 10578 05eb 01        		.uleb128 0x1
 10579 05ec 0000 0000 		.long	0
 10580 05f0 0000 0000 		.long	0
 10581               	.LLST32:
 10582 05f4 0000 0000 		.long	.LVL57
 10583 05f8 0000 0000 		.long	.LVL58
 10584 05fc 0100      		.word	0x1
 10585 05fe 68        		.byte	0x68
 10586 05ff 0000 0000 		.long	.LVL58
GAS LISTING /tmp/ccjciOO6.s 			page 214


 10587 0603 0000 0000 		.long	.LVL59
 10588 0607 0400      		.word	0x4
 10589 0609 F3        		.byte	0xf3
 10590 060a 01        		.uleb128 0x1
 10591 060b 68        		.byte	0x68
 10592 060c 9F        		.byte	0x9f
 10593 060d 0000 0000 		.long	.LVL59
 10594 0611 0000 0000 		.long	.LVL60
 10595 0615 0100      		.word	0x1
 10596 0617 68        		.byte	0x68
 10597 0618 0000 0000 		.long	.LVL60
 10598 061c 0000 0000 		.long	.LVL61
 10599 0620 0400      		.word	0x4
 10600 0622 F3        		.byte	0xf3
 10601 0623 01        		.uleb128 0x1
 10602 0624 68        		.byte	0x68
 10603 0625 9F        		.byte	0x9f
 10604 0626 0000 0000 		.long	.LVL61
 10605 062a 0000 0000 		.long	.LVL62
 10606 062e 0100      		.word	0x1
 10607 0630 68        		.byte	0x68
 10608 0631 0000 0000 		.long	.LVL62
 10609 0635 0000 0000 		.long	.LVL63
 10610 0639 0400      		.word	0x4
 10611 063b F3        		.byte	0xf3
 10612 063c 01        		.uleb128 0x1
 10613 063d 68        		.byte	0x68
 10614 063e 9F        		.byte	0x9f
 10615 063f 0000 0000 		.long	.LVL63
 10616 0643 0000 0000 		.long	.LVL64
 10617 0647 0100      		.word	0x1
 10618 0649 68        		.byte	0x68
 10619 064a 0000 0000 		.long	.LVL64
 10620 064e 0000 0000 		.long	.LVL65
 10621 0652 0400      		.word	0x4
 10622 0654 F3        		.byte	0xf3
 10623 0655 01        		.uleb128 0x1
 10624 0656 68        		.byte	0x68
 10625 0657 9F        		.byte	0x9f
 10626 0658 0000 0000 		.long	.LVL65
 10627 065c 0000 0000 		.long	.LVL66
 10628 0660 0100      		.word	0x1
 10629 0662 68        		.byte	0x68
 10630 0663 0000 0000 		.long	.LVL66
 10631 0667 0000 0000 		.long	.LVL67
 10632 066b 0400      		.word	0x4
 10633 066d F3        		.byte	0xf3
 10634 066e 01        		.uleb128 0x1
 10635 066f 68        		.byte	0x68
 10636 0670 9F        		.byte	0x9f
 10637 0671 0000 0000 		.long	.LVL67
 10638 0675 0000 0000 		.long	.LVL68
 10639 0679 0100      		.word	0x1
 10640 067b 68        		.byte	0x68
 10641 067c 0000 0000 		.long	.LVL68
 10642 0680 0000 0000 		.long	.LVL69
 10643 0684 0400      		.word	0x4
GAS LISTING /tmp/ccjciOO6.s 			page 215


 10644 0686 F3        		.byte	0xf3
 10645 0687 01        		.uleb128 0x1
 10646 0688 68        		.byte	0x68
 10647 0689 9F        		.byte	0x9f
 10648 068a 0000 0000 		.long	.LVL69
 10649 068e 0000 0000 		.long	.LVL70
 10650 0692 0100      		.word	0x1
 10651 0694 68        		.byte	0x68
 10652 0695 0000 0000 		.long	.LVL70
 10653 0699 0000 0000 		.long	.LVL71
 10654 069d 0400      		.word	0x4
 10655 069f F3        		.byte	0xf3
 10656 06a0 01        		.uleb128 0x1
 10657 06a1 68        		.byte	0x68
 10658 06a2 9F        		.byte	0x9f
 10659 06a3 0000 0000 		.long	.LVL71
 10660 06a7 0000 0000 		.long	.LVL72
 10661 06ab 0100      		.word	0x1
 10662 06ad 68        		.byte	0x68
 10663 06ae 0000 0000 		.long	.LVL72
 10664 06b2 0000 0000 		.long	.LVL73
 10665 06b6 0400      		.word	0x4
 10666 06b8 F3        		.byte	0xf3
 10667 06b9 01        		.uleb128 0x1
 10668 06ba 68        		.byte	0x68
 10669 06bb 9F        		.byte	0x9f
 10670 06bc 0000 0000 		.long	.LVL73
 10671 06c0 0000 0000 		.long	.LVL74
 10672 06c4 0100      		.word	0x1
 10673 06c6 68        		.byte	0x68
 10674 06c7 0000 0000 		.long	.LVL74
 10675 06cb 0000 0000 		.long	.LVL75
 10676 06cf 0400      		.word	0x4
 10677 06d1 F3        		.byte	0xf3
 10678 06d2 01        		.uleb128 0x1
 10679 06d3 68        		.byte	0x68
 10680 06d4 9F        		.byte	0x9f
 10681 06d5 0000 0000 		.long	.LVL75
 10682 06d9 0000 0000 		.long	.LVL76
 10683 06dd 0100      		.word	0x1
 10684 06df 68        		.byte	0x68
 10685 06e0 0000 0000 		.long	.LVL76
 10686 06e4 0000 0000 		.long	.LVL77
 10687 06e8 0400      		.word	0x4
 10688 06ea F3        		.byte	0xf3
 10689 06eb 01        		.uleb128 0x1
 10690 06ec 68        		.byte	0x68
 10691 06ed 9F        		.byte	0x9f
 10692 06ee 0000 0000 		.long	.LVL77
 10693 06f2 0000 0000 		.long	.LVL78
 10694 06f6 0100      		.word	0x1
 10695 06f8 68        		.byte	0x68
 10696 06f9 0000 0000 		.long	.LVL78
 10697 06fd 0000 0000 		.long	.LVL79
 10698 0701 0400      		.word	0x4
 10699 0703 F3        		.byte	0xf3
 10700 0704 01        		.uleb128 0x1
GAS LISTING /tmp/ccjciOO6.s 			page 216


 10701 0705 68        		.byte	0x68
 10702 0706 9F        		.byte	0x9f
 10703 0707 0000 0000 		.long	.LVL79
 10704 070b 0000 0000 		.long	.LVL80
 10705 070f 0100      		.word	0x1
 10706 0711 68        		.byte	0x68
 10707 0712 0000 0000 		.long	.LVL80
 10708 0716 0000 0000 		.long	.LVL81
 10709 071a 0400      		.word	0x4
 10710 071c F3        		.byte	0xf3
 10711 071d 01        		.uleb128 0x1
 10712 071e 68        		.byte	0x68
 10713 071f 9F        		.byte	0x9f
 10714 0720 0000 0000 		.long	.LVL81
 10715 0724 0000 0000 		.long	.LVL82
 10716 0728 0100      		.word	0x1
 10717 072a 68        		.byte	0x68
 10718 072b 0000 0000 		.long	.LVL82
 10719 072f 0000 0000 		.long	.LVL83
 10720 0733 0400      		.word	0x4
 10721 0735 F3        		.byte	0xf3
 10722 0736 01        		.uleb128 0x1
 10723 0737 68        		.byte	0x68
 10724 0738 9F        		.byte	0x9f
 10725 0739 0000 0000 		.long	.LVL83
 10726 073d 0000 0000 		.long	.LVL84
 10727 0741 0100      		.word	0x1
 10728 0743 68        		.byte	0x68
 10729 0744 0000 0000 		.long	.LVL84
 10730 0748 0000 0000 		.long	.LVL85
 10731 074c 0400      		.word	0x4
 10732 074e F3        		.byte	0xf3
 10733 074f 01        		.uleb128 0x1
 10734 0750 68        		.byte	0x68
 10735 0751 9F        		.byte	0x9f
 10736 0752 0000 0000 		.long	.LVL85
 10737 0756 0000 0000 		.long	.LVL86
 10738 075a 0100      		.word	0x1
 10739 075c 68        		.byte	0x68
 10740 075d 0000 0000 		.long	.LVL86
 10741 0761 0000 0000 		.long	.LVL87
 10742 0765 0400      		.word	0x4
 10743 0767 F3        		.byte	0xf3
 10744 0768 01        		.uleb128 0x1
 10745 0769 68        		.byte	0x68
 10746 076a 9F        		.byte	0x9f
 10747 076b 0000 0000 		.long	.LVL87
 10748 076f 0000 0000 		.long	.LVL88
 10749 0773 0100      		.word	0x1
 10750 0775 68        		.byte	0x68
 10751 0776 0000 0000 		.long	.LVL88
 10752 077a 0000 0000 		.long	.LVL89
 10753 077e 0400      		.word	0x4
 10754 0780 F3        		.byte	0xf3
 10755 0781 01        		.uleb128 0x1
 10756 0782 68        		.byte	0x68
 10757 0783 9F        		.byte	0x9f
GAS LISTING /tmp/ccjciOO6.s 			page 217


 10758 0784 0000 0000 		.long	.LVL89
 10759 0788 0000 0000 		.long	.LVL90
 10760 078c 0100      		.word	0x1
 10761 078e 68        		.byte	0x68
 10762 078f 0000 0000 		.long	.LVL90
 10763 0793 0000 0000 		.long	.LVL91
 10764 0797 0400      		.word	0x4
 10765 0799 F3        		.byte	0xf3
 10766 079a 01        		.uleb128 0x1
 10767 079b 68        		.byte	0x68
 10768 079c 9F        		.byte	0x9f
 10769 079d 0000 0000 		.long	.LVL91
 10770 07a1 0000 0000 		.long	.LVL92
 10771 07a5 0100      		.word	0x1
 10772 07a7 68        		.byte	0x68
 10773 07a8 0000 0000 		.long	.LVL92
 10774 07ac 0000 0000 		.long	.LVL93
 10775 07b0 0400      		.word	0x4
 10776 07b2 F3        		.byte	0xf3
 10777 07b3 01        		.uleb128 0x1
 10778 07b4 68        		.byte	0x68
 10779 07b5 9F        		.byte	0x9f
 10780 07b6 0000 0000 		.long	.LVL93
 10781 07ba 0000 0000 		.long	.LVL94
 10782 07be 0100      		.word	0x1
 10783 07c0 68        		.byte	0x68
 10784 07c1 0000 0000 		.long	.LVL94
 10785 07c5 0000 0000 		.long	.LVL95
 10786 07c9 0400      		.word	0x4
 10787 07cb F3        		.byte	0xf3
 10788 07cc 01        		.uleb128 0x1
 10789 07cd 68        		.byte	0x68
 10790 07ce 9F        		.byte	0x9f
 10791 07cf 0000 0000 		.long	.LVL95
 10792 07d3 0000 0000 		.long	.LVL96
 10793 07d7 0100      		.word	0x1
 10794 07d9 68        		.byte	0x68
 10795 07da 0000 0000 		.long	.LVL96
 10796 07de 0000 0000 		.long	.LVL97
 10797 07e2 0400      		.word	0x4
 10798 07e4 F3        		.byte	0xf3
 10799 07e5 01        		.uleb128 0x1
 10800 07e6 68        		.byte	0x68
 10801 07e7 9F        		.byte	0x9f
 10802 07e8 0000 0000 		.long	.LVL97
 10803 07ec 0000 0000 		.long	.LVL98
 10804 07f0 0100      		.word	0x1
 10805 07f2 68        		.byte	0x68
 10806 07f3 0000 0000 		.long	.LVL98
 10807 07f7 0000 0000 		.long	.LVL99
 10808 07fb 0400      		.word	0x4
 10809 07fd F3        		.byte	0xf3
 10810 07fe 01        		.uleb128 0x1
 10811 07ff 68        		.byte	0x68
 10812 0800 9F        		.byte	0x9f
 10813 0801 0000 0000 		.long	.LVL99
 10814 0805 0000 0000 		.long	.LVL100
GAS LISTING /tmp/ccjciOO6.s 			page 218


 10815 0809 0100      		.word	0x1
 10816 080b 68        		.byte	0x68
 10817 080c 0000 0000 		.long	.LVL100
 10818 0810 0000 0000 		.long	.LVL101
 10819 0814 0400      		.word	0x4
 10820 0816 F3        		.byte	0xf3
 10821 0817 01        		.uleb128 0x1
 10822 0818 68        		.byte	0x68
 10823 0819 9F        		.byte	0x9f
 10824 081a 0000 0000 		.long	.LVL101
 10825 081e 0000 0000 		.long	.LVL102
 10826 0822 0100      		.word	0x1
 10827 0824 68        		.byte	0x68
 10828 0825 0000 0000 		.long	.LVL102
 10829 0829 0000 0000 		.long	.LVL103
 10830 082d 0400      		.word	0x4
 10831 082f F3        		.byte	0xf3
 10832 0830 01        		.uleb128 0x1
 10833 0831 68        		.byte	0x68
 10834 0832 9F        		.byte	0x9f
 10835 0833 0000 0000 		.long	.LVL103
 10836 0837 0000 0000 		.long	.LVL104
 10837 083b 0100      		.word	0x1
 10838 083d 68        		.byte	0x68
 10839 083e 0000 0000 		.long	.LVL104
 10840 0842 0000 0000 		.long	.LFE33
 10841 0846 0400      		.word	0x4
 10842 0848 F3        		.byte	0xf3
 10843 0849 01        		.uleb128 0x1
 10844 084a 68        		.byte	0x68
 10845 084b 9F        		.byte	0x9f
 10846 084c 0000 0000 		.long	0
 10847 0850 0000 0000 		.long	0
 10848               	.LLST33:
 10849 0854 0000 0000 		.long	.LVL105
 10850 0858 0000 0000 		.long	.LVL106
 10851 085c 0100      		.word	0x1
 10852 085e 68        		.byte	0x68
 10853 085f 0000 0000 		.long	.LVL106
 10854 0863 0000 0000 		.long	.LVL107
 10855 0867 0400      		.word	0x4
 10856 0869 F3        		.byte	0xf3
 10857 086a 01        		.uleb128 0x1
 10858 086b 68        		.byte	0x68
 10859 086c 9F        		.byte	0x9f
 10860 086d 0000 0000 		.long	.LVL107
 10861 0871 0000 0000 		.long	.LVL108
 10862 0875 0100      		.word	0x1
 10863 0877 68        		.byte	0x68
 10864 0878 0000 0000 		.long	.LVL108
 10865 087c 0000 0000 		.long	.LVL109
 10866 0880 0400      		.word	0x4
 10867 0882 F3        		.byte	0xf3
 10868 0883 01        		.uleb128 0x1
 10869 0884 68        		.byte	0x68
 10870 0885 9F        		.byte	0x9f
 10871 0886 0000 0000 		.long	.LVL109
GAS LISTING /tmp/ccjciOO6.s 			page 219


 10872 088a 0000 0000 		.long	.LVL110
 10873 088e 0100      		.word	0x1
 10874 0890 68        		.byte	0x68
 10875 0891 0000 0000 		.long	.LVL110
 10876 0895 0000 0000 		.long	.LVL111
 10877 0899 0400      		.word	0x4
 10878 089b F3        		.byte	0xf3
 10879 089c 01        		.uleb128 0x1
 10880 089d 68        		.byte	0x68
 10881 089e 9F        		.byte	0x9f
 10882 089f 0000 0000 		.long	.LVL111
 10883 08a3 0000 0000 		.long	.LVL112
 10884 08a7 0100      		.word	0x1
 10885 08a9 68        		.byte	0x68
 10886 08aa 0000 0000 		.long	.LVL112
 10887 08ae 0000 0000 		.long	.LVL113
 10888 08b2 0400      		.word	0x4
 10889 08b4 F3        		.byte	0xf3
 10890 08b5 01        		.uleb128 0x1
 10891 08b6 68        		.byte	0x68
 10892 08b7 9F        		.byte	0x9f
 10893 08b8 0000 0000 		.long	.LVL113
 10894 08bc 0000 0000 		.long	.LVL114
 10895 08c0 0100      		.word	0x1
 10896 08c2 68        		.byte	0x68
 10897 08c3 0000 0000 		.long	.LVL114
 10898 08c7 0000 0000 		.long	.LVL115
 10899 08cb 0400      		.word	0x4
 10900 08cd F3        		.byte	0xf3
 10901 08ce 01        		.uleb128 0x1
 10902 08cf 68        		.byte	0x68
 10903 08d0 9F        		.byte	0x9f
 10904 08d1 0000 0000 		.long	.LVL115
 10905 08d5 0000 0000 		.long	.LVL116
 10906 08d9 0100      		.word	0x1
 10907 08db 68        		.byte	0x68
 10908 08dc 0000 0000 		.long	.LVL116
 10909 08e0 0000 0000 		.long	.LVL117
 10910 08e4 0400      		.word	0x4
 10911 08e6 F3        		.byte	0xf3
 10912 08e7 01        		.uleb128 0x1
 10913 08e8 68        		.byte	0x68
 10914 08e9 9F        		.byte	0x9f
 10915 08ea 0000 0000 		.long	.LVL117
 10916 08ee 0000 0000 		.long	.LVL118
 10917 08f2 0100      		.word	0x1
 10918 08f4 68        		.byte	0x68
 10919 08f5 0000 0000 		.long	.LVL118
 10920 08f9 0000 0000 		.long	.LVL119
 10921 08fd 0400      		.word	0x4
 10922 08ff F3        		.byte	0xf3
 10923 0900 01        		.uleb128 0x1
 10924 0901 68        		.byte	0x68
 10925 0902 9F        		.byte	0x9f
 10926 0903 0000 0000 		.long	.LVL119
 10927 0907 0000 0000 		.long	.LVL120
 10928 090b 0100      		.word	0x1
GAS LISTING /tmp/ccjciOO6.s 			page 220


 10929 090d 68        		.byte	0x68
 10930 090e 0000 0000 		.long	.LVL120
 10931 0912 0000 0000 		.long	.LVL121
 10932 0916 0400      		.word	0x4
 10933 0918 F3        		.byte	0xf3
 10934 0919 01        		.uleb128 0x1
 10935 091a 68        		.byte	0x68
 10936 091b 9F        		.byte	0x9f
 10937 091c 0000 0000 		.long	.LVL121
 10938 0920 0000 0000 		.long	.LVL122
 10939 0924 0100      		.word	0x1
 10940 0926 68        		.byte	0x68
 10941 0927 0000 0000 		.long	.LVL122
 10942 092b 0000 0000 		.long	.LVL123
 10943 092f 0400      		.word	0x4
 10944 0931 F3        		.byte	0xf3
 10945 0932 01        		.uleb128 0x1
 10946 0933 68        		.byte	0x68
 10947 0934 9F        		.byte	0x9f
 10948 0935 0000 0000 		.long	.LVL123
 10949 0939 0000 0000 		.long	.LVL124
 10950 093d 0100      		.word	0x1
 10951 093f 68        		.byte	0x68
 10952 0940 0000 0000 		.long	.LVL124
 10953 0944 0000 0000 		.long	.LVL125
 10954 0948 0400      		.word	0x4
 10955 094a F3        		.byte	0xf3
 10956 094b 01        		.uleb128 0x1
 10957 094c 68        		.byte	0x68
 10958 094d 9F        		.byte	0x9f
 10959 094e 0000 0000 		.long	.LVL125
 10960 0952 0000 0000 		.long	.LVL126
 10961 0956 0100      		.word	0x1
 10962 0958 68        		.byte	0x68
 10963 0959 0000 0000 		.long	.LVL126
 10964 095d 0000 0000 		.long	.LVL127
 10965 0961 0400      		.word	0x4
 10966 0963 F3        		.byte	0xf3
 10967 0964 01        		.uleb128 0x1
 10968 0965 68        		.byte	0x68
 10969 0966 9F        		.byte	0x9f
 10970 0967 0000 0000 		.long	.LVL127
 10971 096b 0000 0000 		.long	.LVL128
 10972 096f 0100      		.word	0x1
 10973 0971 68        		.byte	0x68
 10974 0972 0000 0000 		.long	.LVL128
 10975 0976 0000 0000 		.long	.LVL129
 10976 097a 0400      		.word	0x4
 10977 097c F3        		.byte	0xf3
 10978 097d 01        		.uleb128 0x1
 10979 097e 68        		.byte	0x68
 10980 097f 9F        		.byte	0x9f
 10981 0980 0000 0000 		.long	.LVL129
 10982 0984 0000 0000 		.long	.LVL130
 10983 0988 0100      		.word	0x1
 10984 098a 68        		.byte	0x68
 10985 098b 0000 0000 		.long	.LVL130
GAS LISTING /tmp/ccjciOO6.s 			page 221


 10986 098f 0000 0000 		.long	.LVL131
 10987 0993 0400      		.word	0x4
 10988 0995 F3        		.byte	0xf3
 10989 0996 01        		.uleb128 0x1
 10990 0997 68        		.byte	0x68
 10991 0998 9F        		.byte	0x9f
 10992 0999 0000 0000 		.long	.LVL131
 10993 099d 0000 0000 		.long	.LVL132
 10994 09a1 0100      		.word	0x1
 10995 09a3 68        		.byte	0x68
 10996 09a4 0000 0000 		.long	.LVL132
 10997 09a8 0000 0000 		.long	.LVL133
 10998 09ac 0400      		.word	0x4
 10999 09ae F3        		.byte	0xf3
 11000 09af 01        		.uleb128 0x1
 11001 09b0 68        		.byte	0x68
 11002 09b1 9F        		.byte	0x9f
 11003 09b2 0000 0000 		.long	.LVL133
 11004 09b6 0000 0000 		.long	.LVL134
 11005 09ba 0100      		.word	0x1
 11006 09bc 68        		.byte	0x68
 11007 09bd 0000 0000 		.long	.LVL134
 11008 09c1 0000 0000 		.long	.LVL135
 11009 09c5 0400      		.word	0x4
 11010 09c7 F3        		.byte	0xf3
 11011 09c8 01        		.uleb128 0x1
 11012 09c9 68        		.byte	0x68
 11013 09ca 9F        		.byte	0x9f
 11014 09cb 0000 0000 		.long	.LVL135
 11015 09cf 0000 0000 		.long	.LVL136
 11016 09d3 0100      		.word	0x1
 11017 09d5 68        		.byte	0x68
 11018 09d6 0000 0000 		.long	.LVL136
 11019 09da 0000 0000 		.long	.LVL137
 11020 09de 0400      		.word	0x4
 11021 09e0 F3        		.byte	0xf3
 11022 09e1 01        		.uleb128 0x1
 11023 09e2 68        		.byte	0x68
 11024 09e3 9F        		.byte	0x9f
 11025 09e4 0000 0000 		.long	.LVL137
 11026 09e8 0000 0000 		.long	.LVL138
 11027 09ec 0100      		.word	0x1
 11028 09ee 68        		.byte	0x68
 11029 09ef 0000 0000 		.long	.LVL138
 11030 09f3 0000 0000 		.long	.LVL139
 11031 09f7 0400      		.word	0x4
 11032 09f9 F3        		.byte	0xf3
 11033 09fa 01        		.uleb128 0x1
 11034 09fb 68        		.byte	0x68
 11035 09fc 9F        		.byte	0x9f
 11036 09fd 0000 0000 		.long	.LVL139
 11037 0a01 0000 0000 		.long	.LVL140
 11038 0a05 0100      		.word	0x1
 11039 0a07 68        		.byte	0x68
 11040 0a08 0000 0000 		.long	.LVL140
 11041 0a0c 0000 0000 		.long	.LVL141
 11042 0a10 0400      		.word	0x4
GAS LISTING /tmp/ccjciOO6.s 			page 222


 11043 0a12 F3        		.byte	0xf3
 11044 0a13 01        		.uleb128 0x1
 11045 0a14 68        		.byte	0x68
 11046 0a15 9F        		.byte	0x9f
 11047 0a16 0000 0000 		.long	.LVL141
 11048 0a1a 0000 0000 		.long	.LVL142
 11049 0a1e 0100      		.word	0x1
 11050 0a20 68        		.byte	0x68
 11051 0a21 0000 0000 		.long	.LVL142
 11052 0a25 0000 0000 		.long	.LVL143
 11053 0a29 0400      		.word	0x4
 11054 0a2b F3        		.byte	0xf3
 11055 0a2c 01        		.uleb128 0x1
 11056 0a2d 68        		.byte	0x68
 11057 0a2e 9F        		.byte	0x9f
 11058 0a2f 0000 0000 		.long	.LVL143
 11059 0a33 0000 0000 		.long	.LVL144
 11060 0a37 0100      		.word	0x1
 11061 0a39 68        		.byte	0x68
 11062 0a3a 0000 0000 		.long	.LVL144
 11063 0a3e 0000 0000 		.long	.LVL145
 11064 0a42 0400      		.word	0x4
 11065 0a44 F3        		.byte	0xf3
 11066 0a45 01        		.uleb128 0x1
 11067 0a46 68        		.byte	0x68
 11068 0a47 9F        		.byte	0x9f
 11069 0a48 0000 0000 		.long	.LVL145
 11070 0a4c 0000 0000 		.long	.LVL146
 11071 0a50 0100      		.word	0x1
 11072 0a52 68        		.byte	0x68
 11073 0a53 0000 0000 		.long	.LVL146
 11074 0a57 0000 0000 		.long	.LVL147
 11075 0a5b 0400      		.word	0x4
 11076 0a5d F3        		.byte	0xf3
 11077 0a5e 01        		.uleb128 0x1
 11078 0a5f 68        		.byte	0x68
 11079 0a60 9F        		.byte	0x9f
 11080 0a61 0000 0000 		.long	.LVL147
 11081 0a65 0000 0000 		.long	.LVL148
 11082 0a69 0100      		.word	0x1
 11083 0a6b 68        		.byte	0x68
 11084 0a6c 0000 0000 		.long	.LVL148
 11085 0a70 0000 0000 		.long	.LVL149
 11086 0a74 0400      		.word	0x4
 11087 0a76 F3        		.byte	0xf3
 11088 0a77 01        		.uleb128 0x1
 11089 0a78 68        		.byte	0x68
 11090 0a79 9F        		.byte	0x9f
 11091 0a7a 0000 0000 		.long	.LVL149
 11092 0a7e 0000 0000 		.long	.LVL150
 11093 0a82 0100      		.word	0x1
 11094 0a84 68        		.byte	0x68
 11095 0a85 0000 0000 		.long	.LVL150
 11096 0a89 0000 0000 		.long	.LVL151
 11097 0a8d 0400      		.word	0x4
 11098 0a8f F3        		.byte	0xf3
 11099 0a90 01        		.uleb128 0x1
GAS LISTING /tmp/ccjciOO6.s 			page 223


 11100 0a91 68        		.byte	0x68
 11101 0a92 9F        		.byte	0x9f
 11102 0a93 0000 0000 		.long	.LVL151
 11103 0a97 0000 0000 		.long	.LVL152
 11104 0a9b 0100      		.word	0x1
 11105 0a9d 68        		.byte	0x68
 11106 0a9e 0000 0000 		.long	.LVL152
 11107 0aa2 0000 0000 		.long	.LFE34
 11108 0aa6 0400      		.word	0x4
 11109 0aa8 F3        		.byte	0xf3
 11110 0aa9 01        		.uleb128 0x1
 11111 0aaa 68        		.byte	0x68
 11112 0aab 9F        		.byte	0x9f
 11113 0aac 0000 0000 		.long	0
 11114 0ab0 0000 0000 		.long	0
 11115               	.LLST34:
 11116 0ab4 0000 0000 		.long	.LFB35
 11117 0ab8 0000 0000 		.long	.LCFI24
 11118 0abc 0300      		.word	0x3
 11119 0abe 92        		.byte	0x92
 11120 0abf 20        		.uleb128 0x20
 11121 0ac0 02        		.sleb128 2
 11122 0ac1 0000 0000 		.long	.LCFI24
 11123 0ac5 0000 0000 		.long	.LCFI25
 11124 0ac9 0300      		.word	0x3
 11125 0acb 92        		.byte	0x92
 11126 0acc 20        		.uleb128 0x20
 11127 0acd 03        		.sleb128 3
 11128 0ace 0000 0000 		.long	.LCFI25
 11129 0ad2 0000 0000 		.long	.LCFI26
 11130 0ad6 0300      		.word	0x3
 11131 0ad8 92        		.byte	0x92
 11132 0ad9 20        		.uleb128 0x20
 11133 0ada 04        		.sleb128 4
 11134 0adb 0000 0000 		.long	.LCFI26
 11135 0adf 0000 0000 		.long	.LCFI27
 11136 0ae3 0300      		.word	0x3
 11137 0ae5 92        		.byte	0x92
 11138 0ae6 20        		.uleb128 0x20
 11139 0ae7 05        		.sleb128 5
 11140 0ae8 0000 0000 		.long	.LCFI27
 11141 0aec 0000 0000 		.long	.LCFI28
 11142 0af0 0300      		.word	0x3
 11143 0af2 92        		.byte	0x92
 11144 0af3 20        		.uleb128 0x20
 11145 0af4 06        		.sleb128 6
 11146 0af5 0000 0000 		.long	.LCFI28
 11147 0af9 0000 0000 		.long	.LCFI29
 11148 0afd 0300      		.word	0x3
 11149 0aff 92        		.byte	0x92
 11150 0b00 20        		.uleb128 0x20
 11151 0b01 07        		.sleb128 7
 11152 0b02 0000 0000 		.long	.LCFI29
 11153 0b06 0000 0000 		.long	.LFE35
 11154 0b0a 0300      		.word	0x3
 11155 0b0c 92        		.byte	0x92
 11156 0b0d 20        		.uleb128 0x20
GAS LISTING /tmp/ccjciOO6.s 			page 224


 11157 0b0e 08        		.sleb128 8
 11158 0b0f 0000 0000 		.long	0
 11159 0b13 0000 0000 		.long	0
 11160               	.LLST35:
 11161 0b17 0000 0000 		.long	.LFB36
 11162 0b1b 0000 0000 		.long	.LCFI30
 11163 0b1f 0300      		.word	0x3
 11164 0b21 92        		.byte	0x92
 11165 0b22 20        		.uleb128 0x20
 11166 0b23 02        		.sleb128 2
 11167 0b24 0000 0000 		.long	.LCFI30
 11168 0b28 0000 0000 		.long	.LCFI31
 11169 0b2c 0300      		.word	0x3
 11170 0b2e 92        		.byte	0x92
 11171 0b2f 20        		.uleb128 0x20
 11172 0b30 03        		.sleb128 3
 11173 0b31 0000 0000 		.long	.LCFI31
 11174 0b35 0000 0000 		.long	.LCFI32
 11175 0b39 0300      		.word	0x3
 11176 0b3b 92        		.byte	0x92
 11177 0b3c 20        		.uleb128 0x20
 11178 0b3d 04        		.sleb128 4
 11179 0b3e 0000 0000 		.long	.LCFI32
 11180 0b42 0000 0000 		.long	.LCFI33
 11181 0b46 0300      		.word	0x3
 11182 0b48 92        		.byte	0x92
 11183 0b49 20        		.uleb128 0x20
 11184 0b4a 05        		.sleb128 5
 11185 0b4b 0000 0000 		.long	.LCFI33
 11186 0b4f 0000 0000 		.long	.LCFI34
 11187 0b53 0300      		.word	0x3
 11188 0b55 92        		.byte	0x92
 11189 0b56 20        		.uleb128 0x20
 11190 0b57 06        		.sleb128 6
 11191 0b58 0000 0000 		.long	.LCFI34
 11192 0b5c 0000 0000 		.long	.LCFI35
 11193 0b60 0300      		.word	0x3
 11194 0b62 92        		.byte	0x92
 11195 0b63 20        		.uleb128 0x20
 11196 0b64 07        		.sleb128 7
 11197 0b65 0000 0000 		.long	.LCFI35
 11198 0b69 0000 0000 		.long	.LCFI36
 11199 0b6d 0300      		.word	0x3
 11200 0b6f 92        		.byte	0x92
 11201 0b70 20        		.uleb128 0x20
 11202 0b71 08        		.sleb128 8
 11203 0b72 0000 0000 		.long	.LCFI36
 11204 0b76 0000 0000 		.long	.LCFI37
 11205 0b7a 0300      		.word	0x3
 11206 0b7c 92        		.byte	0x92
 11207 0b7d 20        		.uleb128 0x20
 11208 0b7e 09        		.sleb128 9
 11209 0b7f 0000 0000 		.long	.LCFI37
 11210 0b83 0000 0000 		.long	.LCFI38
 11211 0b87 0300      		.word	0x3
 11212 0b89 92        		.byte	0x92
 11213 0b8a 20        		.uleb128 0x20
GAS LISTING /tmp/ccjciOO6.s 			page 225


 11214 0b8b 0A        		.sleb128 10
 11215 0b8c 0000 0000 		.long	.LCFI38
 11216 0b90 0000 0000 		.long	.LCFI39
 11217 0b94 0300      		.word	0x3
 11218 0b96 92        		.byte	0x92
 11219 0b97 20        		.uleb128 0x20
 11220 0b98 0B        		.sleb128 11
 11221 0b99 0000 0000 		.long	.LCFI39
 11222 0b9d 0000 0000 		.long	.LCFI40
 11223 0ba1 0300      		.word	0x3
 11224 0ba3 92        		.byte	0x92
 11225 0ba4 20        		.uleb128 0x20
 11226 0ba5 0C        		.sleb128 12
 11227 0ba6 0000 0000 		.long	.LCFI40
 11228 0baa 0000 0000 		.long	.LCFI41
 11229 0bae 0300      		.word	0x3
 11230 0bb0 92        		.byte	0x92
 11231 0bb1 20        		.uleb128 0x20
 11232 0bb2 0D        		.sleb128 13
 11233 0bb3 0000 0000 		.long	.LCFI41
 11234 0bb7 0000 0000 		.long	.LFE36
 11235 0bbb 0200      		.word	0x2
 11236 0bbd 8C        		.byte	0x8c
 11237 0bbe 0D        		.sleb128 13
 11238 0bbf 0000 0000 		.long	0
 11239 0bc3 0000 0000 		.long	0
 11240               	.LLST36:
 11241 0bc7 0000 0000 		.long	.LVL155
 11242 0bcb 0000 0000 		.long	.LVL156
 11243 0bcf 0A00      		.word	0xa
 11244 0bd1 93        		.byte	0x93
 11245 0bd2 0C        		.uleb128 0xc
 11246 0bd3 64        		.byte	0x64
 11247 0bd4 93        		.byte	0x93
 11248 0bd5 01        		.uleb128 0x1
 11249 0bd6 65        		.byte	0x65
 11250 0bd7 93        		.byte	0x93
 11251 0bd8 01        		.uleb128 0x1
 11252 0bd9 93        		.byte	0x93
 11253 0bda 16        		.uleb128 0x16
 11254 0bdb 0000 0000 		.long	.LVL156
 11255 0bdf 0000 0000 		.long	.LVL157
 11256 0be3 0F00      		.word	0xf
 11257 0be5 93        		.byte	0x93
 11258 0be6 0C        		.uleb128 0xc
 11259 0be7 64        		.byte	0x64
 11260 0be8 93        		.byte	0x93
 11261 0be9 01        		.uleb128 0x1
 11262 0bea 65        		.byte	0x65
 11263 0beb 93        		.byte	0x93
 11264 0bec 01        		.uleb128 0x1
 11265 0bed 93        		.byte	0x93
 11266 0bee 06        		.uleb128 0x6
 11267 0bef 68        		.byte	0x68
 11268 0bf0 93        		.byte	0x93
 11269 0bf1 01        		.uleb128 0x1
 11270 0bf2 93        		.byte	0x93
GAS LISTING /tmp/ccjciOO6.s 			page 226


 11271 0bf3 0F        		.uleb128 0xf
 11272 0bf4 0000 0000 		.long	.LVL157
 11273 0bf8 0000 0000 		.long	.LVL158
 11274 0bfc 1500      		.word	0x15
 11275 0bfe 93        		.byte	0x93
 11276 0bff 0C        		.uleb128 0xc
 11277 0c00 64        		.byte	0x64
 11278 0c01 93        		.byte	0x93
 11279 0c02 01        		.uleb128 0x1
 11280 0c03 65        		.byte	0x65
 11281 0c04 93        		.byte	0x93
 11282 0c05 01        		.uleb128 0x1
 11283 0c06 93        		.byte	0x93
 11284 0c07 06        		.uleb128 0x6
 11285 0c08 68        		.byte	0x68
 11286 0c09 93        		.byte	0x93
 11287 0c0a 01        		.uleb128 0x1
 11288 0c0b 66        		.byte	0x66
 11289 0c0c 93        		.byte	0x93
 11290 0c0d 01        		.uleb128 0x1
 11291 0c0e 67        		.byte	0x67
 11292 0c0f 93        		.byte	0x93
 11293 0c10 01        		.uleb128 0x1
 11294 0c11 93        		.byte	0x93
 11295 0c12 0D        		.uleb128 0xd
 11296 0c13 0000 0000 		.long	.LVL158
 11297 0c17 0000 0000 		.long	.LVL159
 11298 0c1b 1800      		.word	0x18
 11299 0c1d 93        		.byte	0x93
 11300 0c1e 0C        		.uleb128 0xc
 11301 0c1f 64        		.byte	0x64
 11302 0c20 93        		.byte	0x93
 11303 0c21 01        		.uleb128 0x1
 11304 0c22 65        		.byte	0x65
 11305 0c23 93        		.byte	0x93
 11306 0c24 01        		.uleb128 0x1
 11307 0c25 93        		.byte	0x93
 11308 0c26 06        		.uleb128 0x6
 11309 0c27 68        		.byte	0x68
 11310 0c28 93        		.byte	0x93
 11311 0c29 01        		.uleb128 0x1
 11312 0c2a 66        		.byte	0x66
 11313 0c2b 93        		.byte	0x93
 11314 0c2c 01        		.uleb128 0x1
 11315 0c2d 67        		.byte	0x67
 11316 0c2e 93        		.byte	0x93
 11317 0c2f 01        		.uleb128 0x1
 11318 0c30 61        		.byte	0x61
 11319 0c31 93        		.byte	0x93
 11320 0c32 01        		.uleb128 0x1
 11321 0c33 93        		.byte	0x93
 11322 0c34 0C        		.uleb128 0xc
 11323 0c35 0000 0000 		.long	.LVL159
 11324 0c39 0000 0000 		.long	.LVL160-1
 11325 0c3d 1E00      		.word	0x1e
 11326 0c3f 93        		.byte	0x93
 11327 0c40 0C        		.uleb128 0xc
GAS LISTING /tmp/ccjciOO6.s 			page 227


 11328 0c41 64        		.byte	0x64
 11329 0c42 93        		.byte	0x93
 11330 0c43 01        		.uleb128 0x1
 11331 0c44 65        		.byte	0x65
 11332 0c45 93        		.byte	0x93
 11333 0c46 01        		.uleb128 0x1
 11334 0c47 93        		.byte	0x93
 11335 0c48 06        		.uleb128 0x6
 11336 0c49 68        		.byte	0x68
 11337 0c4a 93        		.byte	0x93
 11338 0c4b 01        		.uleb128 0x1
 11339 0c4c 66        		.byte	0x66
 11340 0c4d 93        		.byte	0x93
 11341 0c4e 01        		.uleb128 0x1
 11342 0c4f 67        		.byte	0x67
 11343 0c50 93        		.byte	0x93
 11344 0c51 01        		.uleb128 0x1
 11345 0c52 61        		.byte	0x61
 11346 0c53 93        		.byte	0x93
 11347 0c54 01        		.uleb128 0x1
 11348 0c55 5E        		.byte	0x5e
 11349 0c56 93        		.byte	0x93
 11350 0c57 01        		.uleb128 0x1
 11351 0c58 5F        		.byte	0x5f
 11352 0c59 93        		.byte	0x93
 11353 0c5a 01        		.uleb128 0x1
 11354 0c5b 93        		.byte	0x93
 11355 0c5c 0A        		.uleb128 0xa
 11356 0c5d 0000 0000 		.long	.LVL160-1
 11357 0c61 0000 0000 		.long	.LVL161
 11358 0c65 1B00      		.word	0x1b
 11359 0c67 93        		.byte	0x93
 11360 0c68 0C        		.uleb128 0xc
 11361 0c69 91        		.byte	0x91
 11362 0c6a 0D        		.sleb128 13
 11363 0c6b 93        		.byte	0x93
 11364 0c6c 02        		.uleb128 0x2
 11365 0c6d 93        		.byte	0x93
 11366 0c6e 06        		.uleb128 0x6
 11367 0c6f 91        		.byte	0x91
 11368 0c70 15        		.sleb128 21
 11369 0c71 93        		.byte	0x93
 11370 0c72 01        		.uleb128 0x1
 11371 0c73 91        		.byte	0x91
 11372 0c74 16        		.sleb128 22
 11373 0c75 93        		.byte	0x93
 11374 0c76 02        		.uleb128 0x2
 11375 0c77 61        		.byte	0x61
 11376 0c78 93        		.byte	0x93
 11377 0c79 01        		.uleb128 0x1
 11378 0c7a 5E        		.byte	0x5e
 11379 0c7b 93        		.byte	0x93
 11380 0c7c 01        		.uleb128 0x1
 11381 0c7d 5F        		.byte	0x5f
 11382 0c7e 93        		.byte	0x93
 11383 0c7f 01        		.uleb128 0x1
 11384 0c80 93        		.byte	0x93
GAS LISTING /tmp/ccjciOO6.s 			page 228


 11385 0c81 0A        		.uleb128 0xa
 11386 0c82 0000 0000 		.long	.LVL161
 11387 0c86 0000 0000 		.long	.LVL162-1
 11388 0c8a 1E00      		.word	0x1e
 11389 0c8c 93        		.byte	0x93
 11390 0c8d 0C        		.uleb128 0xc
 11391 0c8e 64        		.byte	0x64
 11392 0c8f 93        		.byte	0x93
 11393 0c90 01        		.uleb128 0x1
 11394 0c91 65        		.byte	0x65
 11395 0c92 93        		.byte	0x93
 11396 0c93 01        		.uleb128 0x1
 11397 0c94 93        		.byte	0x93
 11398 0c95 06        		.uleb128 0x6
 11399 0c96 68        		.byte	0x68
 11400 0c97 93        		.byte	0x93
 11401 0c98 01        		.uleb128 0x1
 11402 0c99 66        		.byte	0x66
 11403 0c9a 93        		.byte	0x93
 11404 0c9b 01        		.uleb128 0x1
 11405 0c9c 67        		.byte	0x67
 11406 0c9d 93        		.byte	0x93
 11407 0c9e 01        		.uleb128 0x1
 11408 0c9f 61        		.byte	0x61
 11409 0ca0 93        		.byte	0x93
 11410 0ca1 01        		.uleb128 0x1
 11411 0ca2 5E        		.byte	0x5e
 11412 0ca3 93        		.byte	0x93
 11413 0ca4 01        		.uleb128 0x1
 11414 0ca5 5F        		.byte	0x5f
 11415 0ca6 93        		.byte	0x93
 11416 0ca7 01        		.uleb128 0x1
 11417 0ca8 93        		.byte	0x93
 11418 0ca9 0A        		.uleb128 0xa
 11419 0caa 0000 0000 		.long	.LVL162-1
 11420 0cae 0000 0000 		.long	.LVL163
 11421 0cb2 1B00      		.word	0x1b
 11422 0cb4 93        		.byte	0x93
 11423 0cb5 0C        		.uleb128 0xc
 11424 0cb6 91        		.byte	0x91
 11425 0cb7 0D        		.sleb128 13
 11426 0cb8 93        		.byte	0x93
 11427 0cb9 02        		.uleb128 0x2
 11428 0cba 93        		.byte	0x93
 11429 0cbb 06        		.uleb128 0x6
 11430 0cbc 91        		.byte	0x91
 11431 0cbd 15        		.sleb128 21
 11432 0cbe 93        		.byte	0x93
 11433 0cbf 01        		.uleb128 0x1
 11434 0cc0 91        		.byte	0x91
 11435 0cc1 16        		.sleb128 22
 11436 0cc2 93        		.byte	0x93
 11437 0cc3 02        		.uleb128 0x2
 11438 0cc4 61        		.byte	0x61
 11439 0cc5 93        		.byte	0x93
 11440 0cc6 01        		.uleb128 0x1
 11441 0cc7 5E        		.byte	0x5e
GAS LISTING /tmp/ccjciOO6.s 			page 229


 11442 0cc8 93        		.byte	0x93
 11443 0cc9 01        		.uleb128 0x1
 11444 0cca 5F        		.byte	0x5f
 11445 0ccb 93        		.byte	0x93
 11446 0ccc 01        		.uleb128 0x1
 11447 0ccd 93        		.byte	0x93
 11448 0cce 0A        		.uleb128 0xa
 11449 0ccf 0000 0000 		.long	.LVL163
 11450 0cd3 0000 0000 		.long	.LVL164-1
 11451 0cd7 1E00      		.word	0x1e
 11452 0cd9 93        		.byte	0x93
 11453 0cda 0C        		.uleb128 0xc
 11454 0cdb 64        		.byte	0x64
 11455 0cdc 93        		.byte	0x93
 11456 0cdd 01        		.uleb128 0x1
 11457 0cde 65        		.byte	0x65
 11458 0cdf 93        		.byte	0x93
 11459 0ce0 01        		.uleb128 0x1
 11460 0ce1 93        		.byte	0x93
 11461 0ce2 06        		.uleb128 0x6
 11462 0ce3 68        		.byte	0x68
 11463 0ce4 93        		.byte	0x93
 11464 0ce5 01        		.uleb128 0x1
 11465 0ce6 66        		.byte	0x66
 11466 0ce7 93        		.byte	0x93
 11467 0ce8 01        		.uleb128 0x1
 11468 0ce9 67        		.byte	0x67
 11469 0cea 93        		.byte	0x93
 11470 0ceb 01        		.uleb128 0x1
 11471 0cec 61        		.byte	0x61
 11472 0ced 93        		.byte	0x93
 11473 0cee 01        		.uleb128 0x1
 11474 0cef 5E        		.byte	0x5e
 11475 0cf0 93        		.byte	0x93
 11476 0cf1 01        		.uleb128 0x1
 11477 0cf2 5F        		.byte	0x5f
 11478 0cf3 93        		.byte	0x93
 11479 0cf4 01        		.uleb128 0x1
 11480 0cf5 93        		.byte	0x93
 11481 0cf6 0A        		.uleb128 0xa
 11482 0cf7 0000 0000 		.long	.LVL164-1
 11483 0cfb 0000 0000 		.long	.LVL165
 11484 0cff 1B00      		.word	0x1b
 11485 0d01 93        		.byte	0x93
 11486 0d02 0C        		.uleb128 0xc
 11487 0d03 91        		.byte	0x91
 11488 0d04 0D        		.sleb128 13
 11489 0d05 93        		.byte	0x93
 11490 0d06 02        		.uleb128 0x2
 11491 0d07 93        		.byte	0x93
 11492 0d08 06        		.uleb128 0x6
 11493 0d09 91        		.byte	0x91
 11494 0d0a 15        		.sleb128 21
 11495 0d0b 93        		.byte	0x93
 11496 0d0c 01        		.uleb128 0x1
 11497 0d0d 91        		.byte	0x91
 11498 0d0e 16        		.sleb128 22
GAS LISTING /tmp/ccjciOO6.s 			page 230


 11499 0d0f 93        		.byte	0x93
 11500 0d10 02        		.uleb128 0x2
 11501 0d11 61        		.byte	0x61
 11502 0d12 93        		.byte	0x93
 11503 0d13 01        		.uleb128 0x1
 11504 0d14 5E        		.byte	0x5e
 11505 0d15 93        		.byte	0x93
 11506 0d16 01        		.uleb128 0x1
 11507 0d17 5F        		.byte	0x5f
 11508 0d18 93        		.byte	0x93
 11509 0d19 01        		.uleb128 0x1
 11510 0d1a 93        		.byte	0x93
 11511 0d1b 0A        		.uleb128 0xa
 11512 0d1c 0000 0000 		.long	.LVL165
 11513 0d20 0000 0000 		.long	.LVL166-1
 11514 0d24 1E00      		.word	0x1e
 11515 0d26 93        		.byte	0x93
 11516 0d27 0C        		.uleb128 0xc
 11517 0d28 64        		.byte	0x64
 11518 0d29 93        		.byte	0x93
 11519 0d2a 01        		.uleb128 0x1
 11520 0d2b 65        		.byte	0x65
 11521 0d2c 93        		.byte	0x93
 11522 0d2d 01        		.uleb128 0x1
 11523 0d2e 93        		.byte	0x93
 11524 0d2f 06        		.uleb128 0x6
 11525 0d30 68        		.byte	0x68
 11526 0d31 93        		.byte	0x93
 11527 0d32 01        		.uleb128 0x1
 11528 0d33 66        		.byte	0x66
 11529 0d34 93        		.byte	0x93
 11530 0d35 01        		.uleb128 0x1
 11531 0d36 67        		.byte	0x67
 11532 0d37 93        		.byte	0x93
 11533 0d38 01        		.uleb128 0x1
 11534 0d39 61        		.byte	0x61
 11535 0d3a 93        		.byte	0x93
 11536 0d3b 01        		.uleb128 0x1
 11537 0d3c 5E        		.byte	0x5e
 11538 0d3d 93        		.byte	0x93
 11539 0d3e 01        		.uleb128 0x1
 11540 0d3f 5F        		.byte	0x5f
 11541 0d40 93        		.byte	0x93
 11542 0d41 01        		.uleb128 0x1
 11543 0d42 93        		.byte	0x93
 11544 0d43 0A        		.uleb128 0xa
 11545 0d44 0000 0000 		.long	.LVL166-1
 11546 0d48 0000 0000 		.long	.LVL167
 11547 0d4c 1B00      		.word	0x1b
 11548 0d4e 93        		.byte	0x93
 11549 0d4f 0C        		.uleb128 0xc
 11550 0d50 91        		.byte	0x91
 11551 0d51 0D        		.sleb128 13
 11552 0d52 93        		.byte	0x93
 11553 0d53 02        		.uleb128 0x2
 11554 0d54 93        		.byte	0x93
 11555 0d55 06        		.uleb128 0x6
GAS LISTING /tmp/ccjciOO6.s 			page 231


 11556 0d56 91        		.byte	0x91
 11557 0d57 15        		.sleb128 21
 11558 0d58 93        		.byte	0x93
 11559 0d59 01        		.uleb128 0x1
 11560 0d5a 91        		.byte	0x91
 11561 0d5b 16        		.sleb128 22
 11562 0d5c 93        		.byte	0x93
 11563 0d5d 02        		.uleb128 0x2
 11564 0d5e 61        		.byte	0x61
 11565 0d5f 93        		.byte	0x93
 11566 0d60 01        		.uleb128 0x1
 11567 0d61 5E        		.byte	0x5e
 11568 0d62 93        		.byte	0x93
 11569 0d63 01        		.uleb128 0x1
 11570 0d64 5F        		.byte	0x5f
 11571 0d65 93        		.byte	0x93
 11572 0d66 01        		.uleb128 0x1
 11573 0d67 93        		.byte	0x93
 11574 0d68 0A        		.uleb128 0xa
 11575 0d69 0000 0000 		.long	.LVL167
 11576 0d6d 0000 0000 		.long	.LVL168-1
 11577 0d71 1E00      		.word	0x1e
 11578 0d73 93        		.byte	0x93
 11579 0d74 0C        		.uleb128 0xc
 11580 0d75 64        		.byte	0x64
 11581 0d76 93        		.byte	0x93
 11582 0d77 01        		.uleb128 0x1
 11583 0d78 65        		.byte	0x65
 11584 0d79 93        		.byte	0x93
 11585 0d7a 01        		.uleb128 0x1
 11586 0d7b 93        		.byte	0x93
 11587 0d7c 06        		.uleb128 0x6
 11588 0d7d 68        		.byte	0x68
 11589 0d7e 93        		.byte	0x93
 11590 0d7f 01        		.uleb128 0x1
 11591 0d80 66        		.byte	0x66
 11592 0d81 93        		.byte	0x93
 11593 0d82 01        		.uleb128 0x1
 11594 0d83 67        		.byte	0x67
 11595 0d84 93        		.byte	0x93
 11596 0d85 01        		.uleb128 0x1
 11597 0d86 61        		.byte	0x61
 11598 0d87 93        		.byte	0x93
 11599 0d88 01        		.uleb128 0x1
 11600 0d89 5E        		.byte	0x5e
 11601 0d8a 93        		.byte	0x93
 11602 0d8b 01        		.uleb128 0x1
 11603 0d8c 5F        		.byte	0x5f
 11604 0d8d 93        		.byte	0x93
 11605 0d8e 01        		.uleb128 0x1
 11606 0d8f 93        		.byte	0x93
 11607 0d90 0A        		.uleb128 0xa
 11608 0d91 0000 0000 		.long	.LVL168-1
 11609 0d95 0000 0000 		.long	.LVL170
 11610 0d99 1B00      		.word	0x1b
 11611 0d9b 93        		.byte	0x93
 11612 0d9c 0C        		.uleb128 0xc
GAS LISTING /tmp/ccjciOO6.s 			page 232


 11613 0d9d 91        		.byte	0x91
 11614 0d9e 0D        		.sleb128 13
 11615 0d9f 93        		.byte	0x93
 11616 0da0 02        		.uleb128 0x2
 11617 0da1 93        		.byte	0x93
 11618 0da2 06        		.uleb128 0x6
 11619 0da3 91        		.byte	0x91
 11620 0da4 15        		.sleb128 21
 11621 0da5 93        		.byte	0x93
 11622 0da6 01        		.uleb128 0x1
 11623 0da7 91        		.byte	0x91
 11624 0da8 16        		.sleb128 22
 11625 0da9 93        		.byte	0x93
 11626 0daa 02        		.uleb128 0x2
 11627 0dab 61        		.byte	0x61
 11628 0dac 93        		.byte	0x93
 11629 0dad 01        		.uleb128 0x1
 11630 0dae 5E        		.byte	0x5e
 11631 0daf 93        		.byte	0x93
 11632 0db0 01        		.uleb128 0x1
 11633 0db1 5F        		.byte	0x5f
 11634 0db2 93        		.byte	0x93
 11635 0db3 01        		.uleb128 0x1
 11636 0db4 93        		.byte	0x93
 11637 0db5 0A        		.uleb128 0xa
 11638 0db6 0000 0000 		.long	.LVL170
 11639 0dba 0000 0000 		.long	.LVL171-1
 11640 0dbe 1E00      		.word	0x1e
 11641 0dc0 93        		.byte	0x93
 11642 0dc1 0C        		.uleb128 0xc
 11643 0dc2 64        		.byte	0x64
 11644 0dc3 93        		.byte	0x93
 11645 0dc4 01        		.uleb128 0x1
 11646 0dc5 65        		.byte	0x65
 11647 0dc6 93        		.byte	0x93
 11648 0dc7 01        		.uleb128 0x1
 11649 0dc8 93        		.byte	0x93
 11650 0dc9 06        		.uleb128 0x6
 11651 0dca 68        		.byte	0x68
 11652 0dcb 93        		.byte	0x93
 11653 0dcc 01        		.uleb128 0x1
 11654 0dcd 66        		.byte	0x66
 11655 0dce 93        		.byte	0x93
 11656 0dcf 01        		.uleb128 0x1
 11657 0dd0 67        		.byte	0x67
 11658 0dd1 93        		.byte	0x93
 11659 0dd2 01        		.uleb128 0x1
 11660 0dd3 61        		.byte	0x61
 11661 0dd4 93        		.byte	0x93
 11662 0dd5 01        		.uleb128 0x1
 11663 0dd6 5E        		.byte	0x5e
 11664 0dd7 93        		.byte	0x93
 11665 0dd8 01        		.uleb128 0x1
 11666 0dd9 5F        		.byte	0x5f
 11667 0dda 93        		.byte	0x93
 11668 0ddb 01        		.uleb128 0x1
 11669 0ddc 93        		.byte	0x93
GAS LISTING /tmp/ccjciOO6.s 			page 233


 11670 0ddd 0A        		.uleb128 0xa
 11671 0dde 0000 0000 		.long	.LVL171-1
 11672 0de2 0000 0000 		.long	.LVL173
 11673 0de6 1B00      		.word	0x1b
 11674 0de8 93        		.byte	0x93
 11675 0de9 0C        		.uleb128 0xc
 11676 0dea 91        		.byte	0x91
 11677 0deb 0D        		.sleb128 13
 11678 0dec 93        		.byte	0x93
 11679 0ded 02        		.uleb128 0x2
 11680 0dee 93        		.byte	0x93
 11681 0def 06        		.uleb128 0x6
 11682 0df0 91        		.byte	0x91
 11683 0df1 15        		.sleb128 21
 11684 0df2 93        		.byte	0x93
 11685 0df3 01        		.uleb128 0x1
 11686 0df4 91        		.byte	0x91
 11687 0df5 16        		.sleb128 22
 11688 0df6 93        		.byte	0x93
 11689 0df7 02        		.uleb128 0x2
 11690 0df8 61        		.byte	0x61
 11691 0df9 93        		.byte	0x93
 11692 0dfa 01        		.uleb128 0x1
 11693 0dfb 5E        		.byte	0x5e
 11694 0dfc 93        		.byte	0x93
 11695 0dfd 01        		.uleb128 0x1
 11696 0dfe 5F        		.byte	0x5f
 11697 0dff 93        		.byte	0x93
 11698 0e00 01        		.uleb128 0x1
 11699 0e01 93        		.byte	0x93
 11700 0e02 0A        		.uleb128 0xa
 11701 0e03 0000 0000 		.long	.LVL173
 11702 0e07 0000 0000 		.long	.LVL174-1
 11703 0e0b 1E00      		.word	0x1e
 11704 0e0d 93        		.byte	0x93
 11705 0e0e 0C        		.uleb128 0xc
 11706 0e0f 64        		.byte	0x64
 11707 0e10 93        		.byte	0x93
 11708 0e11 01        		.uleb128 0x1
 11709 0e12 65        		.byte	0x65
 11710 0e13 93        		.byte	0x93
 11711 0e14 01        		.uleb128 0x1
 11712 0e15 93        		.byte	0x93
 11713 0e16 06        		.uleb128 0x6
 11714 0e17 68        		.byte	0x68
 11715 0e18 93        		.byte	0x93
 11716 0e19 01        		.uleb128 0x1
 11717 0e1a 66        		.byte	0x66
 11718 0e1b 93        		.byte	0x93
 11719 0e1c 01        		.uleb128 0x1
 11720 0e1d 67        		.byte	0x67
 11721 0e1e 93        		.byte	0x93
 11722 0e1f 01        		.uleb128 0x1
 11723 0e20 61        		.byte	0x61
 11724 0e21 93        		.byte	0x93
 11725 0e22 01        		.uleb128 0x1
 11726 0e23 5E        		.byte	0x5e
GAS LISTING /tmp/ccjciOO6.s 			page 234


 11727 0e24 93        		.byte	0x93
 11728 0e25 01        		.uleb128 0x1
 11729 0e26 5F        		.byte	0x5f
 11730 0e27 93        		.byte	0x93
 11731 0e28 01        		.uleb128 0x1
 11732 0e29 93        		.byte	0x93
 11733 0e2a 0A        		.uleb128 0xa
 11734 0e2b 0000 0000 		.long	.LVL174-1
 11735 0e2f 0000 0000 		.long	.LVL177
 11736 0e33 1B00      		.word	0x1b
 11737 0e35 93        		.byte	0x93
 11738 0e36 0C        		.uleb128 0xc
 11739 0e37 91        		.byte	0x91
 11740 0e38 0D        		.sleb128 13
 11741 0e39 93        		.byte	0x93
 11742 0e3a 02        		.uleb128 0x2
 11743 0e3b 93        		.byte	0x93
 11744 0e3c 06        		.uleb128 0x6
 11745 0e3d 91        		.byte	0x91
 11746 0e3e 15        		.sleb128 21
 11747 0e3f 93        		.byte	0x93
 11748 0e40 01        		.uleb128 0x1
 11749 0e41 91        		.byte	0x91
 11750 0e42 16        		.sleb128 22
 11751 0e43 93        		.byte	0x93
 11752 0e44 02        		.uleb128 0x2
 11753 0e45 61        		.byte	0x61
 11754 0e46 93        		.byte	0x93
 11755 0e47 01        		.uleb128 0x1
 11756 0e48 5E        		.byte	0x5e
 11757 0e49 93        		.byte	0x93
 11758 0e4a 01        		.uleb128 0x1
 11759 0e4b 5F        		.byte	0x5f
 11760 0e4c 93        		.byte	0x93
 11761 0e4d 01        		.uleb128 0x1
 11762 0e4e 93        		.byte	0x93
 11763 0e4f 0A        		.uleb128 0xa
 11764 0e50 0000 0000 		.long	.LVL177
 11765 0e54 0000 0000 		.long	.LVL178
 11766 0e58 1C00      		.word	0x1c
 11767 0e5a 93        		.byte	0x93
 11768 0e5b 0C        		.uleb128 0xc
 11769 0e5c 91        		.byte	0x91
 11770 0e5d 0D        		.sleb128 13
 11771 0e5e 93        		.byte	0x93
 11772 0e5f 02        		.uleb128 0x2
 11773 0e60 93        		.byte	0x93
 11774 0e61 06        		.uleb128 0x6
 11775 0e62 91        		.byte	0x91
 11776 0e63 15        		.sleb128 21
 11777 0e64 93        		.byte	0x93
 11778 0e65 01        		.uleb128 0x1
 11779 0e66 91        		.byte	0x91
 11780 0e67 16        		.sleb128 22
 11781 0e68 93        		.byte	0x93
 11782 0e69 02        		.uleb128 0x2
 11783 0e6a 91        		.byte	0x91
GAS LISTING /tmp/ccjciOO6.s 			page 235


 11784 0e6b 18        		.sleb128 24
 11785 0e6c 93        		.byte	0x93
 11786 0e6d 01        		.uleb128 0x1
 11787 0e6e 5E        		.byte	0x5e
 11788 0e6f 93        		.byte	0x93
 11789 0e70 01        		.uleb128 0x1
 11790 0e71 5F        		.byte	0x5f
 11791 0e72 93        		.byte	0x93
 11792 0e73 01        		.uleb128 0x1
 11793 0e74 93        		.byte	0x93
 11794 0e75 0A        		.uleb128 0xa
 11795 0e76 0000 0000 		.long	.LVL178
 11796 0e7a 0000 0000 		.long	.LVL179
 11797 0e7e 1A00      		.word	0x1a
 11798 0e80 93        		.byte	0x93
 11799 0e81 0C        		.uleb128 0xc
 11800 0e82 91        		.byte	0x91
 11801 0e83 0D        		.sleb128 13
 11802 0e84 93        		.byte	0x93
 11803 0e85 02        		.uleb128 0x2
 11804 0e86 93        		.byte	0x93
 11805 0e87 06        		.uleb128 0x6
 11806 0e88 91        		.byte	0x91
 11807 0e89 15        		.sleb128 21
 11808 0e8a 93        		.byte	0x93
 11809 0e8b 01        		.uleb128 0x1
 11810 0e8c 91        		.byte	0x91
 11811 0e8d 16        		.sleb128 22
 11812 0e8e 93        		.byte	0x93
 11813 0e8f 02        		.uleb128 0x2
 11814 0e90 91        		.byte	0x91
 11815 0e91 18        		.sleb128 24
 11816 0e92 93        		.byte	0x93
 11817 0e93 01        		.uleb128 0x1
 11818 0e94 91        		.byte	0x91
 11819 0e95 19        		.sleb128 25
 11820 0e96 93        		.byte	0x93
 11821 0e97 02        		.uleb128 0x2
 11822 0e98 93        		.byte	0x93
 11823 0e99 0A        		.uleb128 0xa
 11824 0e9a 0000 0000 		.long	.LVL179
 11825 0e9e 0000 0000 		.long	.LVL180-1
 11826 0ea2 1E00      		.word	0x1e
 11827 0ea4 93        		.byte	0x93
 11828 0ea5 0C        		.uleb128 0xc
 11829 0ea6 64        		.byte	0x64
 11830 0ea7 93        		.byte	0x93
 11831 0ea8 01        		.uleb128 0x1
 11832 0ea9 65        		.byte	0x65
 11833 0eaa 93        		.byte	0x93
 11834 0eab 01        		.uleb128 0x1
 11835 0eac 93        		.byte	0x93
 11836 0ead 06        		.uleb128 0x6
 11837 0eae 68        		.byte	0x68
 11838 0eaf 93        		.byte	0x93
 11839 0eb0 01        		.uleb128 0x1
 11840 0eb1 66        		.byte	0x66
GAS LISTING /tmp/ccjciOO6.s 			page 236


 11841 0eb2 93        		.byte	0x93
 11842 0eb3 01        		.uleb128 0x1
 11843 0eb4 67        		.byte	0x67
 11844 0eb5 93        		.byte	0x93
 11845 0eb6 01        		.uleb128 0x1
 11846 0eb7 61        		.byte	0x61
 11847 0eb8 93        		.byte	0x93
 11848 0eb9 01        		.uleb128 0x1
 11849 0eba 5E        		.byte	0x5e
 11850 0ebb 93        		.byte	0x93
 11851 0ebc 01        		.uleb128 0x1
 11852 0ebd 5F        		.byte	0x5f
 11853 0ebe 93        		.byte	0x93
 11854 0ebf 01        		.uleb128 0x1
 11855 0ec0 93        		.byte	0x93
 11856 0ec1 0A        		.uleb128 0xa
 11857 0ec2 0000 0000 		.long	.LVL180-1
 11858 0ec6 0000 0000 		.long	.LVL183
 11859 0eca 1B00      		.word	0x1b
 11860 0ecc 93        		.byte	0x93
 11861 0ecd 0C        		.uleb128 0xc
 11862 0ece 91        		.byte	0x91
 11863 0ecf 0D        		.sleb128 13
 11864 0ed0 93        		.byte	0x93
 11865 0ed1 02        		.uleb128 0x2
 11866 0ed2 93        		.byte	0x93
 11867 0ed3 06        		.uleb128 0x6
 11868 0ed4 91        		.byte	0x91
 11869 0ed5 15        		.sleb128 21
 11870 0ed6 93        		.byte	0x93
 11871 0ed7 01        		.uleb128 0x1
 11872 0ed8 91        		.byte	0x91
 11873 0ed9 16        		.sleb128 22
 11874 0eda 93        		.byte	0x93
 11875 0edb 02        		.uleb128 0x2
 11876 0edc 61        		.byte	0x61
 11877 0edd 93        		.byte	0x93
 11878 0ede 01        		.uleb128 0x1
 11879 0edf 5E        		.byte	0x5e
 11880 0ee0 93        		.byte	0x93
 11881 0ee1 01        		.uleb128 0x1
 11882 0ee2 5F        		.byte	0x5f
 11883 0ee3 93        		.byte	0x93
 11884 0ee4 01        		.uleb128 0x1
 11885 0ee5 93        		.byte	0x93
 11886 0ee6 0A        		.uleb128 0xa
 11887 0ee7 0000 0000 		.long	.LVL183
 11888 0eeb 0000 0000 		.long	.LVL184
 11889 0eef 1C00      		.word	0x1c
 11890 0ef1 93        		.byte	0x93
 11891 0ef2 0C        		.uleb128 0xc
 11892 0ef3 91        		.byte	0x91
 11893 0ef4 0D        		.sleb128 13
 11894 0ef5 93        		.byte	0x93
 11895 0ef6 02        		.uleb128 0x2
 11896 0ef7 93        		.byte	0x93
 11897 0ef8 06        		.uleb128 0x6
GAS LISTING /tmp/ccjciOO6.s 			page 237


 11898 0ef9 91        		.byte	0x91
 11899 0efa 15        		.sleb128 21
 11900 0efb 93        		.byte	0x93
 11901 0efc 01        		.uleb128 0x1
 11902 0efd 91        		.byte	0x91
 11903 0efe 16        		.sleb128 22
 11904 0eff 93        		.byte	0x93
 11905 0f00 02        		.uleb128 0x2
 11906 0f01 91        		.byte	0x91
 11907 0f02 18        		.sleb128 24
 11908 0f03 93        		.byte	0x93
 11909 0f04 01        		.uleb128 0x1
 11910 0f05 5E        		.byte	0x5e
 11911 0f06 93        		.byte	0x93
 11912 0f07 01        		.uleb128 0x1
 11913 0f08 5F        		.byte	0x5f
 11914 0f09 93        		.byte	0x93
 11915 0f0a 01        		.uleb128 0x1
 11916 0f0b 93        		.byte	0x93
 11917 0f0c 0A        		.uleb128 0xa
 11918 0f0d 0000 0000 		.long	.LVL184
 11919 0f11 0000 0000 		.long	.LVL185
 11920 0f15 1A00      		.word	0x1a
 11921 0f17 93        		.byte	0x93
 11922 0f18 0C        		.uleb128 0xc
 11923 0f19 91        		.byte	0x91
 11924 0f1a 0D        		.sleb128 13
 11925 0f1b 93        		.byte	0x93
 11926 0f1c 02        		.uleb128 0x2
 11927 0f1d 93        		.byte	0x93
 11928 0f1e 06        		.uleb128 0x6
 11929 0f1f 91        		.byte	0x91
 11930 0f20 15        		.sleb128 21
 11931 0f21 93        		.byte	0x93
 11932 0f22 01        		.uleb128 0x1
 11933 0f23 91        		.byte	0x91
 11934 0f24 16        		.sleb128 22
 11935 0f25 93        		.byte	0x93
 11936 0f26 02        		.uleb128 0x2
 11937 0f27 91        		.byte	0x91
 11938 0f28 18        		.sleb128 24
 11939 0f29 93        		.byte	0x93
 11940 0f2a 01        		.uleb128 0x1
 11941 0f2b 91        		.byte	0x91
 11942 0f2c 19        		.sleb128 25
 11943 0f2d 93        		.byte	0x93
 11944 0f2e 02        		.uleb128 0x2
 11945 0f2f 93        		.byte	0x93
 11946 0f30 0A        		.uleb128 0xa
 11947 0f31 0000 0000 		.long	.LVL185
 11948 0f35 0000 0000 		.long	.LVL186
 11949 0f39 1E00      		.word	0x1e
 11950 0f3b 93        		.byte	0x93
 11951 0f3c 0C        		.uleb128 0xc
 11952 0f3d 64        		.byte	0x64
 11953 0f3e 93        		.byte	0x93
 11954 0f3f 01        		.uleb128 0x1
GAS LISTING /tmp/ccjciOO6.s 			page 238


 11955 0f40 65        		.byte	0x65
 11956 0f41 93        		.byte	0x93
 11957 0f42 01        		.uleb128 0x1
 11958 0f43 93        		.byte	0x93
 11959 0f44 06        		.uleb128 0x6
 11960 0f45 68        		.byte	0x68
 11961 0f46 93        		.byte	0x93
 11962 0f47 01        		.uleb128 0x1
 11963 0f48 66        		.byte	0x66
 11964 0f49 93        		.byte	0x93
 11965 0f4a 01        		.uleb128 0x1
 11966 0f4b 67        		.byte	0x67
 11967 0f4c 93        		.byte	0x93
 11968 0f4d 01        		.uleb128 0x1
 11969 0f4e 61        		.byte	0x61
 11970 0f4f 93        		.byte	0x93
 11971 0f50 01        		.uleb128 0x1
 11972 0f51 5E        		.byte	0x5e
 11973 0f52 93        		.byte	0x93
 11974 0f53 01        		.uleb128 0x1
 11975 0f54 5F        		.byte	0x5f
 11976 0f55 93        		.byte	0x93
 11977 0f56 01        		.uleb128 0x1
 11978 0f57 93        		.byte	0x93
 11979 0f58 0A        		.uleb128 0xa
 11980 0f59 0000 0000 		.long	.LVL186
 11981 0f5d 0000 0000 		.long	.LVL187
 11982 0f61 1F00      		.word	0x1f
 11983 0f63 93        		.byte	0x93
 11984 0f64 0C        		.uleb128 0xc
 11985 0f65 64        		.byte	0x64
 11986 0f66 93        		.byte	0x93
 11987 0f67 01        		.uleb128 0x1
 11988 0f68 65        		.byte	0x65
 11989 0f69 93        		.byte	0x93
 11990 0f6a 01        		.uleb128 0x1
 11991 0f6b 93        		.byte	0x93
 11992 0f6c 06        		.uleb128 0x6
 11993 0f6d 68        		.byte	0x68
 11994 0f6e 93        		.byte	0x93
 11995 0f6f 01        		.uleb128 0x1
 11996 0f70 66        		.byte	0x66
 11997 0f71 93        		.byte	0x93
 11998 0f72 01        		.uleb128 0x1
 11999 0f73 67        		.byte	0x67
 12000 0f74 93        		.byte	0x93
 12001 0f75 01        		.uleb128 0x1
 12002 0f76 91        		.byte	0x91
 12003 0f77 18        		.sleb128 24
 12004 0f78 93        		.byte	0x93
 12005 0f79 01        		.uleb128 0x1
 12006 0f7a 5E        		.byte	0x5e
 12007 0f7b 93        		.byte	0x93
 12008 0f7c 01        		.uleb128 0x1
 12009 0f7d 5F        		.byte	0x5f
 12010 0f7e 93        		.byte	0x93
 12011 0f7f 01        		.uleb128 0x1
GAS LISTING /tmp/ccjciOO6.s 			page 239


 12012 0f80 93        		.byte	0x93
 12013 0f81 0A        		.uleb128 0xa
 12014 0f82 0000 0000 		.long	.LVL187
 12015 0f86 0000 0000 		.long	.LFE36
 12016 0f8a 1D00      		.word	0x1d
 12017 0f8c 93        		.byte	0x93
 12018 0f8d 0C        		.uleb128 0xc
 12019 0f8e 64        		.byte	0x64
 12020 0f8f 93        		.byte	0x93
 12021 0f90 01        		.uleb128 0x1
 12022 0f91 65        		.byte	0x65
 12023 0f92 93        		.byte	0x93
 12024 0f93 01        		.uleb128 0x1
 12025 0f94 93        		.byte	0x93
 12026 0f95 06        		.uleb128 0x6
 12027 0f96 68        		.byte	0x68
 12028 0f97 93        		.byte	0x93
 12029 0f98 01        		.uleb128 0x1
 12030 0f99 66        		.byte	0x66
 12031 0f9a 93        		.byte	0x93
 12032 0f9b 01        		.uleb128 0x1
 12033 0f9c 67        		.byte	0x67
 12034 0f9d 93        		.byte	0x93
 12035 0f9e 01        		.uleb128 0x1
 12036 0f9f 91        		.byte	0x91
 12037 0fa0 18        		.sleb128 24
 12038 0fa1 93        		.byte	0x93
 12039 0fa2 01        		.uleb128 0x1
 12040 0fa3 91        		.byte	0x91
 12041 0fa4 19        		.sleb128 25
 12042 0fa5 93        		.byte	0x93
 12043 0fa6 02        		.uleb128 0x2
 12044 0fa7 93        		.byte	0x93
 12045 0fa8 0A        		.uleb128 0xa
 12046 0fa9 0000 0000 		.long	0
 12047 0fad 0000 0000 		.long	0
 12048               	.LLST37:
 12049 0fb1 0000 0000 		.long	.LVL154
 12050 0fb5 0000 0000 		.long	.LVL161
 12051 0fb9 0200      		.word	0x2
 12052 0fbb 91        		.byte	0x91
 12053 0fbc 25        		.sleb128 37
 12054 0fbd 0000 0000 		.long	.LVL161
 12055 0fc1 0000 0000 		.long	.LVL162-1
 12056 0fc5 0600      		.word	0x6
 12057 0fc7 62        		.byte	0x62
 12058 0fc8 93        		.byte	0x93
 12059 0fc9 01        		.uleb128 0x1
 12060 0fca 63        		.byte	0x63
 12061 0fcb 93        		.byte	0x93
 12062 0fcc 01        		.uleb128 0x1
 12063 0fcd 0000 0000 		.long	.LVL162-1
 12064 0fd1 0000 0000 		.long	.LVL163
 12065 0fd5 0200      		.word	0x2
 12066 0fd7 91        		.byte	0x91
 12067 0fd8 25        		.sleb128 37
 12068 0fd9 0000 0000 		.long	.LVL163
GAS LISTING /tmp/ccjciOO6.s 			page 240


 12069 0fdd 0000 0000 		.long	.LVL164-1
 12070 0fe1 0600      		.word	0x6
 12071 0fe3 62        		.byte	0x62
 12072 0fe4 93        		.byte	0x93
 12073 0fe5 01        		.uleb128 0x1
 12074 0fe6 63        		.byte	0x63
 12075 0fe7 93        		.byte	0x93
 12076 0fe8 01        		.uleb128 0x1
 12077 0fe9 0000 0000 		.long	.LVL164-1
 12078 0fed 0000 0000 		.long	.LVL165
 12079 0ff1 0200      		.word	0x2
 12080 0ff3 91        		.byte	0x91
 12081 0ff4 25        		.sleb128 37
 12082 0ff5 0000 0000 		.long	.LVL165
 12083 0ff9 0000 0000 		.long	.LVL166-1
 12084 0ffd 0600      		.word	0x6
 12085 0fff 62        		.byte	0x62
 12086 1000 93        		.byte	0x93
 12087 1001 01        		.uleb128 0x1
 12088 1002 63        		.byte	0x63
 12089 1003 93        		.byte	0x93
 12090 1004 01        		.uleb128 0x1
 12091 1005 0000 0000 		.long	.LVL166-1
 12092 1009 0000 0000 		.long	.LVL167
 12093 100d 0200      		.word	0x2
 12094 100f 91        		.byte	0x91
 12095 1010 25        		.sleb128 37
 12096 1011 0000 0000 		.long	.LVL167
 12097 1015 0000 0000 		.long	.LVL168-1
 12098 1019 0600      		.word	0x6
 12099 101b 62        		.byte	0x62
 12100 101c 93        		.byte	0x93
 12101 101d 01        		.uleb128 0x1
 12102 101e 63        		.byte	0x63
 12103 101f 93        		.byte	0x93
 12104 1020 01        		.uleb128 0x1
 12105 1021 0000 0000 		.long	.LVL168-1
 12106 1025 0000 0000 		.long	.LVL170
 12107 1029 0200      		.word	0x2
 12108 102b 91        		.byte	0x91
 12109 102c 25        		.sleb128 37
 12110 102d 0000 0000 		.long	.LVL170
 12111 1031 0000 0000 		.long	.LVL171-1
 12112 1035 0600      		.word	0x6
 12113 1037 62        		.byte	0x62
 12114 1038 93        		.byte	0x93
 12115 1039 01        		.uleb128 0x1
 12116 103a 63        		.byte	0x63
 12117 103b 93        		.byte	0x93
 12118 103c 01        		.uleb128 0x1
 12119 103d 0000 0000 		.long	.LVL171-1
 12120 1041 0000 0000 		.long	.LVL173
 12121 1045 0200      		.word	0x2
 12122 1047 91        		.byte	0x91
 12123 1048 25        		.sleb128 37
 12124 1049 0000 0000 		.long	.LVL173
 12125 104d 0000 0000 		.long	.LVL174-1
GAS LISTING /tmp/ccjciOO6.s 			page 241


 12126 1051 0600      		.word	0x6
 12127 1053 62        		.byte	0x62
 12128 1054 93        		.byte	0x93
 12129 1055 01        		.uleb128 0x1
 12130 1056 63        		.byte	0x63
 12131 1057 93        		.byte	0x93
 12132 1058 01        		.uleb128 0x1
 12133 1059 0000 0000 		.long	.LVL174-1
 12134 105d 0000 0000 		.long	.LVL179
 12135 1061 0200      		.word	0x2
 12136 1063 91        		.byte	0x91
 12137 1064 25        		.sleb128 37
 12138 1065 0000 0000 		.long	.LVL179
 12139 1069 0000 0000 		.long	.LVL180-1
 12140 106d 0600      		.word	0x6
 12141 106f 62        		.byte	0x62
 12142 1070 93        		.byte	0x93
 12143 1071 01        		.uleb128 0x1
 12144 1072 63        		.byte	0x63
 12145 1073 93        		.byte	0x93
 12146 1074 01        		.uleb128 0x1
 12147 1075 0000 0000 		.long	.LVL180-1
 12148 1079 0000 0000 		.long	.LVL185
 12149 107d 0200      		.word	0x2
 12150 107f 91        		.byte	0x91
 12151 1080 25        		.sleb128 37
 12152 1081 0000 0000 		.long	.LVL185
 12153 1085 0000 0000 		.long	.LFE36
 12154 1089 0600      		.word	0x6
 12155 108b 62        		.byte	0x62
 12156 108c 93        		.byte	0x93
 12157 108d 01        		.uleb128 0x1
 12158 108e 63        		.byte	0x63
 12159 108f 93        		.byte	0x93
 12160 1090 01        		.uleb128 0x1
 12161 1091 0000 0000 		.long	0
 12162 1095 0000 0000 		.long	0
 12163               	.LLST38:
 12164 1099 0000 0000 		.long	.LFB37
 12165 109d 0000 0000 		.long	.LCFI42
 12166 10a1 0300      		.word	0x3
 12167 10a3 92        		.byte	0x92
 12168 10a4 20        		.uleb128 0x20
 12169 10a5 02        		.sleb128 2
 12170 10a6 0000 0000 		.long	.LCFI42
 12171 10aa 0000 0000 		.long	.LCFI43
 12172 10ae 0300      		.word	0x3
 12173 10b0 92        		.byte	0x92
 12174 10b1 20        		.uleb128 0x20
 12175 10b2 03        		.sleb128 3
 12176 10b3 0000 0000 		.long	.LCFI43
 12177 10b7 0000 0000 		.long	.LCFI44
 12178 10bb 0300      		.word	0x3
 12179 10bd 92        		.byte	0x92
 12180 10be 20        		.uleb128 0x20
 12181 10bf 04        		.sleb128 4
 12182 10c0 0000 0000 		.long	.LCFI44
GAS LISTING /tmp/ccjciOO6.s 			page 242


 12183 10c4 0000 0000 		.long	.LCFI45
 12184 10c8 0300      		.word	0x3
 12185 10ca 92        		.byte	0x92
 12186 10cb 20        		.uleb128 0x20
 12187 10cc 05        		.sleb128 5
 12188 10cd 0000 0000 		.long	.LCFI45
 12189 10d1 0000 0000 		.long	.LCFI46
 12190 10d5 0300      		.word	0x3
 12191 10d7 92        		.byte	0x92
 12192 10d8 20        		.uleb128 0x20
 12193 10d9 06        		.sleb128 6
 12194 10da 0000 0000 		.long	.LCFI46
 12195 10de 0000 0000 		.long	.LCFI47
 12196 10e2 0300      		.word	0x3
 12197 10e4 92        		.byte	0x92
 12198 10e5 20        		.uleb128 0x20
 12199 10e6 07        		.sleb128 7
 12200 10e7 0000 0000 		.long	.LCFI47
 12201 10eb 0000 0000 		.long	.LCFI48
 12202 10ef 0300      		.word	0x3
 12203 10f1 92        		.byte	0x92
 12204 10f2 20        		.uleb128 0x20
 12205 10f3 08        		.sleb128 8
 12206 10f4 0000 0000 		.long	.LCFI48
 12207 10f8 0000 0000 		.long	.LCFI49
 12208 10fc 0300      		.word	0x3
 12209 10fe 92        		.byte	0x92
 12210 10ff 20        		.uleb128 0x20
 12211 1100 09        		.sleb128 9
 12212 1101 0000 0000 		.long	.LCFI49
 12213 1105 0000 0000 		.long	.LCFI50
 12214 1109 0300      		.word	0x3
 12215 110b 92        		.byte	0x92
 12216 110c 20        		.uleb128 0x20
 12217 110d 0A        		.sleb128 10
 12218 110e 0000 0000 		.long	.LCFI50
 12219 1112 0000 0000 		.long	.LCFI51
 12220 1116 0300      		.word	0x3
 12221 1118 92        		.byte	0x92
 12222 1119 20        		.uleb128 0x20
 12223 111a 2E        		.sleb128 46
 12224 111b 0000 0000 		.long	.LCFI51
 12225 111f 0000 0000 		.long	.LCFI52
 12226 1123 0300      		.word	0x3
 12227 1125 92        		.byte	0x92
 12228 1126 20        		.uleb128 0x20
 12229 1127 08        		.sleb128 8
 12230 1128 0000 0000 		.long	.LCFI52
 12231 112c 0000 0000 		.long	.LCFI53
 12232 1130 0300      		.word	0x3
 12233 1132 92        		.byte	0x92
 12234 1133 20        		.uleb128 0x20
 12235 1134 09        		.sleb128 9
 12236 1135 0000 0000 		.long	.LCFI53
 12237 1139 0000 0000 		.long	.LCFI54
 12238 113d 0300      		.word	0x3
 12239 113f 92        		.byte	0x92
GAS LISTING /tmp/ccjciOO6.s 			page 243


 12240 1140 20        		.uleb128 0x20
 12241 1141 0A        		.sleb128 10
 12242 1142 0000 0000 		.long	.LCFI54
 12243 1146 0000 0000 		.long	.LCFI55
 12244 114a 0300      		.word	0x3
 12245 114c 92        		.byte	0x92
 12246 114d 20        		.uleb128 0x20
 12247 114e 2E        		.sleb128 46
 12248 114f 0000 0000 		.long	.LCFI55
 12249 1153 0000 0000 		.long	.LFE37
 12250 1157 0300      		.word	0x3
 12251 1159 92        		.byte	0x92
 12252 115a 20        		.uleb128 0x20
 12253 115b 08        		.sleb128 8
 12254 115c 0000 0000 		.long	0
 12255 1160 0000 0000 		.long	0
 12256               	.LLST39:
 12257 1164 0000 0000 		.long	.LFB38
 12258 1168 0000 0000 		.long	.LCFI56
 12259 116c 0300      		.word	0x3
 12260 116e 92        		.byte	0x92
 12261 116f 20        		.uleb128 0x20
 12262 1170 02        		.sleb128 2
 12263 1171 0000 0000 		.long	.LCFI56
 12264 1175 0000 0000 		.long	.LCFI57
 12265 1179 0300      		.word	0x3
 12266 117b 92        		.byte	0x92
 12267 117c 20        		.uleb128 0x20
 12268 117d 03        		.sleb128 3
 12269 117e 0000 0000 		.long	.LCFI57
 12270 1182 0000 0000 		.long	.LCFI58
 12271 1186 0300      		.word	0x3
 12272 1188 92        		.byte	0x92
 12273 1189 20        		.uleb128 0x20
 12274 118a 04        		.sleb128 4
 12275 118b 0000 0000 		.long	.LCFI58
 12276 118f 0000 0000 		.long	.LCFI59
 12277 1193 0300      		.word	0x3
 12278 1195 92        		.byte	0x92
 12279 1196 20        		.uleb128 0x20
 12280 1197 05        		.sleb128 5
 12281 1198 0000 0000 		.long	.LCFI59
 12282 119c 0000 0000 		.long	.LCFI60
 12283 11a0 0300      		.word	0x3
 12284 11a2 92        		.byte	0x92
 12285 11a3 20        		.uleb128 0x20
 12286 11a4 06        		.sleb128 6
 12287 11a5 0000 0000 		.long	.LCFI60
 12288 11a9 0000 0000 		.long	.LCFI61
 12289 11ad 0300      		.word	0x3
 12290 11af 92        		.byte	0x92
 12291 11b0 20        		.uleb128 0x20
 12292 11b1 2A        		.sleb128 42
 12293 11b2 0000 0000 		.long	.LCFI61
 12294 11b6 0000 0000 		.long	.LCFI62
 12295 11ba 0300      		.word	0x3
 12296 11bc 92        		.byte	0x92
GAS LISTING /tmp/ccjciOO6.s 			page 244


 12297 11bd 20        		.uleb128 0x20
 12298 11be 04        		.sleb128 4
 12299 11bf 0000 0000 		.long	.LCFI62
 12300 11c3 0000 0000 		.long	.LCFI63
 12301 11c7 0300      		.word	0x3
 12302 11c9 92        		.byte	0x92
 12303 11ca 20        		.uleb128 0x20
 12304 11cb 05        		.sleb128 5
 12305 11cc 0000 0000 		.long	.LCFI63
 12306 11d0 0000 0000 		.long	.LCFI64
 12307 11d4 0300      		.word	0x3
 12308 11d6 92        		.byte	0x92
 12309 11d7 20        		.uleb128 0x20
 12310 11d8 06        		.sleb128 6
 12311 11d9 0000 0000 		.long	.LCFI64
 12312 11dd 0000 0000 		.long	.LCFI65
 12313 11e1 0300      		.word	0x3
 12314 11e3 92        		.byte	0x92
 12315 11e4 20        		.uleb128 0x20
 12316 11e5 2A        		.sleb128 42
 12317 11e6 0000 0000 		.long	.LCFI65
 12318 11ea 0000 0000 		.long	.LFE38
 12319 11ee 0300      		.word	0x3
 12320 11f0 92        		.byte	0x92
 12321 11f1 20        		.uleb128 0x20
 12322 11f2 04        		.sleb128 4
 12323 11f3 0000 0000 		.long	0
 12324 11f7 0000 0000 		.long	0
 12325               	.LLST40:
 12326 11fb 0000 0000 		.long	.LFB39
 12327 11ff 0000 0000 		.long	.LCFI66
 12328 1203 0300      		.word	0x3
 12329 1205 92        		.byte	0x92
 12330 1206 20        		.uleb128 0x20
 12331 1207 02        		.sleb128 2
 12332 1208 0000 0000 		.long	.LCFI66
 12333 120c 0000 0000 		.long	.LCFI67
 12334 1210 0300      		.word	0x3
 12335 1212 92        		.byte	0x92
 12336 1213 20        		.uleb128 0x20
 12337 1214 03        		.sleb128 3
 12338 1215 0000 0000 		.long	.LCFI67
 12339 1219 0000 0000 		.long	.LCFI68
 12340 121d 0300      		.word	0x3
 12341 121f 92        		.byte	0x92
 12342 1220 20        		.uleb128 0x20
 12343 1221 04        		.sleb128 4
 12344 1222 0000 0000 		.long	.LCFI68
 12345 1226 0000 0000 		.long	.LCFI69
 12346 122a 0300      		.word	0x3
 12347 122c 92        		.byte	0x92
 12348 122d 20        		.uleb128 0x20
 12349 122e 05        		.sleb128 5
 12350 122f 0000 0000 		.long	.LCFI69
 12351 1233 0000 0000 		.long	.LFE39
 12352 1237 0300      		.word	0x3
 12353 1239 92        		.byte	0x92
GAS LISTING /tmp/ccjciOO6.s 			page 245


 12354 123a 20        		.uleb128 0x20
 12355 123b 06        		.sleb128 6
 12356 123c 0000 0000 		.long	0
 12357 1240 0000 0000 		.long	0
 12358               	.LLST41:
 12359 1244 0000 0000 		.long	.LVL188
 12360 1248 0000 0000 		.long	.LVL189
 12361 124c 0600      		.word	0x6
 12362 124e 60        		.byte	0x60
 12363 124f 93        		.byte	0x93
 12364 1250 01        		.uleb128 0x1
 12365 1251 61        		.byte	0x61
 12366 1252 93        		.byte	0x93
 12367 1253 01        		.uleb128 0x1
 12368 1254 0000 0000 		.long	.LVL189
 12369 1258 0000 0000 		.long	.LFE39
 12370 125c 0500      		.word	0x5
 12371 125e 03        		.byte	0x3
 12372 125f 0000 0000 		.long	goal+8
 12373 1263 0000 0000 		.long	0
 12374 1267 0000 0000 		.long	0
 12375               	.LLST42:
 12376 126b 0000 0000 		.long	.LVL188
 12377 126f 0000 0000 		.long	.LVL190
 12378 1273 0600      		.word	0x6
 12379 1275 5E        		.byte	0x5e
 12380 1276 93        		.byte	0x93
 12381 1277 01        		.uleb128 0x1
 12382 1278 5F        		.byte	0x5f
 12383 1279 93        		.byte	0x93
 12384 127a 01        		.uleb128 0x1
 12385 127b 0000 0000 		.long	.LVL190
 12386 127f 0000 0000 		.long	.LFE39
 12387 1283 0500      		.word	0x5
 12388 1285 03        		.byte	0x3
 12389 1286 0000 0000 		.long	goal+10
 12390 128a 0000 0000 		.long	0
 12391 128e 0000 0000 		.long	0
 12392               	.LLST43:
 12393 1292 0000 0000 		.long	.LFB40
 12394 1296 0000 0000 		.long	.LCFI70
 12395 129a 0300      		.word	0x3
 12396 129c 92        		.byte	0x92
 12397 129d 20        		.uleb128 0x20
 12398 129e 02        		.sleb128 2
 12399 129f 0000 0000 		.long	.LCFI70
 12400 12a3 0000 0000 		.long	.LCFI71
 12401 12a7 0300      		.word	0x3
 12402 12a9 92        		.byte	0x92
 12403 12aa 20        		.uleb128 0x20
 12404 12ab 03        		.sleb128 3
 12405 12ac 0000 0000 		.long	.LCFI71
 12406 12b0 0000 0000 		.long	.LCFI72
 12407 12b4 0300      		.word	0x3
 12408 12b6 92        		.byte	0x92
 12409 12b7 20        		.uleb128 0x20
 12410 12b8 04        		.sleb128 4
GAS LISTING /tmp/ccjciOO6.s 			page 246


 12411 12b9 0000 0000 		.long	.LCFI72
 12412 12bd 0000 0000 		.long	.LCFI73
 12413 12c1 0300      		.word	0x3
 12414 12c3 92        		.byte	0x92
 12415 12c4 20        		.uleb128 0x20
 12416 12c5 05        		.sleb128 5
 12417 12c6 0000 0000 		.long	.LCFI73
 12418 12ca 0000 0000 		.long	.LCFI74
 12419 12ce 0300      		.word	0x3
 12420 12d0 92        		.byte	0x92
 12421 12d1 20        		.uleb128 0x20
 12422 12d2 06        		.sleb128 6
 12423 12d3 0000 0000 		.long	.LCFI74
 12424 12d7 0000 0000 		.long	.LCFI75
 12425 12db 0300      		.word	0x3
 12426 12dd 92        		.byte	0x92
 12427 12de 20        		.uleb128 0x20
 12428 12df 07        		.sleb128 7
 12429 12e0 0000 0000 		.long	.LCFI75
 12430 12e4 0000 0000 		.long	.LCFI76
 12431 12e8 0300      		.word	0x3
 12432 12ea 92        		.byte	0x92
 12433 12eb 20        		.uleb128 0x20
 12434 12ec 08        		.sleb128 8
 12435 12ed 0000 0000 		.long	.LCFI76
 12436 12f1 0000 0000 		.long	.LCFI77
 12437 12f5 0300      		.word	0x3
 12438 12f7 92        		.byte	0x92
 12439 12f8 20        		.uleb128 0x20
 12440 12f9 09        		.sleb128 9
 12441 12fa 0000 0000 		.long	.LCFI77
 12442 12fe 0000 0000 		.long	.LCFI78
 12443 1302 0300      		.word	0x3
 12444 1304 92        		.byte	0x92
 12445 1305 20        		.uleb128 0x20
 12446 1306 0A        		.sleb128 10
 12447 1307 0000 0000 		.long	.LCFI78
 12448 130b 0000 0000 		.long	.LCFI79
 12449 130f 0300      		.word	0x3
 12450 1311 92        		.byte	0x92
 12451 1312 20        		.uleb128 0x20
 12452 1313 0B        		.sleb128 11
 12453 1314 0000 0000 		.long	.LCFI79
 12454 1318 0000 0000 		.long	.LCFI80
 12455 131c 0300      		.word	0x3
 12456 131e 92        		.byte	0x92
 12457 131f 20        		.uleb128 0x20
 12458 1320 0C        		.sleb128 12
 12459 1321 0000 0000 		.long	.LCFI80
 12460 1325 0000 0000 		.long	.LCFI81
 12461 1329 0300      		.word	0x3
 12462 132b 92        		.byte	0x92
 12463 132c 20        		.uleb128 0x20
 12464 132d 0D        		.sleb128 13
 12465 132e 0000 0000 		.long	.LCFI81
 12466 1332 0000 0000 		.long	.LCFI82
 12467 1336 0300      		.word	0x3
GAS LISTING /tmp/ccjciOO6.s 			page 247


 12468 1338 92        		.byte	0x92
 12469 1339 20        		.uleb128 0x20
 12470 133a 0E        		.sleb128 14
 12471 133b 0000 0000 		.long	.LCFI82
 12472 133f 0000 0000 		.long	.LCFI83
 12473 1343 0300      		.word	0x3
 12474 1345 92        		.byte	0x92
 12475 1346 20        		.uleb128 0x20
 12476 1347 0F        		.sleb128 15
 12477 1348 0000 0000 		.long	.LCFI83
 12478 134c 0000 0000 		.long	.LCFI84
 12479 1350 0300      		.word	0x3
 12480 1352 92        		.byte	0x92
 12481 1353 20        		.uleb128 0x20
 12482 1354 10        		.sleb128 16
 12483 1355 0000 0000 		.long	.LCFI84
 12484 1359 0000 0000 		.long	.LCFI85
 12485 135d 0300      		.word	0x3
 12486 135f 92        		.byte	0x92
 12487 1360 20        		.uleb128 0x20
 12488 1361 11        		.sleb128 17
 12489 1362 0000 0000 		.long	.LCFI85
 12490 1366 0000 0000 		.long	.LCFI86
 12491 136a 0300      		.word	0x3
 12492 136c 92        		.byte	0x92
 12493 136d 20        		.uleb128 0x20
 12494 136e 12        		.sleb128 18
 12495 136f 0000 0000 		.long	.LCFI86
 12496 1373 0000 0000 		.long	.LCFI87
 12497 1377 0300      		.word	0x3
 12498 1379 92        		.byte	0x92
 12499 137a 20        		.uleb128 0x20
 12500 137b 13        		.sleb128 19
 12501 137c 0000 0000 		.long	.LCFI87
 12502 1380 0000 0000 		.long	.LCFI88
 12503 1384 0300      		.word	0x3
 12504 1386 92        		.byte	0x92
 12505 1387 20        		.uleb128 0x20
 12506 1388 14        		.sleb128 20
 12507 1389 0000 0000 		.long	.LCFI88
 12508 138d 0000 0000 		.long	.LCFI89
 12509 1391 0200      		.word	0x2
 12510 1393 8C        		.byte	0x8c
 12511 1394 14        		.sleb128 20
 12512 1395 0000 0000 		.long	.LCFI89
 12513 1399 0000 0000 		.long	.LFE40
 12514 139d 0200      		.word	0x2
 12515 139f 8C        		.byte	0x8c
 12516 13a0 2C        		.sleb128 44
 12517 13a1 0000 0000 		.long	0
 12518 13a5 0000 0000 		.long	0
 12519               	.LLST44:
 12520 13a9 0000 0000 		.long	.LVL191
 12521 13ad 0000 0000 		.long	.LVL192
 12522 13b1 0600      		.word	0x6
 12523 13b3 60        		.byte	0x60
 12524 13b4 93        		.byte	0x93
GAS LISTING /tmp/ccjciOO6.s 			page 248


 12525 13b5 01        		.uleb128 0x1
 12526 13b6 61        		.byte	0x61
 12527 13b7 93        		.byte	0x93
 12528 13b8 01        		.uleb128 0x1
 12529 13b9 0000 0000 		.long	.LVL192
 12530 13bd 0000 0000 		.long	.LVL245
 12531 13c1 0600      		.word	0x6
 12532 13c3 5A        		.byte	0x5a
 12533 13c4 93        		.byte	0x93
 12534 13c5 01        		.uleb128 0x1
 12535 13c6 5B        		.byte	0x5b
 12536 13c7 93        		.byte	0x93
 12537 13c8 01        		.uleb128 0x1
 12538 13c9 0000 0000 		.long	.LVL246
 12539 13cd 0000 0000 		.long	.LVL247
 12540 13d1 0600      		.word	0x6
 12541 13d3 5A        		.byte	0x5a
 12542 13d4 93        		.byte	0x93
 12543 13d5 01        		.uleb128 0x1
 12544 13d6 5B        		.byte	0x5b
 12545 13d7 93        		.byte	0x93
 12546 13d8 01        		.uleb128 0x1
 12547 13d9 0000 0000 		.long	0
 12548 13dd 0000 0000 		.long	0
 12549               	.LLST45:
 12550 13e1 0000 0000 		.long	.LVL191
 12551 13e5 0000 0000 		.long	.LVL192
 12552 13e9 0200      		.word	0x2
 12553 13eb 31        		.byte	0x31
 12554 13ec 9F        		.byte	0x9f
 12555 13ed 0000 0000 		.long	.LVL226
 12556 13f1 0000 0000 		.long	.LVL227
 12557 13f5 0200      		.word	0x2
 12558 13f7 30        		.byte	0x30
 12559 13f8 9F        		.byte	0x9f
 12560 13f9 0000 0000 		.long	0
 12561 13fd 0000 0000 		.long	0
 12562               	.LLST46:
 12563 1401 0000 0000 		.long	.LVL196
 12564 1405 0000 0000 		.long	.LVL201
 12565 1409 1800      		.word	0x18
 12566 140b 80        		.byte	0x80
 12567 140c 00        		.sleb128 0
 12568 140d F7        		.byte	0xf7
 12569 140e 30        		.uleb128 0x30
 12570 140f F7        		.byte	0xf7
 12571 1410 29        		.uleb128 0x29
 12572 1411 F5        		.byte	0xf5
 12573 1412 08        		.uleb128 0x8
 12574 1413 29        		.uleb128 0x29
 12575 1414 1B        		.byte	0x1b
 12576 1415 F5        		.byte	0xf5
 12577 1416 0C        		.uleb128 0xc
 12578 1417 29        		.uleb128 0x29
 12579 1418 1E        		.byte	0x1e
 12580 1419 F7        		.byte	0xf7
 12581 141a 30        		.uleb128 0x30
GAS LISTING /tmp/ccjciOO6.s 			page 249


 12582 141b F7        		.byte	0xf7
 12583 141c 00        		.uleb128 0
 12584 141d 19        		.byte	0x19
 12585 141e 40        		.byte	0x40
 12586 141f 24        		.byte	0x24
 12587 1420 40        		.byte	0x40
 12588 1421 26        		.byte	0x26
 12589 1422 9F        		.byte	0x9f
 12590 1423 0000 0000 		.long	0
 12591 1427 0000 0000 		.long	0
 12592               	.LLST47:
 12593 142b 0000 0000 		.long	.LVL201
 12594 142f 0000 0000 		.long	.LVL206
 12595 1433 1800      		.word	0x18
 12596 1435 72        		.byte	0x72
 12597 1436 00        		.sleb128 0
 12598 1437 F7        		.byte	0xf7
 12599 1438 30        		.uleb128 0x30
 12600 1439 F7        		.byte	0xf7
 12601 143a 29        		.uleb128 0x29
 12602 143b F5        		.byte	0xf5
 12603 143c 08        		.uleb128 0x8
 12604 143d 29        		.uleb128 0x29
 12605 143e 1B        		.byte	0x1b
 12606 143f F5        		.byte	0xf5
 12607 1440 0C        		.uleb128 0xc
 12608 1441 29        		.uleb128 0x29
 12609 1442 1E        		.byte	0x1e
 12610 1443 F7        		.byte	0xf7
 12611 1444 30        		.uleb128 0x30
 12612 1445 F7        		.byte	0xf7
 12613 1446 00        		.uleb128 0
 12614 1447 19        		.byte	0x19
 12615 1448 40        		.byte	0x40
 12616 1449 24        		.byte	0x24
 12617 144a 40        		.byte	0x40
 12618 144b 26        		.byte	0x26
 12619 144c 9F        		.byte	0x9f
 12620 144d 0000 0000 		.long	0
 12621 1451 0000 0000 		.long	0
 12622               	.LLST48:
 12623 1455 0000 0000 		.long	.LVL206
 12624 1459 0000 0000 		.long	.LVL211
 12625 145d 1A00      		.word	0x1a
 12626 145f 91        		.byte	0x91
 12627 1460 61        		.sleb128 -31
 12628 1461 94        		.byte	0x94
 12629 1462 02        		.byte	0x2
 12630 1463 F7        		.byte	0xf7
 12631 1464 30        		.uleb128 0x30
 12632 1465 F7        		.byte	0xf7
 12633 1466 29        		.uleb128 0x29
 12634 1467 F5        		.byte	0xf5
 12635 1468 08        		.uleb128 0x8
 12636 1469 29        		.uleb128 0x29
 12637 146a 1B        		.byte	0x1b
 12638 146b F5        		.byte	0xf5
GAS LISTING /tmp/ccjciOO6.s 			page 250


 12639 146c 0C        		.uleb128 0xc
 12640 146d 29        		.uleb128 0x29
 12641 146e 1E        		.byte	0x1e
 12642 146f F7        		.byte	0xf7
 12643 1470 30        		.uleb128 0x30
 12644 1471 F7        		.byte	0xf7
 12645 1472 00        		.uleb128 0
 12646 1473 19        		.byte	0x19
 12647 1474 40        		.byte	0x40
 12648 1475 24        		.byte	0x24
 12649 1476 40        		.byte	0x40
 12650 1477 26        		.byte	0x26
 12651 1478 9F        		.byte	0x9f
 12652 1479 0000 0000 		.long	0
 12653 147d 0000 0000 		.long	0
 12654               	.LLST49:
 12655 1481 0000 0000 		.long	.LVL211
 12656 1485 0000 0000 		.long	.LVL216
 12657 1489 1A00      		.word	0x1a
 12658 148b 91        		.byte	0x91
 12659 148c 63        		.sleb128 -29
 12660 148d 94        		.byte	0x94
 12661 148e 02        		.byte	0x2
 12662 148f F7        		.byte	0xf7
 12663 1490 30        		.uleb128 0x30
 12664 1491 F7        		.byte	0xf7
 12665 1492 29        		.uleb128 0x29
 12666 1493 F5        		.byte	0xf5
 12667 1494 08        		.uleb128 0x8
 12668 1495 29        		.uleb128 0x29
 12669 1496 1B        		.byte	0x1b
 12670 1497 F5        		.byte	0xf5
 12671 1498 0C        		.uleb128 0xc
 12672 1499 29        		.uleb128 0x29
 12673 149a 1E        		.byte	0x1e
 12674 149b F7        		.byte	0xf7
 12675 149c 30        		.uleb128 0x30
 12676 149d F7        		.byte	0xf7
 12677 149e 00        		.uleb128 0
 12678 149f 19        		.byte	0x19
 12679 14a0 40        		.byte	0x40
 12680 14a1 24        		.byte	0x24
 12681 14a2 40        		.byte	0x40
 12682 14a3 26        		.byte	0x26
 12683 14a4 9F        		.byte	0x9f
 12684 14a5 0000 0000 		.long	0
 12685 14a9 0000 0000 		.long	0
 12686               	.LLST50:
 12687 14ad 0000 0000 		.long	.LVL216
 12688 14b1 0000 0000 		.long	.LVL221
 12689 14b5 1A00      		.word	0x1a
 12690 14b7 91        		.byte	0x91
 12691 14b8 65        		.sleb128 -27
 12692 14b9 94        		.byte	0x94
 12693 14ba 02        		.byte	0x2
 12694 14bb F7        		.byte	0xf7
 12695 14bc 30        		.uleb128 0x30
GAS LISTING /tmp/ccjciOO6.s 			page 251


 12696 14bd F7        		.byte	0xf7
 12697 14be 29        		.uleb128 0x29
 12698 14bf F5        		.byte	0xf5
 12699 14c0 08        		.uleb128 0x8
 12700 14c1 29        		.uleb128 0x29
 12701 14c2 1B        		.byte	0x1b
 12702 14c3 F5        		.byte	0xf5
 12703 14c4 0C        		.uleb128 0xc
 12704 14c5 29        		.uleb128 0x29
 12705 14c6 1E        		.byte	0x1e
 12706 14c7 F7        		.byte	0xf7
 12707 14c8 30        		.uleb128 0x30
 12708 14c9 F7        		.byte	0xf7
 12709 14ca 00        		.uleb128 0
 12710 14cb 19        		.byte	0x19
 12711 14cc 40        		.byte	0x40
 12712 14cd 24        		.byte	0x24
 12713 14ce 40        		.byte	0x40
 12714 14cf 26        		.byte	0x26
 12715 14d0 9F        		.byte	0x9f
 12716 14d1 0000 0000 		.long	0
 12717 14d5 0000 0000 		.long	0
 12718               	.LLST51:
 12719 14d9 0000 0000 		.long	.LVL221
 12720 14dd 0000 0000 		.long	.LVL226
 12721 14e1 1A00      		.word	0x1a
 12722 14e3 91        		.byte	0x91
 12723 14e4 67        		.sleb128 -25
 12724 14e5 94        		.byte	0x94
 12725 14e6 02        		.byte	0x2
 12726 14e7 F7        		.byte	0xf7
 12727 14e8 30        		.uleb128 0x30
 12728 14e9 F7        		.byte	0xf7
 12729 14ea 29        		.uleb128 0x29
 12730 14eb F5        		.byte	0xf5
 12731 14ec 08        		.uleb128 0x8
 12732 14ed 29        		.uleb128 0x29
 12733 14ee 1B        		.byte	0x1b
 12734 14ef F5        		.byte	0xf5
 12735 14f0 0C        		.uleb128 0xc
 12736 14f1 29        		.uleb128 0x29
 12737 14f2 1E        		.byte	0x1e
 12738 14f3 F7        		.byte	0xf7
 12739 14f4 30        		.uleb128 0x30
 12740 14f5 F7        		.byte	0xf7
 12741 14f6 00        		.uleb128 0
 12742 14f7 19        		.byte	0x19
 12743 14f8 40        		.byte	0x40
 12744 14f9 24        		.byte	0x24
 12745 14fa 40        		.byte	0x40
 12746 14fb 26        		.byte	0x26
 12747 14fc 9F        		.byte	0x9f
 12748 14fd 0000 0000 		.long	0
 12749 1501 0000 0000 		.long	0
 12750               	.LLST52:
 12751 1505 0000 0000 		.long	.LVL228
 12752 1509 0000 0000 		.long	.LVL229
GAS LISTING /tmp/ccjciOO6.s 			page 252


 12753 150d 0600      		.word	0x6
 12754 150f 68        		.byte	0x68
 12755 1510 93        		.byte	0x93
 12756 1511 01        		.uleb128 0x1
 12757 1512 69        		.byte	0x69
 12758 1513 93        		.byte	0x93
 12759 1514 01        		.uleb128 0x1
 12760 1515 0000 0000 		.long	0
 12761 1519 0000 0000 		.long	0
 12762               	.LLST53:
 12763 151d 0000 0000 		.long	.LVL231
 12764 1521 0000 0000 		.long	.LVL232
 12765 1525 0600      		.word	0x6
 12766 1527 68        		.byte	0x68
 12767 1528 93        		.byte	0x93
 12768 1529 01        		.uleb128 0x1
 12769 152a 69        		.byte	0x69
 12770 152b 93        		.byte	0x93
 12771 152c 01        		.uleb128 0x1
 12772 152d 0000 0000 		.long	0
 12773 1531 0000 0000 		.long	0
 12774               	.LLST54:
 12775 1535 0000 0000 		.long	.LVL234
 12776 1539 0000 0000 		.long	.LVL235
 12777 153d 0600      		.word	0x6
 12778 153f 68        		.byte	0x68
 12779 1540 93        		.byte	0x93
 12780 1541 01        		.uleb128 0x1
 12781 1542 69        		.byte	0x69
 12782 1543 93        		.byte	0x93
 12783 1544 01        		.uleb128 0x1
 12784 1545 0000 0000 		.long	0
 12785 1549 0000 0000 		.long	0
 12786               	.LLST55:
 12787 154d 0000 0000 		.long	.LVL237
 12788 1551 0000 0000 		.long	.LVL238
 12789 1555 0600      		.word	0x6
 12790 1557 68        		.byte	0x68
 12791 1558 93        		.byte	0x93
 12792 1559 01        		.uleb128 0x1
 12793 155a 69        		.byte	0x69
 12794 155b 93        		.byte	0x93
 12795 155c 01        		.uleb128 0x1
 12796 155d 0000 0000 		.long	0
 12797 1561 0000 0000 		.long	0
 12798               	.LLST56:
 12799 1565 0000 0000 		.long	.LVL240
 12800 1569 0000 0000 		.long	.LVL241
 12801 156d 0600      		.word	0x6
 12802 156f 68        		.byte	0x68
 12803 1570 93        		.byte	0x93
 12804 1571 01        		.uleb128 0x1
 12805 1572 69        		.byte	0x69
 12806 1573 93        		.byte	0x93
 12807 1574 01        		.uleb128 0x1
 12808 1575 0000 0000 		.long	0
 12809 1579 0000 0000 		.long	0
GAS LISTING /tmp/ccjciOO6.s 			page 253


 12810               	.LLST57:
 12811 157d 0000 0000 		.long	.LVL243
 12812 1581 0000 0000 		.long	.LVL244
 12813 1585 0600      		.word	0x6
 12814 1587 68        		.byte	0x68
 12815 1588 93        		.byte	0x93
 12816 1589 01        		.uleb128 0x1
 12817 158a 69        		.byte	0x69
 12818 158b 93        		.byte	0x93
 12819 158c 01        		.uleb128 0x1
 12820 158d 0000 0000 		.long	0
 12821 1591 0000 0000 		.long	0
 12822               	.LLST58:
 12823 1595 0000 0000 		.long	.LVL248
 12824 1599 0000 0000 		.long	.LVL249
 12825 159d 0200      		.word	0x2
 12826 159f 30        		.byte	0x30
 12827 15a0 9F        		.byte	0x9f
 12828 15a1 0000 0000 		.long	0
 12829 15a5 0000 0000 		.long	0
 12830               	.LLST59:
 12831 15a9 0000 0000 		.long	.LVL248
 12832 15ad 0000 0000 		.long	.LVL249
 12833 15b1 0400      		.word	0x4
 12834 15b3 0B        		.byte	0xb
 12835 15b4 70FE      		.word	0xfe70
 12836 15b6 9F        		.byte	0x9f
 12837 15b7 0000 0000 		.long	0
 12838 15bb 0000 0000 		.long	0
 12839               	.LLST63:
 12840 15bf 0000 0000 		.long	.LVL248
 12841 15c3 0000 0000 		.long	.LVL249
 12842 15c7 0400      		.word	0x4
 12843 15c9 0B        		.byte	0xb
 12844 15ca 5CF9      		.word	0xf95c
 12845 15cc 9F        		.byte	0x9f
 12846 15cd 0000 0000 		.long	0
 12847 15d1 0000 0000 		.long	0
 12848               	.LLST64:
 12849 15d5 0000 0000 		.long	.LVL250
 12850 15d9 0000 0000 		.long	.LVL251
 12851 15dd 0200      		.word	0x2
 12852 15df 30        		.byte	0x30
 12853 15e0 9F        		.byte	0x9f
 12854 15e1 0000 0000 		.long	0
 12855 15e5 0000 0000 		.long	0
 12856               	.LLST65:
 12857 15e9 0000 0000 		.long	.LVL250
 12858 15ed 0000 0000 		.long	.LVL251
 12859 15f1 0400      		.word	0x4
 12860 15f3 0B        		.byte	0xb
 12861 15f4 38FF      		.word	0xff38
 12862 15f6 9F        		.byte	0x9f
 12863 15f7 0000 0000 		.long	0
 12864 15fb 0000 0000 		.long	0
 12865               	.LLST69:
 12866 15ff 0000 0000 		.long	.LVL250
GAS LISTING /tmp/ccjciOO6.s 			page 254


 12867 1603 0000 0000 		.long	.LVL251
 12868 1607 0400      		.word	0x4
 12869 1609 0B        		.byte	0xb
 12870 160a AEFC      		.word	0xfcae
 12871 160c 9F        		.byte	0x9f
 12872 160d 0000 0000 		.long	0
 12873 1611 0000 0000 		.long	0
 12874               	.LLST70:
 12875 1615 0000 0000 		.long	.LVL252
 12876 1619 0000 0000 		.long	.LVL253
 12877 161d 0200      		.word	0x2
 12878 161f 30        		.byte	0x30
 12879 1620 9F        		.byte	0x9f
 12880 1621 0000 0000 		.long	0
 12881 1625 0000 0000 		.long	0
 12882               	.LLST76:
 12883 1629 0000 0000 		.long	.LVL254
 12884 162d 0000 0000 		.long	.LVL255
 12885 1631 0C00      		.word	0xc
 12886 1633 5C        		.byte	0x5c
 12887 1634 93        		.byte	0x93
 12888 1635 01        		.uleb128 0x1
 12889 1636 5D        		.byte	0x5d
 12890 1637 93        		.byte	0x93
 12891 1638 01        		.uleb128 0x1
 12892 1639 5E        		.byte	0x5e
 12893 163a 93        		.byte	0x93
 12894 163b 01        		.uleb128 0x1
 12895 163c 5F        		.byte	0x5f
 12896 163d 93        		.byte	0x93
 12897 163e 01        		.uleb128 0x1
 12898 163f 0000 0000 		.long	0
 12899 1643 0000 0000 		.long	0
 12900               	.LLST77:
 12901 1647 0000 0000 		.long	.LVL255
 12902 164b 0000 0000 		.long	.LVL256
 12903 164f 0C00      		.word	0xc
 12904 1651 5C        		.byte	0x5c
 12905 1652 93        		.byte	0x93
 12906 1653 01        		.uleb128 0x1
 12907 1654 5D        		.byte	0x5d
 12908 1655 93        		.byte	0x93
 12909 1656 01        		.uleb128 0x1
 12910 1657 5E        		.byte	0x5e
 12911 1658 93        		.byte	0x93
 12912 1659 01        		.uleb128 0x1
 12913 165a 5F        		.byte	0x5f
 12914 165b 93        		.byte	0x93
 12915 165c 01        		.uleb128 0x1
 12916 165d 0000 0000 		.long	0
 12917 1661 0000 0000 		.long	0
 12918               	.LLST78:
 12919 1665 0000 0000 		.long	.LVL256
 12920 1669 0000 0000 		.long	.LVL257
 12921 166d 0C00      		.word	0xc
 12922 166f 5C        		.byte	0x5c
 12923 1670 93        		.byte	0x93
GAS LISTING /tmp/ccjciOO6.s 			page 255


 12924 1671 01        		.uleb128 0x1
 12925 1672 5D        		.byte	0x5d
 12926 1673 93        		.byte	0x93
 12927 1674 01        		.uleb128 0x1
 12928 1675 5E        		.byte	0x5e
 12929 1676 93        		.byte	0x93
 12930 1677 01        		.uleb128 0x1
 12931 1678 5F        		.byte	0x5f
 12932 1679 93        		.byte	0x93
 12933 167a 01        		.uleb128 0x1
 12934 167b 0000 0000 		.long	0
 12935 167f 0000 0000 		.long	0
 12936               	.LLST79:
 12937 1683 0000 0000 		.long	.LVL257
 12938 1687 0000 0000 		.long	.LVL258
 12939 168b 0C00      		.word	0xc
 12940 168d 5C        		.byte	0x5c
 12941 168e 93        		.byte	0x93
 12942 168f 01        		.uleb128 0x1
 12943 1690 5D        		.byte	0x5d
 12944 1691 93        		.byte	0x93
 12945 1692 01        		.uleb128 0x1
 12946 1693 5E        		.byte	0x5e
 12947 1694 93        		.byte	0x93
 12948 1695 01        		.uleb128 0x1
 12949 1696 5F        		.byte	0x5f
 12950 1697 93        		.byte	0x93
 12951 1698 01        		.uleb128 0x1
 12952 1699 0000 0000 		.long	0
 12953 169d 0000 0000 		.long	0
 12954               	.LLST80:
 12955 16a1 0000 0000 		.long	.LVL258
 12956 16a5 0000 0000 		.long	.LVL259
 12957 16a9 0C00      		.word	0xc
 12958 16ab 5C        		.byte	0x5c
 12959 16ac 93        		.byte	0x93
 12960 16ad 01        		.uleb128 0x1
 12961 16ae 5D        		.byte	0x5d
 12962 16af 93        		.byte	0x93
 12963 16b0 01        		.uleb128 0x1
 12964 16b1 5E        		.byte	0x5e
 12965 16b2 93        		.byte	0x93
 12966 16b3 01        		.uleb128 0x1
 12967 16b4 5F        		.byte	0x5f
 12968 16b5 93        		.byte	0x93
 12969 16b6 01        		.uleb128 0x1
 12970 16b7 0000 0000 		.long	0
 12971 16bb 0000 0000 		.long	0
 12972               	.LLST81:
 12973 16bf 0000 0000 		.long	.LVL259
 12974 16c3 0000 0000 		.long	.LVL260
 12975 16c7 0C00      		.word	0xc
 12976 16c9 5C        		.byte	0x5c
 12977 16ca 93        		.byte	0x93
 12978 16cb 01        		.uleb128 0x1
 12979 16cc 5D        		.byte	0x5d
 12980 16cd 93        		.byte	0x93
GAS LISTING /tmp/ccjciOO6.s 			page 256


 12981 16ce 01        		.uleb128 0x1
 12982 16cf 5E        		.byte	0x5e
 12983 16d0 93        		.byte	0x93
 12984 16d1 01        		.uleb128 0x1
 12985 16d2 5F        		.byte	0x5f
 12986 16d3 93        		.byte	0x93
 12987 16d4 01        		.uleb128 0x1
 12988 16d5 0000 0000 		.long	0
 12989 16d9 0000 0000 		.long	0
 12990               	.LLST82:
 12991 16dd 0000 0000 		.long	.LVL261
 12992 16e1 0000 0000 		.long	.LVL263
 12993 16e5 0500      		.word	0x5
 12994 16e7 3F        		.byte	0x3f
 12995 16e8 7E        		.byte	0x7e
 12996 16e9 00        		.sleb128 0
 12997 16ea 1C        		.byte	0x1c
 12998 16eb 9F        		.byte	0x9f
 12999 16ec 0000 0000 		.long	.LVL263
 13000 16f0 0000 0000 		.long	.LVL264
 13001 16f4 0500      		.word	0x5
 13002 16f6 40        		.byte	0x40
 13003 16f7 7E        		.byte	0x7e
 13004 16f8 00        		.sleb128 0
 13005 16f9 1C        		.byte	0x1c
 13006 16fa 9F        		.byte	0x9f
 13007 16fb 0000 0000 		.long	.LVL264
 13008 16ff 0000 0000 		.long	.LVL265
 13009 1703 0500      		.word	0x5
 13010 1705 3F        		.byte	0x3f
 13011 1706 7E        		.byte	0x7e
 13012 1707 00        		.sleb128 0
 13013 1708 1C        		.byte	0x1c
 13014 1709 9F        		.byte	0x9f
 13015 170a 0000 0000 		.long	0
 13016 170e 0000 0000 		.long	0
 13017               	.LLST83:
 13018 1712 0000 0000 		.long	.LFB43
 13019 1716 0000 0000 		.long	.LCFI90
 13020 171a 0300      		.word	0x3
 13021 171c 92        		.byte	0x92
 13022 171d 20        		.uleb128 0x20
 13023 171e 02        		.sleb128 2
 13024 171f 0000 0000 		.long	.LCFI90
 13025 1723 0000 0000 		.long	.LCFI91
 13026 1727 0300      		.word	0x3
 13027 1729 92        		.byte	0x92
 13028 172a 20        		.uleb128 0x20
 13029 172b 03        		.sleb128 3
 13030 172c 0000 0000 		.long	.LCFI91
 13031 1730 0000 0000 		.long	.LCFI92
 13032 1734 0300      		.word	0x3
 13033 1736 92        		.byte	0x92
 13034 1737 20        		.uleb128 0x20
 13035 1738 04        		.sleb128 4
 13036 1739 0000 0000 		.long	.LCFI92
 13037 173d 0000 0000 		.long	.LCFI93
GAS LISTING /tmp/ccjciOO6.s 			page 257


 13038 1741 0300      		.word	0x3
 13039 1743 92        		.byte	0x92
 13040 1744 20        		.uleb128 0x20
 13041 1745 05        		.sleb128 5
 13042 1746 0000 0000 		.long	.LCFI93
 13043 174a 0000 0000 		.long	.LCFI94
 13044 174e 0300      		.word	0x3
 13045 1750 92        		.byte	0x92
 13046 1751 20        		.uleb128 0x20
 13047 1752 06        		.sleb128 6
 13048 1753 0000 0000 		.long	.LCFI94
 13049 1757 0000 0000 		.long	.LCFI95
 13050 175b 0300      		.word	0x3
 13051 175d 92        		.byte	0x92
 13052 175e 20        		.uleb128 0x20
 13053 175f 07        		.sleb128 7
 13054 1760 0000 0000 		.long	.LCFI95
 13055 1764 0000 0000 		.long	.LCFI96
 13056 1768 0300      		.word	0x3
 13057 176a 92        		.byte	0x92
 13058 176b 20        		.uleb128 0x20
 13059 176c 08        		.sleb128 8
 13060 176d 0000 0000 		.long	.LCFI96
 13061 1771 0000 0000 		.long	.LCFI97
 13062 1775 0300      		.word	0x3
 13063 1777 92        		.byte	0x92
 13064 1778 20        		.uleb128 0x20
 13065 1779 09        		.sleb128 9
 13066 177a 0000 0000 		.long	.LCFI97
 13067 177e 0000 0000 		.long	.LCFI98
 13068 1782 0300      		.word	0x3
 13069 1784 92        		.byte	0x92
 13070 1785 20        		.uleb128 0x20
 13071 1786 0A        		.sleb128 10
 13072 1787 0000 0000 		.long	.LCFI98
 13073 178b 0000 0000 		.long	.LCFI99
 13074 178f 0300      		.word	0x3
 13075 1791 92        		.byte	0x92
 13076 1792 20        		.uleb128 0x20
 13077 1793 0B        		.sleb128 11
 13078 1794 0000 0000 		.long	.LCFI99
 13079 1798 0000 0000 		.long	.LCFI100
 13080 179c 0200      		.word	0x2
 13081 179e 8C        		.byte	0x8c
 13082 179f 0B        		.sleb128 11
 13083 17a0 0000 0000 		.long	.LCFI100
 13084 17a4 0000 0000 		.long	.LFE43
 13085 17a8 0200      		.word	0x2
 13086 17aa 8C        		.byte	0x8c
 13087 17ab 19        		.sleb128 25
 13088 17ac 0000 0000 		.long	0
 13089 17b0 0000 0000 		.long	0
 13090               	.LLST84:
 13091 17b4 0000 0000 		.long	.LVL277
 13092 17b8 0000 0000 		.long	.LVL280
 13093 17bc 0600      		.word	0x6
 13094 17be 68        		.byte	0x68
GAS LISTING /tmp/ccjciOO6.s 			page 258


 13095 17bf 93        		.byte	0x93
 13096 17c0 01        		.uleb128 0x1
 13097 17c1 69        		.byte	0x69
 13098 17c2 93        		.byte	0x93
 13099 17c3 01        		.uleb128 0x1
 13100 17c4 0000 0000 		.long	.LVL280
 13101 17c8 0000 0000 		.long	.LVL281
 13102 17cc 0300      		.word	0x3
 13103 17ce 88        		.byte	0x88
 13104 17cf 30        		.sleb128 48
 13105 17d0 9F        		.byte	0x9f
 13106 17d1 0000 0000 		.long	.LVL282
 13107 17d5 0000 0000 		.long	.LVL283
 13108 17d9 0600      		.word	0x6
 13109 17db 68        		.byte	0x68
 13110 17dc 93        		.byte	0x93
 13111 17dd 01        		.uleb128 0x1
 13112 17de 69        		.byte	0x69
 13113 17df 93        		.byte	0x93
 13114 17e0 01        		.uleb128 0x1
 13115 17e1 0000 0000 		.long	0
 13116 17e5 0000 0000 		.long	0
 13117               	.LLST85:
 13118 17e9 0000 0000 		.long	.LVL274
 13119 17ed 0000 0000 		.long	.LVL275
 13120 17f1 0200      		.word	0x2
 13121 17f3 30        		.byte	0x30
 13122 17f4 9F        		.byte	0x9f
 13123 17f5 0000 0000 		.long	0
 13124 17f9 0000 0000 		.long	0
 13125               	.LLST86:
 13126 17fd 0000 0000 		.long	.LVL274
 13127 1801 0000 0000 		.long	.LVL275
 13128 1805 0200      		.word	0x2
 13129 1807 31        		.byte	0x31
 13130 1808 9F        		.byte	0x9f
 13131 1809 0000 0000 		.long	.LVL276
 13132 180d 0000 0000 		.long	.LVL278
 13133 1811 0600      		.word	0x6
 13134 1813 5E        		.byte	0x5e
 13135 1814 93        		.byte	0x93
 13136 1815 01        		.uleb128 0x1
 13137 1816 5F        		.byte	0x5f
 13138 1817 93        		.byte	0x93
 13139 1818 01        		.uleb128 0x1
 13140 1819 0000 0000 		.long	.LVL279
 13141 181d 0000 0000 		.long	.LVL286
 13142 1821 0600      		.word	0x6
 13143 1823 5E        		.byte	0x5e
 13144 1824 93        		.byte	0x93
 13145 1825 01        		.uleb128 0x1
 13146 1826 5F        		.byte	0x5f
 13147 1827 93        		.byte	0x93
 13148 1828 01        		.uleb128 0x1
 13149 1829 0000 0000 		.long	0
 13150 182d 0000 0000 		.long	0
 13151               	.LLST87:
GAS LISTING /tmp/ccjciOO6.s 			page 259


 13152 1831 0000 0000 		.long	.LVL284
 13153 1835 0000 0000 		.long	.LVL285
 13154 1839 0600      		.word	0x6
 13155 183b 68        		.byte	0x68
 13156 183c 93        		.byte	0x93
 13157 183d 01        		.uleb128 0x1
 13158 183e 69        		.byte	0x69
 13159 183f 93        		.byte	0x93
 13160 1840 01        		.uleb128 0x1
 13161 1841 0000 0000 		.long	0
 13162 1845 0000 0000 		.long	0
 13163               	.LLST88:
 13164 1849 0000 0000 		.long	.LVL284
 13165 184d 0000 0000 		.long	.LVL285
 13166 1851 0600      		.word	0x6
 13167 1853 62        		.byte	0x62
 13168 1854 93        		.byte	0x93
 13169 1855 01        		.uleb128 0x1
 13170 1856 63        		.byte	0x63
 13171 1857 93        		.byte	0x93
 13172 1858 01        		.uleb128 0x1
 13173 1859 0000 0000 		.long	0
 13174 185d 0000 0000 		.long	0
 13175               	.LLST89:
 13176 1861 0000 0000 		.long	.LVL284
 13177 1865 0000 0000 		.long	.LVL285
 13178 1869 0600      		.word	0x6
 13179 186b 64        		.byte	0x64
 13180 186c 93        		.byte	0x93
 13181 186d 01        		.uleb128 0x1
 13182 186e 65        		.byte	0x65
 13183 186f 93        		.byte	0x93
 13184 1870 01        		.uleb128 0x1
 13185 1871 0000 0000 		.long	0
 13186 1875 0000 0000 		.long	0
 13187               	.LLST90:
 13188 1879 0000 0000 		.long	.LVL284
 13189 187d 0000 0000 		.long	.LVL285
 13190 1881 0600      		.word	0x6
 13191 1883 66        		.byte	0x66
 13192 1884 93        		.byte	0x93
 13193 1885 01        		.uleb128 0x1
 13194 1886 67        		.byte	0x67
 13195 1887 93        		.byte	0x93
 13196 1888 01        		.uleb128 0x1
 13197 1889 0000 0000 		.long	0
 13198 188d 0000 0000 		.long	0
 13199               	.LLST91:
 13200 1891 0000 0000 		.long	.LVL284
 13201 1895 0000 0000 		.long	.LVL285
 13202 1899 0600      		.word	0x6
 13203 189b 6E        		.byte	0x6e
 13204 189c 93        		.byte	0x93
 13205 189d 01        		.uleb128 0x1
 13206 189e 6F        		.byte	0x6f
 13207 189f 93        		.byte	0x93
 13208 18a0 01        		.uleb128 0x1
GAS LISTING /tmp/ccjciOO6.s 			page 260


 13209 18a1 0000 0000 		.long	0
 13210 18a5 0000 0000 		.long	0
 13211               	.LLST92:
 13212 18a9 0000 0000 		.long	.LVL284
 13213 18ad 0000 0000 		.long	.LVL285
 13214 18b1 0200      		.word	0x2
 13215 18b3 91        		.byte	0x91
 13216 18b4 68        		.sleb128 -24
 13217 18b5 0000 0000 		.long	0
 13218 18b9 0000 0000 		.long	0
 13219               		.section	.debug_aranges,"",@progbits
 13220 0000 2400 0000 		.long	0x24
 13221 0004 0200      		.word	0x2
 13222 0006 0000 0000 		.long	.Ldebug_info0
 13223 000a 04        		.byte	0x4
 13224 000b 00        		.byte	0
 13225 000c 0000      		.word	0
 13226 000e 0000      		.word	0
 13227 0010 0000 0000 		.long	.Ltext0
 13228 0014 1A16 0000 		.long	.Letext0-.Ltext0
 13229 0018 0000 0000 		.long	.LFB45
 13230 001c 3C00 0000 		.long	.LFE45-.LFB45
 13231 0020 0000 0000 		.long	0
 13232 0024 0000 0000 		.long	0
 13233               		.section	.debug_ranges,"",@progbits
 13234               	.Ldebug_ranges0:
 13235 0000 0000 0000 		.long	.LBB167
 13236 0004 0000 0000 		.long	.LBE167
 13237 0008 0000 0000 		.long	.LBB170
 13238 000c 0000 0000 		.long	.LBE170
 13239 0010 0000 0000 		.long	0
 13240 0014 0000 0000 		.long	0
 13241 0018 0000 0000 		.long	.Ltext0
 13242 001c 0000 0000 		.long	.Letext0
 13243 0020 0000 0000 		.long	.LFB45
 13244 0024 0000 0000 		.long	.LFE45
 13245 0028 0000 0000 		.long	0
 13246 002c 0000 0000 		.long	0
 13247               		.section	.debug_line,"",@progbits
 13248               	.Ldebug_line0:
 13249 0000 900B 0000 		.section	.debug_str,"MS",@progbits,1
 13249      0200 CA00 
 13249      0000 0201 
 13249      FB0E 0A00 
 13249      0101 0101 
 13250               	.LASF229:
 13251 0000 6469 7265 		.string	"direction"
 13251      6374 696F 
 13251      6E00 
 13252               	.LASF132:
 13253 000a 5045 524C 		.string	"PERL"
 13253      00
 13254               	.LASF144:
 13255 000f 5045 5242 		.string	"PERBUF"
 13255      5546 00
 13256               	.LASF20:
 13257 0016 4343 505F 		.string	"CCP_IOREG_gc"
GAS LISTING /tmp/ccjciOO6.s 			page 261


 13257      494F 5245 
 13257      475F 6763 
 13257      00
 13258               	.LASF201:
 13259 0023 5443 5F43 		.string	"TC_CLKSEL_DIV2_gc"
 13259      4C4B 5345 
 13259      4C5F 4449 
 13259      5632 5F67 
 13259      6300 
 13260               	.LASF244:
 13261 0035 6D6F 746F 		.string	"motor_pin_4"
 13261      725F 7069 
 13261      6E5F 3400 
 13262               	.LASF333:
 13263 0041 6D61 696E 		.string	"main.c"
 13263      2E63 00
 13264               	.LASF90:
 13265 0048 434F 4D50 		.string	"COMP0"
 13265      3000 
 13266               	.LASF187:
 13267 004e 7265 7365 		.string	"reserved_0x22"
 13267      7276 6564 
 13267      5F30 7832 
 13267      3200 
 13268               	.LASF188:
 13269 005c 7265 7365 		.string	"reserved_0x23"
 13269      7276 6564 
 13269      5F30 7832 
 13269      3300 
 13270               	.LASF189:
 13271 006a 7265 7365 		.string	"reserved_0x24"
 13271      7276 6564 
 13271      5F30 7832 
 13271      3400 
 13272               	.LASF190:
 13273 0078 7265 7365 		.string	"reserved_0x25"
 13273      7276 6564 
 13273      5F30 7832 
 13273      3500 
 13274               	.LASF65:
 13275 0086 504C 4C43 		.string	"PLLCTRL"
 13275      5452 4C00 
 13276               	.LASF107:
 13277 008e 494E 5431 		.string	"INT1MASK"
 13277      4D41 534B 
 13277      00
 13278               	.LASF284:
 13279 0097 636C 6B43 		.string	"clkCtrl"
 13279      7472 6C00 
 13280               	.LASF147:
 13281 009f 4343 4142 		.string	"CCABUF"
 13281      5546 00
 13282               	.LASF163:
 13283 00a6 7265 7365 		.string	"reserved_0x05"
 13283      7276 6564 
 13283      5F30 7830 
 13283      3500 
GAS LISTING /tmp/ccjciOO6.s 			page 262


 13284               	.LASF313:
 13285 00b4 7570 6461 		.string	"update"
 13285      7465 00
 13286               	.LASF32:
 13287 00bb 434C 4B5F 		.string	"CLK_SCLKSEL_RC32K_gc"
 13287      5343 4C4B 
 13287      5345 4C5F 
 13287      5243 3332 
 13287      4B5F 6763 
 13288               	.LASF88:
 13289 00d0 4341 4C41 		.string	"CALA"
 13289      00
 13290               	.LASF89:
 13291 00d5 4341 4C42 		.string	"CALB"
 13291      00
 13292               	.LASF57:
 13293 00da 434C 4B5F 		.string	"CLK_RTCSRC_RCOSC_gc"
 13293      5254 4353 
 13293      5243 5F52 
 13293      434F 5343 
 13293      5F67 6300 
 13294               	.LASF38:
 13295 00ee 434C 4B5F 		.string	"CLK_PSADIV_2_gc"
 13295      5053 4144 
 13295      4956 5F32 
 13295      5F67 6300 
 13296               	.LASF35:
 13297 00fe 434C 4B5F 		.string	"CLK_SCLKSEL_t"
 13297      5343 4C4B 
 13297      5345 4C5F 
 13297      7400 
 13298               	.LASF164:
 13299 010c 494E 5443 		.string	"INTCTRLA"
 13299      5452 4C41 
 13299      00
 13300               	.LASF165:
 13301 0115 494E 5443 		.string	"INTCTRLB"
 13301      5452 4C42 
 13301      00
 13302               	.LASF118:
 13303 011e 5049 4E36 		.string	"PIN6CTRL"
 13303      4354 524C 
 13303      00
 13304               	.LASF111:
 13305 0127 7265 7365 		.string	"reserved_0x0F"
 13305      7276 6564 
 13305      5F30 7830 
 13305      4600 
 13306               	.LASF295:
 13307 0135 626C 696E 		.string	"blink"
 13307      6B00 
 13308               	.LASF59:
 13309 013b 434C 4B5F 		.string	"CLK_RTCSRC_t"
 13309      5254 4353 
 13309      5243 5F74 
 13309      00
 13310               	.LASF247:
GAS LISTING /tmp/ccjciOO6.s 			page 263


 13311 0148 5F5F 7469 		.string	"__ticks_dc"
 13311      636B 735F 
 13311      6463 00
 13312               	.LASF220:
 13313 0153 5553 4152 		.string	"USART_struct"
 13313      545F 7374 
 13313      7275 6374 
 13313      00
 13314               	.LASF191:
 13315 0160 7265 7365 		.string	"reserved_0x30"
 13315      7276 6564 
 13315      5F30 7833 
 13315      3000 
 13316               	.LASF192:
 13317 016e 7265 7365 		.string	"reserved_0x31"
 13317      7276 6564 
 13317      5F30 7833 
 13317      3100 
 13318               	.LASF193:
 13319 017c 7265 7365 		.string	"reserved_0x32"
 13319      7276 6564 
 13319      5F30 7833 
 13319      3200 
 13320               	.LASF194:
 13321 018a 7265 7365 		.string	"reserved_0x33"
 13321      7276 6564 
 13321      5F30 7833 
 13321      3300 
 13322               	.LASF334:
 13323 0198 2F68 6F6D 		.string	"/home/dgonz/TinyArmTroller/tinyArmTrollerFirmware"
 13323      652F 6467 
 13323      6F6E 7A2F 
 13323      5469 6E79 
 13323      4172 6D54 
 13324               	.LASF196:
 13325 01ca 7265 7365 		.string	"reserved_0x35"
 13325      7276 6564 
 13325      5F30 7833 
 13325      3500 
 13326               	.LASF86:
 13327 01d8 4446 4C4C 		.string	"DFLL_struct"
 13327      5F73 7472 
 13327      7563 7400 
 13328               	.LASF121:
 13329 01e4 504F 5254 		.string	"PORT_OPC_enum"
 13329      5F4F 5043 
 13329      5F65 6E75 
 13329      6D00 
 13330               	.LASF42:
 13331 01f2 434C 4B5F 		.string	"CLK_PSADIV_32_gc"
 13331      5053 4144 
 13331      4956 5F33 
 13331      325F 6763 
 13331      00
 13332               	.LASF209:
 13333 0203 5443 5F43 		.string	"TC_CLKSEL_EVCH2_gc"
 13333      4C4B 5345 
GAS LISTING /tmp/ccjciOO6.s 			page 264


 13333      4C5F 4556 
 13333      4348 325F 
 13333      6763 00
 13334               	.LASF41:
 13335 0216 434C 4B5F 		.string	"CLK_PSADIV_16_gc"
 13335      5053 4144 
 13335      4956 5F31 
 13335      365F 6763 
 13335      00
 13336               	.LASF230:
 13337 0227 7370 6565 		.string	"speed"
 13337      6400 
 13338               	.LASF29:
 13339 022d 434C 4B5F 		.string	"CLK_SCLKSEL_enum"
 13339      5343 4C4B 
 13339      5345 4C5F 
 13339      656E 756D 
 13339      00
 13340               	.LASF11:
 13341 023e 756E 6765 		.string	"unget"
 13341      7400 
 13342               	.LASF245:
 13343 0244 6C61 7374 		.string	"last_step_time"
 13343      5F73 7465 
 13343      705F 7469 
 13343      6D65 00
 13344               	.LASF311:
 13345 0253 6D61 7845 		.string	"maxError"
 13345      7272 6F72 
 13345      00
 13346               	.LASF135:
 13347 025c 4343 4148 		.string	"CCAH"
 13347      00
 13348               	.LASF310:
 13349 0261 6572 726F 		.string	"error"
 13349      7200 
 13350               	.LASF79:
 13351 0267 4F53 435F 		.string	"OSC_XOSCSEL_XTAL_16KCLK_gc"
 13351      584F 5343 
 13351      5345 4C5F 
 13351      5854 414C 
 13351      5F31 364B 
 13352               	.LASF134:
 13353 0282 4343 414C 		.string	"CCAL"
 13353      00
 13354               	.LASF204:
 13355 0287 5443 5F43 		.string	"TC_CLKSEL_DIV64_gc"
 13355      4C4B 5345 
 13355      4C5F 4449 
 13355      5636 345F 
 13355      6763 00
 13356               	.LASF96:
 13357 029a 494E 5450 		.string	"INTPRI"
 13357      5249 00
 13358               	.LASF125:
 13359 02a1 504F 5254 		.string	"PORT_OPC_PULLUP_gc"
 13359      5F4F 5043 
GAS LISTING /tmp/ccjciOO6.s 			page 265


 13359      5F50 554C 
 13359      4C55 505F 
 13359      6763 00
 13360               	.LASF254:
 13361 02b4 7661 6C30 		.string	"val0"
 13361      00
 13362               	.LASF255:
 13363 02b9 7661 6C31 		.string	"val1"
 13363      00
 13364               	.LASF256:
 13365 02be 7661 6C32 		.string	"val2"
 13365      00
 13366               	.LASF257:
 13367 02c3 7661 6C33 		.string	"val3"
 13367      00
 13368               	.LASF258:
 13369 02c8 7661 6C34 		.string	"val4"
 13369      00
 13370               	.LASF259:
 13371 02cd 7661 6C35 		.string	"val5"
 13371      00
 13372               	.LASF28:
 13373 02d2 4343 505F 		.string	"CCP_enum"
 13373      656E 756D 
 13373      00
 13374               	.LASF221:
 13375 02db 4441 5441 		.string	"DATA"
 13375      00
 13376               	.LASF60:
 13377 02e0 4F53 435F 		.string	"OSC_struct"
 13377      7374 7275 
 13377      6374 00
 13378               	.LASF112:
 13379 02eb 5049 4E30 		.string	"PIN0CTRL"
 13379      4354 524C 
 13379      00
 13380               	.LASF84:
 13381 02f4 4F53 435F 		.string	"OSC_PLLSRC_XOSC_gc"
 13381      504C 4C53 
 13381      5243 5F58 
 13381      4F53 435F 
 13381      6763 00
 13382               	.LASF44:
 13383 0307 434C 4B5F 		.string	"CLK_PSADIV_128_gc"
 13383      5053 4144 
 13383      4956 5F31 
 13383      3238 5F67 
 13383      6300 
 13384               	.LASF47:
 13385 0319 434C 4B5F 		.string	"CLK_PSADIV_t"
 13385      5053 4144 
 13385      4956 5F74 
 13385      00
 13386               	.LASF53:
 13387 0326 434C 4B5F 		.string	"CLK_PSBCDIV_t"
 13387      5053 4243 
 13387      4449 565F 
GAS LISTING /tmp/ccjciOO6.s 			page 266


 13387      7400 
 13388               	.LASF176:
 13389 0334 7265 7365 		.string	"reserved_0x15"
 13389      7276 6564 
 13389      5F30 7831 
 13389      3500 
 13390               	.LASF283:
 13391 0342 434C 4B53 		.string	"CLKSYS_Main_ClockSource_Select"
 13391      5953 5F4D 
 13391      6169 6E5F 
 13391      436C 6F63 
 13391      6B53 6F75 
 13392               	.LASF299:
 13393 0361 706F 7274 		.string	"portNum"
 13393      4E75 6D00 
 13394               	.LASF17:
 13395 0369 7265 6769 		.string	"register8_t"
 13395      7374 6572 
 13395      385F 7400 
 13396               	.LASF178:
 13397 0375 7265 7365 		.string	"reserved_0x17"
 13397      7276 6564 
 13397      5F30 7831 
 13397      3700 
 13398               	.LASF68:
 13399 0383 4F53 435F 		.string	"OSC_FRQRANGE_enum"
 13399      4652 5152 
 13399      414E 4745 
 13399      5F65 6E75 
 13399      6D00 
 13400               	.LASF231:
 13401 0395 7374 6570 		.string	"step_delay"
 13401      5F64 656C 
 13401      6179 00
 13402               	.LASF293:
 13403 03a0 5F5F 7665 		.string	"__vector_14"
 13403      6374 6F72 
 13403      5F31 3400 
 13404               	.LASF104:
 13405 03ac 4F55 5454 		.string	"OUTTGL"
 13405      474C 00
 13406               	.LASF26:
 13407 03b3 5254 4343 		.string	"RTCCTRL"
 13407      5452 4C00 
 13408               	.LASF56:
 13409 03bb 434C 4B5F 		.string	"CLK_RTCSRC_TOSC_gc"
 13409      5254 4353 
 13409      5243 5F54 
 13409      4F53 435F 
 13409      6763 00
 13410               	.LASF7:
 13411 03ce 7569 6E74 		.string	"uint32_t"
 13411      3332 5F74 
 13411      00
 13412               	.LASF137:
 13413 03d7 4343 4248 		.string	"CCBH"
 13413      00
GAS LISTING /tmp/ccjciOO6.s 			page 267


 13414               	.LASF287:
 13415 03dc 636C 6B53 		.string	"clkSource"
 13415      6F75 7263 
 13415      6500 
 13416               	.LASF185:
 13417 03e6 7265 7365 		.string	"reserved_0x1E"
 13417      7276 6564 
 13417      5F30 7831 
 13417      4500 
 13418               	.LASF136:
 13419 03f4 4343 424C 		.string	"CCBL"
 13419      00
 13420               	.LASF73:
 13421 03f9 4F53 435F 		.string	"OSC_FRQRANGE_t"
 13421      4652 5152 
 13421      414E 4745 
 13421      5F74 00
 13422               	.LASF100:
 13423 0408 4449 5243 		.string	"DIRCLR"
 13423      4C52 00
 13424               	.LASF22:
 13425 040f 434C 4B5F 		.string	"CLK_struct"
 13425      7374 7275 
 13425      6374 00
 13426               	.LASF314:
 13427 041a 7661 6C73 		.string	"vals"
 13427      00
 13428               	.LASF316:
 13429 041f 6D79 7374 		.string	"mystdout"
 13429      646F 7574 
 13429      00
 13430               	.LASF260:
 13431 0428 5F5F 6275 		.string	"__builtin_avr_delay_cycles"
 13431      696C 7469 
 13431      6E5F 6176 
 13431      725F 6465 
 13431      6C61 795F 
 13432               	.LASF25:
 13433 0443 4C4F 434B 		.string	"LOCK"
 13433      00
 13434               	.LASF252:
 13435 0448 7365 7453 		.string	"setSpeed"
 13435      7065 6564 
 13435      00
 13436               	.LASF43:
 13437 0451 434C 4B5F 		.string	"CLK_PSADIV_64_gc"
 13437      5053 4144 
 13437      4956 5F36 
 13437      345F 6763 
 13437      00
 13438               	.LASF265:
 13439 0462 7361 7665 		.string	"saved_sreg"
 13439      645F 7372 
 13439      6567 00
 13440               	.LASF110:
 13441 046d 7265 7365 		.string	"reserved_0x0E"
 13441      7276 6564 
GAS LISTING /tmp/ccjciOO6.s 			page 268


 13441      5F30 7830 
 13441      4500 
 13442               	.LASF146:
 13443 047b 4343 4142 		.string	"CCABUFH"
 13443      5546 4800 
 13444               	.LASF33:
 13445 0483 434C 4B5F 		.string	"CLK_SCLKSEL_XOSC_gc"
 13445      5343 4C4B 
 13445      5345 4C5F 
 13445      584F 5343 
 13445      5F67 6300 
 13446               	.LASF145:
 13447 0497 4343 4142 		.string	"CCABUFL"
 13447      5546 4C00 
 13448               	.LASF208:
 13449 049f 5443 5F43 		.string	"TC_CLKSEL_EVCH1_gc"
 13449      4C4B 5345 
 13449      4C5F 4556 
 13449      4348 315F 
 13449      6763 00
 13450               	.LASF339:
 13451 04b2 7561 7274 		.string	"uart_getchar"
 13451      5F67 6574 
 13451      6368 6172 
 13451      00
 13452               	.LASF286:
 13453 04bf 434C 4B53 		.string	"CLKSYS_AutoCalibration_Enable"
 13453      5953 5F41 
 13453      7574 6F43 
 13453      616C 6962 
 13453      7261 7469 
 13454               	.LASF10:
 13455 04dd 6C6F 6E67 		.string	"long long unsigned int"
 13455      206C 6F6E 
 13455      6720 756E 
 13455      7369 676E 
 13455      6564 2069 
 13456               	.LASF329:
 13457 04f4 4C65 6674 		.string	"Left_Wrist"
 13457      5F57 7269 
 13457      7374 00
 13458               	.LASF50:
 13459 04ff 434C 4B5F 		.string	"CLK_PSBCDIV_1_2_gc"
 13459      5053 4243 
 13459      4449 565F 
 13459      315F 325F 
 13459      6763 00
 13460               	.LASF81:
 13461 0512 4F53 435F 		.string	"OSC_PLLSRC_enum"
 13461      504C 4C53 
 13461      5243 5F65 
 13461      6E75 6D00 
 13462               	.LASF139:
 13463 0522 4343 4348 		.string	"CCCH"
 13463      00
 13464               	.LASF323:
 13465 0527 6D61 7853 		.string	"maxSpeed"
GAS LISTING /tmp/ccjciOO6.s 			page 269


 13465      7065 6564 
 13465      00
 13466               	.LASF138:
 13467 0530 4343 434C 		.string	"CCCL"
 13467      00
 13468               	.LASF269:
 13469 0535 6672 6571 		.string	"freqRange"
 13469      5261 6E67 
 13469      6500 
 13470               	.LASF58:
 13471 053f 434C 4B5F 		.string	"CLK_RTCSRC_TOSC32_gc"
 13471      5254 4353 
 13471      5243 5F54 
 13471      4F53 4333 
 13471      325F 6763 
 13472               	.LASF234:
 13473 0554 7374 6570 		.string	"step_number"
 13473      5F6E 756D 
 13473      6265 7200 
 13474               	.LASF331:
 13475 0560 4772 6970 		.string	"Gripper"
 13475      7065 7200 
 13476               	.LASF97:
 13477 0568 504D 4943 		.string	"PMIC_t"
 13477      5F74 00
 13478               	.LASF264:
 13479 056f 7661 6C75 		.string	"value"
 13479      6500 
 13480               	.LASF64:
 13481 0575 5243 3332 		.string	"RC32KCAL"
 13481      4B43 414C 
 13481      00
 13482               	.LASF288:
 13483 057e 6578 7452 		.string	"extReference"
 13483      6566 6572 
 13483      656E 6365 
 13483      00
 13484               	.LASF77:
 13485 058b 4F53 435F 		.string	"OSC_XOSCSEL_XTAL_256CLK_gc"
 13485      584F 5343 
 13485      5345 4C5F 
 13485      5854 414C 
 13485      5F32 3536 
 13486               	.LASF236:
 13487 05a6 6D61 7853 		.string	"maxSteps"
 13487      7465 7073 
 13487      00
 13488               	.LASF317:
 13489 05af 5F5F 696F 		.string	"__iob"
 13489      6200 
 13490               	.LASF342:
 13491 05b5 7075 7473 		.string	"puts"
 13491      00
 13492               	.LASF141:
 13493 05ba 4343 4448 		.string	"CCDH"
 13493      00
 13494               	.LASF238:
GAS LISTING /tmp/ccjciOO6.s 			page 270


 13495 05bf 6D6F 746F 		.string	"motor_pin_1"
 13495      725F 7069 
 13495      6E5F 3100 
 13496               	.LASF240:
 13497 05cb 6D6F 746F 		.string	"motor_pin_2"
 13497      725F 7069 
 13497      6E5F 3200 
 13498               	.LASF242:
 13499 05d7 6D6F 746F 		.string	"motor_pin_3"
 13499      725F 7069 
 13499      6E5F 3300 
 13500               	.LASF140:
 13501 05e3 4343 444C 		.string	"CCDL"
 13501      00
 13502               	.LASF272:
 13503 05e8 5F42 6F6F 		.string	"_Bool"
 13503      6C00 
 13504               	.LASF325:
 13505 05ee 6772 6970 		.string	"gripperStatePrev"
 13505      7065 7253 
 13505      7461 7465 
 13505      5072 6576 
 13505      00
 13506               	.LASF273:
 13507 05ff 434C 4B53 		.string	"CLKSYS_PLL_Config"
 13507      5953 5F50 
 13507      4C4C 5F43 
 13507      6F6E 6669 
 13507      6700 
 13508               	.LASF169:
 13509 0611 4354 524C 		.string	"CTRLGSET"
 13509      4753 4554 
 13509      00
 13510               	.LASF99:
 13511 061a 4449 5253 		.string	"DIRSET"
 13511      4554 00
 13512               	.LASF296:
 13513 0621 6D79 5661 		.string	"myVal"
 13513      6C00 
 13514               	.LASF108:
 13515 0627 494E 5446 		.string	"INTFLAGS"
 13515      4C41 4753 
 13515      00
 13516               	.LASF12:
 13517 0630 666C 6167 		.string	"flags"
 13517      7300 
 13518               	.LASF66:
 13519 0636 4446 4C4C 		.string	"DFLLCTRL"
 13519      4354 524C 
 13519      00
 13520               	.LASF250:
 13521 063f 7374 6570 		.string	"stepper"
 13521      7065 7200 
 13522               	.LASF337:
 13523 0647 7369 676E 		.string	"signum"
 13523      756D 00
 13524               	.LASF228:
GAS LISTING /tmp/ccjciOO6.s 			page 271


 13525 064e 6D6F 746F 		.string	"motorNumber"
 13525      724E 756D 
 13525      6265 7200 
 13526               	.LASF327:
 13527 065a 5368 6F75 		.string	"Shoulder"
 13527      6C64 6572 
 13527      00
 13528               	.LASF155:
 13529 0663 4343 4442 		.string	"CCDBUFH"
 13529      5546 4800 
 13530               	.LASF291:
 13531 066b 6465 6C61 		.string	"delay_ms"
 13531      795F 6D73 
 13531      00
 13532               	.LASF123:
 13533 0674 504F 5254 		.string	"PORT_OPC_BUSKEEPER_gc"
 13533      5F4F 5043 
 13533      5F42 5553 
 13533      4B45 4550 
 13533      4552 5F67 
 13534               	.LASF106:
 13535 068a 494E 5430 		.string	"INT0MASK"
 13535      4D41 534B 
 13535      00
 13536               	.LASF120:
 13537 0693 504F 5254 		.string	"PORT_t"
 13537      5F74 00
 13538               	.LASF154:
 13539 069a 4343 4442 		.string	"CCDBUFL"
 13539      5546 4C00 
 13540               	.LASF267:
 13541 06a2 4343 5057 		.string	"CCPWrite"
 13541      7269 7465 
 13541      00
 13542               	.LASF233:
 13543 06ab 7069 6E5F 		.string	"pin_count"
 13543      636F 756E 
 13543      7400 
 13544               	.LASF210:
 13545 06b5 5443 5F43 		.string	"TC_CLKSEL_EVCH3_gc"
 13545      4C4B 5345 
 13545      4C5F 4556 
 13545      4348 335F 
 13545      6763 00
 13546               	.LASF63:
 13547 06c8 584F 5343 		.string	"XOSCFAIL"
 13547      4641 494C 
 13547      00
 13548               	.LASF78:
 13549 06d1 4F53 435F 		.string	"OSC_XOSCSEL_XTAL_1KCLK_gc"
 13549      584F 5343 
 13549      5345 4C5F 
 13549      5854 414C 
 13549      5F31 4B43 
 13550               	.LASF213:
 13551 06eb 5443 5F43 		.string	"TC_CLKSEL_EVCH6_gc"
 13551      4C4B 5345 
GAS LISTING /tmp/ccjciOO6.s 			page 272


 13551      4C5F 4556 
 13551      4348 365F 
 13551      6763 00
 13552               	.LASF122:
 13553 06fe 504F 5254 		.string	"PORT_OPC_TOTEM_gc"
 13553      5F4F 5043 
 13553      5F54 4F54 
 13553      454D 5F67 
 13553      6300 
 13554               	.LASF15:
 13555 0710 6368 6172 		.string	"char"
 13555      00
 13556               	.LASF290:
 13557 0715 434C 4B53 		.string	"CLKSYS_Configuration_Lock"
 13557      5953 5F43 
 13557      6F6E 6669 
 13557      6775 7261 
 13557      7469 6F6E 
 13558               	.LASF117:
 13559 072f 5049 4E35 		.string	"PIN5CTRL"
 13559      4354 524C 
 13559      00
 13560               	.LASF39:
 13561 0738 434C 4B5F 		.string	"CLK_PSADIV_4_gc"
 13561      5053 4144 
 13561      4956 5F34 
 13561      5F67 6300 
 13562               	.LASF184:
 13563 0748 7265 7365 		.string	"reserved_0x1D"
 13563      7276 6564 
 13563      5F30 7831 
 13563      4400 
 13564               	.LASF195:
 13565 0756 7265 7365 		.string	"reserved_0x34"
 13565      7276 6564 
 13565      5F30 7833 
 13565      3400 
 13566               	.LASF276:
 13567 0764 6F73 6353 		.string	"oscSel"
 13567      656C 00
 13568               	.LASF301:
 13569 076b 636C 6561 		.string	"clearPin"
 13569      7250 696E 
 13569      00
 13570               	.LASF279:
 13571 0774 5053 4166 		.string	"PSAfactor"
 13571      6163 746F 
 13571      7200 
 13572               	.LASF24:
 13573 077e 5053 4354 		.string	"PSCTRL"
 13573      524C 00
 13574               	.LASF9:
 13575 0785 6C6F 6E67 		.string	"long long int"
 13575      206C 6F6E 
 13575      6720 696E 
 13575      7400 
 13576               	.LASF98:
GAS LISTING /tmp/ccjciOO6.s 			page 273


 13577 0793 504F 5254 		.string	"PORT_struct"
 13577      5F73 7472 
 13577      7563 7400 
 13578               	.LASF3:
 13579 079f 7569 6E74 		.string	"uint8_t"
 13579      385F 7400 
 13580               	.LASF343:
 13581 07a7 5F5F 6275 		.string	"__builtin_puts"
 13581      696C 7469 
 13581      6E5F 7075 
 13581      7473 00
 13582               	.LASF168:
 13583 07b6 4354 524C 		.string	"CTRLGCLR"
 13583      4743 4C52 
 13583      00
 13584               	.LASF297:
 13585 07bf 626C 696E 		.string	"blinkN"
 13585      6B4E 00
 13586               	.LASF71:
 13587 07c6 4F53 435F 		.string	"OSC_FRQRANGE_9TO12_gc"
 13587      4652 5152 
 13587      414E 4745 
 13587      5F39 544F 
 13587      3132 5F67 
 13588               	.LASF114:
 13589 07dc 5049 4E32 		.string	"PIN2CTRL"
 13589      4354 524C 
 13589      00
 13590               	.LASF282:
 13591 07e5 434C 4B53 		.string	"CLKSYS_Disable"
 13591      5953 5F44 
 13591      6973 6162 
 13591      6C65 00
 13592               	.LASF292:
 13593 07f4 636F 6D70 		.string	"compareArray"
 13593      6172 6541 
 13593      7272 6179 
 13593      00
 13594               	.LASF18:
 13595 0801 7265 6769 		.string	"register16_t"
 13595      7374 6572 
 13595      3136 5F74 
 13595      00
 13596               	.LASF46:
 13597 080e 434C 4B5F 		.string	"CLK_PSADIV_512_gc"
 13597      5053 4144 
 13597      4956 5F35 
 13597      3132 5F67 
 13597      6300 
 13598               	.LASF199:
 13599 0820 5443 5F43 		.string	"TC_CLKSEL_OFF_gc"
 13599      4C4B 5345 
 13599      4C5F 4F46 
 13599      465F 6763 
 13599      00
 13600               	.LASF198:
 13601 0831 5443 5F43 		.string	"TC_CLKSEL_enum"
GAS LISTING /tmp/ccjciOO6.s 			page 274


 13601      4C4B 5345 
 13601      4C5F 656E 
 13601      756D 00
 13602               	.LASF225:
 13603 0840 5553 4152 		.string	"USART_t"
 13603      545F 7400 
 13604               	.LASF328:
 13605 0848 456C 626F 		.string	"Elbow"
 13605      7700 
 13606               	.LASF320:
 13607 084e 676F 616C 		.string	"goal"
 13607      00
 13608               	.LASF126:
 13609 0853 504F 5254 		.string	"PORT_OPC_WIREDOR_gc"
 13609      5F4F 5043 
 13609      5F57 4952 
 13609      4544 4F52 
 13609      5F67 6300 
 13610               	.LASF31:
 13611 0867 434C 4B5F 		.string	"CLK_SCLKSEL_RC32M_gc"
 13611      5343 4C4B 
 13611      5345 4C5F 
 13611      5243 3332 
 13611      4D5F 6763 
 13612               	.LASF85:
 13613 087c 4F53 435F 		.string	"OSC_PLLSRC_t"
 13613      504C 4C53 
 13613      5243 5F74 
 13613      00
 13614               	.LASF321:
 13615 0889 706F 7365 		.string	"pose"
 13615      00
 13616               	.LASF322:
 13617 088e 656C 6170 		.string	"elapsedMillis"
 13617      7365 644D 
 13617      696C 6C69 
 13617      7300 
 13618               	.LASF261:
 13619 089c 7570 6461 		.string	"updateSign"
 13619      7465 5369 
 13619      676E 00
 13620               	.LASF232:
 13621 08a7 6E75 6D62 		.string	"number_of_steps"
 13621      6572 5F6F 
 13621      665F 7374 
 13621      6570 7300 
 13622               	.LASF227:
 13623 08b7 5374 6570 		.string	"Stepper"
 13623      7065 7200 
 13624               	.LASF52:
 13625 08bf 434C 4B5F 		.string	"CLK_PSBCDIV_2_2_gc"
 13625      5053 4243 
 13625      4449 565F 
 13625      325F 325F 
 13625      6763 00
 13626               	.LASF170:
 13627 08d2 5445 4D50 		.string	"TEMP"
GAS LISTING /tmp/ccjciOO6.s 			page 275


 13627      00
 13628               	.LASF152:
 13629 08d7 4343 4342 		.string	"CCCBUFH"
 13629      5546 4800 
 13630               	.LASF151:
 13631 08df 4343 4342 		.string	"CCCBUFL"
 13631      5546 4C00 
 13632               	.LASF133:
 13633 08e7 5045 5248 		.string	"PERH"
 13633      00
 13634               	.LASF91:
 13635 08ec 434F 4D50 		.string	"COMP1"
 13635      3100 
 13636               	.LASF92:
 13637 08f2 434F 4D50 		.string	"COMP2"
 13637      3200 
 13638               	.LASF212:
 13639 08f8 5443 5F43 		.string	"TC_CLKSEL_EVCH5_gc"
 13639      4C4B 5345 
 13639      4C5F 4556 
 13639      4348 355F 
 13639      6763 00
 13640               	.LASF27:
 13641 090b 434C 4B5F 		.string	"CLK_t"
 13641      7400 
 13642               	.LASF289:
 13643 0911 434C 4B53 		.string	"CLKSYS_XOSC_FailureDetection_Enable"
 13643      5953 5F58 
 13643      4F53 435F 
 13643      4661 696C 
 13643      7572 6544 
 13644               	.LASF304:
 13645 0935 7374 6570 		.string	"step"
 13645      00
 13646               	.LASF21:
 13647 093a 5F5F 6669 		.string	"__file"
 13647      6C65 00
 13648               	.LASF13:
 13649 0941 7369 7A65 		.string	"size"
 13649      00
 13650               	.LASF312:
 13651 0946 6D61 696E 		.string	"mainLoop"
 13651      4C6F 6F70 
 13651      00
 13652               	.LASF105:
 13653 094f 494E 5443 		.string	"INTCTRL"
 13653      5452 4C00 
 13654               	.LASF36:
 13655 0957 434C 4B5F 		.string	"CLK_PSADIV_enum"
 13655      5053 4144 
 13655      4956 5F65 
 13655      6E75 6D00 
 13656               	.LASF298:
 13657 0967 7365 7450 		.string	"setPin"
 13657      696E 00
 13658               	.LASF72:
 13659 096e 4F53 435F 		.string	"OSC_FRQRANGE_12TO16_gc"
GAS LISTING /tmp/ccjciOO6.s 			page 276


 13659      4652 5152 
 13659      414E 4745 
 13659      5F31 3254 
 13659      4F31 365F 
 13660               	.LASF45:
 13661 0985 434C 4B5F 		.string	"CLK_PSADIV_256_gc"
 13661      5053 4144 
 13661      4956 5F32 
 13661      3536 5F67 
 13661      6300 
 13662               	.LASF206:
 13663 0997 5443 5F43 		.string	"TC_CLKSEL_DIV1024_gc"
 13663      4C4B 5345 
 13663      4C5F 4449 
 13663      5631 3032 
 13663      345F 6763 
 13664               	.LASF218:
 13665 09ac 5443 5F4F 		.string	"TC_OVFINTLVL_MED_gc"
 13665      5646 494E 
 13665      544C 564C 
 13665      5F4D 4544 
 13665      5F67 6300 
 13666               	.LASF51:
 13667 09c0 434C 4B5F 		.string	"CLK_PSBCDIV_4_1_gc"
 13667      5053 4243 
 13667      4449 565F 
 13667      345F 315F 
 13667      6763 00
 13668               	.LASF202:
 13669 09d3 5443 5F43 		.string	"TC_CLKSEL_DIV4_gc"
 13669      4C4B 5345 
 13669      4C5F 4449 
 13669      5634 5F67 
 13669      6300 
 13670               	.LASF150:
 13671 09e5 4343 4242 		.string	"CCBBUF"
 13671      5546 00
 13672               	.LASF101:
 13673 09ec 4449 5254 		.string	"DIRTGL"
 13673      474C 00
 13674               	.LASF48:
 13675 09f3 434C 4B5F 		.string	"CLK_PSBCDIV_enum"
 13675      5053 4243 
 13675      4449 565F 
 13675      656E 756D 
 13675      00
 13676               	.LASF4:
 13677 0a04 7569 6E74 		.string	"uint16_t"
 13677      3136 5F74 
 13677      00
 13678               	.LASF274:
 13679 0a0d 636C 6F63 		.string	"clockSource"
 13679      6B53 6F75 
 13679      7263 6500 
 13680               	.LASF158:
 13681 0a19 4354 524C 		.string	"CTRLA"
 13681      4100 
GAS LISTING /tmp/ccjciOO6.s 			page 277


 13682               	.LASF159:
 13683 0a1f 4354 524C 		.string	"CTRLB"
 13683      4200 
 13684               	.LASF160:
 13685 0a25 4354 524C 		.string	"CTRLC"
 13685      4300 
 13686               	.LASF161:
 13687 0a2b 4354 524C 		.string	"CTRLD"
 13687      4400 
 13688               	.LASF162:
 13689 0a31 4354 524C 		.string	"CTRLE"
 13689      4500 
 13690               	.LASF306:
 13691 0a37 7374 6570 		.string	"steps_left"
 13691      735F 6C65 
 13691      6674 00
 13692               	.LASF124:
 13693 0a42 504F 5254 		.string	"PORT_OPC_PULLDOWN_gc"
 13693      5F4F 5043 
 13693      5F50 554C 
 13693      4C44 4F57 
 13693      4E5F 6763 
 13694               	.LASF303:
 13695 0a57 7468 6973 		.string	"thisStep"
 13695      5374 6570 
 13695      00
 13696               	.LASF34:
 13697 0a60 434C 4B5F 		.string	"CLK_SCLKSEL_PLL_gc"
 13697      5343 4C4B 
 13697      5345 4C5F 
 13697      504C 4C5F 
 13697      6763 00
 13698               	.LASF207:
 13699 0a73 5443 5F43 		.string	"TC_CLKSEL_EVCH0_gc"
 13699      4C4B 5345 
 13699      4C5F 4556 
 13699      4348 305F 
 13699      6763 00
 13700               	.LASF102:
 13701 0a86 4F55 5453 		.string	"OUTSET"
 13701      4554 00
 13702               	.LASF216:
 13703 0a8d 5443 5F4F 		.string	"TC_OVFINTLVL_OFF_gc"
 13703      5646 494E 
 13703      544C 564C 
 13703      5F4F 4646 
 13703      5F67 6300 
 13704               	.LASF309:
 13705 0aa1 6D6F 7665 		.string	"moveToGoal"
 13705      546F 476F 
 13705      616C 00
 13706               	.LASF95:
 13707 0aac 504D 4943 		.string	"PMIC_struct"
 13707      5F73 7472 
 13707      7563 7400 
 13708               	.LASF340:
 13709 0ab8 7561 7274 		.string	"uart_init"
GAS LISTING /tmp/ccjciOO6.s 			page 278


 13709      5F69 6E69 
 13709      7400 
 13710               	.LASF49:
 13711 0ac2 434C 4B5F 		.string	"CLK_PSBCDIV_1_1_gc"
 13711      5053 4243 
 13711      4449 565F 
 13711      315F 315F 
 13711      6763 00
 13712               	.LASF6:
 13713 0ad5 6C6F 6E67 		.string	"long int"
 13713      2069 6E74 
 13713      00
 13714               	.LASF37:
 13715 0ade 434C 4B5F 		.string	"CLK_PSADIV_1_gc"
 13715      5053 4144 
 13715      4956 5F31 
 13715      5F67 6300 
 13716               	.LASF241:
 13717 0aee 6D6F 746F 		.string	"motor_port_3"
 13717      725F 706F 
 13717      7274 5F33 
 13717      00
 13718               	.LASF271:
 13719 0afb 786F 7363 		.string	"xoscModeSelection"
 13719      4D6F 6465 
 13719      5365 6C65 
 13719      6374 696F 
 13719      6E00 
 13720               	.LASF214:
 13721 0b0d 5443 5F43 		.string	"TC_CLKSEL_EVCH7_gc"
 13721      4C4B 5345 
 13721      4C5F 4556 
 13721      4348 375F 
 13721      6763 00
 13722               	.LASF94:
 13723 0b20 4446 4C4C 		.string	"DFLL_t"
 13723      5F74 00
 13724               	.LASF319:
 13725 0b27 6465 6275 		.string	"debugFlag"
 13725      6746 6C61 
 13725      6700 
 13726               	.LASF275:
 13727 0b31 6661 6374 		.string	"factor"
 13727      6F72 00
 13728               	.LASF197:
 13729 0b38 5443 305F 		.string	"TC0_t"
 13729      7400 
 13730               	.LASF119:
 13731 0b3e 5049 4E37 		.string	"PIN7CTRL"
 13731      4354 524C 
 13731      00
 13732               	.LASF205:
 13733 0b47 5443 5F43 		.string	"TC_CLKSEL_DIV256_gc"
 13733      4C4B 5345 
 13733      4C5F 4449 
 13733      5632 3536 
 13733      5F67 6300 
GAS LISTING /tmp/ccjciOO6.s 			page 279


 13734               	.LASF215:
 13735 0b5b 5443 5F4F 		.string	"TC_OVFINTLVL_enum"
 13735      5646 494E 
 13735      544C 564C 
 13735      5F65 6E75 
 13735      6D00 
 13736               	.LASF40:
 13737 0b6d 434C 4B5F 		.string	"CLK_PSADIV_8_gc"
 13737      5053 4144 
 13737      4956 5F38 
 13737      5F67 6300 
 13738               	.LASF70:
 13739 0b7d 4F53 435F 		.string	"OSC_FRQRANGE_2TO9_gc"
 13739      4652 5152 
 13739      414E 4745 
 13739      5F32 544F 
 13739      395F 6763 
 13740               	.LASF80:
 13741 0b92 4F53 435F 		.string	"OSC_XOSCSEL_t"
 13741      584F 5343 
 13741      5345 4C5F 
 13741      7400 
 13742               	.LASF335:
 13743 0ba0 5F64 656C 		.string	"_delay_us"
 13743      6179 5F75 
 13743      7300 
 13744               	.LASF308:
 13745 0baa 6D79 4469 		.string	"myDir"
 13745      7200 
 13746               	.LASF219:
 13747 0bb0 5443 5F4F 		.string	"TC_OVFINTLVL_HI_gc"
 13747      5646 494E 
 13747      544C 564C 
 13747      5F48 495F 
 13747      6763 00
 13748               	.LASF130:
 13749 0bc3 434E 544C 		.string	"CNTL"
 13749      00
 13750               	.LASF19:
 13751 0bc8 4343 505F 		.string	"CCP_SPM_gc"
 13751      5350 4D5F 
 13751      6763 00
 13752               	.LASF235:
 13753 0bd3 6D69 6E53 		.string	"minSteps"
 13753      7465 7073 
 13753      00
 13754               	.LASF5:
 13755 0bdc 756E 7369 		.string	"unsigned int"
 13755      676E 6564 
 13755      2069 6E74 
 13755      00
 13756               	.LASF326:
 13757 0be9 4261 7365 		.string	"Base"
 13757      00
 13758               	.LASF116:
 13759 0bee 5049 4E34 		.string	"PIN4CTRL"
 13759      4354 524C 
GAS LISTING /tmp/ccjciOO6.s 			page 280


 13759      00
 13760               	.LASF156:
 13761 0bf7 4343 4442 		.string	"CCDBUF"
 13761      5546 00
 13762               	.LASF251:
 13763 0bfe 7768 6174 		.string	"whatSpeed"
 13763      5370 6565 
 13763      6400 
 13764               	.LASF167:
 13765 0c08 4354 524C 		.string	"CTRLFSET"
 13765      4653 4554 
 13765      00
 13766               	.LASF324:
 13767 0c11 6772 6970 		.string	"gripperState"
 13767      7065 7253 
 13767      7461 7465 
 13767      00
 13768               	.LASF315:
 13769 0c1e 696E 6974 		.string	"init"
 13769      00
 13770               	.LASF103:
 13771 0c23 4F55 5443 		.string	"OUTCLR"
 13771      4C52 00
 13772               	.LASF127:
 13773 0c2a 504F 5254 		.string	"PORT_OPC_WIREDAND_gc"
 13773      5F4F 5043 
 13773      5F57 4952 
 13773      4544 414E 
 13773      445F 6763 
 13774               	.LASF226:
 13775 0c3f 7369 7A65 		.string	"sizetype"
 13775      7479 7065 
 13775      00
 13776               	.LASF157:
 13777 0c48 5443 305F 		.string	"TC0_struct"
 13777      7374 7275 
 13777      6374 00
 13778               	.LASF8:
 13779 0c53 6C6F 6E67 		.string	"long unsigned int"
 13779      2075 6E73 
 13779      6967 6E65 
 13779      6420 696E 
 13779      7400 
 13780               	.LASF270:
 13781 0c65 6C6F 7750 		.string	"lowPower32kHz"
 13781      6F77 6572 
 13781      3332 6B48 
 13781      7A00 
 13782               	.LASF263:
 13783 0c73 6164 6472 		.string	"address"
 13783      6573 7300 
 13784               	.LASF253:
 13785 0c7b 6368 616E 		.string	"changeGoal"
 13785      6765 476F 
 13785      616C 00
 13786               	.LASF0:
 13787 0c86 666C 6F61 		.string	"float"
GAS LISTING /tmp/ccjciOO6.s 			page 281


 13787      7400 
 13788               	.LASF62:
 13789 0c8c 584F 5343 		.string	"XOSCCTRL"
 13789      4354 524C 
 13789      00
 13790               	.LASF74:
 13791 0c95 4F53 435F 		.string	"OSC_XOSCSEL_enum"
 13791      584F 5343 
 13791      5345 4C5F 
 13791      656E 756D 
 13791      00
 13792               	.LASF330:
 13793 0ca6 5269 6768 		.string	"Right_Wrist"
 13793      745F 5772 
 13793      6973 7400 
 13794               	.LASF30:
 13795 0cb2 434C 4B5F 		.string	"CLK_SCLKSEL_RC2M_gc"
 13795      5343 4C4B 
 13795      5345 4C5F 
 13795      5243 324D 
 13795      5F67 6300 
 13796               	.LASF285:
 13797 0cc6 434C 4B53 		.string	"CLKSYS_RTC_ClockSource_Enable"
 13797      5953 5F52 
 13797      5443 5F43 
 13797      6C6F 636B 
 13797      536F 7572 
 13798               	.LASF75:
 13799 0ce4 4F53 435F 		.string	"OSC_XOSCSEL_EXTCLK_gc"
 13799      584F 5343 
 13799      5345 4C5F 
 13799      4558 5443 
 13799      4C4B 5F67 
 13800               	.LASF217:
 13801 0cfa 5443 5F4F 		.string	"TC_OVFINTLVL_LO_gc"
 13801      5646 494E 
 13801      544C 564C 
 13801      5F4C 4F5F 
 13801      6763 00
 13802               	.LASF143:
 13803 0d0d 5045 5242 		.string	"PERBUFH"
 13803      5546 4800 
 13804               	.LASF268:
 13805 0d15 434C 4B53 		.string	"CLKSYS_XOSC_Config"
 13805      5953 5F58 
 13805      4F53 435F 
 13805      436F 6E66 
 13805      6967 00
 13806               	.LASF142:
 13807 0d28 5045 5242 		.string	"PERBUFL"
 13807      5546 4C00 
 13808               	.LASF115:
 13809 0d30 5049 4E33 		.string	"PIN3CTRL"
 13809      4354 524C 
 13809      00
 13810               	.LASF2:
 13811 0d39 756E 7369 		.string	"unsigned char"
GAS LISTING /tmp/ccjciOO6.s 			page 282


 13811      676E 6564 
 13811      2063 6861 
 13811      7200 
 13812               	.LASF67:
 13813 0d47 4F53 435F 		.string	"OSC_t"
 13813      7400 
 13814               	.LASF76:
 13815 0d4d 4F53 435F 		.string	"OSC_XOSCSEL_32KHz_gc"
 13815      584F 5343 
 13815      5345 4C5F 
 13815      3332 4B48 
 13815      7A5F 6763 
 13816               	.LASF294:
 13817 0d62 436F 6E66 		.string	"Config32MHzClock"
 13817      6967 3332 
 13817      4D48 7A43 
 13817      6C6F 636B 
 13817      00
 13818               	.LASF223:
 13819 0d73 4241 5544 		.string	"BAUDCTRLA"
 13819      4354 524C 
 13819      4100 
 13820               	.LASF224:
 13821 0d7d 4241 5544 		.string	"BAUDCTRLB"
 13821      4354 524C 
 13821      4200 
 13822               	.LASF249:
 13823 0d87 5F5F 7573 		.string	"__us"
 13823      00
 13824               	.LASF307:
 13825 0d8c 7374 6570 		.string	"stepOne"
 13825      4F6E 6500 
 13826               	.LASF336:
 13827 0d94 6D69 6C6C 		.string	"millis"
 13827      6973 00
 13828               	.LASF302:
 13829 0d9b 7374 6570 		.string	"stepMotor"
 13829      4D6F 746F 
 13829      7200 
 13830               	.LASF128:
 13831 0da5 504F 5254 		.string	"PORT_OPC_WIREDORPULL_gc"
 13831      5F4F 5043 
 13831      5F57 4952 
 13831      4544 4F52 
 13831      5055 4C4C 
 13832               	.LASF318:
 13833 0dbd 7374 6174 		.string	"state"
 13833      6500 
 13834               	.LASF200:
 13835 0dc3 5443 5F43 		.string	"TC_CLKSEL_DIV1_gc"
 13835      4C4B 5345 
 13835      4C5F 4449 
 13835      5631 5F67 
 13835      6300 
 13836               	.LASF82:
 13837 0dd5 4F53 435F 		.string	"OSC_PLLSRC_RC2M_gc"
 13837      504C 4C53 
GAS LISTING /tmp/ccjciOO6.s 			page 283


 13837      5243 5F52 
 13837      4332 4D5F 
 13837      6763 00
 13838               	.LASF166:
 13839 0de8 4354 524C 		.string	"CTRLFCLR"
 13839      4643 4C52 
 13839      00
 13840               	.LASF149:
 13841 0df1 4343 4242 		.string	"CCBBUFH"
 13841      5546 4800 
 13842               	.LASF237:
 13843 0df9 6D6F 746F 		.string	"motor_port_1"
 13843      725F 706F 
 13843      7274 5F31 
 13843      00
 13844               	.LASF148:
 13845 0e06 4343 4242 		.string	"CCBBUFL"
 13845      5546 4C00 
 13846               	.LASF239:
 13847 0e0e 6D6F 746F 		.string	"motor_port_2"
 13847      725F 706F 
 13847      7274 5F32 
 13847      00
 13848               	.LASF87:
 13849 0e1b 7265 7365 		.string	"reserved_0x01"
 13849      7276 6564 
 13849      5F30 7830 
 13849      3100 
 13850               	.LASF222:
 13851 0e29 7265 7365 		.string	"reserved_0x02"
 13851      7276 6564 
 13851      5F30 7830 
 13851      3200 
 13852               	.LASF243:
 13853 0e37 6D6F 746F 		.string	"motor_port_4"
 13853      725F 706F 
 13853      7274 5F34 
 13853      00
 13854               	.LASF153:
 13855 0e44 4343 4342 		.string	"CCCBUF"
 13855      5546 00
 13856               	.LASF93:
 13857 0e4b 7265 7365 		.string	"reserved_0x07"
 13857      7276 6564 
 13857      5F30 7830 
 13857      3700 
 13858               	.LASF338:
 13859 0e59 7561 7274 		.string	"uart_putchar"
 13859      5F70 7574 
 13859      6368 6172 
 13859      00
 13860               	.LASF300:
 13861 0e66 7069 6E4E 		.string	"pinNum"
 13861      756D 00
 13862               	.LASF280:
 13863 0e6d 5053 4243 		.string	"PSBCfactor"
 13863      6661 6374 
GAS LISTING /tmp/ccjciOO6.s 			page 284


 13863      6F72 00
 13864               	.LASF109:
 13865 0e78 7265 7365 		.string	"reserved_0x0D"
 13865      7276 6564 
 13865      5F30 7830 
 13865      4400 
 13866               	.LASF1:
 13867 0e86 7369 676E 		.string	"signed char"
 13867      6564 2063 
 13867      6861 7200 
 13868               	.LASF203:
 13869 0e92 5443 5F43 		.string	"TC_CLKSEL_DIV8_gc"
 13869      4C4B 5345 
 13869      4C5F 4449 
 13869      5638 5F67 
 13869      6300 
 13870               	.LASF332:
 13871 0ea4 474E 5520 		.string	"GNU C99 5.4.0 -mn-flash=1 -mno-skip-bug -mmcu=avrxmega2 -g -gdwarf-2 -Os -std=gnu99 -fpac
 13871      4339 3920 
 13871      352E 342E 
 13871      3020 2D6D 
 13871      6E2D 666C 
 13872               	.LASF341:
 13873 0f39 6D61 696E 		.string	"main"
 13873      00
 13874               	.LASF246:
 13875 0f3e 5F5F 746D 		.string	"__tmp"
 13875      7000 
 13876               	.LASF55:
 13877 0f44 434C 4B5F 		.string	"CLK_RTCSRC_ULP_gc"
 13877      5254 4353 
 13877      5243 5F55 
 13877      4C50 5F67 
 13877      6300 
 13878               	.LASF278:
 13879 0f56 434C 4B53 		.string	"CLKSYS_Prescalers_Config"
 13879      5953 5F50 
 13879      7265 7363 
 13879      616C 6572 
 13879      735F 436F 
 13880               	.LASF211:
 13881 0f6f 5443 5F43 		.string	"TC_CLKSEL_EVCH4_gc"
 13881      4C4B 5345 
 13881      4C5F 4556 
 13881      4348 345F 
 13881      6763 00
 13882               	.LASF14:
 13883 0f82 7564 6174 		.string	"udata"
 13883      6100 
 13884               	.LASF248:
 13885 0f88 646F 7562 		.string	"double"
 13885      6C65 00
 13886               	.LASF83:
 13887 0f8f 4F53 435F 		.string	"OSC_PLLSRC_RC32M_gc"
 13887      504C 4C53 
 13887      5243 5F52 
 13887      4333 324D 
GAS LISTING /tmp/ccjciOO6.s 			page 285


 13887      5F67 6300 
 13888               	.LASF54:
 13889 0fa3 434C 4B5F 		.string	"CLK_RTCSRC_enum"
 13889      5254 4353 
 13889      5243 5F65 
 13889      6E75 6D00 
 13890               	.LASF61:
 13891 0fb3 5354 4154 		.string	"STATUS"
 13891      5553 00
 13892               	.LASF171:
 13893 0fba 7265 7365 		.string	"reserved_0x10"
 13893      7276 6564 
 13893      5F30 7831 
 13893      3000 
 13894               	.LASF172:
 13895 0fc8 7265 7365 		.string	"reserved_0x11"
 13895      7276 6564 
 13895      5F30 7831 
 13895      3100 
 13896               	.LASF173:
 13897 0fd6 7265 7365 		.string	"reserved_0x12"
 13897      7276 6564 
 13897      5F30 7831 
 13897      3200 
 13898               	.LASF174:
 13899 0fe4 7265 7365 		.string	"reserved_0x13"
 13899      7276 6564 
 13899      5F30 7831 
 13899      3300 
 13900               	.LASF175:
 13901 0ff2 7265 7365 		.string	"reserved_0x14"
 13901      7276 6564 
 13901      5F30 7831 
 13901      3400 
 13902               	.LASF277:
 13903 1000 636C 6B45 		.string	"clkEnabled"
 13903      6E61 626C 
 13903      6564 00
 13904               	.LASF177:
 13905 100b 7265 7365 		.string	"reserved_0x16"
 13905      7276 6564 
 13905      5F30 7831 
 13905      3600 
 13906               	.LASF16:
 13907 1019 4649 4C45 		.string	"FILE"
 13907      00
 13908               	.LASF179:
 13909 101e 7265 7365 		.string	"reserved_0x18"
 13909      7276 6564 
 13909      5F30 7831 
 13909      3800 
 13910               	.LASF180:
 13911 102c 7265 7365 		.string	"reserved_0x19"
 13911      7276 6564 
 13911      5F30 7831 
 13911      3900 
 13912               	.LASF113:
GAS LISTING /tmp/ccjciOO6.s 			page 286


 13913 103a 5049 4E31 		.string	"PIN1CTRL"
 13913      4354 524C 
 13913      00
 13914               	.LASF131:
 13915 1043 434E 5448 		.string	"CNTH"
 13915      00
 13916               	.LASF181:
 13917 1048 7265 7365 		.string	"reserved_0x1A"
 13917      7276 6564 
 13917      5F30 7831 
 13917      4100 
 13918               	.LASF182:
 13919 1056 7265 7365 		.string	"reserved_0x1B"
 13919      7276 6564 
 13919      5F30 7831 
 13919      4200 
 13920               	.LASF183:
 13921 1064 7265 7365 		.string	"reserved_0x1C"
 13921      7276 6564 
 13921      5F30 7831 
 13921      4300 
 13922               	.LASF129:
 13923 1072 504F 5254 		.string	"PORT_OPC_WIREDANDPULL_gc"
 13923      5F4F 5043 
 13923      5F57 4952 
 13923      4544 414E 
 13923      4450 554C 
 13924               	.LASF186:
 13925 108b 7265 7365 		.string	"reserved_0x1F"
 13925      7276 6564 
 13925      5F30 7831 
 13925      4600 
 13926               	.LASF69:
 13927 1099 4F53 435F 		.string	"OSC_FRQRANGE_04TO2_gc"
 13927      4652 5152 
 13927      414E 4745 
 13927      5F30 3454 
 13927      4F32 5F67 
 13928               	.LASF305:
 13929 10af 7374 6570 		.string	"steps_to_move"
 13929      735F 746F 
 13929      5F6D 6F76 
 13929      6500 
 13930               	.LASF281:
 13931 10bd 5053 636F 		.string	"PSconfig"
 13931      6E66 6967 
 13931      00
 13932               	.LASF262:
 13933 10c6 7374 7265 		.string	"stream"
 13933      616D 00
 13934               	.LASF23:
 13935 10cd 4354 524C 		.string	"CTRL"
 13935      00
 13936               	.LASF266:
 13937 10d2 746D 7041 		.string	"tmpAddr"
 13937      6464 7200 
 13938               		.ident	"GCC: (GNU) 5.4.0"
GAS LISTING /tmp/ccjciOO6.s 			page 287


 13939               	.global __do_copy_data
 13940               	.global __do_clear_bss
GAS LISTING /tmp/ccjciOO6.s 			page 288


DEFINED SYMBOLS
                            *ABS*:0000000000000000 main.c
     /tmp/ccjciOO6.s:2      *ABS*:000000000000003e __SP_H__
     /tmp/ccjciOO6.s:3      *ABS*:000000000000003d __SP_L__
     /tmp/ccjciOO6.s:4      *ABS*:000000000000003f __SREG__
     /tmp/ccjciOO6.s:5      *ABS*:0000000000000034 __CCP__
     /tmp/ccjciOO6.s:6      *ABS*:0000000000000000 __tmp_reg__
     /tmp/ccjciOO6.s:7      *ABS*:0000000000000001 __zero_reg__
     /tmp/ccjciOO6.s:12     .text:0000000000000000 uart_putchar
     /tmp/ccjciOO6.s:54     .text:0000000000000022 CCPWrite
     /tmp/ccjciOO6.s:120    .text:000000000000004c CLKSYS_XOSC_Config
     /tmp/ccjciOO6.s:148    .text:0000000000000060 CLKSYS_PLL_Config
     /tmp/ccjciOO6.s:169    .text:000000000000006a CLKSYS_Disable
     /tmp/ccjciOO6.s:198    .text:000000000000007e CLKSYS_Prescalers_Config
     /tmp/ccjciOO6.s:220    .text:0000000000000088 CLKSYS_Main_ClockSource_Select
     /tmp/ccjciOO6.s:276    .text:00000000000000b2 CLKSYS_RTC_ClockSource_Enable
     /tmp/ccjciOO6.s:300    .text:00000000000000c2 CLKSYS_AutoCalibration_Enable
     /tmp/ccjciOO6.s:348    .text:00000000000000fa CLKSYS_XOSC_FailureDetection_Enable
     /tmp/ccjciOO6.s:367    .text:0000000000000104 CLKSYS_Configuration_Lock
     /tmp/ccjciOO6.s:386    .text:000000000000010e __vector_14
     /tmp/ccjciOO6.s:4379   .bss:0000000000000004 elapsedMillis
     /tmp/ccjciOO6.s:449    .text:0000000000000158 uart_getchar
     /tmp/ccjciOO6.s:475    .text:000000000000016e delay_ms
     /tmp/ccjciOO6.s:514    .text:0000000000000184 compareArray
     /tmp/ccjciOO6.s:604    .text:0000000000000202 signum
     /tmp/ccjciOO6.s:639    .text:000000000000021e Config32MHzClock
     /tmp/ccjciOO6.s:670    .text:000000000000023c millis
     /tmp/ccjciOO6.s:690    .text:000000000000024e blink
     /tmp/ccjciOO6.s:751    .text:000000000000027e blinkN
     /tmp/ccjciOO6.s:811    .text:00000000000002a8 setPin
     /tmp/ccjciOO6.s:1068   .text:000000000000038a clearPin
     /tmp/ccjciOO6.s:1325   .text:000000000000046c setSpeed
     /tmp/ccjciOO6.s:1396   .text:00000000000004b8 stepMotor
     /tmp/ccjciOO6.s:1663   .text:00000000000005ee step
     /tmp/ccjciOO6.s:4384   .bss:0000000000000008 pose
     /tmp/ccjciOO6.s:4202   .data:0000000000000000 Gripper
     /tmp/ccjciOO6.s:1975   .text:00000000000007d2 stepOne
     /tmp/ccjciOO6.s:2202   .text:000000000000093e changeGoal
     /tmp/ccjciOO6.s:4389   .bss:0000000000000014 goal
     /tmp/ccjciOO6.s:2265   .text:000000000000096c moveToGoal
     /tmp/ccjciOO6.s:4373   .data:00000000000000e6 maxSpeed
     /tmp/ccjciOO6.s:4327   .data:00000000000000b4 Base
     /tmp/ccjciOO6.s:4302   .data:0000000000000090 Shoulder
     /tmp/ccjciOO6.s:4277   .data:000000000000006c Elbow
     /tmp/ccjciOO6.s:4227   .data:0000000000000024 Right_Wrist
     /tmp/ccjciOO6.s:4252   .data:0000000000000048 Left_Wrist
     /tmp/ccjciOO6.s:3320   .text:00000000000010e6 updateSign
     /tmp/ccjciOO6.s:4394   .bss:0000000000000020 debugFlag
     /tmp/ccjciOO6.s:3438   .text:000000000000118c mainLoop
     /tmp/ccjciOO6.s:4400   .data:00000000000000e8 state
     /tmp/ccjciOO6.s:4367   .bss:0000000000000002 gripperState
     /tmp/ccjciOO6.s:4362   .bss:0000000000000000 gripperStatePrev
     /tmp/ccjciOO6.s:3833   .text:0000000000001482 update
     /tmp/ccjciOO6.s:4046   .text:0000000000001598 init
     /tmp/ccjciOO6.s:4158   .text.startup:0000000000000000 main
     /tmp/ccjciOO6.s:4351   .data:00000000000000d8 mystdout

GAS LISTING /tmp/ccjciOO6.s 			page 289


UNDEFINED SYMBOLS
__tablejump2__
__divmodsi4
__divmodhi4
__floatsisf
__divsf3
__mulsf3
__fixsfsi
puts
__iob
__do_copy_data
__do_clear_bss
