GAS LISTING /tmp/cchdpaIW.s 			page 1


   1               		.file	"main.c"
   2               	__SREG__ = 0x3f
   3               	__SP_H__ = 0x3e
   4               	__SP_L__ = 0x3d
   5               	__CCP__ = 0x34
   6               	__tmp_reg__ = 0
   7               	__zero_reg__ = 1
   8               		.section	.debug_abbrev,"",@progbits
   9               	.Ldebug_abbrev0:
  10               		.section	.debug_info,"",@progbits
  11               	.Ldebug_info0:
  12               		.section	.debug_line,"",@progbits
  13               	.Ldebug_line0:
  14               		.text
  15               	.Ltext0:
  16               		.type	uart_putchar, @function
  17               	uart_putchar:
  18               	.LFB18:
  19               	.LM1:
  20               	.LVL0:
  21 0000 1F93      		push r17
  22               	/* prologue: function */
  23               	/* frame size = 0 */
  24               	/* stack size = 1 */
  25               	.L__stack_usage = 1
  26 0002 182F      		mov r17,r24
  27               	.LM2:
  28 0004 8A30      		cpi r24,lo8(10)
  29 0006 01F4      		brne .L4
  30               	.LVL1:
  31               	.LM3:
  32 0008 8DE0      		ldi r24,lo8(13)
  33 000a 0E94 0000 		call uart_putchar
  34               	.LVL2:
  35               	.L4:
  36               	.LM4:
  37 000e 8091 B109 		lds r24,2481
  38 0012 85FF      		sbrs r24,5
  39 0014 00C0      		rjmp .L4
  40               	.LM5:
  41 0016 1093 B009 		sts 2480,r17
  42               	.LM6:
  43 001a 80E0      		ldi r24,lo8(0)
  44 001c 90E0      		ldi r25,hi8(0)
  45               	/* epilogue start */
  46 001e 1F91      		pop r17
  47               	.LVL3:
  48 0020 0895      		ret
  49               	.LFE18:
  50               		.size	uart_putchar, .-uart_putchar
  51               	.global	CCPWrite
  52               		.type	CCPWrite, @function
  53               	CCPWrite:
  54               	.LFB7:
  55               	.LM7:
  56               	.LVL4:
  57 0022 0F93      		push r16
GAS LISTING /tmp/cchdpaIW.s 			page 2


  58 0024 DF93      		push r29
  59 0026 CF93      		push r28
  60 0028 0F92      		push __tmp_reg__
  61 002a CDB7      		in r28,__SP_L__
  62 002c DEB7      		in r29,__SP_H__
  63               	/* prologue: function */
  64               	/* frame size = 1 */
  65               	/* stack size = 4 */
  66               	.L__stack_usage = 4
  67               	.LM8:
  68 002e 2FB7      		in r18,__SREG__
  69               	.LVL5:
  70 0030 2983      		std Y+1,r18
  71               	/* #APP */
  72               	 ;  108 "requiredFiles/clksys_driver.c" 1
  73 0032 F894      		cli
  74               	 ;  0 "" 2
  75               	.LVL6:
  76               	.LM9:
  77               	/* #NOAPP */
  78 0034 1BBE      		out 59-0,__zero_reg__
  79               	.LM10:
  80               	/* #APP */
  81               	 ;  113 "requiredFiles/clksys_driver.c" 1
  82 0036 FC01      		movw r30,  r24
  83 0038 08ED      		ldi  r16,  216
  84 003a 04BF      		out   52, r16
  85 003c 6083      		st     Z,  r22
  86               		
  87               	 ;  0 "" 2
  88               	.LM11:
  89               	/* #NOAPP */
  90 003e 8981      		ldd r24,Y+1
  91               	.LVL7:
  92 0040 8FBF      		out __SREG__,r24
  93               	/* epilogue start */
  94               	.LM12:
  95 0042 0F90      		pop __tmp_reg__
  96 0044 CF91      		pop r28
  97 0046 DF91      		pop r29
  98 0048 0F91      		pop r16
  99 004a 0895      		ret
 100               	.LFE7:
 101               		.size	CCPWrite, .-CCPWrite
 102               	.global	CLKSYS_XOSC_Config
 103               		.type	CLKSYS_XOSC_Config, @function
 104               	CLKSYS_XOSC_Config:
 105               	.LFB8:
 106               	.LM13:
 107               	.LVL8:
 108               	/* prologue: function */
 109               	/* frame size = 0 */
 110               	/* stack size = 0 */
 111               	.L__stack_usage = 0
 112               	.LM14:
 113 004c 6623      		tst r22
 114 004e 01F0      		breq .L9
GAS LISTING /tmp/cchdpaIW.s 			page 3


 115 0050 90E2      		ldi r25,lo8(32)
 116 0052 00C0      		rjmp .L8
 117               	.L9:
 118 0054 90E0      		ldi r25,lo8(0)
 119               	.L8:
 120               	.LM15:
 121 0056 842B      		or r24,r20
 122               	.LVL9:
 123 0058 892B      		or r24,r25
 124 005a E0E5      		ldi r30,lo8(80)
 125 005c F0E0      		ldi r31,hi8(80)
 126 005e 8283      		std Z+2,r24
 127               	/* epilogue start */
 128               	.LM16:
 129 0060 0895      		ret
 130               	.LFE8:
 131               		.size	CLKSYS_XOSC_Config, .-CLKSYS_XOSC_Config
 132               	.global	CLKSYS_PLL_Config
 133               		.type	CLKSYS_PLL_Config, @function
 134               	CLKSYS_PLL_Config:
 135               	.LFB9:
 136               	.LM17:
 137               	.LVL10:
 138               	/* prologue: function */
 139               	/* frame size = 0 */
 140               	/* stack size = 0 */
 141               	.L__stack_usage = 0
 142               	.LM18:
 143 0062 6F71      		andi r22,lo8(31)
 144               	.LVL11:
 145               	.LM19:
 146 0064 682B      		or r22,r24
 147               	.LVL12:
 148 0066 E0E5      		ldi r30,lo8(80)
 149 0068 F0E0      		ldi r31,hi8(80)
 150 006a 6583      		std Z+5,r22
 151               	/* epilogue start */
 152               	.LM20:
 153 006c 0895      		ret
 154               	.LFE9:
 155               		.size	CLKSYS_PLL_Config, .-CLKSYS_PLL_Config
 156               	.global	CLKSYS_Disable
 157               		.type	CLKSYS_Disable, @function
 158               	CLKSYS_Disable:
 159               	.LFB10:
 160               	.LM21:
 161               	.LVL13:
 162               	/* prologue: function */
 163               	/* frame size = 0 */
 164               	/* stack size = 0 */
 165               	.L__stack_usage = 0
 166               	.LM22:
 167 006e E0E5      		ldi r30,lo8(80)
 168 0070 F0E0      		ldi r31,hi8(80)
 169 0072 2081      		ld r18,Z
 170 0074 982F      		mov r25,r24
 171 0076 9095      		com r25
GAS LISTING /tmp/cchdpaIW.s 			page 4


 172 0078 9223      		and r25,r18
 173 007a 9083      		st Z,r25
 174               	.LM23:
 175 007c 9081      		ld r25,Z
 176               	.LVL14:
 177               	.LM24:
 178 007e 8923      		and r24,r25
 179               	.LVL15:
 180               	/* epilogue start */
 181 0080 0895      		ret
 182               	.LFE10:
 183               		.size	CLKSYS_Disable, .-CLKSYS_Disable
 184               	.global	CLKSYS_Prescalers_Config
 185               		.type	CLKSYS_Prescalers_Config, @function
 186               	CLKSYS_Prescalers_Config:
 187               	.LFB11:
 188               	.LM25:
 189               	.LVL16:
 190               	/* prologue: function */
 191               	/* frame size = 0 */
 192               	/* stack size = 0 */
 193               	.L__stack_usage = 0
 194               	.LM26:
 195 0082 682B      		or r22,r24
 196               	.LVL17:
 197               	.LM27:
 198 0084 81E4      		ldi r24,lo8(65)
 199 0086 90E0      		ldi r25,hi8(65)
 200               	.LVL18:
 201 0088 0E94 0000 		call CCPWrite
 202               	.LVL19:
 203               	/* epilogue start */
 204               	.LM28:
 205 008c 0895      		ret
 206               	.LFE11:
 207               		.size	CLKSYS_Prescalers_Config, .-CLKSYS_Prescalers_Config
 208               	.global	CLKSYS_Main_ClockSource_Select
 209               		.type	CLKSYS_Main_ClockSource_Select, @function
 210               	CLKSYS_Main_ClockSource_Select:
 211               	.LFB12:
 212               	.LM29:
 213               	.LVL20:
 214 008e 1F93      		push r17
 215 0090 CF93      		push r28
 216 0092 DF93      		push r29
 217               	/* prologue: function */
 218               	/* frame size = 0 */
 219               	/* stack size = 3 */
 220               	.L__stack_usage = 3
 221 0094 182F      		mov r17,r24
 222               	.LM30:
 223 0096 C0E4      		ldi r28,lo8(64)
 224 0098 D0E0      		ldi r29,hi8(64)
 225 009a 6881      		ld r22,Y
 226               	.LVL21:
 227 009c 687F      		andi r22,lo8(-8)
 228               	.LVL22:
GAS LISTING /tmp/cchdpaIW.s 			page 5


 229 009e 682B      		or r22,r24
 230               	.LVL23:
 231               	.LM31:
 232 00a0 80E4      		ldi r24,lo8(64)
 233 00a2 90E0      		ldi r25,hi8(64)
 234               	.LVL24:
 235 00a4 0E94 0000 		call CCPWrite
 236               	.LVL25:
 237               	.LM32:
 238 00a8 8881      		ld r24,Y
 239               	.LVL26:
 240               	.LM33:
 241 00aa 8123      		and r24,r17
 242               	.LVL27:
 243               	/* epilogue start */
 244 00ac DF91      		pop r29
 245 00ae CF91      		pop r28
 246 00b0 1F91      		pop r17
 247               	.LVL28:
 248 00b2 0895      		ret
 249               	.LFE12:
 250               		.size	CLKSYS_Main_ClockSource_Select, .-CLKSYS_Main_ClockSource_Select
 251               	.global	CLKSYS_RTC_ClockSource_Enable
 252               		.type	CLKSYS_RTC_ClockSource_Enable, @function
 253               	CLKSYS_RTC_ClockSource_Enable:
 254               	.LFB13:
 255               	.LM34:
 256               	.LVL29:
 257               	/* prologue: function */
 258               	/* frame size = 0 */
 259               	/* stack size = 0 */
 260               	.L__stack_usage = 0
 261               	.LM35:
 262 00b4 E0E4      		ldi r30,lo8(64)
 263 00b6 F0E0      		ldi r31,hi8(64)
 264 00b8 9381      		ldd r25,Z+3
 265 00ba 917F      		andi r25,lo8(-15)
 266 00bc 9160      		ori r25,lo8(1)
 267 00be 982B      		or r25,r24
 268 00c0 9383      		std Z+3,r25
 269               	/* epilogue start */
 270               	.LM36:
 271 00c2 0895      		ret
 272               	.LFE13:
 273               		.size	CLKSYS_RTC_ClockSource_Enable, .-CLKSYS_RTC_ClockSource_Enable
 274               	.global	CLKSYS_AutoCalibration_Enable
 275               		.type	CLKSYS_AutoCalibration_Enable, @function
 276               	CLKSYS_AutoCalibration_Enable:
 277               	.LFB14:
 278               	.LM37:
 279               	.LVL30:
 280               	/* prologue: function */
 281               	/* frame size = 0 */
 282               	/* stack size = 0 */
 283               	.L__stack_usage = 0
 284               	.LM38:
 285 00c4 3091 5600 		lds r19,86
GAS LISTING /tmp/cchdpaIW.s 			page 6


 286 00c8 282F      		mov r18,r24
 287 00ca 982F      		mov r25,r24
 288 00cc 9095      		com r25
 289 00ce 9323      		and r25,r19
 290 00d0 6623      		tst r22
 291 00d2 01F4      		brne .L16
 292               	.LVL31:
 293 00d4 20E0      		ldi r18,lo8(0)
 294               	.LVL32:
 295               	.L16:
 296               	.LM39:
 297 00d6 922B      		or r25,r18
 298 00d8 E0E5      		ldi r30,lo8(80)
 299 00da F0E0      		ldi r31,hi8(80)
 300 00dc 9683      		std Z+6,r25
 301               	.LM40:
 302 00de 8130      		cpi r24,lo8(1)
 303 00e0 01F4      		brne .L17
 304               	.LM41:
 305 00e2 8091 6800 		lds r24,104
 306               	.LVL33:
 307 00e6 8160      		ori r24,lo8(1)
 308 00e8 8093 6800 		sts 104,r24
 309 00ec 0895      		ret
 310               	.LVL34:
 311               	.L17:
 312               	.LM42:
 313 00ee 8230      		cpi r24,lo8(2)
 314 00f0 01F4      		brne .L15
 315               	.LM43:
 316 00f2 8091 6000 		lds r24,96
 317               	.LVL35:
 318 00f6 8160      		ori r24,lo8(1)
 319 00f8 8093 6000 		sts 96,r24
 320               	.L15:
 321 00fc 0895      		ret
 322               	.LFE14:
 323               		.size	CLKSYS_AutoCalibration_Enable, .-CLKSYS_AutoCalibration_Enable
 324               	.global	CLKSYS_XOSC_FailureDetection_Enable
 325               		.type	CLKSYS_XOSC_FailureDetection_Enable, @function
 326               	CLKSYS_XOSC_FailureDetection_Enable:
 327               	.LFB15:
 328               	.LM44:
 329               	/* prologue: function */
 330               	/* frame size = 0 */
 331               	/* stack size = 0 */
 332               	.L__stack_usage = 0
 333               	.LM45:
 334 00fe 83E5      		ldi r24,lo8(83)
 335 0100 90E0      		ldi r25,hi8(83)
 336 0102 63E0      		ldi r22,lo8(3)
 337 0104 0E94 0000 		call CCPWrite
 338               	/* epilogue start */
 339               	.LM46:
 340 0108 0895      		ret
 341               	.LFE15:
 342               		.size	CLKSYS_XOSC_FailureDetection_Enable, .-CLKSYS_XOSC_FailureDetection_Enable
GAS LISTING /tmp/cchdpaIW.s 			page 7


 343               	.global	CLKSYS_Configuration_Lock
 344               		.type	CLKSYS_Configuration_Lock, @function
 345               	CLKSYS_Configuration_Lock:
 346               	.LFB16:
 347               	.LM47:
 348               	/* prologue: function */
 349               	/* frame size = 0 */
 350               	/* stack size = 0 */
 351               	.L__stack_usage = 0
 352               	.LM48:
 353 010a 82E4      		ldi r24,lo8(66)
 354 010c 90E0      		ldi r25,hi8(66)
 355 010e 61E0      		ldi r22,lo8(1)
 356 0110 0E94 0000 		call CCPWrite
 357               	/* epilogue start */
 358               	.LM49:
 359 0114 0895      		ret
 360               	.LFE16:
 361               		.size	CLKSYS_Configuration_Lock, .-CLKSYS_Configuration_Lock
 362               	.global	__vector_14
 363               		.type	__vector_14, @function
 364               	__vector_14:
 365               	.LFB17:
 366               	.LM50:
 367 0116 1F92      		push __zero_reg__
 368 0118 0F92      		push r0
 369 011a 0FB6      		in r0,__SREG__
 370 011c 0F92      		push r0
 371 011e 1124      		clr __zero_reg__
 372 0120 8F93      		push r24
 373 0122 9F93      		push r25
 374 0124 AF93      		push r26
 375 0126 BF93      		push r27
 376               	/* prologue: Signal */
 377               	/* frame size = 0 */
 378               	/* stack size = 7 */
 379               	.L__stack_usage = 7
 380               	.LM51:
 381 0128 8091 0000 		lds r24,elapsedMillis
 382 012c 9091 0000 		lds r25,elapsedMillis+1
 383 0130 A091 0000 		lds r26,elapsedMillis+2
 384 0134 B091 0000 		lds r27,elapsedMillis+3
 385 0138 0196      		adiw r24,1
 386 013a A11D      		adc r26,__zero_reg__
 387 013c B11D      		adc r27,__zero_reg__
 388 013e 8093 0000 		sts elapsedMillis,r24
 389 0142 9093 0000 		sts elapsedMillis+1,r25
 390 0146 A093 0000 		sts elapsedMillis+2,r26
 391 014a B093 0000 		sts elapsedMillis+3,r27
 392               	/* epilogue start */
 393               	.LM52:
 394 014e BF91      		pop r27
 395 0150 AF91      		pop r26
 396 0152 9F91      		pop r25
 397 0154 8F91      		pop r24
 398 0156 0F90      		pop r0
 399 0158 0FBE      		out __SREG__,r0
GAS LISTING /tmp/cchdpaIW.s 			page 8


 400 015a 0F90      		pop r0
 401 015c 1F90      		pop __zero_reg__
 402 015e 1895      		reti
 403               	.LFE17:
 404               		.size	__vector_14, .-__vector_14
 405               	.global	uart_getchar
 406               		.type	uart_getchar, @function
 407               	uart_getchar:
 408               	.LFB19:
 409               	.LM53:
 410               	/* prologue: function */
 411               	/* frame size = 0 */
 412               	/* stack size = 0 */
 413               	.L__stack_usage = 0
 414               	.L23:
 415               	.LM54:
 416 0160 8091 B109 		lds r24,2481
 417 0164 87FF      		sbrs r24,7
 418 0166 00C0      		rjmp .L23
 419               	.LM55:
 420 0168 81E0      		ldi r24,lo8(1)
 421 016a E0E8      		ldi r30,lo8(1664)
 422 016c F6E0      		ldi r31,hi8(1664)
 423 016e 8683      		std Z+6,r24
 424               	.LM56:
 425 0170 8091 B009 		lds r24,2480
 426               	.LM57:
 427 0174 90E0      		ldi r25,lo8(0)
 428               	/* epilogue start */
 429 0176 0895      		ret
 430               	.LFE19:
 431               		.size	uart_getchar, .-uart_getchar
 432               		.data
 433               	.LC0:
 434 0000 6769 6D6D 		.string	"gimme"
 434      6500 
 435               		.text
 436               	.global	update
 437               		.type	update, @function
 438               	update:
 439               	.LFB37:
 440               	.LM58:
 441 0178 CF92      		push r12
 442 017a DF92      		push r13
 443 017c EF92      		push r14
 444 017e FF92      		push r15
 445 0180 0F93      		push r16
 446 0182 1F93      		push r17
 447 0184 DF93      		push r29
 448 0186 CF93      		push r28
 449 0188 CDB7      		in r28,__SP_L__
 450 018a DEB7      		in r29,__SP_H__
 451 018c 2E97      		sbiw r28,14
 452 018e CDBF      		out __SP_L__,r28
 453 0190 DEBF      		out __SP_H__,r29
 454               	/* prologue: function */
 455               	/* frame size = 14 */
GAS LISTING /tmp/cchdpaIW.s 			page 9


 456               	/* stack size = 22 */
 457               	.L__stack_usage = 22
 458               	.LM59:
 459 0192 80E0      		ldi r24,lo8(.LC0)
 460 0194 90E0      		ldi r25,hi8(.LC0)
 461 0196 0E94 0000 		call puts
 462               	.LM60:
 463 019a FE01      		movw r30,r28
 464 019c 3196      		adiw r30,1
 465 019e 8EE0      		ldi r24,lo8(14)
 466 01a0 DF01      		movw r26,r30
 467 01a2 1D92      		st X+,__zero_reg__
 468 01a4 8A95      	        dec r24
 469 01a6 01F4      		brne .-6
 470               	.LVL36:
 471 01a8 8F01      		movw r16,r30
 472               	.LM61:
 473 01aa EFE0      		ldi r30,lo8(15)
 474 01ac CE2E      		mov r12,r30
 475 01ae D12C      		mov r13,__zero_reg__
 476 01b0 CC0E      		add r12,r28
 477 01b2 DD1E      		adc r13,r29
 478 01b4 00C0      		rjmp .L26
 479               	.LVL37:
 480               	.L31:
 481               	.LM62:
 482 01b6 EE24      		clr r14
 483 01b8 EA94      		dec r14
 484 01ba FE2C      		mov r15,r14
 485               	.LVL38:
 486               	.L34:
 487               	.LM63:
 488 01bc 0E94 0000 		call uart_getchar
 489               	.LVL39:
 490               	.LM64:
 491 01c0 8C32      		cpi r24,44
 492 01c2 9105      		cpc r25,__zero_reg__
 493 01c4 01F0      		breq .L27
 494               	.LM65:
 495 01c6 8A30      		cpi r24,10
 496 01c8 9105      		cpc r25,__zero_reg__
 497 01ca 01F0      		breq .L27
 498               	.LM66:
 499 01cc 8D32      		cpi r24,45
 500 01ce 9105      		cpc r25,__zero_reg__
 501 01d0 01F0      		breq .L31
 502               	.LM67:
 503 01d2 8033      		cpi r24,48
 504 01d4 9105      		cpc r25,__zero_reg__
 505 01d6 04F0      		brlt .L34
 506               	.LM68:
 507 01d8 F801      		movw r30,r16
 508 01da 4081      		ld r20,Z
 509 01dc 5181      		ldd r21,Z+1
 510 01de 9A01      		movw r18,r20
 511 01e0 220F      		lsl r18
 512 01e2 331F      		rol r19
GAS LISTING /tmp/cchdpaIW.s 			page 10


 513 01e4 63E0      		ldi r22,3
 514 01e6 440F      	1:	lsl r20
 515 01e8 551F      		rol r21
 516 01ea 6A95      		dec r22
 517 01ec 01F4      		brne 1b
 518 01ee 240F      		add r18,r20
 519 01f0 351F      		adc r19,r21
 520 01f2 2053      		subi r18,lo8(-(-48))
 521 01f4 3040      		sbci r19,hi8(-(-48))
 522 01f6 280F      		add r18,r24
 523 01f8 391F      		adc r19,r25
 524 01fa 2083      		st Z,r18
 525 01fc 3183      		std Z+1,r19
 526 01fe 00C0      		rjmp .L34
 527               	.L27:
 528               	.LM69:
 529 0200 D801      		movw r26,r16
 530 0202 2D91      		ld r18,X+
 531 0204 3C91      		ld r19,X
 532 0206 1197      		sbiw r26,1
 533 0208 2E9D      		mul r18,r14
 534 020a C001      		movw r24,r0
 535 020c 2F9D      		mul r18,r15
 536 020e 900D      		add r25,r0
 537 0210 3E9D      		mul r19,r14
 538 0212 900D      		add r25,r0
 539 0214 1124      		clr r1
 540               	.LVL40:
 541 0216 F801      		movw r30,r16
 542 0218 8193      		st Z+,r24
 543 021a 9193      		st Z+,r25
 544 021c 8F01      		movw r16,r30
 545               	.LM70:
 546 021e EC15      		cp r30,r12
 547 0220 FD05      		cpc r31,r13
 548 0222 01F0      		breq .L29
 549               	.LVL41:
 550               	.L26:
 551               	.LM71:
 552 0224 81E0      		ldi r24,lo8(1)
 553 0226 E82E      		mov r14,r24
 554 0228 F12C      		mov r15,__zero_reg__
 555 022a 00C0      		rjmp .L34
 556               	.LVL42:
 557               	.L29:
 558               	.LM72:
 559 022c EB81      		ldd r30,Y+3
 560 022e FC81      		ldd r31,Y+4
 561 0230 6D81      		ldd r22,Y+5
 562 0232 7E81      		ldd r23,Y+6
 563 0234 4F81      		ldd r20,Y+7
 564 0236 5885      		ldd r21,Y+8
 565 0238 2985      		ldd r18,Y+9
 566 023a 3A85      		ldd r19,Y+10
 567 023c 8B85      		ldd r24,Y+11
 568 023e 9C85      		ldd r25,Y+12
 569               	.LVL43:
GAS LISTING /tmp/cchdpaIW.s 			page 11


 570               	.LBB78:
 571               	.LBB79:
 572               	.LM73:
 573 0240 A981      		ldd r26,Y+1
 574 0242 BA81      		ldd r27,Y+2
 575 0244 A093 0000 		sts goal,r26
 576 0248 B093 0000 		sts goal+1,r27
 577               	.LM74:
 578 024c E093 0000 		sts goal+2,r30
 579 0250 F093 0000 		sts goal+2+1,r31
 580               	.LM75:
 581 0254 6093 0000 		sts goal+4,r22
 582 0258 7093 0000 		sts goal+4+1,r23
 583               	.LM76:
 584 025c 4093 0000 		sts goal+6,r20
 585 0260 5093 0000 		sts goal+6+1,r21
 586               	.LM77:
 587 0264 2093 0000 		sts goal+8,r18
 588 0268 3093 0000 		sts goal+8+1,r19
 589               	.LM78:
 590 026c 8093 0000 		sts goal+10,r24
 591 0270 9093 0000 		sts goal+10+1,r25
 592               	/* epilogue start */
 593               	.LBE79:
 594               	.LBE78:
 595               	.LM79:
 596 0274 2E96      		adiw r28,14
 597               	.LVL44:
 598 0276 CDBF      		out __SP_L__,r28
 599 0278 DEBF      		out __SP_H__,r29
 600               	.LVL45:
 601 027a CF91      		pop r28
 602 027c DF91      		pop r29
 603               	.LVL46:
 604 027e 1F91      		pop r17
 605 0280 0F91      		pop r16
 606 0282 FF90      		pop r15
 607 0284 EF90      		pop r14
 608               	.LVL47:
 609 0286 DF90      		pop r13
 610 0288 CF90      		pop r12
 611 028a 0895      		ret
 612               	.LFE37:
 613               		.size	update, .-update
 614               	.global	delay_ms
 615               		.type	delay_ms, @function
 616               	delay_ms:
 617               	.LFB21:
 618               	.LM80:
 619               	.LVL48:
 620               	/* prologue: function */
 621               	/* frame size = 0 */
 622               	/* stack size = 0 */
 623               	.L__stack_usage = 0
 624               	.LM81:
 625 028c 282F      		mov r18,r24
 626 028e 392F      		mov r19,r25
GAS LISTING /tmp/cchdpaIW.s 			page 12


 627 0290 C901      		movw r24,r18
 628               	.LVL49:
 629               	.LM82:
 630 0292 00C0      		rjmp .L36
 631               	.L37:
 632               	.LVL50:
 633               	.LBB80:
 634               	.LBB81:
 635               	.LM83:
 636 0294 EFE3      		 ldi r30,lo8(7999)
 637 0296 FFE1      	    ldi r31,hi8(7999)
 638 0298 3197      	    1:sbiw r30,1
 639 029a 01F4      	    brne 1b
 640 029c 00C0      		rjmp .
 641 029e 0000      		nop
 642 02a0 0197      		sbiw r24,1
 643               	.LVL51:
 644               	.L36:
 645               	.LBE81:
 646               	.LBE80:
 647               	.LM84:
 648 02a2 0097      		sbiw r24,0
 649 02a4 01F4      		brne .L37
 650               	/* epilogue start */
 651               	.LM85:
 652 02a6 0895      		ret
 653               	.LFE21:
 654               		.size	delay_ms, .-delay_ms
 655               	.global	compareArray
 656               		.type	compareArray, @function
 657               	compareArray:
 658               	.LFB22:
 659               	.LM86:
 660               	.LVL52:
 661               	/* prologue: function */
 662               	/* frame size = 0 */
 663               	/* stack size = 0 */
 664               	.L__stack_usage = 0
 665 02a8 FC01      		movw r30,r24
 666 02aa DB01      		movw r26,r22
 667               	.LM87:
 668 02ac 2081      		ld r18,Z
 669 02ae 3181      		ldd r19,Z+1
 670 02b0 8D91      		ld r24,X+
 671 02b2 9C91      		ld r25,X
 672 02b4 1197      		sbiw r26,1
 673               	.LVL53:
 674 02b6 2817      		cp r18,r24
 675 02b8 3907      		cpc r19,r25
 676 02ba 01F4      		brne .L45
 677               	.LM88:
 678 02bc 2281      		ldd r18,Z+2
 679 02be 3381      		ldd r19,Z+3
 680 02c0 1296      		adiw r26,2
 681 02c2 8D91      		ld r24,X+
 682 02c4 9C91      		ld r25,X
 683 02c6 1397      		sbiw r26,2+1
GAS LISTING /tmp/cchdpaIW.s 			page 13


 684 02c8 2817      		cp r18,r24
 685 02ca 3907      		cpc r19,r25
 686 02cc 01F4      		brne .L45
 687               	.LM89:
 688 02ce 2481      		ldd r18,Z+4
 689 02d0 3581      		ldd r19,Z+5
 690 02d2 1496      		adiw r26,4
 691 02d4 8D91      		ld r24,X+
 692 02d6 9C91      		ld r25,X
 693 02d8 1597      		sbiw r26,4+1
 694 02da 2817      		cp r18,r24
 695 02dc 3907      		cpc r19,r25
 696 02de 01F4      		brne .L45
 697               	.LM90:
 698 02e0 2681      		ldd r18,Z+6
 699 02e2 3781      		ldd r19,Z+7
 700 02e4 1696      		adiw r26,6
 701 02e6 8D91      		ld r24,X+
 702 02e8 9C91      		ld r25,X
 703 02ea 1797      		sbiw r26,6+1
 704 02ec 2817      		cp r18,r24
 705 02ee 3907      		cpc r19,r25
 706 02f0 01F4      		brne .L45
 707               	.LM91:
 708 02f2 2085      		ldd r18,Z+8
 709 02f4 3185      		ldd r19,Z+9
 710 02f6 1896      		adiw r26,8
 711 02f8 8D91      		ld r24,X+
 712 02fa 9C91      		ld r25,X
 713 02fc 1997      		sbiw r26,8+1
 714 02fe 2817      		cp r18,r24
 715 0300 3907      		cpc r19,r25
 716 0302 01F4      		brne .L45
 717               	.LM92:
 718 0304 21E0      		ldi r18,lo8(1)
 719 0306 30E0      		ldi r19,hi8(1)
 720 0308 4285      		ldd r20,Z+10
 721 030a 5385      		ldd r21,Z+11
 722 030c 1A96      		adiw r26,10
 723 030e 8D91      		ld r24,X+
 724 0310 9C91      		ld r25,X
 725 0312 1B97      		sbiw r26,10+1
 726 0314 4817      		cp r20,r24
 727 0316 5907      		cpc r21,r25
 728 0318 01F0      		breq .L39
 729               	.L45:
 730               	.LM93:
 731 031a 20E0      		ldi r18,lo8(0)
 732 031c 30E0      		ldi r19,hi8(0)
 733               	.L39:
 734               	.LM94:
 735 031e C901      		movw r24,r18
 736               	/* epilogue start */
 737 0320 0895      		ret
 738               	.LFE22:
 739               		.size	compareArray, .-compareArray
 740               	.global	signum
GAS LISTING /tmp/cchdpaIW.s 			page 14


 741               		.type	signum, @function
 742               	signum:
 743               	.LFB23:
 744               	.LM95:
 745               	.LVL54:
 746               	/* prologue: function */
 747               	/* frame size = 0 */
 748               	/* stack size = 0 */
 749               	.L__stack_usage = 0
 750               	.LM96:
 751 0322 97FD      		sbrc r25,7
 752 0324 00C0      		rjmp .L49
 753               	.LM97:
 754 0326 21E0      		ldi r18,lo8(1)
 755 0328 30E0      		ldi r19,hi8(1)
 756 032a 1816      		cp __zero_reg__,r24
 757 032c 1906      		cpc __zero_reg__,r25
 758 032e 04F0      		brlt .L47
 759 0330 20E0      		ldi r18,lo8(0)
 760 0332 30E0      		ldi r19,hi8(0)
 761 0334 00C0      		rjmp .L47
 762               	.L49:
 763               	.LM98:
 764 0336 2FEF      		ldi r18,lo8(-1)
 765 0338 3FEF      		ldi r19,hi8(-1)
 766               	.L47:
 767               	.LM99:
 768 033a C901      		movw r24,r18
 769               	.LVL55:
 770               	/* epilogue start */
 771 033c 0895      		ret
 772               	.LFE23:
 773               		.size	signum, .-signum
 774               	.global	Config32MHzClock
 775               		.type	Config32MHzClock, @function
 776               	Config32MHzClock:
 777               	.LFB24:
 778               	.LM100:
 779               	/* prologue: function */
 780               	/* frame size = 0 */
 781               	/* stack size = 0 */
 782               	.L__stack_usage = 0
 783               	.LM101:
 784 033e 88ED      		ldi r24,lo8(-40)
 785 0340 84BF      		out 52-0,r24
 786               	.LM102:
 787 0342 82E0      		ldi r24,lo8(2)
 788 0344 8093 5000 		sts 80,r24
 789               	.L51:
 790               	.LM103:
 791 0348 8091 5100 		lds r24,81
 792 034c 81FF      		sbrs r24,1
 793 034e 00C0      		rjmp .L51
 794               	.LM104:
 795 0350 88ED      		ldi r24,lo8(-40)
 796 0352 84BF      		out 52-0,r24
 797               	.LM105:
GAS LISTING /tmp/cchdpaIW.s 			page 15


 798 0354 81E0      		ldi r24,lo8(1)
 799 0356 8093 4000 		sts 64,r24
 800               	/* epilogue start */
 801               	.LM106:
 802 035a 0895      		ret
 803               	.LFE24:
 804               		.size	Config32MHzClock, .-Config32MHzClock
 805               	.global	millis
 806               		.type	millis, @function
 807               	millis:
 808               	.LFB25:
 809               	.LM107:
 810               	/* prologue: function */
 811               	/* frame size = 0 */
 812               	/* stack size = 0 */
 813               	.L__stack_usage = 0
 814               	.LM108:
 815 035c 2091 0000 		lds r18,elapsedMillis
 816 0360 3091 0000 		lds r19,elapsedMillis+1
 817 0364 4091 0000 		lds r20,elapsedMillis+2
 818 0368 5091 0000 		lds r21,elapsedMillis+3
 819               	.LM109:
 820 036c B901      		movw r22,r18
 821 036e CA01      		movw r24,r20
 822               	/* epilogue start */
 823 0370 0895      		ret
 824               	.LFE25:
 825               		.size	millis, .-millis
 826               	.global	blink
 827               		.type	blink, @function
 828               	blink:
 829               	.LFB26:
 830               	.LM110:
 831               	.LVL56:
 832 0372 FF92      		push r15
 833 0374 0F93      		push r16
 834 0376 1F93      		push r17
 835 0378 CF93      		push r28
 836 037a DF93      		push r29
 837               	/* prologue: function */
 838               	/* frame size = 0 */
 839               	/* stack size = 5 */
 840               	.L__stack_usage = 5
 841 037c EC01      		movw r28,r24
 842               	.LM111:
 843 037e 00E8      		ldi r16,lo8(1664)
 844 0380 16E0      		ldi r17,hi8(1664)
 845 0382 FF24      		clr r15
 846 0384 F394      		inc r15
 847 0386 F801      		movw r30,r16
 848 0388 F582      		std Z+5,r15
 849               	.LM112:
 850 038a 0E94 0000 		call delay_ms
 851               	.LVL57:
 852               	.LM113:
 853 038e F801      		movw r30,r16
 854 0390 F682      		std Z+6,r15
GAS LISTING /tmp/cchdpaIW.s 			page 16


 855               	.LM114:
 856 0392 CE01      		movw r24,r28
 857 0394 0E94 0000 		call delay_ms
 858               	/* epilogue start */
 859               	.LM115:
 860 0398 DF91      		pop r29
 861 039a CF91      		pop r28
 862               	.LVL58:
 863 039c 1F91      		pop r17
 864 039e 0F91      		pop r16
 865 03a0 FF90      		pop r15
 866 03a2 0895      		ret
 867               	.LFE26:
 868               		.size	blink, .-blink
 869               	.global	blinkN
 870               		.type	blinkN, @function
 871               	blinkN:
 872               	.LFB27:
 873               	.LM116:
 874               	.LVL59:
 875 03a4 0F93      		push r16
 876 03a6 1F93      		push r17
 877 03a8 CF93      		push r28
 878 03aa DF93      		push r29
 879               	/* prologue: function */
 880               	/* frame size = 0 */
 881               	/* stack size = 4 */
 882               	.L__stack_usage = 4
 883 03ac 8C01      		movw r16,r24
 884               	.LVL60:
 885               	.LM117:
 886 03ae C0E0      		ldi r28,lo8(0)
 887 03b0 D0E0      		ldi r29,hi8(0)
 888 03b2 00C0      		rjmp .L56
 889               	.LVL61:
 890               	.L57:
 891               	.LM118:
 892 03b4 82E3      		ldi r24,lo8(50)
 893 03b6 90E0      		ldi r25,hi8(50)
 894 03b8 0E94 0000 		call blink
 895               	.LM119:
 896 03bc 2196      		adiw r28,1
 897               	.LVL62:
 898               	.L56:
 899               	.LM120:
 900 03be C017      		cp r28,r16
 901 03c0 D107      		cpc r29,r17
 902 03c2 04F0      		brlt .L57
 903               	/* epilogue start */
 904               	.LM121:
 905 03c4 DF91      		pop r29
 906 03c6 CF91      		pop r28
 907               	.LVL63:
 908 03c8 1F91      		pop r17
 909 03ca 0F91      		pop r16
 910               	.LVL64:
 911 03cc 0895      		ret
GAS LISTING /tmp/cchdpaIW.s 			page 17


 912               	.LFE27:
 913               		.size	blinkN, .-blinkN
 914               	.global	setPin
 915               		.type	setPin, @function
 916               	setPin:
 917               	.LFB28:
 918               	.LM122:
 919               	.LVL65:
 920               	/* prologue: function */
 921               	/* frame size = 0 */
 922               	/* stack size = 0 */
 923               	.L__stack_usage = 0
 924               	.LM123:
 925 03ce 8234      		cpi r24,lo8(66)
 926 03d0 01F0      		breq .L61
 927 03d2 8334      		cpi r24,lo8(67)
 928 03d4 00F4      		brsh .L64
 929 03d6 8134      		cpi r24,lo8(65)
 930 03d8 01F0      		breq .+2
 931 03da 00C0      		rjmp .L58
 932 03dc 00C0      		rjmp .L97
 933               	.L64:
 934 03de 8334      		cpi r24,lo8(67)
 935 03e0 01F4      		brne .+2
 936 03e2 00C0      		rjmp .L62
 937 03e4 8434      		cpi r24,lo8(68)
 938 03e6 01F0      		breq .+2
 939 03e8 00C0      		rjmp .L58
 940 03ea 00C0      		rjmp .L98
 941               	.L97:
 942               	.LM124:
 943 03ec 6330      		cpi r22,3
 944 03ee 7105      		cpc r23,__zero_reg__
 945 03f0 01F0      		breq .L68
 946 03f2 6430      		cpi r22,4
 947 03f4 7105      		cpc r23,__zero_reg__
 948 03f6 04F4      		brge .L73
 949 03f8 6130      		cpi r22,1
 950 03fa 7105      		cpc r23,__zero_reg__
 951 03fc 01F0      		breq .L66
 952 03fe 6230      		cpi r22,2
 953 0400 7105      		cpc r23,__zero_reg__
 954 0402 04F4      		brge .L67
 955 0404 6115      		cp r22,__zero_reg__
 956 0406 7105      		cpc r23,__zero_reg__
 957 0408 01F0      		breq .L65
 958 040a 0895      		ret
 959               	.L73:
 960 040c 6530      		cpi r22,5
 961 040e 7105      		cpc r23,__zero_reg__
 962 0410 01F0      		breq .L70
 963 0412 6530      		cpi r22,5
 964 0414 7105      		cpc r23,__zero_reg__
 965 0416 04F0      		brlt .L69
 966 0418 6630      		cpi r22,6
 967 041a 7105      		cpc r23,__zero_reg__
 968 041c 01F0      		breq .L71
GAS LISTING /tmp/cchdpaIW.s 			page 18


 969 041e 6730      		cpi r22,7
 970 0420 7105      		cpc r23,__zero_reg__
 971 0422 01F0      		breq .+2
 972 0424 00C0      		rjmp .L58
 973 0426 00C0      		rjmp .L99
 974               	.L65:
 975               	.LM125:
 976 0428 81E0      		ldi r24,lo8(1)
 977               	.LVL66:
 978 042a 00C0      		rjmp .L94
 979               	.LVL67:
 980               	.L66:
 981               	.LM126:
 982 042c 82E0      		ldi r24,lo8(2)
 983               	.LVL68:
 984 042e 00C0      		rjmp .L94
 985               	.LVL69:
 986               	.L67:
 987               	.LM127:
 988 0430 84E0      		ldi r24,lo8(4)
 989               	.LVL70:
 990 0432 00C0      		rjmp .L94
 991               	.LVL71:
 992               	.L68:
 993               	.LM128:
 994 0434 88E0      		ldi r24,lo8(8)
 995               	.LVL72:
 996 0436 00C0      		rjmp .L94
 997               	.LVL73:
 998               	.L69:
 999               	.LM129:
 1000 0438 80E1      		ldi r24,lo8(16)
 1001               	.LVL74:
 1002 043a 00C0      		rjmp .L94
 1003               	.LVL75:
 1004               	.L70:
 1005               	.LM130:
 1006 043c 80E2      		ldi r24,lo8(32)
 1007               	.LVL76:
 1008 043e 00C0      		rjmp .L94
 1009               	.LVL77:
 1010               	.L71:
 1011               	.LM131:
 1012 0440 80E4      		ldi r24,lo8(64)
 1013               	.LVL78:
 1014 0442 00C0      		rjmp .L94
 1015               	.LVL79:
 1016               	.L99:
 1017               	.LM132:
 1018 0444 80E8      		ldi r24,lo8(-128)
 1019               	.LVL80:
 1020               	.L94:
 1021 0446 8093 0506 		sts 1541,r24
 1022 044a 0895      		ret
 1023               	.LVL81:
 1024               	.L61:
 1025               	.LM133:
GAS LISTING /tmp/cchdpaIW.s 			page 19


 1026 044c 6130      		cpi r22,1
 1027 044e 7105      		cpc r23,__zero_reg__
 1028 0450 01F0      		breq .L75
 1029 0452 6230      		cpi r22,2
 1030 0454 7105      		cpc r23,__zero_reg__
 1031 0456 04F4      		brge .L78
 1032 0458 6115      		cp r22,__zero_reg__
 1033 045a 7105      		cpc r23,__zero_reg__
 1034 045c 01F0      		breq .L74
 1035 045e 0895      		ret
 1036               	.L78:
 1037 0460 6230      		cpi r22,2
 1038 0462 7105      		cpc r23,__zero_reg__
 1039 0464 01F0      		breq .L76
 1040 0466 6330      		cpi r22,3
 1041 0468 7105      		cpc r23,__zero_reg__
 1042 046a 01F0      		breq .+2
 1043 046c 00C0      		rjmp .L58
 1044 046e 00C0      		rjmp .L100
 1045               	.L74:
 1046               	.LM134:
 1047 0470 81E0      		ldi r24,lo8(1)
 1048               	.LVL82:
 1049 0472 00C0      		rjmp .L96
 1050               	.LVL83:
 1051               	.L75:
 1052               	.LM135:
 1053 0474 82E0      		ldi r24,lo8(2)
 1054               	.LVL84:
 1055 0476 00C0      		rjmp .L96
 1056               	.LVL85:
 1057               	.L76:
 1058               	.LM136:
 1059 0478 84E0      		ldi r24,lo8(4)
 1060               	.LVL86:
 1061 047a 00C0      		rjmp .L96
 1062               	.LVL87:
 1063               	.L100:
 1064               	.LM137:
 1065 047c 88E0      		ldi r24,lo8(8)
 1066               	.LVL88:
 1067               	.L96:
 1068 047e 8093 2506 		sts 1573,r24
 1069 0482 0895      		ret
 1070               	.LVL89:
 1071               	.L62:
 1072               	.LM138:
 1073 0484 6330      		cpi r22,3
 1074 0486 7105      		cpc r23,__zero_reg__
 1075 0488 01F0      		breq .L82
 1076 048a 6430      		cpi r22,4
 1077 048c 7105      		cpc r23,__zero_reg__
 1078 048e 04F4      		brge .L87
 1079 0490 6130      		cpi r22,1
 1080 0492 7105      		cpc r23,__zero_reg__
 1081 0494 01F0      		breq .L80
 1082 0496 6230      		cpi r22,2
GAS LISTING /tmp/cchdpaIW.s 			page 20


 1083 0498 7105      		cpc r23,__zero_reg__
 1084 049a 04F4      		brge .L81
 1085 049c 6115      		cp r22,__zero_reg__
 1086 049e 7105      		cpc r23,__zero_reg__
 1087 04a0 01F0      		breq .L79
 1088 04a2 0895      		ret
 1089               	.L87:
 1090 04a4 6530      		cpi r22,5
 1091 04a6 7105      		cpc r23,__zero_reg__
 1092 04a8 01F0      		breq .L84
 1093 04aa 6530      		cpi r22,5
 1094 04ac 7105      		cpc r23,__zero_reg__
 1095 04ae 04F0      		brlt .L83
 1096 04b0 6630      		cpi r22,6
 1097 04b2 7105      		cpc r23,__zero_reg__
 1098 04b4 01F0      		breq .L85
 1099 04b6 6730      		cpi r22,7
 1100 04b8 7105      		cpc r23,__zero_reg__
 1101 04ba 01F4      		brne .L58
 1102 04bc 00C0      		rjmp .L101
 1103               	.L79:
 1104               	.LM139:
 1105 04be 81E0      		ldi r24,lo8(1)
 1106               	.LVL90:
 1107 04c0 00C0      		rjmp .L95
 1108               	.LVL91:
 1109               	.L80:
 1110               	.LM140:
 1111 04c2 82E0      		ldi r24,lo8(2)
 1112               	.LVL92:
 1113 04c4 00C0      		rjmp .L95
 1114               	.LVL93:
 1115               	.L81:
 1116               	.LM141:
 1117 04c6 84E0      		ldi r24,lo8(4)
 1118               	.LVL94:
 1119 04c8 00C0      		rjmp .L95
 1120               	.LVL95:
 1121               	.L82:
 1122               	.LM142:
 1123 04ca 88E0      		ldi r24,lo8(8)
 1124               	.LVL96:
 1125 04cc 00C0      		rjmp .L95
 1126               	.LVL97:
 1127               	.L83:
 1128               	.LM143:
 1129 04ce 80E1      		ldi r24,lo8(16)
 1130               	.LVL98:
 1131 04d0 00C0      		rjmp .L95
 1132               	.LVL99:
 1133               	.L84:
 1134               	.LM144:
 1135 04d2 80E2      		ldi r24,lo8(32)
 1136               	.LVL100:
 1137 04d4 00C0      		rjmp .L95
 1138               	.LVL101:
 1139               	.L85:
GAS LISTING /tmp/cchdpaIW.s 			page 21


 1140               	.LM145:
 1141 04d6 80E4      		ldi r24,lo8(64)
 1142               	.LVL102:
 1143 04d8 00C0      		rjmp .L95
 1144               	.LVL103:
 1145               	.L101:
 1146               	.LM146:
 1147 04da 80E8      		ldi r24,lo8(-128)
 1148               	.LVL104:
 1149               	.L95:
 1150 04dc 8093 4506 		sts 1605,r24
 1151 04e0 0895      		ret
 1152               	.LVL105:
 1153               	.L98:
 1154               	.LM147:
 1155 04e2 6130      		cpi r22,1
 1156 04e4 7105      		cpc r23,__zero_reg__
 1157 04e6 01F0      		breq .L89
 1158 04e8 6230      		cpi r22,2
 1159 04ea 7105      		cpc r23,__zero_reg__
 1160 04ec 04F4      		brge .L92
 1161 04ee 6115      		cp r22,__zero_reg__
 1162 04f0 7105      		cpc r23,__zero_reg__
 1163 04f2 01F0      		breq .L88
 1164 04f4 0895      		ret
 1165               	.L92:
 1166 04f6 6230      		cpi r22,2
 1167 04f8 7105      		cpc r23,__zero_reg__
 1168 04fa 01F0      		breq .L90
 1169 04fc 6330      		cpi r22,3
 1170 04fe 7105      		cpc r23,__zero_reg__
 1171 0500 01F4      		brne .L58
 1172 0502 00C0      		rjmp .L102
 1173               	.L88:
 1174               	.LM148:
 1175 0504 81E0      		ldi r24,lo8(1)
 1176               	.LVL106:
 1177 0506 00C0      		rjmp .L93
 1178               	.LVL107:
 1179               	.L89:
 1180               	.LM149:
 1181 0508 82E0      		ldi r24,lo8(2)
 1182               	.LVL108:
 1183 050a 00C0      		rjmp .L93
 1184               	.LVL109:
 1185               	.L90:
 1186               	.LM150:
 1187 050c 84E0      		ldi r24,lo8(4)
 1188               	.LVL110:
 1189               	.L93:
 1190 050e 8093 6506 		sts 1637,r24
 1191 0512 0895      		ret
 1192               	.LVL111:
 1193               	.L102:
 1194               	.LM151:
 1195 0514 88E0      		ldi r24,lo8(8)
 1196               	.LVL112:
GAS LISTING /tmp/cchdpaIW.s 			page 22


 1197 0516 8093 6506 		sts 1637,r24
 1198               	.L58:
 1199 051a 0895      		ret
 1200               	.LFE28:
 1201               		.size	setPin, .-setPin
 1202               	.global	clearPin
 1203               		.type	clearPin, @function
 1204               	clearPin:
 1205               	.LFB29:
 1206               	.LM152:
 1207               	.LVL113:
 1208               	/* prologue: function */
 1209               	/* frame size = 0 */
 1210               	/* stack size = 0 */
 1211               	.L__stack_usage = 0
 1212               	.LM153:
 1213 051c 8234      		cpi r24,lo8(66)
 1214 051e 01F0      		breq .L106
 1215 0520 8334      		cpi r24,lo8(67)
 1216 0522 00F4      		brsh .L109
 1217 0524 8134      		cpi r24,lo8(65)
 1218 0526 01F0      		breq .+2
 1219 0528 00C0      		rjmp .L103
 1220 052a 00C0      		rjmp .L142
 1221               	.L109:
 1222 052c 8334      		cpi r24,lo8(67)
 1223 052e 01F4      		brne .+2
 1224 0530 00C0      		rjmp .L107
 1225 0532 8434      		cpi r24,lo8(68)
 1226 0534 01F0      		breq .+2
 1227 0536 00C0      		rjmp .L103
 1228 0538 00C0      		rjmp .L143
 1229               	.L142:
 1230               	.LM154:
 1231 053a 6330      		cpi r22,3
 1232 053c 7105      		cpc r23,__zero_reg__
 1233 053e 01F0      		breq .L113
 1234 0540 6430      		cpi r22,4
 1235 0542 7105      		cpc r23,__zero_reg__
 1236 0544 04F4      		brge .L118
 1237 0546 6130      		cpi r22,1
 1238 0548 7105      		cpc r23,__zero_reg__
 1239 054a 01F0      		breq .L111
 1240 054c 6230      		cpi r22,2
 1241 054e 7105      		cpc r23,__zero_reg__
 1242 0550 04F4      		brge .L112
 1243 0552 6115      		cp r22,__zero_reg__
 1244 0554 7105      		cpc r23,__zero_reg__
 1245 0556 01F0      		breq .L110
 1246 0558 0895      		ret
 1247               	.L118:
 1248 055a 6530      		cpi r22,5
 1249 055c 7105      		cpc r23,__zero_reg__
 1250 055e 01F0      		breq .L115
 1251 0560 6530      		cpi r22,5
 1252 0562 7105      		cpc r23,__zero_reg__
 1253 0564 04F0      		brlt .L114
GAS LISTING /tmp/cchdpaIW.s 			page 23


 1254 0566 6630      		cpi r22,6
 1255 0568 7105      		cpc r23,__zero_reg__
 1256 056a 01F0      		breq .L116
 1257 056c 6730      		cpi r22,7
 1258 056e 7105      		cpc r23,__zero_reg__
 1259 0570 01F0      		breq .+2
 1260 0572 00C0      		rjmp .L103
 1261 0574 00C0      		rjmp .L144
 1262               	.L110:
 1263               	.LM155:
 1264 0576 81E0      		ldi r24,lo8(1)
 1265               	.LVL114:
 1266 0578 00C0      		rjmp .L139
 1267               	.LVL115:
 1268               	.L111:
 1269               	.LM156:
 1270 057a 82E0      		ldi r24,lo8(2)
 1271               	.LVL116:
 1272 057c 00C0      		rjmp .L139
 1273               	.LVL117:
 1274               	.L112:
 1275               	.LM157:
 1276 057e 84E0      		ldi r24,lo8(4)
 1277               	.LVL118:
 1278 0580 00C0      		rjmp .L139
 1279               	.LVL119:
 1280               	.L113:
 1281               	.LM158:
 1282 0582 88E0      		ldi r24,lo8(8)
 1283               	.LVL120:
 1284 0584 00C0      		rjmp .L139
 1285               	.LVL121:
 1286               	.L114:
 1287               	.LM159:
 1288 0586 80E1      		ldi r24,lo8(16)
 1289               	.LVL122:
 1290 0588 00C0      		rjmp .L139
 1291               	.LVL123:
 1292               	.L115:
 1293               	.LM160:
 1294 058a 80E2      		ldi r24,lo8(32)
 1295               	.LVL124:
 1296 058c 00C0      		rjmp .L139
 1297               	.LVL125:
 1298               	.L116:
 1299               	.LM161:
 1300 058e 80E4      		ldi r24,lo8(64)
 1301               	.LVL126:
 1302 0590 00C0      		rjmp .L139
 1303               	.LVL127:
 1304               	.L144:
 1305               	.LM162:
 1306 0592 80E8      		ldi r24,lo8(-128)
 1307               	.LVL128:
 1308               	.L139:
 1309 0594 8093 0606 		sts 1542,r24
 1310 0598 0895      		ret
GAS LISTING /tmp/cchdpaIW.s 			page 24


 1311               	.LVL129:
 1312               	.L106:
 1313               	.LM163:
 1314 059a 6130      		cpi r22,1
 1315 059c 7105      		cpc r23,__zero_reg__
 1316 059e 01F0      		breq .L120
 1317 05a0 6230      		cpi r22,2
 1318 05a2 7105      		cpc r23,__zero_reg__
 1319 05a4 04F4      		brge .L123
 1320 05a6 6115      		cp r22,__zero_reg__
 1321 05a8 7105      		cpc r23,__zero_reg__
 1322 05aa 01F0      		breq .L119
 1323 05ac 0895      		ret
 1324               	.L123:
 1325 05ae 6230      		cpi r22,2
 1326 05b0 7105      		cpc r23,__zero_reg__
 1327 05b2 01F0      		breq .L121
 1328 05b4 6330      		cpi r22,3
 1329 05b6 7105      		cpc r23,__zero_reg__
 1330 05b8 01F0      		breq .+2
 1331 05ba 00C0      		rjmp .L103
 1332 05bc 00C0      		rjmp .L145
 1333               	.L119:
 1334               	.LM164:
 1335 05be 81E0      		ldi r24,lo8(1)
 1336               	.LVL130:
 1337 05c0 00C0      		rjmp .L141
 1338               	.LVL131:
 1339               	.L120:
 1340               	.LM165:
 1341 05c2 82E0      		ldi r24,lo8(2)
 1342               	.LVL132:
 1343 05c4 00C0      		rjmp .L141
 1344               	.LVL133:
 1345               	.L121:
 1346               	.LM166:
 1347 05c6 84E0      		ldi r24,lo8(4)
 1348               	.LVL134:
 1349 05c8 00C0      		rjmp .L141
 1350               	.LVL135:
 1351               	.L145:
 1352               	.LM167:
 1353 05ca 88E0      		ldi r24,lo8(8)
 1354               	.LVL136:
 1355               	.L141:
 1356 05cc 8093 2606 		sts 1574,r24
 1357 05d0 0895      		ret
 1358               	.LVL137:
 1359               	.L107:
 1360               	.LM168:
 1361 05d2 6330      		cpi r22,3
 1362 05d4 7105      		cpc r23,__zero_reg__
 1363 05d6 01F0      		breq .L127
 1364 05d8 6430      		cpi r22,4
 1365 05da 7105      		cpc r23,__zero_reg__
 1366 05dc 04F4      		brge .L132
 1367 05de 6130      		cpi r22,1
GAS LISTING /tmp/cchdpaIW.s 			page 25


 1368 05e0 7105      		cpc r23,__zero_reg__
 1369 05e2 01F0      		breq .L125
 1370 05e4 6230      		cpi r22,2
 1371 05e6 7105      		cpc r23,__zero_reg__
 1372 05e8 04F4      		brge .L126
 1373 05ea 6115      		cp r22,__zero_reg__
 1374 05ec 7105      		cpc r23,__zero_reg__
 1375 05ee 01F0      		breq .L124
 1376 05f0 0895      		ret
 1377               	.L132:
 1378 05f2 6530      		cpi r22,5
 1379 05f4 7105      		cpc r23,__zero_reg__
 1380 05f6 01F0      		breq .L129
 1381 05f8 6530      		cpi r22,5
 1382 05fa 7105      		cpc r23,__zero_reg__
 1383 05fc 04F0      		brlt .L128
 1384 05fe 6630      		cpi r22,6
 1385 0600 7105      		cpc r23,__zero_reg__
 1386 0602 01F0      		breq .L130
 1387 0604 6730      		cpi r22,7
 1388 0606 7105      		cpc r23,__zero_reg__
 1389 0608 01F4      		brne .L103
 1390 060a 00C0      		rjmp .L146
 1391               	.L124:
 1392               	.LM169:
 1393 060c 81E0      		ldi r24,lo8(1)
 1394               	.LVL138:
 1395 060e 00C0      		rjmp .L140
 1396               	.LVL139:
 1397               	.L125:
 1398               	.LM170:
 1399 0610 82E0      		ldi r24,lo8(2)
 1400               	.LVL140:
 1401 0612 00C0      		rjmp .L140
 1402               	.LVL141:
 1403               	.L126:
 1404               	.LM171:
 1405 0614 84E0      		ldi r24,lo8(4)
 1406               	.LVL142:
 1407 0616 00C0      		rjmp .L140
 1408               	.LVL143:
 1409               	.L127:
 1410               	.LM172:
 1411 0618 88E0      		ldi r24,lo8(8)
 1412               	.LVL144:
 1413 061a 00C0      		rjmp .L140
 1414               	.LVL145:
 1415               	.L128:
 1416               	.LM173:
 1417 061c 80E1      		ldi r24,lo8(16)
 1418               	.LVL146:
 1419 061e 00C0      		rjmp .L140
 1420               	.LVL147:
 1421               	.L129:
 1422               	.LM174:
 1423 0620 80E2      		ldi r24,lo8(32)
 1424               	.LVL148:
GAS LISTING /tmp/cchdpaIW.s 			page 26


 1425 0622 00C0      		rjmp .L140
 1426               	.LVL149:
 1427               	.L130:
 1428               	.LM175:
 1429 0624 80E4      		ldi r24,lo8(64)
 1430               	.LVL150:
 1431 0626 00C0      		rjmp .L140
 1432               	.LVL151:
 1433               	.L146:
 1434               	.LM176:
 1435 0628 80E8      		ldi r24,lo8(-128)
 1436               	.LVL152:
 1437               	.L140:
 1438 062a 8093 4606 		sts 1606,r24
 1439 062e 0895      		ret
 1440               	.LVL153:
 1441               	.L143:
 1442               	.LM177:
 1443 0630 6130      		cpi r22,1
 1444 0632 7105      		cpc r23,__zero_reg__
 1445 0634 01F0      		breq .L134
 1446 0636 6230      		cpi r22,2
 1447 0638 7105      		cpc r23,__zero_reg__
 1448 063a 04F4      		brge .L137
 1449 063c 6115      		cp r22,__zero_reg__
 1450 063e 7105      		cpc r23,__zero_reg__
 1451 0640 01F0      		breq .L133
 1452 0642 0895      		ret
 1453               	.L137:
 1454 0644 6230      		cpi r22,2
 1455 0646 7105      		cpc r23,__zero_reg__
 1456 0648 01F0      		breq .L135
 1457 064a 6330      		cpi r22,3
 1458 064c 7105      		cpc r23,__zero_reg__
 1459 064e 01F4      		brne .L103
 1460 0650 00C0      		rjmp .L147
 1461               	.L133:
 1462               	.LM178:
 1463 0652 81E0      		ldi r24,lo8(1)
 1464               	.LVL154:
 1465 0654 00C0      		rjmp .L138
 1466               	.LVL155:
 1467               	.L134:
 1468               	.LM179:
 1469 0656 82E0      		ldi r24,lo8(2)
 1470               	.LVL156:
 1471 0658 00C0      		rjmp .L138
 1472               	.LVL157:
 1473               	.L135:
 1474               	.LM180:
 1475 065a 84E0      		ldi r24,lo8(4)
 1476               	.LVL158:
 1477               	.L138:
 1478 065c 8093 6606 		sts 1638,r24
 1479 0660 0895      		ret
 1480               	.LVL159:
 1481               	.L147:
GAS LISTING /tmp/cchdpaIW.s 			page 27


 1482               	.LM181:
 1483 0662 88E0      		ldi r24,lo8(8)
 1484               	.LVL160:
 1485 0664 8093 6606 		sts 1638,r24
 1486               	.L103:
 1487 0668 0895      		ret
 1488               	.LFE29:
 1489               		.size	clearPin, .-clearPin
 1490               	.global	setSpeed
 1491               		.type	setSpeed, @function
 1492               	setSpeed:
 1493               	.LFB30:
 1494               	.LM182:
 1495               	.LVL161:
 1496 066a EF92      		push r14
 1497 066c FF92      		push r15
 1498 066e 0F93      		push r16
 1499 0670 1F93      		push r17
 1500 0672 CF93      		push r28
 1501 0674 DF93      		push r29
 1502               	/* prologue: function */
 1503               	/* frame size = 0 */
 1504               	/* stack size = 6 */
 1505               	.L__stack_usage = 6
 1506 0676 EC01      		movw r28,r24
 1507 0678 7A01      		movw r14,r20
 1508 067a 8B01      		movw r16,r22
 1509               	.LM183:
 1510 067c 2A85      		ldd r18,Y+10
 1511 067e 3B85      		ldd r19,Y+11
 1512 0680 4427      		clr r20
 1513 0682 37FD      		sbrc r19,7
 1514 0684 4095      		com r20
 1515 0686 542F      		mov r21,r20
 1516 0688 60E6      		ldi r22,lo8(60000)
 1517 068a 7AEE      		ldi r23,hi8(60000)
 1518 068c 80E0      		ldi r24,hlo8(60000)
 1519 068e 90E0      		ldi r25,hhi8(60000)
 1520 0690 0E94 0000 		call __divmodsi4
 1521 0694 CA01      		movw r24,r20
 1522 0696 B901      		movw r22,r18
 1523 0698 A801      		movw r20,r16
 1524 069a 9701      		movw r18,r14
 1525 069c 0E94 0000 		call __divmodsi4
 1526 06a0 2E83      		std Y+6,r18
 1527 06a2 3F83      		std Y+7,r19
 1528 06a4 4887      		std Y+8,r20
 1529 06a6 5987      		std Y+9,r21
 1530               	/* epilogue start */
 1531               	.LM184:
 1532 06a8 DF91      		pop r29
 1533 06aa CF91      		pop r28
 1534 06ac 1F91      		pop r17
 1535 06ae 0F91      		pop r16
 1536 06b0 FF90      		pop r15
 1537 06b2 EF90      		pop r14
 1538 06b4 0895      		ret
GAS LISTING /tmp/cchdpaIW.s 			page 28


 1539               	.LFE30:
 1540               		.size	setSpeed, .-setSpeed
 1541               	.global	stepMotor
 1542               		.type	stepMotor, @function
 1543               	stepMotor:
 1544               	.LFB31:
 1545               	.LM185:
 1546               	.LVL162:
 1547 06b6 9F92      		push r9
 1548 06b8 AF92      		push r10
 1549 06ba BF92      		push r11
 1550 06bc CF92      		push r12
 1551 06be DF92      		push r13
 1552 06c0 EF92      		push r14
 1553 06c2 FF92      		push r15
 1554 06c4 0F93      		push r16
 1555 06c6 1F93      		push r17
 1556 06c8 DF93      		push r29
 1557 06ca CF93      		push r28
 1558 06cc CDB7      		in r28,__SP_L__
 1559 06ce DEB7      		in r29,__SP_H__
 1560               	/* prologue: function */
 1561               	/* frame size = 0 */
 1562               	/* stack size = 11 */
 1563               	.L__stack_usage = 11
 1564 06d0 2AA9      		ldd r18,Y+50
 1565 06d2 3BA9      		ldd r19,Y+51
 1566               	.LM186:
 1567 06d4 4A8D      		ldd r20,Y+26
 1568 06d6 5B8D      		ldd r21,Y+27
 1569 06d8 8AA1      		ldd r24,Y+34
 1570 06da 6BA1      		ldd r22,Y+35
 1571 06dc 7CA1      		ldd r23,Y+36
 1572 06de BDA0      		ldd r11,Y+37
 1573 06e0 0EA1      		ldd r16,Y+38
 1574 06e2 1FA1      		ldd r17,Y+39
 1575 06e4 98A4      		ldd r9,Y+40
 1576 06e6 E9A4      		ldd r14,Y+41
 1577 06e8 FAA4      		ldd r15,Y+42
 1578 06ea ABA4      		ldd r10,Y+43
 1579 06ec CCA4      		ldd r12,Y+44
 1580 06ee DDA4      		ldd r13,Y+45
 1581               	.LM187:
 1582 06f0 4230      		cpi r20,2
 1583 06f2 5105      		cpc r21,__zero_reg__
 1584 06f4 01F4      		brne .L150
 1585               	.LM188:
 1586 06f6 2130      		cpi r18,1
 1587 06f8 3105      		cpc r19,__zero_reg__
 1588 06fa 01F0      		breq .L153
 1589 06fc 2230      		cpi r18,2
 1590 06fe 3105      		cpc r19,__zero_reg__
 1591 0700 04F4      		brge .L156
 1592 0702 2115      		cp r18,__zero_reg__
 1593 0704 3105      		cpc r19,__zero_reg__
 1594 0706 01F0      		breq .L152
 1595 0708 00C0      		rjmp .L149
GAS LISTING /tmp/cchdpaIW.s 			page 29


 1596               	.L156:
 1597 070a 2230      		cpi r18,2
 1598 070c 3105      		cpc r19,__zero_reg__
 1599 070e 01F0      		breq .L154
 1600 0710 2330      		cpi r18,3
 1601 0712 3105      		cpc r19,__zero_reg__
 1602 0714 01F0      		breq .+2
 1603 0716 00C0      		rjmp .L149
 1604 0718 00C0      		rjmp .L168
 1605               	.L152:
 1606               	.LM189:
 1607 071a 0E94 0000 		call clearPin
 1608 071e 00C0      		rjmp .L166
 1609               	.L153:
 1610               	.LM190:
 1611 0720 0E94 0000 		call setPin
 1612               	.L166:
 1613               	.LM191:
 1614 0724 8B2D      		mov r24,r11
 1615 0726 B801      		movw r22,r16
 1616 0728 00C0      		rjmp .L162
 1617               	.L154:
 1618               	.LM192:
 1619 072a 0E94 0000 		call setPin
 1620 072e 00C0      		rjmp .L165
 1621               	.L168:
 1622               	.LM193:
 1623 0730 0E94 0000 		call clearPin
 1624               	.L165:
 1625               	.LM194:
 1626 0734 8B2D      		mov r24,r11
 1627 0736 B801      		movw r22,r16
 1628 0738 00C0      		rjmp .L164
 1629               	.L150:
 1630               	.LM195:
 1631 073a 4430      		cpi r20,4
 1632 073c 5105      		cpc r21,__zero_reg__
 1633 073e 01F4      		brne .L149
 1634               	.LM196:
 1635 0740 2130      		cpi r18,1
 1636 0742 3105      		cpc r19,__zero_reg__
 1637 0744 01F0      		breq .L158
 1638 0746 2230      		cpi r18,2
 1639 0748 3105      		cpc r19,__zero_reg__
 1640 074a 04F4      		brge .L161
 1641 074c 2115      		cp r18,__zero_reg__
 1642 074e 3105      		cpc r19,__zero_reg__
 1643 0750 01F0      		breq .L157
 1644 0752 00C0      		rjmp .L149
 1645               	.L161:
 1646 0754 2230      		cpi r18,2
 1647 0756 3105      		cpc r19,__zero_reg__
 1648 0758 01F0      		breq .L159
 1649 075a 2330      		cpi r18,3
 1650 075c 3105      		cpc r19,__zero_reg__
 1651 075e 01F4      		brne .L149
 1652 0760 00C0      		rjmp .L169
GAS LISTING /tmp/cchdpaIW.s 			page 30


 1653               	.L157:
 1654               	.LM197:
 1655 0762 0E94 0000 		call setPin
 1656               	.LM198:
 1657 0766 8B2D      		mov r24,r11
 1658 0768 B801      		movw r22,r16
 1659 076a 0E94 0000 		call clearPin
 1660 076e 00C0      		rjmp .L163
 1661               	.L158:
 1662               	.LM199:
 1663 0770 0E94 0000 		call clearPin
 1664               	.LM200:
 1665 0774 8B2D      		mov r24,r11
 1666 0776 B801      		movw r22,r16
 1667 0778 0E94 0000 		call setPin
 1668               	.L163:
 1669               	.LM201:
 1670 077c 892D      		mov r24,r9
 1671 077e B701      		movw r22,r14
 1672 0780 0E94 0000 		call setPin
 1673               	.LM202:
 1674 0784 8A2D      		mov r24,r10
 1675 0786 B601      		movw r22,r12
 1676               	.L164:
 1677 0788 0E94 0000 		call clearPin
 1678               	.LM203:
 1679 078c 00C0      		rjmp .L149
 1680               	.L159:
 1681               	.LM204:
 1682 078e 0E94 0000 		call clearPin
 1683               	.LM205:
 1684 0792 8B2D      		mov r24,r11
 1685 0794 B801      		movw r22,r16
 1686 0796 0E94 0000 		call setPin
 1687 079a 00C0      		rjmp .L167
 1688               	.L169:
 1689               	.LM206:
 1690 079c 0E94 0000 		call setPin
 1691               	.LM207:
 1692 07a0 8B2D      		mov r24,r11
 1693 07a2 B801      		movw r22,r16
 1694 07a4 0E94 0000 		call clearPin
 1695               	.L167:
 1696               	.LM208:
 1697 07a8 892D      		mov r24,r9
 1698 07aa B701      		movw r22,r14
 1699 07ac 0E94 0000 		call clearPin
 1700               	.LM209:
 1701 07b0 8A2D      		mov r24,r10
 1702 07b2 B601      		movw r22,r12
 1703               	.L162:
 1704 07b4 0E94 0000 		call setPin
 1705               	.L149:
 1706               	/* epilogue start */
 1707               	.LM210:
 1708 07b8 CF91      		pop r28
 1709 07ba DF91      		pop r29
GAS LISTING /tmp/cchdpaIW.s 			page 31


 1710 07bc 1F91      		pop r17
 1711 07be 0F91      		pop r16
 1712 07c0 FF90      		pop r15
 1713 07c2 EF90      		pop r14
 1714 07c4 DF90      		pop r13
 1715 07c6 CF90      		pop r12
 1716 07c8 BF90      		pop r11
 1717 07ca AF90      		pop r10
 1718 07cc 9F90      		pop r9
 1719 07ce 0895      		ret
 1720               	.LFE31:
 1721               		.size	stepMotor, .-stepMotor
 1722               	.global	step
 1723               		.type	step, @function
 1724               	step:
 1725               	.LFB32:
 1726               	.LM211:
 1727               	.LVL163:
 1728 07d0 AF92      		push r10
 1729 07d2 BF92      		push r11
 1730 07d4 CF92      		push r12
 1731 07d6 DF92      		push r13
 1732 07d8 EF92      		push r14
 1733 07da FF92      		push r15
 1734 07dc 0F93      		push r16
 1735 07de 1F93      		push r17
 1736 07e0 CF93      		push r28
 1737 07e2 DF93      		push r29
 1738               	/* prologue: function */
 1739               	/* frame size = 0 */
 1740               	/* stack size = 10 */
 1741               	.L__stack_usage = 10
 1742 07e4 EC01      		movw r28,r24
 1743 07e6 8B01      		movw r16,r22
 1744               	.LVL164:
 1745               	.LM212:
 1746 07e8 6230      		cpi r22,2
 1747 07ea 7105      		cpc r23,__zero_reg__
 1748 07ec 04F0      		brlt .L171
 1749               	.LVL165:
 1750               	.LM213:
 1751 07ee 81E0      		ldi r24,lo8(1)
 1752 07f0 90E0      		ldi r25,hi8(1)
 1753               	.LVL166:
 1754 07f2 8A83      		std Y+2,r24
 1755 07f4 9B83      		std Y+3,r25
 1756 07f6 00C0      		rjmp .L191
 1757               	.LVL167:
 1758               	.L171:
 1759               	.LM214:
 1760 07f8 1095      		com r17
 1761 07fa 0195      		neg r16
 1762 07fc 1F4F      		sbci r17,lo8(-1)
 1763               	.LVL168:
 1764               	.LM215:
 1765 07fe 1A82      		std Y+2,__zero_reg__
 1766 0800 1B82      		std Y+3,__zero_reg__
GAS LISTING /tmp/cchdpaIW.s 			page 32


 1767 0802 00C0      		rjmp .L191
 1768               	.LVL169:
 1769               	.L174:
 1770               	.LBB82:
 1771               	.LBB83:
 1772               	.LM216:
 1773 0804 8091 0000 		lds r24,elapsedMillis
 1774 0808 9091 0000 		lds r25,elapsedMillis+1
 1775 080c A091 0000 		lds r26,elapsedMillis+2
 1776 0810 B091 0000 		lds r27,elapsedMillis+3
 1777               	.LBE83:
 1778               	.LBE82:
 1779               	.LM217:
 1780 0814 821B      		sub r24,r18
 1781 0816 930B      		sbc r25,r19
 1782 0818 A40B      		sbc r26,r20
 1783 081a B50B      		sbc r27,r21
 1784 081c 8C15      		cp r24,r12
 1785 081e 9D05      		cpc r25,r13
 1786 0820 AE05      		cpc r26,r14
 1787 0822 BF05      		cpc r27,r15
 1788 0824 00F0      		brlo .L174
 1789               	.LBB84:
 1790               	.LBB85:
 1791               	.LM218:
 1792 0826 8091 0000 		lds r24,elapsedMillis
 1793 082a 9091 0000 		lds r25,elapsedMillis+1
 1794 082e A091 0000 		lds r26,elapsedMillis+2
 1795 0832 B091 0000 		lds r27,elapsedMillis+3
 1796               	.LBE85:
 1797               	.LBE84:
 1798               	.LM219:
 1799 0836 88A3      		std Y+32,r24
 1800 0838 99A3      		std Y+33,r25
 1801 083a AAA3      		std Y+34,r26
 1802 083c BBA3      		std Y+35,r27
 1803               	.LM220:
 1804 083e 2A81      		ldd r18,Y+2
 1805 0840 3B81      		ldd r19,Y+3
 1806 0842 8E85      		ldd r24,Y+14
 1807 0844 9F85      		ldd r25,Y+15
 1808 0846 2130      		cpi r18,1
 1809 0848 3105      		cpc r19,__zero_reg__
 1810 084a 01F4      		brne .L175
 1811               	.LM221:
 1812 084c 9C01      		movw r18,r24
 1813 084e 2F5F      		subi r18,lo8(-(1))
 1814 0850 3F4F      		sbci r19,hi8(-(1))
 1815 0852 2E87      		std Y+14,r18
 1816 0854 3F87      		std Y+15,r19
 1817               	.LM222:
 1818 0856 E881      		ld r30,Y
 1819 0858 F981      		ldd r31,Y+1
 1820 085a EE0F      		lsl r30
 1821 085c FF1F      		rol r31
 1822 085e E050      		subi r30,lo8(-(pose-2))
 1823 0860 F040      		sbci r31,hi8(-(pose-2))
GAS LISTING /tmp/cchdpaIW.s 			page 33


 1824 0862 8081      		ld r24,Z
 1825 0864 9181      		ldd r25,Z+1
 1826 0866 0196      		adiw r24,1
 1827 0868 8083      		st Z,r24
 1828 086a 9183      		std Z+1,r25
 1829               	.LM223:
 1830 086c 8A85      		ldd r24,Y+10
 1831 086e 9B85      		ldd r25,Y+11
 1832 0870 2817      		cp r18,r24
 1833 0872 3907      		cpc r19,r25
 1834 0874 01F4      		brne .L176
 1835               	.LM224:
 1836 0876 1E86      		std Y+14,__zero_reg__
 1837 0878 1F86      		std Y+15,__zero_reg__
 1838 087a 00C0      		rjmp .L176
 1839               	.L175:
 1840               	.LM225:
 1841 087c 0097      		sbiw r24,0
 1842 087e 01F4      		brne .L177
 1843               	.LM226:
 1844 0880 8A85      		ldd r24,Y+10
 1845 0882 9B85      		ldd r25,Y+11
 1846 0884 8E87      		std Y+14,r24
 1847 0886 9F87      		std Y+15,r25
 1848               	.L177:
 1849               	.LM227:
 1850 0888 8E85      		ldd r24,Y+14
 1851 088a 9F85      		ldd r25,Y+15
 1852 088c 0197      		sbiw r24,1
 1853 088e 8E87      		std Y+14,r24
 1854 0890 9F87      		std Y+15,r25
 1855               	.LM228:
 1856 0892 E881      		ld r30,Y
 1857 0894 F981      		ldd r31,Y+1
 1858 0896 EE0F      		lsl r30
 1859 0898 FF1F      		rol r31
 1860 089a E050      		subi r30,lo8(-(pose-2))
 1861 089c F040      		sbci r31,hi8(-(pose-2))
 1862 089e 8081      		ld r24,Z
 1863 08a0 9181      		ldd r25,Z+1
 1864 08a2 0197      		sbiw r24,1
 1865 08a4 8083      		st Z,r24
 1866 08a6 9183      		std Z+1,r25
 1867               	.L176:
 1868               	.LM229:
 1869 08a8 0150      		subi r16,lo8(-(-1))
 1870 08aa 1040      		sbci r17,hi8(-(-1))
 1871               	.LVL170:
 1872               	.LM230:
 1873 08ac 8DB7      		in r24,__SP_L__
 1874 08ae 9EB7      		in r25,__SP_H__
 1875 08b0 8697      		sbiw r24,38
 1876 08b2 8DBF      		out __SP_L__,r24
 1877 08b4 9EBF      		out __SP_H__,r25
 1878 08b6 CDB6      		in r12,__SP_L__
 1879 08b8 DEB6      		in r13,__SP_H__
 1880 08ba 0894      		sec
GAS LISTING /tmp/cchdpaIW.s 			page 34


 1881 08bc C11C      		adc r12,__zero_reg__
 1882 08be D11C      		adc r13,__zero_reg__
 1883 08c0 C601      		movw r24,r12
 1884 08c2 DE01      		movw r26,r28
 1885 08c4 24E2      		ldi r18,lo8(36)
 1886               	.L178:
 1887 08c6 0D90      		ld r0,X+
 1888 08c8 FC01      		movw r30,r24
 1889 08ca 0192      		st Z+,r0
 1890 08cc CF01      		movw r24,r30
 1891 08ce 2150      		subi r18,lo8(-(-1))
 1892 08d0 01F4      		brne .L178
 1893 08d2 8E85      		ldd r24,Y+14
 1894 08d4 9F85      		ldd r25,Y+15
 1895 08d6 B501      		movw r22,r10
 1896 08d8 0E94 0000 		call __divmodhi4
 1897 08dc F601      		movw r30,r12
 1898 08de 84A3      		std Z+36,r24
 1899 08e0 95A3      		std Z+37,r25
 1900 08e2 0E94 0000 		call stepMotor
 1901               	.LM231:
 1902 08e6 8DB7      		in r24,__SP_L__
 1903 08e8 9EB7      		in r25,__SP_H__
 1904 08ea 8696      		adiw r24,38
 1905 08ec 8DBF      		out __SP_L__,r24
 1906 08ee 9EBF      		out __SP_H__,r25
 1907 08f0 8881      		ld r24,Y
 1908 08f2 9981      		ldd r25,Y+1
 1909 08f4 8330      		cpi r24,3
 1910 08f6 9105      		cpc r25,__zero_reg__
 1911 08f8 01F0      		breq .+2
 1912 08fa 00C0      		rjmp .L190
 1913               	.LM232:
 1914 08fc 8A81      		ldd r24,Y+2
 1915 08fe 9B81      		ldd r25,Y+3
 1916 0900 9095      		com r25
 1917 0902 8195      		neg r24
 1918 0904 9F4F      		sbci r25,lo8(-1)
 1919 0906 8093 0000 		sts Gripper+2,r24
 1920 090a 9093 0000 		sts Gripper+2+1,r25
 1921               	.LM233:
 1922 090e 8130      		cpi r24,1
 1923 0910 9105      		cpc r25,__zero_reg__
 1924 0912 01F4      		brne .L180
 1925               	.LM234:
 1926 0914 8091 0000 		lds r24,Gripper+14
 1927 0918 9091 0000 		lds r25,Gripper+14+1
 1928 091c 0196      		adiw r24,1
 1929 091e 8093 0000 		sts Gripper+14,r24
 1930 0922 9093 0000 		sts Gripper+14+1,r25
 1931               	.LM235:
 1932 0926 2091 0000 		lds r18,Gripper+10
 1933 092a 3091 0000 		lds r19,Gripper+10+1
 1934 092e 8217      		cp r24,r18
 1935 0930 9307      		cpc r25,r19
 1936 0932 01F4      		brne .L181
 1937               	.LM236:
GAS LISTING /tmp/cchdpaIW.s 			page 35


 1938 0934 1092 0000 		sts Gripper+14,__zero_reg__
 1939 0938 1092 0000 		sts Gripper+14+1,__zero_reg__
 1940 093c 00C0      		rjmp .L181
 1941               	.L180:
 1942               	.LM237:
 1943 093e 8091 0000 		lds r24,Gripper+14
 1944 0942 9091 0000 		lds r25,Gripper+14+1
 1945 0946 0097      		sbiw r24,0
 1946 0948 01F4      		brne .L182
 1947               	.LM238:
 1948 094a 8091 0000 		lds r24,Gripper+10
 1949 094e 9091 0000 		lds r25,Gripper+10+1
 1950 0952 8093 0000 		sts Gripper+14,r24
 1951 0956 9093 0000 		sts Gripper+14+1,r25
 1952               	.L182:
 1953               	.LM239:
 1954 095a 8091 0000 		lds r24,Gripper+14
 1955 095e 9091 0000 		lds r25,Gripper+14+1
 1956 0962 0197      		sbiw r24,1
 1957 0964 8093 0000 		sts Gripper+14,r24
 1958 0968 9093 0000 		sts Gripper+14+1,r25
 1959               	.L181:
 1960               	.LM240:
 1961 096c EDB7      		in r30,__SP_L__
 1962 096e FEB7      		in r31,__SP_H__
 1963 0970 B697      		sbiw r30,38
 1964 0972 EDBF      		out __SP_L__,r30
 1965 0974 FEBF      		out __SP_H__,r31
 1966 0976 CDB6      		in r12,__SP_L__
 1967 0978 DEB6      		in r13,__SP_H__
 1968 097a 0894      		sec
 1969 097c C11C      		adc r12,__zero_reg__
 1970 097e D11C      		adc r13,__zero_reg__
 1971 0980 C601      		movw r24,r12
 1972 0982 A0E0      		ldi r26,lo8(Gripper)
 1973 0984 B0E0      		ldi r27,hi8(Gripper)
 1974 0986 24E2      		ldi r18,lo8(36)
 1975               	.L183:
 1976 0988 0D90      		ld r0,X+
 1977 098a FC01      		movw r30,r24
 1978 098c 0192      		st Z+,r0
 1979 098e CF01      		movw r24,r30
 1980 0990 2150      		subi r18,lo8(-(-1))
 1981 0992 01F4      		brne .L183
 1982 0994 8091 0000 		lds r24,Gripper+14
 1983 0998 9091 0000 		lds r25,Gripper+14+1
 1984 099c B501      		movw r22,r10
 1985 099e 0E94 0000 		call __divmodhi4
 1986 09a2 F601      		movw r30,r12
 1987 09a4 84A3      		std Z+36,r24
 1988 09a6 95A3      		std Z+37,r25
 1989 09a8 0E94 0000 		call stepMotor
 1990 09ac 8DB7      		in r24,__SP_L__
 1991 09ae 9EB7      		in r25,__SP_H__
 1992 09b0 8696      		adiw r24,38
 1993 09b2 8DBF      		out __SP_L__,r24
 1994 09b4 9EBF      		out __SP_H__,r25
GAS LISTING /tmp/cchdpaIW.s 			page 36


 1995 09b6 00C0      		rjmp .L190
 1996               	.LVL171:
 1997               	.L191:
 1998               	.LM241:
 1999 09b8 F4E0      		ldi r31,lo8(4)
 2000 09ba AF2E      		mov r10,r31
 2001 09bc B12C      		mov r11,__zero_reg__
 2002               	.LVL172:
 2003               	.L190:
 2004               	.LM242:
 2005 09be 1016      		cp __zero_reg__,r16
 2006 09c0 1106      		cpc __zero_reg__,r17
 2007 09c2 04F4      		brge .L170
 2008               	.LM243:
 2009 09c4 28A1      		ldd r18,Y+32
 2010 09c6 39A1      		ldd r19,Y+33
 2011 09c8 4AA1      		ldd r20,Y+34
 2012 09ca 5BA1      		ldd r21,Y+35
 2013 09cc CE80      		ldd r12,Y+6
 2014 09ce DF80      		ldd r13,Y+7
 2015 09d0 E884      		ldd r14,Y+8
 2016 09d2 F984      		ldd r15,Y+9
 2017 09d4 00C0      		rjmp .L174
 2018               	.L170:
 2019               	/* epilogue start */
 2020               	.LM244:
 2021 09d6 DF91      		pop r29
 2022 09d8 CF91      		pop r28
 2023               	.LVL173:
 2024 09da 1F91      		pop r17
 2025 09dc 0F91      		pop r16
 2026               	.LVL174:
 2027 09de FF90      		pop r15
 2028 09e0 EF90      		pop r14
 2029 09e2 DF90      		pop r13
 2030 09e4 CF90      		pop r12
 2031 09e6 BF90      		pop r11
 2032 09e8 AF90      		pop r10
 2033 09ea 0895      		ret
 2034               	.LFE32:
 2035               		.size	step, .-step
 2036               	.global	stepOne
 2037               		.type	stepOne, @function
 2038               	stepOne:
 2039               	.LFB33:
 2040               	.LM245:
 2041               	.LVL175:
 2042 09ec 0F93      		push r16
 2043 09ee 1F93      		push r17
 2044 09f0 CF93      		push r28
 2045 09f2 DF93      		push r29
 2046               	/* prologue: function */
 2047               	/* frame size = 0 */
 2048               	/* stack size = 4 */
 2049               	.L__stack_usage = 4
 2050 09f4 EC01      		movw r28,r24
 2051               	.LM246:
GAS LISTING /tmp/cchdpaIW.s 			page 37


 2052 09f6 6A83      		std Y+2,r22
 2053 09f8 7B83      		std Y+3,r23
 2054               	.LM247:
 2055 09fa 6130      		cpi r22,1
 2056 09fc 7105      		cpc r23,__zero_reg__
 2057 09fe 01F4      		brne .L193
 2058               	.LM248:
 2059 0a00 8E85      		ldd r24,Y+14
 2060 0a02 9F85      		ldd r25,Y+15
 2061               	.LVL176:
 2062 0a04 0196      		adiw r24,1
 2063 0a06 8E87      		std Y+14,r24
 2064 0a08 9F87      		std Y+15,r25
 2065               	.LM249:
 2066 0a0a E881      		ld r30,Y
 2067 0a0c F981      		ldd r31,Y+1
 2068 0a0e EE0F      		lsl r30
 2069 0a10 FF1F      		rol r31
 2070 0a12 E050      		subi r30,lo8(-(pose-2))
 2071 0a14 F040      		sbci r31,hi8(-(pose-2))
 2072 0a16 2081      		ld r18,Z
 2073 0a18 3181      		ldd r19,Z+1
 2074 0a1a 2F5F      		subi r18,lo8(-(1))
 2075 0a1c 3F4F      		sbci r19,hi8(-(1))
 2076 0a1e 2083      		st Z,r18
 2077 0a20 3183      		std Z+1,r19
 2078               	.LM250:
 2079 0a22 2A85      		ldd r18,Y+10
 2080 0a24 3B85      		ldd r19,Y+11
 2081 0a26 8217      		cp r24,r18
 2082 0a28 9307      		cpc r25,r19
 2083 0a2a 01F4      		brne .L194
 2084               	.LM251:
 2085 0a2c 1E86      		std Y+14,__zero_reg__
 2086 0a2e 1F86      		std Y+15,__zero_reg__
 2087 0a30 00C0      		rjmp .L194
 2088               	.L193:
 2089               	.LM252:
 2090 0a32 6115      		cp r22,__zero_reg__
 2091 0a34 7105      		cpc r23,__zero_reg__
 2092 0a36 01F0      		breq .L194
 2093               	.LM253:
 2094 0a38 8E85      		ldd r24,Y+14
 2095 0a3a 9F85      		ldd r25,Y+15
 2096 0a3c 0097      		sbiw r24,0
 2097 0a3e 01F4      		brne .L195
 2098               	.LM254:
 2099 0a40 8A85      		ldd r24,Y+10
 2100 0a42 9B85      		ldd r25,Y+11
 2101 0a44 8E87      		std Y+14,r24
 2102 0a46 9F87      		std Y+15,r25
 2103               	.L195:
 2104               	.LM255:
 2105 0a48 8E85      		ldd r24,Y+14
 2106 0a4a 9F85      		ldd r25,Y+15
 2107 0a4c 0197      		sbiw r24,1
 2108 0a4e 8E87      		std Y+14,r24
GAS LISTING /tmp/cchdpaIW.s 			page 38


 2109 0a50 9F87      		std Y+15,r25
 2110               	.LM256:
 2111 0a52 E881      		ld r30,Y
 2112 0a54 F981      		ldd r31,Y+1
 2113 0a56 EE0F      		lsl r30
 2114 0a58 FF1F      		rol r31
 2115 0a5a E050      		subi r30,lo8(-(pose-2))
 2116 0a5c F040      		sbci r31,hi8(-(pose-2))
 2117 0a5e 8081      		ld r24,Z
 2118 0a60 9181      		ldd r25,Z+1
 2119 0a62 0197      		sbiw r24,1
 2120 0a64 8083      		st Z,r24
 2121 0a66 9183      		std Z+1,r25
 2122               	.L194:
 2123               	.LM257:
 2124 0a68 8DB7      		in r24,__SP_L__
 2125 0a6a 9EB7      		in r25,__SP_H__
 2126 0a6c 8697      		sbiw r24,38
 2127 0a6e 8DBF      		out __SP_L__,r24
 2128 0a70 9EBF      		out __SP_H__,r25
 2129 0a72 0DB7      		in r16,__SP_L__
 2130 0a74 1EB7      		in r17,__SP_H__
 2131 0a76 0F5F      		subi r16,lo8(-(1))
 2132 0a78 1F4F      		sbci r17,hi8(-(1))
 2133 0a7a C801      		movw r24,r16
 2134 0a7c DE01      		movw r26,r28
 2135 0a7e 24E2      		ldi r18,lo8(36)
 2136               	.L196:
 2137 0a80 0D90      		ld r0,X+
 2138 0a82 FC01      		movw r30,r24
 2139 0a84 0192      		st Z+,r0
 2140 0a86 CF01      		movw r24,r30
 2141 0a88 2150      		subi r18,lo8(-(-1))
 2142 0a8a 01F4      		brne .L196
 2143 0a8c 8E85      		ldd r24,Y+14
 2144 0a8e 9F85      		ldd r25,Y+15
 2145 0a90 64E0      		ldi r22,lo8(4)
 2146 0a92 70E0      		ldi r23,hi8(4)
 2147               	.LVL177:
 2148 0a94 0E94 0000 		call __divmodhi4
 2149 0a98 F801      		movw r30,r16
 2150 0a9a 84A3      		std Z+36,r24
 2151 0a9c 95A3      		std Z+37,r25
 2152 0a9e 0E94 0000 		call stepMotor
 2153               	.LVL178:
 2154               	.LM258:
 2155 0aa2 8DB7      		in r24,__SP_L__
 2156 0aa4 9EB7      		in r25,__SP_H__
 2157 0aa6 8696      		adiw r24,38
 2158 0aa8 8DBF      		out __SP_L__,r24
 2159 0aaa 9EBF      		out __SP_H__,r25
 2160 0aac 8881      		ld r24,Y
 2161 0aae 9981      		ldd r25,Y+1
 2162 0ab0 8330      		cpi r24,3
 2163 0ab2 9105      		cpc r25,__zero_reg__
 2164 0ab4 01F0      		breq .+2
 2165 0ab6 00C0      		rjmp .L192
GAS LISTING /tmp/cchdpaIW.s 			page 39


 2166               	.LM259:
 2167 0ab8 8A81      		ldd r24,Y+2
 2168 0aba 9B81      		ldd r25,Y+3
 2169 0abc 9095      		com r25
 2170 0abe 8195      		neg r24
 2171 0ac0 9F4F      		sbci r25,lo8(-1)
 2172 0ac2 8093 0000 		sts Gripper+2,r24
 2173 0ac6 9093 0000 		sts Gripper+2+1,r25
 2174               	.LM260:
 2175 0aca 8130      		cpi r24,1
 2176 0acc 9105      		cpc r25,__zero_reg__
 2177 0ace 01F4      		brne .L198
 2178               	.LM261:
 2179 0ad0 8091 0000 		lds r24,Gripper+14
 2180 0ad4 9091 0000 		lds r25,Gripper+14+1
 2181 0ad8 0196      		adiw r24,1
 2182 0ada 8093 0000 		sts Gripper+14,r24
 2183 0ade 9093 0000 		sts Gripper+14+1,r25
 2184               	.LM262:
 2185 0ae2 2091 0000 		lds r18,Gripper+10
 2186 0ae6 3091 0000 		lds r19,Gripper+10+1
 2187 0aea 8217      		cp r24,r18
 2188 0aec 9307      		cpc r25,r19
 2189 0aee 01F4      		brne .L199
 2190               	.LM263:
 2191 0af0 1092 0000 		sts Gripper+14,__zero_reg__
 2192 0af4 1092 0000 		sts Gripper+14+1,__zero_reg__
 2193 0af8 00C0      		rjmp .L199
 2194               	.L198:
 2195               	.LM264:
 2196 0afa 8A81      		ldd r24,Y+2
 2197 0afc 9B81      		ldd r25,Y+3
 2198 0afe 0097      		sbiw r24,0
 2199 0b00 01F0      		breq .L199
 2200               	.LM265:
 2201 0b02 8091 0000 		lds r24,Gripper+14
 2202 0b06 9091 0000 		lds r25,Gripper+14+1
 2203 0b0a 0097      		sbiw r24,0
 2204 0b0c 01F4      		brne .L200
 2205               	.LM266:
 2206 0b0e 8091 0000 		lds r24,Gripper+10
 2207 0b12 9091 0000 		lds r25,Gripper+10+1
 2208 0b16 8093 0000 		sts Gripper+14,r24
 2209 0b1a 9093 0000 		sts Gripper+14+1,r25
 2210               	.L200:
 2211               	.LM267:
 2212 0b1e 8091 0000 		lds r24,Gripper+14
 2213 0b22 9091 0000 		lds r25,Gripper+14+1
 2214 0b26 0197      		sbiw r24,1
 2215 0b28 8093 0000 		sts Gripper+14,r24
 2216 0b2c 9093 0000 		sts Gripper+14+1,r25
 2217               	.L199:
 2218               	.LM268:
 2219 0b30 EDB7      		in r30,__SP_L__
 2220 0b32 FEB7      		in r31,__SP_H__
 2221 0b34 B697      		sbiw r30,38
 2222 0b36 EDBF      		out __SP_L__,r30
GAS LISTING /tmp/cchdpaIW.s 			page 40


 2223 0b38 FEBF      		out __SP_H__,r31
 2224 0b3a 3196      		adiw r30,1
 2225 0b3c EF01      		movw r28,r30
 2226               	.LVL179:
 2227 0b3e A0E0      		ldi r26,lo8(Gripper)
 2228 0b40 B0E0      		ldi r27,hi8(Gripper)
 2229 0b42 84E2      		ldi r24,lo8(36)
 2230               	.LVL180:
 2231               	.L201:
 2232 0b44 0D90      		ld r0,X+
 2233 0b46 0992      		st Y+,r0
 2234 0b48 8150      		subi r24,lo8(-(-1))
 2235 0b4a 01F4      		brne .L201
 2236 0b4c 8091 0000 		lds r24,Gripper+14
 2237 0b50 9091 0000 		lds r25,Gripper+14+1
 2238 0b54 64E0      		ldi r22,lo8(4)
 2239 0b56 70E0      		ldi r23,hi8(4)
 2240 0b58 0E94 0000 		call __divmodhi4
 2241 0b5c 84A3      		std Z+36,r24
 2242 0b5e 95A3      		std Z+37,r25
 2243 0b60 0E94 0000 		call stepMotor
 2244 0b64 8DB7      		in r24,__SP_L__
 2245 0b66 9EB7      		in r25,__SP_H__
 2246 0b68 8696      		adiw r24,38
 2247 0b6a 8DBF      		out __SP_L__,r24
 2248 0b6c 9EBF      		out __SP_H__,r25
 2249               	.L192:
 2250               	/* epilogue start */
 2251               	.LM269:
 2252 0b6e DF91      		pop r29
 2253 0b70 CF91      		pop r28
 2254 0b72 1F91      		pop r17
 2255 0b74 0F91      		pop r16
 2256               	.LVL181:
 2257 0b76 0895      		ret
 2258               	.LFE33:
 2259               		.size	stepOne, .-stepOne
 2260               	.global	changeGoal
 2261               		.type	changeGoal, @function
 2262               	changeGoal:
 2263               	.LFB34:
 2264               	.LM270:
 2265               	.LVL182:
 2266 0b78 EF92      		push r14
 2267 0b7a FF92      		push r15
 2268 0b7c 0F93      		push r16
 2269 0b7e 1F93      		push r17
 2270               	/* prologue: function */
 2271               	/* frame size = 0 */
 2272               	/* stack size = 4 */
 2273               	.L__stack_usage = 4
 2274               	.LM271:
 2275 0b80 8093 0000 		sts goal,r24
 2276 0b84 9093 0000 		sts goal+1,r25
 2277               	.LM272:
 2278 0b88 6093 0000 		sts goal+2,r22
 2279 0b8c 7093 0000 		sts goal+2+1,r23
GAS LISTING /tmp/cchdpaIW.s 			page 41


 2280               	.LM273:
 2281 0b90 4093 0000 		sts goal+4,r20
 2282 0b94 5093 0000 		sts goal+4+1,r21
 2283               	.LM274:
 2284 0b98 2093 0000 		sts goal+6,r18
 2285 0b9c 3093 0000 		sts goal+6+1,r19
 2286               	.LM275:
 2287 0ba0 0093 0000 		sts goal+8,r16
 2288 0ba4 1093 0000 		sts goal+8+1,r17
 2289               	.LM276:
 2290 0ba8 E092 0000 		sts goal+10,r14
 2291 0bac F092 0000 		sts goal+10+1,r15
 2292               	/* epilogue start */
 2293               	.LM277:
 2294 0bb0 1F91      		pop r17
 2295 0bb2 0F91      		pop r16
 2296               	.LVL183:
 2297 0bb4 FF90      		pop r15
 2298 0bb6 EF90      		pop r14
 2299               	.LVL184:
 2300 0bb8 0895      		ret
 2301               	.LFE34:
 2302               		.size	changeGoal, .-changeGoal
 2303               	.global	moveToGoal
 2304               		.type	moveToGoal, @function
 2305               	moveToGoal:
 2306               	.LFB35:
 2307               	.LM278:
 2308 0bba 2F92      		push r2
 2309 0bbc 3F92      		push r3
 2310 0bbe 4F92      		push r4
 2311 0bc0 5F92      		push r5
 2312 0bc2 6F92      		push r6
 2313 0bc4 7F92      		push r7
 2314 0bc6 8F92      		push r8
 2315 0bc8 9F92      		push r9
 2316 0bca AF92      		push r10
 2317 0bcc BF92      		push r11
 2318 0bce CF92      		push r12
 2319 0bd0 DF92      		push r13
 2320 0bd2 EF92      		push r14
 2321 0bd4 FF92      		push r15
 2322 0bd6 0F93      		push r16
 2323 0bd8 1F93      		push r17
 2324 0bda DF93      		push r29
 2325 0bdc CF93      		push r28
 2326 0bde CDB7      		in r28,__SP_L__
 2327 0be0 DEB7      		in r29,__SP_H__
 2328 0be2 6697      		sbiw r28,22
 2329 0be4 CDBF      		out __SP_L__,r28
 2330 0be6 DEBF      		out __SP_H__,r29
 2331               	/* prologue: function */
 2332               	/* frame size = 22 */
 2333               	/* stack size = 40 */
 2334               	.L__stack_usage = 40
 2335               	.LM279:
 2336 0be8 E090 0000 		lds r14,goal
GAS LISTING /tmp/cchdpaIW.s 			page 42


 2337 0bec F090 0000 		lds r15,goal+1
 2338 0bf0 8091 0000 		lds r24,pose
 2339 0bf4 9091 0000 		lds r25,pose+1
 2340 0bf8 E81A      		sub r14,r24
 2341 0bfa F90A      		sbc r15,r25
 2342               	.LM280:
 2343 0bfc C090 0000 		lds r12,goal+2
 2344 0c00 D090 0000 		lds r13,goal+2+1
 2345 0c04 8091 0000 		lds r24,pose+2
 2346 0c08 9091 0000 		lds r25,pose+2+1
 2347 0c0c C81A      		sub r12,r24
 2348 0c0e D90A      		sbc r13,r25
 2349               	.LM281:
 2350 0c10 A090 0000 		lds r10,goal+4
 2351 0c14 B090 0000 		lds r11,goal+4+1
 2352 0c18 8091 0000 		lds r24,pose+4
 2353 0c1c 9091 0000 		lds r25,pose+4+1
 2354 0c20 A81A      		sub r10,r24
 2355 0c22 B90A      		sbc r11,r25
 2356               	.LM282:
 2357 0c24 2091 0000 		lds r18,goal+6
 2358 0c28 3091 0000 		lds r19,goal+6+1
 2359 0c2c 8091 0000 		lds r24,pose+6
 2360 0c30 9091 0000 		lds r25,pose+6+1
 2361 0c34 281B      		sub r18,r24
 2362 0c36 390B      		sbc r19,r25
 2363 0c38 298B      		std Y+17,r18
 2364 0c3a 3A8B      		std Y+18,r19
 2365               	.LM283:
 2366 0c3c 8091 0000 		lds r24,goal+8
 2367 0c40 9091 0000 		lds r25,goal+8+1
 2368 0c44 8B8B      		std Y+19,r24
 2369 0c46 9C8B      		std Y+20,r25
 2370 0c48 8091 0000 		lds r24,pose+8
 2371 0c4c 9091 0000 		lds r25,pose+8+1
 2372 0c50 AB89      		ldd r26,Y+19
 2373 0c52 BC89      		ldd r27,Y+20
 2374 0c54 A81B      		sub r26,r24
 2375 0c56 B90B      		sbc r27,r25
 2376 0c58 AB8B      		std Y+19,r26
 2377 0c5a BC8B      		std Y+20,r27
 2378               	.LM284:
 2379 0c5c 2091 0000 		lds r18,goal+10
 2380 0c60 3091 0000 		lds r19,goal+10+1
 2381 0c64 8091 0000 		lds r24,pose+10
 2382 0c68 9091 0000 		lds r25,pose+10+1
 2383 0c6c 281B      		sub r18,r24
 2384 0c6e 390B      		sbc r19,r25
 2385 0c70 2D8B      		std Y+21,r18
 2386 0c72 3E8B      		std Y+22,r19
 2387               	.LM285:
 2388 0c74 E982      		std Y+1,r14
 2389 0c76 FA82      		std Y+2,r15
 2390 0c78 CB82      		std Y+3,r12
 2391 0c7a DC82      		std Y+4,r13
 2392 0c7c AD82      		std Y+5,r10
 2393 0c7e BE82      		std Y+6,r11
GAS LISTING /tmp/cchdpaIW.s 			page 43


 2394 0c80 8989      		ldd r24,Y+17
 2395 0c82 9A89      		ldd r25,Y+18
 2396 0c84 8F83      		std Y+7,r24
 2397 0c86 9887      		std Y+8,r25
 2398 0c88 A987      		std Y+9,r26
 2399 0c8a BA87      		std Y+10,r27
 2400 0c8c 2B87      		std Y+11,r18
 2401 0c8e 3C87      		std Y+12,r19
 2402               	.LVL185:
 2403 0c90 FE01      		movw r30,r28
 2404 0c92 3396      		adiw r30,3
 2405               	.LM286:
 2406 0c94 AE01      		movw r20,r28
 2407 0c96 435F      		subi r20,lo8(-(13))
 2408 0c98 5F4F      		sbci r21,hi8(-(13))
 2409               	.LM287:
 2410 0c9a 8701      		movw r16,r14
 2411               	.LVL186:
 2412               	.L209:
 2413               	.LM288:
 2414 0c9c 7081      		ld r23,Z
 2415 0c9e 6181      		ldd r22,Z+1
 2416 0ca0 3296      		adiw r30,2
 2417 0ca2 9B01      		movw r18,r22
 2418 0ca4 832F      		mov r24,r19
 2419 0ca6 922F      		mov r25,r18
 2420 0ca8 97FF      		sbrs r25,7
 2421 0caa 00C0      		rjmp .L207
 2422 0cac 9095      		com r25
 2423 0cae 8195      		neg r24
 2424 0cb0 9F4F      		sbci r25,lo8(-1)
 2425               	.L207:
 2426 0cb2 9801      		movw r18,r16
 2427 0cb4 17FF      		sbrs r17,7
 2428 0cb6 00C0      		rjmp .L208
 2429 0cb8 2227      		clr r18
 2430 0cba 3327      		clr r19
 2431 0cbc 201B      		sub r18,r16
 2432 0cbe 310B      		sbc r19,r17
 2433               	.L208:
 2434 0cc0 2817      		cp r18,r24
 2435 0cc2 3907      		cpc r19,r25
 2436 0cc4 04F4      		brge .L206
 2437               	.LM289:
 2438 0cc6 CB01      		movw r24,r22
 2439 0cc8 092F      		mov r16,r25
 2440               	.LVL187:
 2441 0cca 162F      		mov r17,r22
 2442               	.L206:
 2443               	.LVL188:
 2444               	.LM290:
 2445 0ccc E417      		cp r30,r20
 2446 0cce F507      		cpc r31,r21
 2447 0cd0 01F4      		brne .L209
 2448               	.LM291:
 2449 0cd2 6091 0000 		lds r22,maxSpeed
 2450 0cd6 7091 0000 		lds r23,maxSpeed+1
GAS LISTING /tmp/cchdpaIW.s 			page 44


 2451 0cda 8827      		clr r24
 2452 0cdc 77FD      		sbrc r23,7
 2453 0cde 8095      		com r24
 2454 0ce0 982F      		mov r25,r24
 2455 0ce2 0E94 0000 		call __floatsisf
 2456 0ce6 6D87      		std Y+13,r22
 2457 0ce8 7E87      		std Y+14,r23
 2458 0cea 8F87      		std Y+15,r24
 2459 0cec 988B      		std Y+16,r25
 2460 0cee B801      		movw r22,r16
 2461 0cf0 8827      		clr r24
 2462 0cf2 77FD      		sbrc r23,7
 2463 0cf4 8095      		com r24
 2464 0cf6 982F      		mov r25,r24
 2465 0cf8 0E94 0000 		call __floatsisf
 2466 0cfc 3B01      		movw r6,r22
 2467 0cfe 4C01      		movw r8,r24
 2468               	.LVL189:
 2469               	.LBB86:
 2470               	.LBB87:
 2471               	.LM292:
 2472 0d00 2091 0000 		lds r18,Base+10
 2473 0d04 3091 0000 		lds r19,Base+10+1
 2474 0d08 4427      		clr r20
 2475 0d0a 37FD      		sbrc r19,7
 2476 0d0c 4095      		com r20
 2477 0d0e 542F      		mov r21,r20
 2478 0d10 60E6      		ldi r22,lo8(60000)
 2479 0d12 7AEE      		ldi r23,hi8(60000)
 2480 0d14 80E0      		ldi r24,hlo8(60000)
 2481 0d16 90E0      		ldi r25,hhi8(60000)
 2482 0d18 0E94 0000 		call __divmodsi4
 2483 0d1c 1901      		movw r2,r18
 2484 0d1e 2A01      		movw r4,r20
 2485               	.LBE87:
 2486               	.LBE86:
 2487               	.LM293:
 2488 0d20 B701      		movw r22,r14
 2489 0d22 8827      		clr r24
 2490 0d24 77FD      		sbrc r23,7
 2491 0d26 8095      		com r24
 2492 0d28 982F      		mov r25,r24
 2493 0d2a 0E94 0000 		call __floatsisf
 2494 0d2e A401      		movw r20,r8
 2495 0d30 9301      		movw r18,r6
 2496 0d32 0E94 0000 		call __divsf3
 2497 0d36 9B01      		movw r18,r22
 2498 0d38 AC01      		movw r20,r24
 2499 0d3a 6D85      		ldd r22,Y+13
 2500 0d3c 7E85      		ldd r23,Y+14
 2501 0d3e 8F85      		ldd r24,Y+15
 2502 0d40 9889      		ldd r25,Y+16
 2503 0d42 0E94 0000 		call __mulsf3
 2504 0d46 0E94 0000 		call __fixsfsi
 2505 0d4a 262F      		mov r18,r22
 2506 0d4c 372F      		mov r19,r23
 2507 0d4e 37FF      		sbrs r19,7
GAS LISTING /tmp/cchdpaIW.s 			page 45


 2508 0d50 00C0      		rjmp .L210
 2509 0d52 3095      		com r19
 2510 0d54 2195      		neg r18
 2511 0d56 3F4F      		sbci r19,lo8(-1)
 2512               	.L210:
 2513 0d58 4427      		clr r20
 2514 0d5a 37FD      		sbrc r19,7
 2515 0d5c 4095      		com r20
 2516 0d5e 542F      		mov r21,r20
 2517               	.LBB89:
 2518               	.LBB88:
 2519               	.LM294:
 2520 0d60 C201      		movw r24,r4
 2521 0d62 B101      		movw r22,r2
 2522 0d64 0E94 0000 		call __divmodsi4
 2523 0d68 1901      		movw r2,r18
 2524 0d6a 2A01      		movw r4,r20
 2525 0d6c 2093 0000 		sts Base+6,r18
 2526 0d70 3093 0000 		sts Base+6+1,r19
 2527 0d74 4093 0000 		sts Base+6+2,r20
 2528 0d78 5093 0000 		sts Base+6+3,r21
 2529               	.LVL190:
 2530               	.LBE88:
 2531               	.LBE89:
 2532               	.LBB90:
 2533               	.LBB91:
 2534 0d7c 2091 0000 		lds r18,Shoulder+10
 2535 0d80 3091 0000 		lds r19,Shoulder+10+1
 2536 0d84 4427      		clr r20
 2537 0d86 37FD      		sbrc r19,7
 2538 0d88 4095      		com r20
 2539 0d8a 542F      		mov r21,r20
 2540 0d8c 60E6      		ldi r22,lo8(60000)
 2541 0d8e 7AEE      		ldi r23,hi8(60000)
 2542 0d90 80E0      		ldi r24,hlo8(60000)
 2543 0d92 90E0      		ldi r25,hhi8(60000)
 2544 0d94 0E94 0000 		call __divmodsi4
 2545 0d98 7901      		movw r14,r18
 2546 0d9a 8A01      		movw r16,r20
 2547               	.LBE91:
 2548               	.LBE90:
 2549               	.LM295:
 2550 0d9c B601      		movw r22,r12
 2551 0d9e 8827      		clr r24
 2552 0da0 77FD      		sbrc r23,7
 2553 0da2 8095      		com r24
 2554 0da4 982F      		mov r25,r24
 2555 0da6 0E94 0000 		call __floatsisf
 2556 0daa A401      		movw r20,r8
 2557 0dac 9301      		movw r18,r6
 2558 0dae 0E94 0000 		call __divsf3
 2559 0db2 9B01      		movw r18,r22
 2560 0db4 AC01      		movw r20,r24
 2561 0db6 6D85      		ldd r22,Y+13
 2562 0db8 7E85      		ldd r23,Y+14
 2563 0dba 8F85      		ldd r24,Y+15
 2564 0dbc 9889      		ldd r25,Y+16
GAS LISTING /tmp/cchdpaIW.s 			page 46


 2565 0dbe 0E94 0000 		call __mulsf3
 2566 0dc2 0E94 0000 		call __fixsfsi
 2567 0dc6 262F      		mov r18,r22
 2568 0dc8 372F      		mov r19,r23
 2569 0dca 37FF      		sbrs r19,7
 2570 0dcc 00C0      		rjmp .L211
 2571 0dce 3095      		com r19
 2572 0dd0 2195      		neg r18
 2573 0dd2 3F4F      		sbci r19,lo8(-1)
 2574               	.L211:
 2575 0dd4 4427      		clr r20
 2576 0dd6 37FD      		sbrc r19,7
 2577 0dd8 4095      		com r20
 2578 0dda 542F      		mov r21,r20
 2579               	.LBB93:
 2580               	.LBB92:
 2581               	.LM296:
 2582 0ddc C801      		movw r24,r16
 2583 0dde B701      		movw r22,r14
 2584 0de0 0E94 0000 		call __divmodsi4
 2585 0de4 2093 0000 		sts Shoulder+6,r18
 2586 0de8 3093 0000 		sts Shoulder+6+1,r19
 2587 0dec 4093 0000 		sts Shoulder+6+2,r20
 2588 0df0 5093 0000 		sts Shoulder+6+3,r21
 2589               	.LVL191:
 2590               	.LBE92:
 2591               	.LBE93:
 2592               	.LBB94:
 2593               	.LBB95:
 2594 0df4 2091 0000 		lds r18,Elbow+10
 2595 0df8 3091 0000 		lds r19,Elbow+10+1
 2596 0dfc 4427      		clr r20
 2597 0dfe 37FD      		sbrc r19,7
 2598 0e00 4095      		com r20
 2599 0e02 542F      		mov r21,r20
 2600 0e04 60E6      		ldi r22,lo8(60000)
 2601 0e06 7AEE      		ldi r23,hi8(60000)
 2602 0e08 80E0      		ldi r24,hlo8(60000)
 2603 0e0a 90E0      		ldi r25,hhi8(60000)
 2604 0e0c 0E94 0000 		call __divmodsi4
 2605 0e10 7901      		movw r14,r18
 2606 0e12 8A01      		movw r16,r20
 2607               	.LBE95:
 2608               	.LBE94:
 2609               	.LM297:
 2610 0e14 B501      		movw r22,r10
 2611 0e16 8827      		clr r24
 2612 0e18 77FD      		sbrc r23,7
 2613 0e1a 8095      		com r24
 2614 0e1c 982F      		mov r25,r24
 2615 0e1e 0E94 0000 		call __floatsisf
 2616 0e22 A401      		movw r20,r8
 2617 0e24 9301      		movw r18,r6
 2618 0e26 0E94 0000 		call __divsf3
 2619 0e2a 9B01      		movw r18,r22
 2620 0e2c AC01      		movw r20,r24
 2621 0e2e 6D85      		ldd r22,Y+13
GAS LISTING /tmp/cchdpaIW.s 			page 47


 2622 0e30 7E85      		ldd r23,Y+14
 2623 0e32 8F85      		ldd r24,Y+15
 2624 0e34 9889      		ldd r25,Y+16
 2625 0e36 0E94 0000 		call __mulsf3
 2626 0e3a 0E94 0000 		call __fixsfsi
 2627 0e3e 262F      		mov r18,r22
 2628 0e40 372F      		mov r19,r23
 2629 0e42 37FF      		sbrs r19,7
 2630 0e44 00C0      		rjmp .L212
 2631 0e46 3095      		com r19
 2632 0e48 2195      		neg r18
 2633 0e4a 3F4F      		sbci r19,lo8(-1)
 2634               	.L212:
 2635 0e4c 4427      		clr r20
 2636 0e4e 37FD      		sbrc r19,7
 2637 0e50 4095      		com r20
 2638 0e52 542F      		mov r21,r20
 2639               	.LBB97:
 2640               	.LBB96:
 2641               	.LM298:
 2642 0e54 C801      		movw r24,r16
 2643 0e56 B701      		movw r22,r14
 2644 0e58 0E94 0000 		call __divmodsi4
 2645 0e5c 2093 0000 		sts Elbow+6,r18
 2646 0e60 3093 0000 		sts Elbow+6+1,r19
 2647 0e64 4093 0000 		sts Elbow+6+2,r20
 2648 0e68 5093 0000 		sts Elbow+6+3,r21
 2649               	.LVL192:
 2650               	.LBE96:
 2651               	.LBE97:
 2652               	.LBB98:
 2653               	.LBB99:
 2654 0e6c 2091 0000 		lds r18,Right_Wrist+10
 2655 0e70 3091 0000 		lds r19,Right_Wrist+10+1
 2656 0e74 4427      		clr r20
 2657 0e76 37FD      		sbrc r19,7
 2658 0e78 4095      		com r20
 2659 0e7a 542F      		mov r21,r20
 2660 0e7c 60E6      		ldi r22,lo8(60000)
 2661 0e7e 7AEE      		ldi r23,hi8(60000)
 2662 0e80 80E0      		ldi r24,hlo8(60000)
 2663 0e82 90E0      		ldi r25,hhi8(60000)
 2664 0e84 0E94 0000 		call __divmodsi4
 2665 0e88 7901      		movw r14,r18
 2666 0e8a 8A01      		movw r16,r20
 2667               	.LBE99:
 2668               	.LBE98:
 2669               	.LM299:
 2670 0e8c A989      		ldd r26,Y+17
 2671 0e8e BA89      		ldd r27,Y+18
 2672 0e90 BD01      		movw r22,r26
 2673 0e92 8827      		clr r24
 2674 0e94 77FD      		sbrc r23,7
 2675 0e96 8095      		com r24
 2676 0e98 982F      		mov r25,r24
 2677 0e9a 0E94 0000 		call __floatsisf
 2678 0e9e A401      		movw r20,r8
GAS LISTING /tmp/cchdpaIW.s 			page 48


 2679 0ea0 9301      		movw r18,r6
 2680 0ea2 0E94 0000 		call __divsf3
 2681 0ea6 9B01      		movw r18,r22
 2682 0ea8 AC01      		movw r20,r24
 2683 0eaa 6D85      		ldd r22,Y+13
 2684 0eac 7E85      		ldd r23,Y+14
 2685 0eae 8F85      		ldd r24,Y+15
 2686 0eb0 9889      		ldd r25,Y+16
 2687 0eb2 0E94 0000 		call __mulsf3
 2688 0eb6 0E94 0000 		call __fixsfsi
 2689 0eba 262F      		mov r18,r22
 2690 0ebc 372F      		mov r19,r23
 2691 0ebe 37FF      		sbrs r19,7
 2692 0ec0 00C0      		rjmp .L213
 2693 0ec2 3095      		com r19
 2694 0ec4 2195      		neg r18
 2695 0ec6 3F4F      		sbci r19,lo8(-1)
 2696               	.L213:
 2697 0ec8 4427      		clr r20
 2698 0eca 37FD      		sbrc r19,7
 2699 0ecc 4095      		com r20
 2700 0ece 542F      		mov r21,r20
 2701               	.LBB101:
 2702               	.LBB100:
 2703               	.LM300:
 2704 0ed0 C801      		movw r24,r16
 2705 0ed2 B701      		movw r22,r14
 2706 0ed4 0E94 0000 		call __divmodsi4
 2707 0ed8 2093 0000 		sts Right_Wrist+6,r18
 2708 0edc 3093 0000 		sts Right_Wrist+6+1,r19
 2709 0ee0 4093 0000 		sts Right_Wrist+6+2,r20
 2710 0ee4 5093 0000 		sts Right_Wrist+6+3,r21
 2711               	.LVL193:
 2712               	.LBE100:
 2713               	.LBE101:
 2714               	.LBB102:
 2715               	.LBB103:
 2716 0ee8 2091 0000 		lds r18,Left_Wrist+10
 2717 0eec 3091 0000 		lds r19,Left_Wrist+10+1
 2718 0ef0 4427      		clr r20
 2719 0ef2 37FD      		sbrc r19,7
 2720 0ef4 4095      		com r20
 2721 0ef6 542F      		mov r21,r20
 2722 0ef8 60E6      		ldi r22,lo8(60000)
 2723 0efa 7AEE      		ldi r23,hi8(60000)
 2724 0efc 80E0      		ldi r24,hlo8(60000)
 2725 0efe 90E0      		ldi r25,hhi8(60000)
 2726 0f00 0E94 0000 		call __divmodsi4
 2727 0f04 7901      		movw r14,r18
 2728 0f06 8A01      		movw r16,r20
 2729               	.LBE103:
 2730               	.LBE102:
 2731               	.LM301:
 2732 0f08 2B89      		ldd r18,Y+19
 2733 0f0a 3C89      		ldd r19,Y+20
 2734 0f0c B901      		movw r22,r18
 2735 0f0e 8827      		clr r24
GAS LISTING /tmp/cchdpaIW.s 			page 49


 2736 0f10 77FD      		sbrc r23,7
 2737 0f12 8095      		com r24
 2738 0f14 982F      		mov r25,r24
 2739 0f16 0E94 0000 		call __floatsisf
 2740 0f1a A401      		movw r20,r8
 2741 0f1c 9301      		movw r18,r6
 2742 0f1e 0E94 0000 		call __divsf3
 2743 0f22 9B01      		movw r18,r22
 2744 0f24 AC01      		movw r20,r24
 2745 0f26 6D85      		ldd r22,Y+13
 2746 0f28 7E85      		ldd r23,Y+14
 2747 0f2a 8F85      		ldd r24,Y+15
 2748 0f2c 9889      		ldd r25,Y+16
 2749 0f2e 0E94 0000 		call __mulsf3
 2750 0f32 0E94 0000 		call __fixsfsi
 2751 0f36 262F      		mov r18,r22
 2752 0f38 372F      		mov r19,r23
 2753 0f3a 37FF      		sbrs r19,7
 2754 0f3c 00C0      		rjmp .L214
 2755 0f3e 3095      		com r19
 2756 0f40 2195      		neg r18
 2757 0f42 3F4F      		sbci r19,lo8(-1)
 2758               	.L214:
 2759 0f44 4427      		clr r20
 2760 0f46 37FD      		sbrc r19,7
 2761 0f48 4095      		com r20
 2762 0f4a 542F      		mov r21,r20
 2763               	.LBB105:
 2764               	.LBB104:
 2765               	.LM302:
 2766 0f4c C801      		movw r24,r16
 2767 0f4e B701      		movw r22,r14
 2768 0f50 0E94 0000 		call __divmodsi4
 2769 0f54 2093 0000 		sts Left_Wrist+6,r18
 2770 0f58 3093 0000 		sts Left_Wrist+6+1,r19
 2771 0f5c 4093 0000 		sts Left_Wrist+6+2,r20
 2772 0f60 5093 0000 		sts Left_Wrist+6+3,r21
 2773               	.LVL194:
 2774               	.LBE104:
 2775               	.LBE105:
 2776               	.LBB106:
 2777               	.LBB107:
 2778 0f64 2091 0000 		lds r18,Gripper+10
 2779 0f68 3091 0000 		lds r19,Gripper+10+1
 2780 0f6c 4427      		clr r20
 2781 0f6e 37FD      		sbrc r19,7
 2782 0f70 4095      		com r20
 2783 0f72 542F      		mov r21,r20
 2784 0f74 60E6      		ldi r22,lo8(60000)
 2785 0f76 7AEE      		ldi r23,hi8(60000)
 2786 0f78 80E0      		ldi r24,hlo8(60000)
 2787 0f7a 90E0      		ldi r25,hhi8(60000)
 2788 0f7c 0E94 0000 		call __divmodsi4
 2789 0f80 7901      		movw r14,r18
 2790 0f82 8A01      		movw r16,r20
 2791               	.LBE107:
 2792               	.LBE106:
GAS LISTING /tmp/cchdpaIW.s 			page 50


 2793               	.LM303:
 2794 0f84 AD89      		ldd r26,Y+21
 2795 0f86 BE89      		ldd r27,Y+22
 2796 0f88 BD01      		movw r22,r26
 2797 0f8a 8827      		clr r24
 2798 0f8c 77FD      		sbrc r23,7
 2799 0f8e 8095      		com r24
 2800 0f90 982F      		mov r25,r24
 2801 0f92 0E94 0000 		call __floatsisf
 2802 0f96 A401      		movw r20,r8
 2803 0f98 9301      		movw r18,r6
 2804 0f9a 0E94 0000 		call __divsf3
 2805 0f9e 9B01      		movw r18,r22
 2806 0fa0 AC01      		movw r20,r24
 2807 0fa2 6D85      		ldd r22,Y+13
 2808 0fa4 7E85      		ldd r23,Y+14
 2809 0fa6 8F85      		ldd r24,Y+15
 2810 0fa8 9889      		ldd r25,Y+16
 2811 0faa 0E94 0000 		call __mulsf3
 2812 0fae 0E94 0000 		call __fixsfsi
 2813 0fb2 262F      		mov r18,r22
 2814 0fb4 372F      		mov r19,r23
 2815 0fb6 37FF      		sbrs r19,7
 2816 0fb8 00C0      		rjmp .L215
 2817 0fba 3095      		com r19
 2818 0fbc 2195      		neg r18
 2819 0fbe 3F4F      		sbci r19,lo8(-1)
 2820               	.L215:
 2821 0fc0 4427      		clr r20
 2822 0fc2 37FD      		sbrc r19,7
 2823 0fc4 4095      		com r20
 2824 0fc6 542F      		mov r21,r20
 2825               	.LBB109:
 2826               	.LBB108:
 2827               	.LM304:
 2828 0fc8 C801      		movw r24,r16
 2829 0fca B701      		movw r22,r14
 2830 0fcc 0E94 0000 		call __divmodsi4
 2831 0fd0 2093 0000 		sts Gripper+6,r18
 2832 0fd4 3093 0000 		sts Gripper+6+1,r19
 2833 0fd8 4093 0000 		sts Gripper+6+2,r20
 2834 0fdc 5093 0000 		sts Gripper+6+3,r21
 2835               	.LVL195:
 2836 0fe0 E0E0      		ldi r30,lo8(goal)
 2837 0fe2 F0E0      		ldi r31,hi8(goal)
 2838 0fe4 20E0      		ldi r18,lo8(pose)
 2839 0fe6 30E0      		ldi r19,hi8(pose)
 2840 0fe8 DE01      		movw r26,r28
 2841 0fea 1196      		adiw r26,1
 2842 0fec BD01      		movw r22,r26
 2843               	.LVL196:
 2844               	.L216:
 2845               	.LBE108:
 2846               	.LBE109:
 2847               	.LM305:
 2848 0fee 8191      		ld r24,Z+
 2849 0ff0 9191      		ld r25,Z+
GAS LISTING /tmp/cchdpaIW.s 			page 51


 2850 0ff2 D901      		movw r26,r18
 2851 0ff4 4D91      		ld r20,X+
 2852 0ff6 5D91      		ld r21,X+
 2853 0ff8 9D01      		movw r18,r26
 2854 0ffa 841B      		sub r24,r20
 2855 0ffc 950B      		sbc r25,r21
 2856 0ffe DB01      		movw r26,r22
 2857 1000 8D93      		st X+,r24
 2858 1002 9D93      		st X+,r25
 2859 1004 BD01      		movw r22,r26
 2860               	.LM306:
 2861 1006 B0E0      		ldi r27,hi8(goal+12)
 2862 1008 E030      		cpi r30,lo8(goal+12)
 2863 100a FB07      		cpc r31,r27
 2864 100c 01F4      		brne .L216
 2865               	.LBB110:
 2866               	.LBB111:
 2867               	.LM307:
 2868 100e 8091 0000 		lds r24,elapsedMillis
 2869 1012 9091 0000 		lds r25,elapsedMillis+1
 2870 1016 A091 0000 		lds r26,elapsedMillis+2
 2871 101a B091 0000 		lds r27,elapsedMillis+3
 2872               	.LBE111:
 2873               	.LBE110:
 2874               	.LM308:
 2875 101e 2091 0000 		lds r18,Base+32
 2876 1022 3091 0000 		lds r19,Base+32+1
 2877 1026 4091 0000 		lds r20,Base+32+2
 2878 102a 5091 0000 		lds r21,Base+32+3
 2879 102e 821B      		sub r24,r18
 2880 1030 930B      		sbc r25,r19
 2881 1032 A40B      		sbc r26,r20
 2882 1034 B50B      		sbc r27,r21
 2883 1036 8215      		cp r24,r2
 2884 1038 9305      		cpc r25,r3
 2885 103a A405      		cpc r26,r4
 2886 103c B505      		cpc r27,r5
 2887 103e 00F0      		brlo .L217
 2888               	.LBB112:
 2889               	.LBB113:
 2890               	.LM309:
 2891 1040 8091 0000 		lds r24,elapsedMillis
 2892 1044 9091 0000 		lds r25,elapsedMillis+1
 2893 1048 A091 0000 		lds r26,elapsedMillis+2
 2894 104c B091 0000 		lds r27,elapsedMillis+3
 2895               	.LBE113:
 2896               	.LBE112:
 2897               	.LM310:
 2898 1050 8093 0000 		sts Base+32,r24
 2899 1054 9093 0000 		sts Base+32+1,r25
 2900 1058 A093 0000 		sts Base+32+2,r26
 2901 105c B093 0000 		sts Base+32+3,r27
 2902               	.LM311:
 2903 1060 8981      		ldd r24,Y+1
 2904 1062 9A81      		ldd r25,Y+2
 2905               	.LVL197:
 2906               	.LBB114:
GAS LISTING /tmp/cchdpaIW.s 			page 52


 2907               	.LBB115:
 2908               	.LM312:
 2909 1064 97FD      		sbrc r25,7
 2910 1066 00C0      		rjmp .L236
 2911 1068 61E0      		ldi r22,lo8(1)
 2912 106a 70E0      		ldi r23,hi8(1)
 2913 106c 1816      		cp __zero_reg__,r24
 2914 106e 1906      		cpc __zero_reg__,r25
 2915 1070 04F0      		brlt .L218
 2916 1072 60E0      		ldi r22,lo8(0)
 2917 1074 70E0      		ldi r23,hi8(0)
 2918 1076 00C0      		rjmp .L218
 2919               	.L236:
 2920 1078 6FEF      		ldi r22,lo8(-1)
 2921 107a 7FEF      		ldi r23,hi8(-1)
 2922               	.L218:
 2923               	.LBE115:
 2924               	.LBE114:
 2925               	.LM313:
 2926 107c 80E0      		ldi r24,lo8(Base)
 2927 107e 90E0      		ldi r25,hi8(Base)
 2928 1080 0E94 0000 		call stepOne
 2929               	.LVL198:
 2930               	.L217:
 2931               	.LBB116:
 2932               	.LBB117:
 2933               	.LM314:
 2934 1084 8091 0000 		lds r24,elapsedMillis
 2935 1088 9091 0000 		lds r25,elapsedMillis+1
 2936 108c A091 0000 		lds r26,elapsedMillis+2
 2937 1090 B091 0000 		lds r27,elapsedMillis+3
 2938               	.LBE117:
 2939               	.LBE116:
 2940               	.LM315:
 2941 1094 2091 0000 		lds r18,Shoulder+32
 2942 1098 3091 0000 		lds r19,Shoulder+32+1
 2943 109c 4091 0000 		lds r20,Shoulder+32+2
 2944 10a0 5091 0000 		lds r21,Shoulder+32+3
 2945 10a4 821B      		sub r24,r18
 2946 10a6 930B      		sbc r25,r19
 2947 10a8 A40B      		sbc r26,r20
 2948 10aa B50B      		sbc r27,r21
 2949 10ac 2091 0000 		lds r18,Shoulder+6
 2950 10b0 3091 0000 		lds r19,Shoulder+6+1
 2951 10b4 4091 0000 		lds r20,Shoulder+6+2
 2952 10b8 5091 0000 		lds r21,Shoulder+6+3
 2953 10bc 8217      		cp r24,r18
 2954 10be 9307      		cpc r25,r19
 2955 10c0 A407      		cpc r26,r20
 2956 10c2 B507      		cpc r27,r21
 2957 10c4 00F0      		brlo .L220
 2958               	.LBB118:
 2959               	.LBB119:
 2960               	.LM316:
 2961 10c6 8091 0000 		lds r24,elapsedMillis
 2962 10ca 9091 0000 		lds r25,elapsedMillis+1
 2963 10ce A091 0000 		lds r26,elapsedMillis+2
GAS LISTING /tmp/cchdpaIW.s 			page 53


 2964 10d2 B091 0000 		lds r27,elapsedMillis+3
 2965               	.LBE119:
 2966               	.LBE118:
 2967               	.LM317:
 2968 10d6 8093 0000 		sts Shoulder+32,r24
 2969 10da 9093 0000 		sts Shoulder+32+1,r25
 2970 10de A093 0000 		sts Shoulder+32+2,r26
 2971 10e2 B093 0000 		sts Shoulder+32+3,r27
 2972               	.LM318:
 2973 10e6 8B81      		ldd r24,Y+3
 2974 10e8 9C81      		ldd r25,Y+4
 2975               	.LVL199:
 2976               	.LBB120:
 2977               	.LBB121:
 2978               	.LM319:
 2979 10ea 97FD      		sbrc r25,7
 2980 10ec 00C0      		rjmp .L237
 2981 10ee 61E0      		ldi r22,lo8(1)
 2982 10f0 70E0      		ldi r23,hi8(1)
 2983 10f2 1816      		cp __zero_reg__,r24
 2984 10f4 1906      		cpc __zero_reg__,r25
 2985 10f6 04F0      		brlt .L221
 2986 10f8 60E0      		ldi r22,lo8(0)
 2987 10fa 70E0      		ldi r23,hi8(0)
 2988 10fc 00C0      		rjmp .L221
 2989               	.L237:
 2990 10fe 6FEF      		ldi r22,lo8(-1)
 2991 1100 7FEF      		ldi r23,hi8(-1)
 2992               	.L221:
 2993               	.LBE121:
 2994               	.LBE120:
 2995               	.LM320:
 2996 1102 80E0      		ldi r24,lo8(Shoulder)
 2997 1104 90E0      		ldi r25,hi8(Shoulder)
 2998 1106 0E94 0000 		call stepOne
 2999               	.LVL200:
 3000               	.L220:
 3001               	.LBB122:
 3002               	.LBB123:
 3003               	.LM321:
 3004 110a 8091 0000 		lds r24,elapsedMillis
 3005 110e 9091 0000 		lds r25,elapsedMillis+1
 3006 1112 A091 0000 		lds r26,elapsedMillis+2
 3007 1116 B091 0000 		lds r27,elapsedMillis+3
 3008               	.LBE123:
 3009               	.LBE122:
 3010               	.LM322:
 3011 111a 2091 0000 		lds r18,Elbow+32
 3012 111e 3091 0000 		lds r19,Elbow+32+1
 3013 1122 4091 0000 		lds r20,Elbow+32+2
 3014 1126 5091 0000 		lds r21,Elbow+32+3
 3015 112a 821B      		sub r24,r18
 3016 112c 930B      		sbc r25,r19
 3017 112e A40B      		sbc r26,r20
 3018 1130 B50B      		sbc r27,r21
 3019 1132 2091 0000 		lds r18,Elbow+6
 3020 1136 3091 0000 		lds r19,Elbow+6+1
GAS LISTING /tmp/cchdpaIW.s 			page 54


 3021 113a 4091 0000 		lds r20,Elbow+6+2
 3022 113e 5091 0000 		lds r21,Elbow+6+3
 3023 1142 8217      		cp r24,r18
 3024 1144 9307      		cpc r25,r19
 3025 1146 A407      		cpc r26,r20
 3026 1148 B507      		cpc r27,r21
 3027 114a 00F0      		brlo .L223
 3028               	.LBB124:
 3029               	.LBB125:
 3030               	.LM323:
 3031 114c 8091 0000 		lds r24,elapsedMillis
 3032 1150 9091 0000 		lds r25,elapsedMillis+1
 3033 1154 A091 0000 		lds r26,elapsedMillis+2
 3034 1158 B091 0000 		lds r27,elapsedMillis+3
 3035               	.LBE125:
 3036               	.LBE124:
 3037               	.LM324:
 3038 115c 8093 0000 		sts Elbow+32,r24
 3039 1160 9093 0000 		sts Elbow+32+1,r25
 3040 1164 A093 0000 		sts Elbow+32+2,r26
 3041 1168 B093 0000 		sts Elbow+32+3,r27
 3042               	.LM325:
 3043 116c 8D81      		ldd r24,Y+5
 3044 116e 9E81      		ldd r25,Y+6
 3045               	.LVL201:
 3046               	.LBB126:
 3047               	.LBB127:
 3048               	.LM326:
 3049 1170 97FD      		sbrc r25,7
 3050 1172 00C0      		rjmp .L238
 3051 1174 61E0      		ldi r22,lo8(1)
 3052 1176 70E0      		ldi r23,hi8(1)
 3053 1178 1816      		cp __zero_reg__,r24
 3054 117a 1906      		cpc __zero_reg__,r25
 3055 117c 04F0      		brlt .L224
 3056 117e 60E0      		ldi r22,lo8(0)
 3057 1180 70E0      		ldi r23,hi8(0)
 3058 1182 00C0      		rjmp .L224
 3059               	.L238:
 3060 1184 6FEF      		ldi r22,lo8(-1)
 3061 1186 7FEF      		ldi r23,hi8(-1)
 3062               	.L224:
 3063               	.LBE127:
 3064               	.LBE126:
 3065               	.LM327:
 3066 1188 80E0      		ldi r24,lo8(Elbow)
 3067 118a 90E0      		ldi r25,hi8(Elbow)
 3068 118c 0E94 0000 		call stepOne
 3069               	.LVL202:
 3070               	.L223:
 3071               	.LBB128:
 3072               	.LBB129:
 3073               	.LM328:
 3074 1190 8091 0000 		lds r24,elapsedMillis
 3075 1194 9091 0000 		lds r25,elapsedMillis+1
 3076 1198 A091 0000 		lds r26,elapsedMillis+2
 3077 119c B091 0000 		lds r27,elapsedMillis+3
GAS LISTING /tmp/cchdpaIW.s 			page 55


 3078               	.LBE129:
 3079               	.LBE128:
 3080               	.LM329:
 3081 11a0 2091 0000 		lds r18,Right_Wrist+32
 3082 11a4 3091 0000 		lds r19,Right_Wrist+32+1
 3083 11a8 4091 0000 		lds r20,Right_Wrist+32+2
 3084 11ac 5091 0000 		lds r21,Right_Wrist+32+3
 3085 11b0 821B      		sub r24,r18
 3086 11b2 930B      		sbc r25,r19
 3087 11b4 A40B      		sbc r26,r20
 3088 11b6 B50B      		sbc r27,r21
 3089 11b8 2091 0000 		lds r18,Right_Wrist+6
 3090 11bc 3091 0000 		lds r19,Right_Wrist+6+1
 3091 11c0 4091 0000 		lds r20,Right_Wrist+6+2
 3092 11c4 5091 0000 		lds r21,Right_Wrist+6+3
 3093 11c8 8217      		cp r24,r18
 3094 11ca 9307      		cpc r25,r19
 3095 11cc A407      		cpc r26,r20
 3096 11ce B507      		cpc r27,r21
 3097 11d0 00F0      		brlo .L226
 3098               	.LBB130:
 3099               	.LBB131:
 3100               	.LM330:
 3101 11d2 8091 0000 		lds r24,elapsedMillis
 3102 11d6 9091 0000 		lds r25,elapsedMillis+1
 3103 11da A091 0000 		lds r26,elapsedMillis+2
 3104 11de B091 0000 		lds r27,elapsedMillis+3
 3105               	.LBE131:
 3106               	.LBE130:
 3107               	.LM331:
 3108 11e2 8093 0000 		sts Right_Wrist+32,r24
 3109 11e6 9093 0000 		sts Right_Wrist+32+1,r25
 3110 11ea A093 0000 		sts Right_Wrist+32+2,r26
 3111 11ee B093 0000 		sts Right_Wrist+32+3,r27
 3112               	.LM332:
 3113 11f2 8F81      		ldd r24,Y+7
 3114 11f4 9885      		ldd r25,Y+8
 3115               	.LVL203:
 3116               	.LBB132:
 3117               	.LBB133:
 3118               	.LM333:
 3119 11f6 97FD      		sbrc r25,7
 3120 11f8 00C0      		rjmp .L239
 3121 11fa 61E0      		ldi r22,lo8(1)
 3122 11fc 70E0      		ldi r23,hi8(1)
 3123 11fe 1816      		cp __zero_reg__,r24
 3124 1200 1906      		cpc __zero_reg__,r25
 3125 1202 04F0      		brlt .L227
 3126 1204 60E0      		ldi r22,lo8(0)
 3127 1206 70E0      		ldi r23,hi8(0)
 3128 1208 00C0      		rjmp .L227
 3129               	.L239:
 3130 120a 6FEF      		ldi r22,lo8(-1)
 3131 120c 7FEF      		ldi r23,hi8(-1)
 3132               	.L227:
 3133               	.LBE133:
 3134               	.LBE132:
GAS LISTING /tmp/cchdpaIW.s 			page 56


 3135               	.LM334:
 3136 120e 80E0      		ldi r24,lo8(Right_Wrist)
 3137 1210 90E0      		ldi r25,hi8(Right_Wrist)
 3138 1212 0E94 0000 		call stepOne
 3139               	.LVL204:
 3140               	.L226:
 3141               	.LBB134:
 3142               	.LBB135:
 3143               	.LM335:
 3144 1216 8091 0000 		lds r24,elapsedMillis
 3145 121a 9091 0000 		lds r25,elapsedMillis+1
 3146 121e A091 0000 		lds r26,elapsedMillis+2
 3147 1222 B091 0000 		lds r27,elapsedMillis+3
 3148               	.LBE135:
 3149               	.LBE134:
 3150               	.LM336:
 3151 1226 2091 0000 		lds r18,Left_Wrist+32
 3152 122a 3091 0000 		lds r19,Left_Wrist+32+1
 3153 122e 4091 0000 		lds r20,Left_Wrist+32+2
 3154 1232 5091 0000 		lds r21,Left_Wrist+32+3
 3155 1236 821B      		sub r24,r18
 3156 1238 930B      		sbc r25,r19
 3157 123a A40B      		sbc r26,r20
 3158 123c B50B      		sbc r27,r21
 3159 123e 2091 0000 		lds r18,Left_Wrist+6
 3160 1242 3091 0000 		lds r19,Left_Wrist+6+1
 3161 1246 4091 0000 		lds r20,Left_Wrist+6+2
 3162 124a 5091 0000 		lds r21,Left_Wrist+6+3
 3163 124e 8217      		cp r24,r18
 3164 1250 9307      		cpc r25,r19
 3165 1252 A407      		cpc r26,r20
 3166 1254 B507      		cpc r27,r21
 3167 1256 00F0      		brlo .L229
 3168               	.LBB136:
 3169               	.LBB137:
 3170               	.LM337:
 3171 1258 8091 0000 		lds r24,elapsedMillis
 3172 125c 9091 0000 		lds r25,elapsedMillis+1
 3173 1260 A091 0000 		lds r26,elapsedMillis+2
 3174 1264 B091 0000 		lds r27,elapsedMillis+3
 3175               	.LBE137:
 3176               	.LBE136:
 3177               	.LM338:
 3178 1268 8093 0000 		sts Left_Wrist+32,r24
 3179 126c 9093 0000 		sts Left_Wrist+32+1,r25
 3180 1270 A093 0000 		sts Left_Wrist+32+2,r26
 3181 1274 B093 0000 		sts Left_Wrist+32+3,r27
 3182               	.LM339:
 3183 1278 8985      		ldd r24,Y+9
 3184 127a 9A85      		ldd r25,Y+10
 3185               	.LVL205:
 3186               	.LBB138:
 3187               	.LBB139:
 3188               	.LM340:
 3189 127c 97FD      		sbrc r25,7
 3190 127e 00C0      		rjmp .L240
 3191 1280 61E0      		ldi r22,lo8(1)
GAS LISTING /tmp/cchdpaIW.s 			page 57


 3192 1282 70E0      		ldi r23,hi8(1)
 3193 1284 1816      		cp __zero_reg__,r24
 3194 1286 1906      		cpc __zero_reg__,r25
 3195 1288 04F0      		brlt .L230
 3196 128a 60E0      		ldi r22,lo8(0)
 3197 128c 70E0      		ldi r23,hi8(0)
 3198 128e 00C0      		rjmp .L230
 3199               	.L240:
 3200 1290 6FEF      		ldi r22,lo8(-1)
 3201 1292 7FEF      		ldi r23,hi8(-1)
 3202               	.L230:
 3203               	.LBE139:
 3204               	.LBE138:
 3205               	.LM341:
 3206 1294 80E0      		ldi r24,lo8(Left_Wrist)
 3207 1296 90E0      		ldi r25,hi8(Left_Wrist)
 3208 1298 0E94 0000 		call stepOne
 3209               	.LVL206:
 3210               	.L229:
 3211               	.LBB140:
 3212               	.LBB141:
 3213               	.LM342:
 3214 129c 8091 0000 		lds r24,elapsedMillis
 3215 12a0 9091 0000 		lds r25,elapsedMillis+1
 3216 12a4 A091 0000 		lds r26,elapsedMillis+2
 3217 12a8 B091 0000 		lds r27,elapsedMillis+3
 3218               	.LBE141:
 3219               	.LBE140:
 3220               	.LM343:
 3221 12ac 2091 0000 		lds r18,Gripper+32
 3222 12b0 3091 0000 		lds r19,Gripper+32+1
 3223 12b4 4091 0000 		lds r20,Gripper+32+2
 3224 12b8 5091 0000 		lds r21,Gripper+32+3
 3225 12bc 821B      		sub r24,r18
 3226 12be 930B      		sbc r25,r19
 3227 12c0 A40B      		sbc r26,r20
 3228 12c2 B50B      		sbc r27,r21
 3229 12c4 2091 0000 		lds r18,Gripper+6
 3230 12c8 3091 0000 		lds r19,Gripper+6+1
 3231 12cc 4091 0000 		lds r20,Gripper+6+2
 3232 12d0 5091 0000 		lds r21,Gripper+6+3
 3233 12d4 8217      		cp r24,r18
 3234 12d6 9307      		cpc r25,r19
 3235 12d8 A407      		cpc r26,r20
 3236 12da B507      		cpc r27,r21
 3237 12dc 00F0      		brlo .L205
 3238               	.LBB142:
 3239               	.LBB143:
 3240               	.LM344:
 3241 12de 8091 0000 		lds r24,elapsedMillis
 3242 12e2 9091 0000 		lds r25,elapsedMillis+1
 3243 12e6 A091 0000 		lds r26,elapsedMillis+2
 3244 12ea B091 0000 		lds r27,elapsedMillis+3
 3245               	.LBE143:
 3246               	.LBE142:
 3247               	.LM345:
 3248 12ee 8093 0000 		sts Gripper+32,r24
GAS LISTING /tmp/cchdpaIW.s 			page 58


 3249 12f2 9093 0000 		sts Gripper+32+1,r25
 3250 12f6 A093 0000 		sts Gripper+32+2,r26
 3251 12fa B093 0000 		sts Gripper+32+3,r27
 3252               	.LM346:
 3253 12fe 8B85      		ldd r24,Y+11
 3254 1300 9C85      		ldd r25,Y+12
 3255               	.LVL207:
 3256               	.LBB144:
 3257               	.LBB145:
 3258               	.LM347:
 3259 1302 97FD      		sbrc r25,7
 3260 1304 00C0      		rjmp .L241
 3261 1306 61E0      		ldi r22,lo8(1)
 3262 1308 70E0      		ldi r23,hi8(1)
 3263 130a 1816      		cp __zero_reg__,r24
 3264 130c 1906      		cpc __zero_reg__,r25
 3265 130e 04F0      		brlt .L233
 3266 1310 60E0      		ldi r22,lo8(0)
 3267 1312 70E0      		ldi r23,hi8(0)
 3268 1314 00C0      		rjmp .L233
 3269               	.L241:
 3270 1316 6FEF      		ldi r22,lo8(-1)
 3271 1318 7FEF      		ldi r23,hi8(-1)
 3272               	.L233:
 3273               	.LBE145:
 3274               	.LBE144:
 3275               	.LM348:
 3276 131a 80E0      		ldi r24,lo8(Gripper)
 3277 131c 90E0      		ldi r25,hi8(Gripper)
 3278 131e 0E94 0000 		call stepOne
 3279               	.LVL208:
 3280               	.L205:
 3281               	/* epilogue start */
 3282               	.LM349:
 3283 1322 6696      		adiw r28,22
 3284 1324 CDBF      		out __SP_L__,r28
 3285 1326 DEBF      		out __SP_H__,r29
 3286 1328 CF91      		pop r28
 3287 132a DF91      		pop r29
 3288 132c 1F91      		pop r17
 3289 132e 0F91      		pop r16
 3290               	.LVL209:
 3291 1330 FF90      		pop r15
 3292 1332 EF90      		pop r14
 3293 1334 DF90      		pop r13
 3294 1336 CF90      		pop r12
 3295 1338 BF90      		pop r11
 3296 133a AF90      		pop r10
 3297 133c 9F90      		pop r9
 3298 133e 8F90      		pop r8
 3299 1340 7F90      		pop r7
 3300 1342 6F90      		pop r6
 3301 1344 5F90      		pop r5
 3302 1346 4F90      		pop r4
 3303 1348 3F90      		pop r3
 3304 134a 2F90      		pop r2
 3305 134c 0895      		ret
GAS LISTING /tmp/cchdpaIW.s 			page 59


 3306               	.LFE35:
 3307               		.size	moveToGoal, .-moveToGoal
 3308               		.data
 3309               	.LC1:
 3310 0006 7265 6164 		.string	"ready"
 3310      7900 
 3311               	.LC2:
 3312 000c 6D6F 7669 		.string	"moving"
 3312      6E67 00
 3313               	.LC3:
 3314 0013 676F 7454 		.string	"gotThere"
 3314      6865 7265 
 3314      00
 3315               		.text
 3316               	.global	mainLoop
 3317               		.type	mainLoop, @function
 3318               	mainLoop:
 3319               	.LFB36:
 3320               	.LM350:
 3321 134e 6F92      		push r6
 3322 1350 7F92      		push r7
 3323 1352 8F92      		push r8
 3324 1354 9F92      		push r9
 3325 1356 AF92      		push r10
 3326 1358 BF92      		push r11
 3327 135a CF92      		push r12
 3328 135c DF92      		push r13
 3329 135e EF92      		push r14
 3330 1360 FF92      		push r15
 3331 1362 0F93      		push r16
 3332 1364 1F93      		push r17
 3333 1366 CF93      		push r28
 3334 1368 DF93      		push r29
 3335               	/* prologue: function */
 3336               	/* frame size = 0 */
 3337               	/* stack size = 14 */
 3338               	.L__stack_usage = 14
 3339               	.LM351:
 3340 136a 22E0      		ldi r18,lo8(2)
 3341 136c 822E      		mov r8,r18
 3342 136e 912C      		mov r9,__zero_reg__
 3343               	.LBB146:
 3344               	.LM352:
 3345 1370 93E0      		ldi r25,lo8(3)
 3346 1372 692E      		mov r6,r25
 3347 1374 712C      		mov r7,__zero_reg__
 3348               	.LBE146:
 3349               	.LBB147:
 3350               	.LBB148:
 3351               	.LM353:
 3352 1376 80E6      		ldi r24,lo8(60000)
 3353 1378 A82E      		mov r10,r24
 3354 137a 8AEE      		ldi r24,hi8(60000)
 3355 137c B82E      		mov r11,r24
 3356 137e C12C      		mov r12,__zero_reg__
 3357 1380 D12C      		mov r13,__zero_reg__
 3358               	.L258:
GAS LISTING /tmp/cchdpaIW.s 			page 60


 3359               	.LBE148:
 3360               	.LBE147:
 3361               	.LM354:
 3362 1382 8091 0000 		lds r24,state
 3363 1386 9091 0000 		lds r25,state+1
 3364 138a 0097      		sbiw r24,0
 3365 138c 01F4      		brne .+2
 3366 138e 00C0      		rjmp .L246
 3367               	.LM355:
 3368 1390 8130      		cpi r24,1
 3369 1392 9105      		cpc r25,__zero_reg__
 3370 1394 01F0      		breq .+2
 3371 1396 00C0      		rjmp .L247
 3372               	.LM356:
 3373 1398 8091 0000 		lds r24,maxSpeed
 3374 139c 9091 0000 		lds r25,maxSpeed+1
 3375 13a0 B401      		movw r22,r8
 3376 13a2 0E94 0000 		call __divmodhi4
 3377 13a6 7B01      		movw r14,r22
 3378 13a8 0027      		clr r16
 3379 13aa F7FC      		sbrc r15,7
 3380 13ac 0095      		com r16
 3381 13ae 102F      		mov r17,r16
 3382               	.LVL210:
 3383               	.LBB150:
 3384               	.LBB149:
 3385               	.LM357:
 3386 13b0 2091 0000 		lds r18,Base+10
 3387 13b4 3091 0000 		lds r19,Base+10+1
 3388 13b8 4427      		clr r20
 3389 13ba 37FD      		sbrc r19,7
 3390 13bc 4095      		com r20
 3391 13be 542F      		mov r21,r20
 3392 13c0 C601      		movw r24,r12
 3393 13c2 B501      		movw r22,r10
 3394 13c4 0E94 0000 		call __divmodsi4
 3395 13c8 CA01      		movw r24,r20
 3396 13ca B901      		movw r22,r18
 3397 13cc A801      		movw r20,r16
 3398 13ce 9701      		movw r18,r14
 3399 13d0 0E94 0000 		call __divmodsi4
 3400 13d4 2093 0000 		sts Base+6,r18
 3401 13d8 3093 0000 		sts Base+6+1,r19
 3402 13dc 4093 0000 		sts Base+6+2,r20
 3403 13e0 5093 0000 		sts Base+6+3,r21
 3404               	.LVL211:
 3405               	.LBE149:
 3406               	.LBE150:
 3407               	.LBB151:
 3408               	.LBB152:
 3409 13e4 2091 0000 		lds r18,Shoulder+10
 3410 13e8 3091 0000 		lds r19,Shoulder+10+1
 3411 13ec 4427      		clr r20
 3412 13ee 37FD      		sbrc r19,7
 3413 13f0 4095      		com r20
 3414 13f2 542F      		mov r21,r20
 3415 13f4 C601      		movw r24,r12
GAS LISTING /tmp/cchdpaIW.s 			page 61


 3416 13f6 B501      		movw r22,r10
 3417 13f8 0E94 0000 		call __divmodsi4
 3418 13fc CA01      		movw r24,r20
 3419 13fe B901      		movw r22,r18
 3420 1400 A801      		movw r20,r16
 3421 1402 9701      		movw r18,r14
 3422 1404 0E94 0000 		call __divmodsi4
 3423 1408 2093 0000 		sts Shoulder+6,r18
 3424 140c 3093 0000 		sts Shoulder+6+1,r19
 3425 1410 4093 0000 		sts Shoulder+6+2,r20
 3426 1414 5093 0000 		sts Shoulder+6+3,r21
 3427               	.LVL212:
 3428               	.LBE152:
 3429               	.LBE151:
 3430               	.LBB153:
 3431               	.LBB154:
 3432 1418 2091 0000 		lds r18,Elbow+10
 3433 141c 3091 0000 		lds r19,Elbow+10+1
 3434 1420 4427      		clr r20
 3435 1422 37FD      		sbrc r19,7
 3436 1424 4095      		com r20
 3437 1426 542F      		mov r21,r20
 3438 1428 C601      		movw r24,r12
 3439 142a B501      		movw r22,r10
 3440 142c 0E94 0000 		call __divmodsi4
 3441 1430 CA01      		movw r24,r20
 3442 1432 B901      		movw r22,r18
 3443 1434 A801      		movw r20,r16
 3444 1436 9701      		movw r18,r14
 3445 1438 0E94 0000 		call __divmodsi4
 3446 143c 2093 0000 		sts Elbow+6,r18
 3447 1440 3093 0000 		sts Elbow+6+1,r19
 3448 1444 4093 0000 		sts Elbow+6+2,r20
 3449 1448 5093 0000 		sts Elbow+6+3,r21
 3450               	.LVL213:
 3451               	.LBE154:
 3452               	.LBE153:
 3453               	.LBB155:
 3454               	.LBB156:
 3455 144c 2091 0000 		lds r18,Right_Wrist+10
 3456 1450 3091 0000 		lds r19,Right_Wrist+10+1
 3457 1454 4427      		clr r20
 3458 1456 37FD      		sbrc r19,7
 3459 1458 4095      		com r20
 3460 145a 542F      		mov r21,r20
 3461 145c C601      		movw r24,r12
 3462 145e B501      		movw r22,r10
 3463 1460 0E94 0000 		call __divmodsi4
 3464 1464 CA01      		movw r24,r20
 3465 1466 B901      		movw r22,r18
 3466 1468 A801      		movw r20,r16
 3467 146a 9701      		movw r18,r14
 3468 146c 0E94 0000 		call __divmodsi4
 3469 1470 2093 0000 		sts Right_Wrist+6,r18
 3470 1474 3093 0000 		sts Right_Wrist+6+1,r19
 3471 1478 4093 0000 		sts Right_Wrist+6+2,r20
 3472 147c 5093 0000 		sts Right_Wrist+6+3,r21
GAS LISTING /tmp/cchdpaIW.s 			page 62


 3473               	.LVL214:
 3474               	.LBE156:
 3475               	.LBE155:
 3476               	.LBB157:
 3477               	.LBB158:
 3478 1480 2091 0000 		lds r18,Left_Wrist+10
 3479 1484 3091 0000 		lds r19,Left_Wrist+10+1
 3480 1488 4427      		clr r20
 3481 148a 37FD      		sbrc r19,7
 3482 148c 4095      		com r20
 3483 148e 542F      		mov r21,r20
 3484 1490 C601      		movw r24,r12
 3485 1492 B501      		movw r22,r10
 3486 1494 0E94 0000 		call __divmodsi4
 3487 1498 CA01      		movw r24,r20
 3488 149a B901      		movw r22,r18
 3489 149c A801      		movw r20,r16
 3490 149e 9701      		movw r18,r14
 3491 14a0 0E94 0000 		call __divmodsi4
 3492 14a4 2093 0000 		sts Left_Wrist+6,r18
 3493 14a8 3093 0000 		sts Left_Wrist+6+1,r19
 3494 14ac 4093 0000 		sts Left_Wrist+6+2,r20
 3495 14b0 5093 0000 		sts Left_Wrist+6+3,r21
 3496               	.LVL215:
 3497               	.LBE158:
 3498               	.LBE157:
 3499               	.LBB159:
 3500               	.LBB160:
 3501 14b4 2091 0000 		lds r18,Gripper+10
 3502 14b8 3091 0000 		lds r19,Gripper+10+1
 3503 14bc 4427      		clr r20
 3504 14be 37FD      		sbrc r19,7
 3505 14c0 4095      		com r20
 3506 14c2 542F      		mov r21,r20
 3507 14c4 C601      		movw r24,r12
 3508 14c6 B501      		movw r22,r10
 3509 14c8 0E94 0000 		call __divmodsi4
 3510 14cc CA01      		movw r24,r20
 3511 14ce B901      		movw r22,r18
 3512 14d0 A801      		movw r20,r16
 3513 14d2 9701      		movw r18,r14
 3514 14d4 0E94 0000 		call __divmodsi4
 3515 14d8 2093 0000 		sts Gripper+6,r18
 3516 14dc 3093 0000 		sts Gripper+6+1,r19
 3517 14e0 4093 0000 		sts Gripper+6+2,r20
 3518 14e4 5093 0000 		sts Gripper+6+3,r21
 3519               	.LBE160:
 3520               	.LBE159:
 3521               	.LM358:
 3522 14e8 8091 6806 		lds r24,1640
 3523               	.LM359:
 3524 14ec 1092 0000 		sts pose,__zero_reg__
 3525 14f0 1092 0000 		sts pose+1,__zero_reg__
 3526               	.LM360:
 3527 14f4 8091 6806 		lds r24,1640
 3528               	.LM361:
 3529 14f8 1092 0000 		sts pose+2,__zero_reg__
GAS LISTING /tmp/cchdpaIW.s 			page 63


 3530 14fc 1092 0000 		sts pose+2+1,__zero_reg__
 3531               	.LM362:
 3532 1500 8091 8806 		lds r24,1672
 3533               	.LM363:
 3534 1504 1092 0000 		sts pose+4,__zero_reg__
 3535 1508 1092 0000 		sts pose+4+1,__zero_reg__
 3536               	.L249:
 3537               	.LBB161:
 3538               	.LBB162:
 3539               	.LM364:
 3540 150c 8091 0000 		lds r24,elapsedMillis
 3541 1510 9091 0000 		lds r25,elapsedMillis+1
 3542 1514 A091 0000 		lds r26,elapsedMillis+2
 3543 1518 B091 0000 		lds r27,elapsedMillis+3
 3544               	.LBE162:
 3545               	.LBE161:
 3546               	.LM365:
 3547 151c 2091 0000 		lds r18,Gripper+32
 3548 1520 3091 0000 		lds r19,Gripper+32+1
 3549 1524 4091 0000 		lds r20,Gripper+32+2
 3550 1528 5091 0000 		lds r21,Gripper+32+3
 3551 152c 821B      		sub r24,r18
 3552 152e 930B      		sbc r25,r19
 3553 1530 A40B      		sbc r26,r20
 3554 1532 B50B      		sbc r27,r21
 3555 1534 2091 0000 		lds r18,Gripper+6
 3556 1538 3091 0000 		lds r19,Gripper+6+1
 3557 153c 4091 0000 		lds r20,Gripper+6+2
 3558 1540 5091 0000 		lds r21,Gripper+6+3
 3559 1544 8217      		cp r24,r18
 3560 1546 9307      		cpc r25,r19
 3561 1548 A407      		cpc r26,r20
 3562 154a B507      		cpc r27,r21
 3563 154c 00F0      		brlo .L248
 3564               	.LBB163:
 3565               	.LBB164:
 3566               	.LM366:
 3567 154e 8091 0000 		lds r24,elapsedMillis
 3568 1552 9091 0000 		lds r25,elapsedMillis+1
 3569 1556 A091 0000 		lds r26,elapsedMillis+2
 3570 155a B091 0000 		lds r27,elapsedMillis+3
 3571               	.LBE164:
 3572               	.LBE163:
 3573               	.LM367:
 3574 155e 8093 0000 		sts Gripper+32,r24
 3575 1562 9093 0000 		sts Gripper+32+1,r25
 3576 1566 A093 0000 		sts Gripper+32+2,r26
 3577 156a B093 0000 		sts Gripper+32+3,r27
 3578               	.LM368:
 3579 156e 80E0      		ldi r24,lo8(Gripper)
 3580 1570 90E0      		ldi r25,hi8(Gripper)
 3581 1572 61E0      		ldi r22,lo8(1)
 3582 1574 70E0      		ldi r23,hi8(1)
 3583 1576 0E94 0000 		call stepOne
 3584               	.L248:
 3585               	.LM369:
 3586 157a 8091 6806 		lds r24,1640
GAS LISTING /tmp/cchdpaIW.s 			page 64


 3587 157e 84FD      		sbrc r24,4
 3588 1580 00C0      		rjmp .L249
 3589               	.LM370:
 3590 1582 CFE0      		ldi r28,lo8(15)
 3591 1584 D0E0      		ldi r29,hi8(15)
 3592               	.L250:
 3593               	.LBB165:
 3594               	.LM371:
 3595 1586 8091 0000 		lds r24,Gripper+6
 3596 158a 9091 0000 		lds r25,Gripper+6+1
 3597 158e 0E94 0000 		call delay_ms
 3598               	.LM372:
 3599 1592 80E0      		ldi r24,lo8(Gripper)
 3600 1594 90E0      		ldi r25,hi8(Gripper)
 3601 1596 61E0      		ldi r22,lo8(1)
 3602 1598 70E0      		ldi r23,hi8(1)
 3603 159a 0E94 0000 		call stepOne
 3604 159e 2197      		sbiw r28,1
 3605               	.LM373:
 3606 15a0 01F4      		brne .L250
 3607               	.LBE165:
 3608               	.LM374:
 3609 15a2 1092 0000 		sts pose+10,__zero_reg__
 3610 15a6 1092 0000 		sts pose+10+1,__zero_reg__
 3611               	.LM375:
 3612 15aa 8091 8806 		lds r24,1672
 3613               	.LM376:
 3614 15ae 1092 0000 		sts pose+6,__zero_reg__
 3615 15b2 1092 0000 		sts pose+6+1,__zero_reg__
 3616               	.LM377:
 3617 15b6 1092 0000 		sts pose+8,__zero_reg__
 3618 15ba 1092 0000 		sts pose+8+1,__zero_reg__
 3619               	.LM378:
 3620 15be 80E0      		ldi r24,lo8(.LC1)
 3621 15c0 90E0      		ldi r25,hi8(.LC1)
 3622 15c2 00C0      		rjmp .L260
 3623               	.LVL216:
 3624               	.L247:
 3625               	.LM379:
 3626 15c4 8230      		cpi r24,2
 3627 15c6 9105      		cpc r25,__zero_reg__
 3628 15c8 01F4      		brne .L252
 3629               	.LBB166:
 3630               	.LM380:
 3631 15ca 0E94 0000 		call update
 3632               	.LM381:
 3633 15ce 80E0      		ldi r24,lo8(pose)
 3634 15d0 90E0      		ldi r25,hi8(pose)
 3635 15d2 60E0      		ldi r22,lo8(goal)
 3636 15d4 70E0      		ldi r23,hi8(goal)
 3637 15d6 0E94 0000 		call compareArray
 3638 15da 0097      		sbiw r24,0
 3639 15dc 01F0      		breq .+2
 3640 15de 00C0      		rjmp .L258
 3641               	.LM382:
 3642 15e0 6092 0000 		sts state,r6
 3643 15e4 7092 0000 		sts state+1,r7
GAS LISTING /tmp/cchdpaIW.s 			page 65


 3644               	.LM383:
 3645 15e8 80E0      		ldi r24,lo8(.LC2)
 3646 15ea 90E0      		ldi r25,hi8(.LC2)
 3647 15ec 0E94 0000 		call puts
 3648 15f0 00C0      		rjmp .L258
 3649               	.L252:
 3650               	.LBE166:
 3651               	.LM384:
 3652 15f2 8330      		cpi r24,3
 3653 15f4 9105      		cpc r25,__zero_reg__
 3654 15f6 01F0      		breq .+2
 3655 15f8 00C0      		rjmp .L258
 3656               	.LM385:
 3657 15fa 80E0      		ldi r24,lo8(pose)
 3658 15fc 90E0      		ldi r25,hi8(pose)
 3659 15fe 60E0      		ldi r22,lo8(goal)
 3660 1600 70E0      		ldi r23,hi8(goal)
 3661 1602 0E94 0000 		call compareArray
 3662 1606 0097      		sbiw r24,0
 3663 1608 01F4      		brne .L253
 3664               	.LM386:
 3665 160a 0E94 0000 		call moveToGoal
 3666 160e 00C0      		rjmp .L258
 3667               	.L253:
 3668               	.LM387:
 3669 1610 80E0      		ldi r24,lo8(.LC3)
 3670 1612 90E0      		ldi r25,hi8(.LC3)
 3671               	.L260:
 3672 1614 0E94 0000 		call puts
 3673               	.LM388:
 3674 1618 8092 0000 		sts state,r8
 3675 161c 9092 0000 		sts state+1,r9
 3676 1620 00C0      		rjmp .L258
 3677               	.L246:
 3678               	.L259:
 3679 1622 00C0      		rjmp .L259
 3680               	.LFE36:
 3681               		.size	mainLoop, .-mainLoop
 3682               	.global	init
 3683               		.type	init, @function
 3684               	init:
 3685               	.LFB38:
 3686               	.LM389:
 3687               	/* prologue: function */
 3688               	/* frame size = 0 */
 3689               	/* stack size = 0 */
 3690               	.L__stack_usage = 0
 3691               	.LM390:
 3692 1624 0E94 0000 		call Config32MHzClock
 3693               	.LM391:
 3694 1628 E0E0      		ldi r30,lo8(2048)
 3695 162a F8E0      		ldi r31,hi8(2048)
 3696 162c 80EA      		ldi r24,lo8(4000)
 3697 162e 9FE0      		ldi r25,hi8(4000)
 3698 1630 86A3      		std Z+38,r24
 3699 1632 97A3      		std Z+39,r25
 3700               	.LM392:
GAS LISTING /tmp/cchdpaIW.s 			page 66


 3701 1634 8081      		ld r24,Z
 3702 1636 807F      		andi r24,lo8(-16)
 3703 1638 8460      		ori r24,lo8(4)
 3704 163a 8083      		st Z,r24
 3705               	.LM393:
 3706 163c 8681      		ldd r24,Z+6
 3707 163e 8360      		ori r24,lo8(3)
 3708 1640 8683      		std Z+6,r24
 3709               	.LM394:
 3710 1642 E0EA      		ldi r30,lo8(160)
 3711 1644 F0E0      		ldi r31,hi8(160)
 3712 1646 8281      		ldd r24,Z+2
 3713 1648 8460      		ori r24,lo8(4)
 3714 164a 8283      		std Z+2,r24
 3715               	.LM395:
 3716               	/* #APP */
 3717               	 ;  838 "main.c" 1
 3718 164c 7894      		sei
 3719               	 ;  0 "" 2
 3720               	.LM396:
 3721               	/* #NOAPP */
 3722 164e E0E0      		ldi r30,lo8(1536)
 3723 1650 F6E0      		ldi r31,hi8(1536)
 3724 1652 8181      		ldd r24,Z+1
 3725 1654 8FEF      		ldi r24,lo8(-1)
 3726 1656 8183      		std Z+1,r24
 3727               	.LM397:
 3728 1658 E0E2      		ldi r30,lo8(1568)
 3729 165a F6E0      		ldi r31,hi8(1568)
 3730 165c 9181      		ldd r25,Z+1
 3731 165e 8183      		std Z+1,r24
 3732               	.LM398:
 3733 1660 E0E4      		ldi r30,lo8(1600)
 3734 1662 F6E0      		ldi r31,hi8(1600)
 3735 1664 9181      		ldd r25,Z+1
 3736 1666 8183      		std Z+1,r24
 3737               	.LM399:
 3738 1668 E0E6      		ldi r30,lo8(1632)
 3739 166a F6E0      		ldi r31,hi8(1632)
 3740 166c 8181      		ldd r24,Z+1
 3741 166e 8F60      		ori r24,lo8(15)
 3742 1670 8183      		std Z+1,r24
 3743               	.LM400:
 3744 1672 88E1      		ldi r24,lo8(24)
 3745 1674 848B      		std Z+20,r24
 3746               	.LM401:
 3747 1676 858B      		std Z+21,r24
 3748               	.LM402:
 3749 1678 A0E8      		ldi r26,lo8(1664)
 3750 167a B6E0      		ldi r27,hi8(1664)
 3751 167c 5196      		adiw r26,17
 3752 167e 8C93      		st X,r24
 3753 1680 5197      		sbiw r26,17
 3754               	.LM403:
 3755 1682 5296      		adiw r26,18
 3756 1684 8C93      		st X,r24
 3757 1686 5297      		sbiw r26,18
GAS LISTING /tmp/cchdpaIW.s 			page 67


 3758               	.LM404:
 3759 1688 5396      		adiw r26,19
 3760 168a 8C93      		st X,r24
 3761 168c 5397      		sbiw r26,19
 3762               	.LBB167:
 3763               	.LBB168:
 3764               	.LM405:
 3765 168e 90E8      		ldi r25,lo8(-128)
 3766 1690 9583      		std Z+5,r25
 3767               	.LM406:
 3768 1692 9183      		std Z+1,r25
 3769               	.LM407:
 3770 1694 E0EB      		ldi r30,lo8(2480)
 3771 1696 F9E0      		ldi r31,hi8(2480)
 3772 1698 1782      		std Z+7,__zero_reg__
 3773               	.LM408:
 3774 169a 93E3      		ldi r25,lo8(51)
 3775 169c 9683      		std Z+6,r25
 3776               	.LM409:
 3777 169e 1382      		std Z+3,__zero_reg__
 3778               	.LM410:
 3779 16a0 93E0      		ldi r25,lo8(3)
 3780 16a2 9583      		std Z+5,r25
 3781               	.LM411:
 3782 16a4 8483      		std Z+4,r24
 3783               	/* epilogue start */
 3784               	.LBE168:
 3785               	.LBE167:
 3786               	.LM412:
 3787 16a6 0895      		ret
 3788               	.LFE38:
 3789               		.size	init, .-init
 3790               		.data
 3791               	.LC4:
 3792 001c 4C45 5453 		.string	"LETSDOTHIS"
 3792      444F 5448 
 3792      4953 00
 3793               		.text
 3794               	.global	main
 3795               		.type	main, @function
 3796               	main:
 3797               	.LFB39:
 3798               	.LM413:
 3799               	/* prologue: function */
 3800               	/* frame size = 0 */
 3801               	/* stack size = 0 */
 3802               	.L__stack_usage = 0
 3803               	.LM414:
 3804 16a8 0E94 0000 		call init
 3805               	.LM415:
 3806 16ac 80E0      		ldi r24,lo8(mystdout)
 3807 16ae 90E0      		ldi r25,hi8(mystdout)
 3808 16b0 8093 0000 		sts __iob+2,r24
 3809 16b4 9093 0000 		sts __iob+2+1,r25
 3810               	.LM416:
 3811 16b8 80E0      		ldi r24,lo8(.LC4)
 3812 16ba 90E0      		ldi r25,hi8(.LC4)
GAS LISTING /tmp/cchdpaIW.s 			page 68


 3813 16bc 0E94 0000 		call puts
 3814               	.LM417:
 3815 16c0 0E94 0000 		call mainLoop
 3816               	.LM418:
 3817 16c4 80E0      		ldi r24,lo8(0)
 3818 16c6 90E0      		ldi r25,hi8(0)
 3819               	/* epilogue start */
 3820 16c8 0895      		ret
 3821               	.LFE39:
 3822               		.size	main, .-main
 3823               	.global	state
 3824               		.data
 3825               		.type	state, @object
 3826               		.size	state, 2
 3827               	state:
 3828 0027 0100      		.word	1
 3829               	.global	debugFlag
 3830               	.global	debugFlag
 3831               		.section .bss
 3832               		.type	debugFlag, @object
 3833               		.size	debugFlag, 2
 3834               	debugFlag:
 3835 0000 0000      		.skip 2,0
 3836               	.global	goal
 3837               	.global	goal
 3838               		.type	goal, @object
 3839               		.size	goal, 12
 3840               	goal:
 3841 0002 0000 0000 		.skip 12,0
 3841      0000 0000 
 3841      0000 0000 
 3842               	.global	pose
 3843               	.global	pose
 3844               		.type	pose, @object
 3845               		.size	pose, 12
 3846               	pose:
 3847 000e 0000 0000 		.skip 12,0
 3847      0000 0000 
 3847      0000 0000 
 3848               	.global	elapsedMillis
 3849               	.global	elapsedMillis
 3850               		.type	elapsedMillis, @object
 3851               		.size	elapsedMillis, 4
 3852               	elapsedMillis:
 3853 001a 0000 0000 		.skip 4,0
 3854               	.global	maxSpeed
 3855               		.data
 3856               		.type	maxSpeed, @object
 3857               		.size	maxSpeed, 2
 3858               	maxSpeed:
 3859 0029 4100      		.word	65
 3860               	.global	Base
 3861               		.type	Base, @object
 3862               		.size	Base, 36
 3863               	Base:
 3864 002b 0100      		.word	1
 3865 002d 0100      		.word	1
GAS LISTING /tmp/cchdpaIW.s 			page 69


 3866 002f 2800      		.word	40
 3867 0031 0A        		.byte	10
 3868 0032 00        		.byte	0
 3869 0033 00        		.byte	0
 3870 0034 00        		.byte	0
 3871 0035 6400      		.word	100
 3872 0037 0400      		.word	4
 3873 0039 0000      		.word	0
 3874 003b 7CFC      		.word	-900
 3875 003d 8403      		.word	900
 3876 003f 41        		.byte	65
 3877 0040 0000      		.word	0
 3878 0042 41        		.byte	65
 3879 0043 0100      		.word	1
 3880 0045 41        		.byte	65
 3881 0046 0200      		.word	2
 3882 0048 41        		.byte	65
 3883 0049 0300      		.word	3
 3884 004b 0000 0000 		.skip 4,0
 3885               	.global	Shoulder
 3886               		.type	Shoulder, @object
 3887               		.size	Shoulder, 36
 3888               	Shoulder:
 3889 004f 0200      		.word	2
 3890 0051 0100      		.word	1
 3891 0053 2800      		.word	40
 3892 0055 0A        		.byte	10
 3893 0056 00        		.byte	0
 3894 0057 00        		.byte	0
 3895 0058 00        		.byte	0
 3896 0059 6400      		.word	100
 3897 005b 0400      		.word	4
 3898 005d 0000      		.word	0
 3899 005f 0000      		.word	0
 3900 0061 5CF9      		.word	-1700
 3901 0063 41        		.byte	65
 3902 0064 0400      		.word	4
 3903 0066 41        		.byte	65
 3904 0067 0500      		.word	5
 3905 0069 41        		.byte	65
 3906 006a 0600      		.word	6
 3907 006c 41        		.byte	65
 3908 006d 0700      		.word	7
 3909 006f 0000 0000 		.skip 4,0
 3910               	.global	Elbow
 3911               		.type	Elbow, @object
 3912               		.size	Elbow, 36
 3913               	Elbow:
 3914 0073 0300      		.word	3
 3915 0075 0100      		.word	1
 3916 0077 2800      		.word	40
 3917 0079 0A        		.byte	10
 3918 007a 00        		.byte	0
 3919 007b 00        		.byte	0
 3920 007c 00        		.byte	0
 3921 007d 6400      		.word	100
 3922 007f 0400      		.word	4
GAS LISTING /tmp/cchdpaIW.s 			page 70


 3923 0081 0000      		.word	0
 3924 0083 0000      		.word	0
 3925 0085 AA05      		.word	1450
 3926 0087 42        		.byte	66
 3927 0088 0000      		.word	0
 3928 008a 42        		.byte	66
 3929 008b 0100      		.word	1
 3930 008d 42        		.byte	66
 3931 008e 0200      		.word	2
 3932 0090 42        		.byte	66
 3933 0091 0300      		.word	3
 3934 0093 0000 0000 		.skip 4,0
 3935               	.global	Right_Wrist
 3936               		.type	Right_Wrist, @object
 3937               		.size	Right_Wrist, 36
 3938               	Right_Wrist:
 3939 0097 0400      		.word	4
 3940 0099 0100      		.word	1
 3941 009b 2800      		.word	40
 3942 009d 0A        		.byte	10
 3943 009e 00        		.byte	0
 3944 009f 00        		.byte	0
 3945 00a0 00        		.byte	0
 3946 00a1 6400      		.word	100
 3947 00a3 0400      		.word	4
 3948 00a5 0000      		.word	0
 3949 00a7 C800      		.word	200
 3950 00a9 38FF      		.word	-200
 3951 00ab 43        		.byte	67
 3952 00ac 0000      		.word	0
 3953 00ae 43        		.byte	67
 3954 00af 0100      		.word	1
 3955 00b1 43        		.byte	67
 3956 00b2 0200      		.word	2
 3957 00b4 43        		.byte	67
 3958 00b5 0300      		.word	3
 3959 00b7 0000 0000 		.skip 4,0
 3960               	.global	Left_Wrist
 3961               		.type	Left_Wrist, @object
 3962               		.size	Left_Wrist, 36
 3963               	Left_Wrist:
 3964 00bb 0500      		.word	5
 3965 00bd 0100      		.word	1
 3966 00bf 2800      		.word	40
 3967 00c1 0A        		.byte	10
 3968 00c2 00        		.byte	0
 3969 00c3 00        		.byte	0
 3970 00c4 00        		.byte	0
 3971 00c5 6400      		.word	100
 3972 00c7 0400      		.word	4
 3973 00c9 0000      		.word	0
 3974 00cb 38FF      		.word	-200
 3975 00cd C800      		.word	200
 3976 00cf 43        		.byte	67
 3977 00d0 0400      		.word	4
 3978 00d2 43        		.byte	67
 3979 00d3 0500      		.word	5
GAS LISTING /tmp/cchdpaIW.s 			page 71


 3980 00d5 43        		.byte	67
 3981 00d6 0600      		.word	6
 3982 00d8 43        		.byte	67
 3983 00d9 0700      		.word	7
 3984 00db 0000 0000 		.skip 4,0
 3985               	.global	Gripper
 3986               		.type	Gripper, @object
 3987               		.size	Gripper, 36
 3988               	Gripper:
 3989 00df 0600      		.word	6
 3990 00e1 0100      		.word	1
 3991 00e3 2800      		.word	40
 3992 00e5 0A        		.byte	10
 3993 00e6 00        		.byte	0
 3994 00e7 00        		.byte	0
 3995 00e8 00        		.byte	0
 3996 00e9 6400      		.word	100
 3997 00eb 0400      		.word	4
 3998 00ed 0000      		.word	0
 3999 00ef 0000      		.word	0
 4000 00f1 2003      		.word	800
 4001 00f3 44        		.byte	68
 4002 00f4 0000      		.word	0
 4003 00f6 44        		.byte	68
 4004 00f7 0100      		.word	1
 4005 00f9 44        		.byte	68
 4006 00fa 0200      		.word	2
 4007 00fc 44        		.byte	68
 4008 00fd 0300      		.word	3
 4009 00ff 0000 0000 		.skip 4,0
 4010               		.type	mystdout, @object
 4011               		.size	mystdout, 14
 4012               	mystdout:
 4013 0103 0000 00   		.skip 3,0
 4014 0106 02        		.byte	2
 4015 0107 0000 0000 		.skip 4,0
 4016 010b 0000      		.word	gs(uart_putchar)
 4017 010d 0000      		.word	0
 4018 010f 0000      		.word	0
 4019               		.section	.debug_frame,"",@progbits
 4020               	.Lframe0:
 4021 0000 0C00 0000 		.long	.LECIE0-.LSCIE0
 4022               	.LSCIE0:
 4023 0004 FFFF FFFF 		.long	0xffffffff
 4024 0008 01        		.byte	0x1
 4025 0009 00        		.string	""
 4026 000a 01        		.uleb128 0x1
 4027 000b 7F        		.sleb128 -1
 4028 000c 24        		.byte	0x24
 4029 000d 0C        		.byte	0xc
 4030 000e 20        		.uleb128 0x20
 4031 000f 00        		.uleb128 0x0
 4032               		.p2align	2
 4033               	.LECIE0:
 4034               	.LSFDE0:
 4035 0010 0C00 0000 		.long	.LEFDE0-.LASFDE0
 4036               	.LASFDE0:
GAS LISTING /tmp/cchdpaIW.s 			page 72


 4037 0014 0000 0000 		.long	.Lframe0
 4038 0018 0000 0000 		.long	.LFB18
 4039 001c 2200 0000 		.long	.LFE18-.LFB18
 4040               		.p2align	2
 4041               	.LEFDE0:
 4042               	.LSFDE2:
 4043 0020 0C00 0000 		.long	.LEFDE2-.LASFDE2
 4044               	.LASFDE2:
 4045 0024 0000 0000 		.long	.Lframe0
 4046 0028 0000 0000 		.long	.LFB7
 4047 002c 2A00 0000 		.long	.LFE7-.LFB7
 4048               		.p2align	2
 4049               	.LEFDE2:
 4050               	.LSFDE4:
 4051 0030 0C00 0000 		.long	.LEFDE4-.LASFDE4
 4052               	.LASFDE4:
 4053 0034 0000 0000 		.long	.Lframe0
 4054 0038 0000 0000 		.long	.LFB8
 4055 003c 1600 0000 		.long	.LFE8-.LFB8
 4056               		.p2align	2
 4057               	.LEFDE4:
 4058               	.LSFDE6:
 4059 0040 0C00 0000 		.long	.LEFDE6-.LASFDE6
 4060               	.LASFDE6:
 4061 0044 0000 0000 		.long	.Lframe0
 4062 0048 0000 0000 		.long	.LFB9
 4063 004c 0C00 0000 		.long	.LFE9-.LFB9
 4064               		.p2align	2
 4065               	.LEFDE6:
 4066               	.LSFDE8:
 4067 0050 0C00 0000 		.long	.LEFDE8-.LASFDE8
 4068               	.LASFDE8:
 4069 0054 0000 0000 		.long	.Lframe0
 4070 0058 0000 0000 		.long	.LFB10
 4071 005c 1400 0000 		.long	.LFE10-.LFB10
 4072               		.p2align	2
 4073               	.LEFDE8:
 4074               	.LSFDE10:
 4075 0060 0C00 0000 		.long	.LEFDE10-.LASFDE10
 4076               	.LASFDE10:
 4077 0064 0000 0000 		.long	.Lframe0
 4078 0068 0000 0000 		.long	.LFB11
 4079 006c 0C00 0000 		.long	.LFE11-.LFB11
 4080               		.p2align	2
 4081               	.LEFDE10:
 4082               	.LSFDE12:
 4083 0070 0C00 0000 		.long	.LEFDE12-.LASFDE12
 4084               	.LASFDE12:
 4085 0074 0000 0000 		.long	.Lframe0
 4086 0078 0000 0000 		.long	.LFB12
 4087 007c 2600 0000 		.long	.LFE12-.LFB12
 4088               		.p2align	2
 4089               	.LEFDE12:
 4090               	.LSFDE14:
 4091 0080 0C00 0000 		.long	.LEFDE14-.LASFDE14
 4092               	.LASFDE14:
 4093 0084 0000 0000 		.long	.Lframe0
GAS LISTING /tmp/cchdpaIW.s 			page 73


 4094 0088 0000 0000 		.long	.LFB13
 4095 008c 1000 0000 		.long	.LFE13-.LFB13
 4096               		.p2align	2
 4097               	.LEFDE14:
 4098               	.LSFDE16:
 4099 0090 0C00 0000 		.long	.LEFDE16-.LASFDE16
 4100               	.LASFDE16:
 4101 0094 0000 0000 		.long	.Lframe0
 4102 0098 0000 0000 		.long	.LFB14
 4103 009c 3A00 0000 		.long	.LFE14-.LFB14
 4104               		.p2align	2
 4105               	.LEFDE16:
 4106               	.LSFDE18:
 4107 00a0 0C00 0000 		.long	.LEFDE18-.LASFDE18
 4108               	.LASFDE18:
 4109 00a4 0000 0000 		.long	.Lframe0
 4110 00a8 0000 0000 		.long	.LFB15
 4111 00ac 0C00 0000 		.long	.LFE15-.LFB15
 4112               		.p2align	2
 4113               	.LEFDE18:
 4114               	.LSFDE20:
 4115 00b0 0C00 0000 		.long	.LEFDE20-.LASFDE20
 4116               	.LASFDE20:
 4117 00b4 0000 0000 		.long	.Lframe0
 4118 00b8 0000 0000 		.long	.LFB16
 4119 00bc 0C00 0000 		.long	.LFE16-.LFB16
 4120               		.p2align	2
 4121               	.LEFDE20:
 4122               	.LSFDE22:
 4123 00c0 0C00 0000 		.long	.LEFDE22-.LASFDE22
 4124               	.LASFDE22:
 4125 00c4 0000 0000 		.long	.Lframe0
 4126 00c8 0000 0000 		.long	.LFB17
 4127 00cc 4A00 0000 		.long	.LFE17-.LFB17
 4128               		.p2align	2
 4129               	.LEFDE22:
 4130               	.LSFDE24:
 4131 00d0 0C00 0000 		.long	.LEFDE24-.LASFDE24
 4132               	.LASFDE24:
 4133 00d4 0000 0000 		.long	.Lframe0
 4134 00d8 0000 0000 		.long	.LFB19
 4135 00dc 1800 0000 		.long	.LFE19-.LFB19
 4136               		.p2align	2
 4137               	.LEFDE24:
 4138               	.LSFDE26:
 4139 00e0 0C00 0000 		.long	.LEFDE26-.LASFDE26
 4140               	.LASFDE26:
 4141 00e4 0000 0000 		.long	.Lframe0
 4142 00e8 0000 0000 		.long	.LFB37
 4143 00ec 1401 0000 		.long	.LFE37-.LFB37
 4144               		.p2align	2
 4145               	.LEFDE26:
 4146               	.LSFDE28:
 4147 00f0 0C00 0000 		.long	.LEFDE28-.LASFDE28
 4148               	.LASFDE28:
 4149 00f4 0000 0000 		.long	.Lframe0
 4150 00f8 0000 0000 		.long	.LFB21
GAS LISTING /tmp/cchdpaIW.s 			page 74


 4151 00fc 1C00 0000 		.long	.LFE21-.LFB21
 4152               		.p2align	2
 4153               	.LEFDE28:
 4154               	.LSFDE30:
 4155 0100 0C00 0000 		.long	.LEFDE30-.LASFDE30
 4156               	.LASFDE30:
 4157 0104 0000 0000 		.long	.Lframe0
 4158 0108 0000 0000 		.long	.LFB22
 4159 010c 7A00 0000 		.long	.LFE22-.LFB22
 4160               		.p2align	2
 4161               	.LEFDE30:
 4162               	.LSFDE32:
 4163 0110 0C00 0000 		.long	.LEFDE32-.LASFDE32
 4164               	.LASFDE32:
 4165 0114 0000 0000 		.long	.Lframe0
 4166 0118 0000 0000 		.long	.LFB23
 4167 011c 1C00 0000 		.long	.LFE23-.LFB23
 4168               		.p2align	2
 4169               	.LEFDE32:
 4170               	.LSFDE34:
 4171 0120 0C00 0000 		.long	.LEFDE34-.LASFDE34
 4172               	.LASFDE34:
 4173 0124 0000 0000 		.long	.Lframe0
 4174 0128 0000 0000 		.long	.LFB24
 4175 012c 1E00 0000 		.long	.LFE24-.LFB24
 4176               		.p2align	2
 4177               	.LEFDE34:
 4178               	.LSFDE36:
 4179 0130 0C00 0000 		.long	.LEFDE36-.LASFDE36
 4180               	.LASFDE36:
 4181 0134 0000 0000 		.long	.Lframe0
 4182 0138 0000 0000 		.long	.LFB25
 4183 013c 1600 0000 		.long	.LFE25-.LFB25
 4184               		.p2align	2
 4185               	.LEFDE36:
 4186               	.LSFDE38:
 4187 0140 0C00 0000 		.long	.LEFDE38-.LASFDE38
 4188               	.LASFDE38:
 4189 0144 0000 0000 		.long	.Lframe0
 4190 0148 0000 0000 		.long	.LFB26
 4191 014c 3200 0000 		.long	.LFE26-.LFB26
 4192               		.p2align	2
 4193               	.LEFDE38:
 4194               	.LSFDE40:
 4195 0150 0C00 0000 		.long	.LEFDE40-.LASFDE40
 4196               	.LASFDE40:
 4197 0154 0000 0000 		.long	.Lframe0
 4198 0158 0000 0000 		.long	.LFB27
 4199 015c 2A00 0000 		.long	.LFE27-.LFB27
 4200               		.p2align	2
 4201               	.LEFDE40:
 4202               	.LSFDE42:
 4203 0160 0C00 0000 		.long	.LEFDE42-.LASFDE42
 4204               	.LASFDE42:
 4205 0164 0000 0000 		.long	.Lframe0
 4206 0168 0000 0000 		.long	.LFB28
 4207 016c 4E01 0000 		.long	.LFE28-.LFB28
GAS LISTING /tmp/cchdpaIW.s 			page 75


 4208               		.p2align	2
 4209               	.LEFDE42:
 4210               	.LSFDE44:
 4211 0170 0C00 0000 		.long	.LEFDE44-.LASFDE44
 4212               	.LASFDE44:
 4213 0174 0000 0000 		.long	.Lframe0
 4214 0178 0000 0000 		.long	.LFB29
 4215 017c 4E01 0000 		.long	.LFE29-.LFB29
 4216               		.p2align	2
 4217               	.LEFDE44:
 4218               	.LSFDE46:
 4219 0180 0C00 0000 		.long	.LEFDE46-.LASFDE46
 4220               	.LASFDE46:
 4221 0184 0000 0000 		.long	.Lframe0
 4222 0188 0000 0000 		.long	.LFB30
 4223 018c 4C00 0000 		.long	.LFE30-.LFB30
 4224               		.p2align	2
 4225               	.LEFDE46:
 4226               	.LSFDE48:
 4227 0190 0C00 0000 		.long	.LEFDE48-.LASFDE48
 4228               	.LASFDE48:
 4229 0194 0000 0000 		.long	.Lframe0
 4230 0198 0000 0000 		.long	.LFB31
 4231 019c 1A01 0000 		.long	.LFE31-.LFB31
 4232               		.p2align	2
 4233               	.LEFDE48:
 4234               	.LSFDE50:
 4235 01a0 0C00 0000 		.long	.LEFDE50-.LASFDE50
 4236               	.LASFDE50:
 4237 01a4 0000 0000 		.long	.Lframe0
 4238 01a8 0000 0000 		.long	.LFB32
 4239 01ac 1C02 0000 		.long	.LFE32-.LFB32
 4240               		.p2align	2
 4241               	.LEFDE50:
 4242               	.LSFDE52:
 4243 01b0 0C00 0000 		.long	.LEFDE52-.LASFDE52
 4244               	.LASFDE52:
 4245 01b4 0000 0000 		.long	.Lframe0
 4246 01b8 0000 0000 		.long	.LFB33
 4247 01bc 8C01 0000 		.long	.LFE33-.LFB33
 4248               		.p2align	2
 4249               	.LEFDE52:
 4250               	.LSFDE54:
 4251 01c0 0C00 0000 		.long	.LEFDE54-.LASFDE54
 4252               	.LASFDE54:
 4253 01c4 0000 0000 		.long	.Lframe0
 4254 01c8 0000 0000 		.long	.LFB34
 4255 01cc 4200 0000 		.long	.LFE34-.LFB34
 4256               		.p2align	2
 4257               	.LEFDE54:
 4258               	.LSFDE56:
 4259 01d0 0C00 0000 		.long	.LEFDE56-.LASFDE56
 4260               	.LASFDE56:
 4261 01d4 0000 0000 		.long	.Lframe0
 4262 01d8 0000 0000 		.long	.LFB35
 4263 01dc 9407 0000 		.long	.LFE35-.LFB35
 4264               		.p2align	2
GAS LISTING /tmp/cchdpaIW.s 			page 76


 4265               	.LEFDE56:
 4266               	.LSFDE58:
 4267 01e0 0C00 0000 		.long	.LEFDE58-.LASFDE58
 4268               	.LASFDE58:
 4269 01e4 0000 0000 		.long	.Lframe0
 4270 01e8 0000 0000 		.long	.LFB36
 4271 01ec D602 0000 		.long	.LFE36-.LFB36
 4272               		.p2align	2
 4273               	.LEFDE58:
 4274               	.LSFDE60:
 4275 01f0 0C00 0000 		.long	.LEFDE60-.LASFDE60
 4276               	.LASFDE60:
 4277 01f4 0000 0000 		.long	.Lframe0
 4278 01f8 0000 0000 		.long	.LFB38
 4279 01fc 8400 0000 		.long	.LFE38-.LFB38
 4280               		.p2align	2
 4281               	.LEFDE60:
 4282               	.LSFDE62:
 4283 0200 0C00 0000 		.long	.LEFDE62-.LASFDE62
 4284               	.LASFDE62:
 4285 0204 0000 0000 		.long	.Lframe0
 4286 0208 0000 0000 		.long	.LFB39
 4287 020c 2200 0000 		.long	.LFE39-.LFB39
 4288               		.p2align	2
 4289               	.LEFDE62:
 4290               		.text
 4291               	.Letext0:
 4292               		.section	.debug_loc,"",@progbits
 4293               	.Ldebug_loc0:
 4294               	.LLST0:
 4295 0000 0000 0000 		.long	.LVL0-.Ltext0
 4296 0004 0800 0000 		.long	.LVL1-.Ltext0
 4297 0008 0100      		.word	0x1
 4298 000a 68        		.byte	0x68
 4299 000b 0800 0000 		.long	.LVL1-.Ltext0
 4300 000f 2000 0000 		.long	.LVL3-.Ltext0
 4301 0013 0100      		.word	0x1
 4302 0015 61        		.byte	0x61
 4303 0016 2000 0000 		.long	.LVL3-.Ltext0
 4304 001a 2200 0000 		.long	.LFE18-.Ltext0
 4305 001e 0300      		.word	0x3
 4306 0020 0A        		.byte	0xa
 4307 0021 B009      		.word	0x9b0
 4308 0023 0000 0000 		.long	0x0
 4309 0027 0000 0000 		.long	0x0
 4310               	.LLST1:
 4311 002b 0000 0000 		.long	.LVL0-.Ltext0
 4312 002f 0D00 0000 		.long	.LVL2-1-.Ltext0
 4313 0033 0600      		.word	0x6
 4314 0035 66        		.byte	0x66
 4315 0036 93        		.byte	0x93
 4316 0037 01        		.uleb128 0x1
 4317 0038 67        		.byte	0x67
 4318 0039 93        		.byte	0x93
 4319 003a 01        		.uleb128 0x1
 4320 003b 0000 0000 		.long	0x0
 4321 003f 0000 0000 		.long	0x0
GAS LISTING /tmp/cchdpaIW.s 			page 77


 4322               	.LLST2:
 4323 0043 2200 0000 		.long	.LVL4-.Ltext0
 4324 0047 4000 0000 		.long	.LVL7-.Ltext0
 4325 004b 0600      		.word	0x6
 4326 004d 68        		.byte	0x68
 4327 004e 93        		.byte	0x93
 4328 004f 01        		.uleb128 0x1
 4329 0050 69        		.byte	0x69
 4330 0051 93        		.byte	0x93
 4331 0052 01        		.uleb128 0x1
 4332 0053 0000 0000 		.long	0x0
 4333 0057 0000 0000 		.long	0x0
 4334               	.LLST3:
 4335 005b 3400 0000 		.long	.LVL6-.Ltext0
 4336 005f 4000 0000 		.long	.LVL7-.Ltext0
 4337 0063 0600      		.word	0x6
 4338 0065 68        		.byte	0x68
 4339 0066 93        		.byte	0x93
 4340 0067 01        		.uleb128 0x1
 4341 0068 69        		.byte	0x69
 4342 0069 93        		.byte	0x93
 4343 006a 01        		.uleb128 0x1
 4344 006b 0000 0000 		.long	0x0
 4345 006f 0000 0000 		.long	0x0
 4346               	.LLST4:
 4347 0073 4C00 0000 		.long	.LVL8-.Ltext0
 4348 0077 5800 0000 		.long	.LVL9-.Ltext0
 4349 007b 0100      		.word	0x1
 4350 007d 68        		.byte	0x68
 4351 007e 0000 0000 		.long	0x0
 4352 0082 0000 0000 		.long	0x0
 4353               	.LLST5:
 4354 0086 6200 0000 		.long	.LVL10-.Ltext0
 4355 008a 6400 0000 		.long	.LVL11-.Ltext0
 4356 008e 0500      		.word	0x5
 4357 0090 86        		.byte	0x86
 4358 0091 00        		.sleb128 0
 4359 0092 4F        		.byte	0x4f
 4360 0093 1A        		.byte	0x1a
 4361 0094 9F        		.byte	0x9f
 4362 0095 6400 0000 		.long	.LVL11-.Ltext0
 4363 0099 6600 0000 		.long	.LVL12-.Ltext0
 4364 009d 0100      		.word	0x1
 4365 009f 66        		.byte	0x66
 4366 00a0 0000 0000 		.long	0x0
 4367 00a4 0000 0000 		.long	0x0
 4368               	.LLST6:
 4369 00a8 6E00 0000 		.long	.LVL13-.Ltext0
 4370 00ac 8000 0000 		.long	.LVL15-.Ltext0
 4371 00b0 0100      		.word	0x1
 4372 00b2 68        		.byte	0x68
 4373 00b3 0000 0000 		.long	0x0
 4374 00b7 0000 0000 		.long	0x0
 4375               	.LLST7:
 4376 00bb 7E00 0000 		.long	.LVL14-.Ltext0
 4377 00bf 8000 0000 		.long	.LVL15-.Ltext0
 4378 00c3 0600      		.word	0x6
GAS LISTING /tmp/cchdpaIW.s 			page 78


 4379 00c5 88        		.byte	0x88
 4380 00c6 00        		.sleb128 0
 4381 00c7 89        		.byte	0x89
 4382 00c8 00        		.sleb128 0
 4383 00c9 1A        		.byte	0x1a
 4384 00ca 9F        		.byte	0x9f
 4385 00cb 8000 0000 		.long	.LVL15-.Ltext0
 4386 00cf 8200 0000 		.long	.LFE10-.Ltext0
 4387 00d3 0100      		.word	0x1
 4388 00d5 68        		.byte	0x68
 4389 00d6 0000 0000 		.long	0x0
 4390 00da 0000 0000 		.long	0x0
 4391               	.LLST8:
 4392 00de 8200 0000 		.long	.LVL16-.Ltext0
 4393 00e2 8800 0000 		.long	.LVL18-.Ltext0
 4394 00e6 0100      		.word	0x1
 4395 00e8 68        		.byte	0x68
 4396 00e9 0000 0000 		.long	0x0
 4397 00ed 0000 0000 		.long	0x0
 4398               	.LLST9:
 4399 00f1 8200 0000 		.long	.LVL16-.Ltext0
 4400 00f5 8400 0000 		.long	.LVL17-.Ltext0
 4401 00f9 0100      		.word	0x1
 4402 00fb 66        		.byte	0x66
 4403 00fc 0000 0000 		.long	0x0
 4404 0100 0000 0000 		.long	0x0
 4405               	.LLST10:
 4406 0104 8200 0000 		.long	.LVL16-.Ltext0
 4407 0108 8400 0000 		.long	.LVL17-.Ltext0
 4408 010c 0600      		.word	0x6
 4409 010e 86        		.byte	0x86
 4410 010f 00        		.sleb128 0
 4411 0110 88        		.byte	0x88
 4412 0111 00        		.sleb128 0
 4413 0112 21        		.byte	0x21
 4414 0113 9F        		.byte	0x9f
 4415 0114 8400 0000 		.long	.LVL17-.Ltext0
 4416 0118 8B00 0000 		.long	.LVL19-1-.Ltext0
 4417 011c 0100      		.word	0x1
 4418 011e 66        		.byte	0x66
 4419 011f 0000 0000 		.long	0x0
 4420 0123 0000 0000 		.long	0x0
 4421               	.LLST11:
 4422 0127 8E00 0000 		.long	.LVL20-.Ltext0
 4423 012b A400 0000 		.long	.LVL24-.Ltext0
 4424 012f 0100      		.word	0x1
 4425 0131 68        		.byte	0x68
 4426 0132 A400 0000 		.long	.LVL24-.Ltext0
 4427 0136 B200 0000 		.long	.LVL28-.Ltext0
 4428 013a 0100      		.word	0x1
 4429 013c 61        		.byte	0x61
 4430 013d 0000 0000 		.long	0x0
 4431 0141 0000 0000 		.long	0x0
 4432               	.LLST12:
 4433 0145 9C00 0000 		.long	.LVL21-.Ltext0
 4434 0149 9E00 0000 		.long	.LVL22-.Ltext0
 4435 014d 0900      		.word	0x9
GAS LISTING /tmp/cchdpaIW.s 			page 79


 4436 014f 86        		.byte	0x86
 4437 0150 00        		.sleb128 0
 4438 0151 09        		.byte	0x9
 4439 0152 F8        		.byte	0xf8
 4440 0153 1A        		.byte	0x1a
 4441 0154 88        		.byte	0x88
 4442 0155 00        		.sleb128 0
 4443 0156 21        		.byte	0x21
 4444 0157 9F        		.byte	0x9f
 4445 0158 A000 0000 		.long	.LVL23-.Ltext0
 4446 015c A700 0000 		.long	.LVL25-1-.Ltext0
 4447 0160 0100      		.word	0x1
 4448 0162 66        		.byte	0x66
 4449 0163 AA00 0000 		.long	.LVL26-.Ltext0
 4450 0167 AC00 0000 		.long	.LVL27-.Ltext0
 4451 016b 0600      		.word	0x6
 4452 016d 81        		.byte	0x81
 4453 016e 00        		.sleb128 0
 4454 016f 88        		.byte	0x88
 4455 0170 00        		.sleb128 0
 4456 0171 1A        		.byte	0x1a
 4457 0172 9F        		.byte	0x9f
 4458 0173 AC00 0000 		.long	.LVL27-.Ltext0
 4459 0177 B400 0000 		.long	.LFE12-.Ltext0
 4460 017b 0100      		.word	0x1
 4461 017d 68        		.byte	0x68
 4462 017e 0000 0000 		.long	0x0
 4463 0182 0000 0000 		.long	0x0
 4464               	.LLST13:
 4465 0186 C400 0000 		.long	.LVL30-.Ltext0
 4466 018a D400 0000 		.long	.LVL31-.Ltext0
 4467 018e 0100      		.word	0x1
 4468 0190 68        		.byte	0x68
 4469 0191 D400 0000 		.long	.LVL31-.Ltext0
 4470 0195 D600 0000 		.long	.LVL32-.Ltext0
 4471 0199 0100      		.word	0x1
 4472 019b 62        		.byte	0x62
 4473 019c D600 0000 		.long	.LVL32-.Ltext0
 4474 01a0 E600 0000 		.long	.LVL33-.Ltext0
 4475 01a4 0100      		.word	0x1
 4476 01a6 68        		.byte	0x68
 4477 01a7 EE00 0000 		.long	.LVL34-.Ltext0
 4478 01ab F600 0000 		.long	.LVL35-.Ltext0
 4479 01af 0100      		.word	0x1
 4480 01b1 68        		.byte	0x68
 4481 01b2 0000 0000 		.long	0x0
 4482 01b6 0000 0000 		.long	0x0
 4483               	.LLST14:
 4484 01ba B601 0000 		.long	.LVL37-.Ltext0
 4485 01be BC01 0000 		.long	.LVL38-.Ltext0
 4486 01c2 0600      		.word	0x6
 4487 01c4 68        		.byte	0x68
 4488 01c5 93        		.byte	0x93
 4489 01c6 01        		.uleb128 0x1
 4490 01c7 69        		.byte	0x69
 4491 01c8 93        		.byte	0x93
 4492 01c9 01        		.uleb128 0x1
GAS LISTING /tmp/cchdpaIW.s 			page 80


 4493 01ca C001 0000 		.long	.LVL39-.Ltext0
 4494 01ce 1602 0000 		.long	.LVL40-.Ltext0
 4495 01d2 0600      		.word	0x6
 4496 01d4 68        		.byte	0x68
 4497 01d5 93        		.byte	0x93
 4498 01d6 01        		.uleb128 0x1
 4499 01d7 69        		.byte	0x69
 4500 01d8 93        		.byte	0x93
 4501 01d9 01        		.uleb128 0x1
 4502 01da 0000 0000 		.long	0x0
 4503 01de 0000 0000 		.long	0x0
 4504               	.LLST15:
 4505 01e2 A801 0000 		.long	.LVL36-.Ltext0
 4506 01e6 B601 0000 		.long	.LVL37-.Ltext0
 4507 01ea 0200      		.word	0x2
 4508 01ec 30        		.byte	0x30
 4509 01ed 9F        		.byte	0x9f
 4510 01ee 0000 0000 		.long	0x0
 4511 01f2 0000 0000 		.long	0x0
 4512               	.LLST16:
 4513 01f6 A801 0000 		.long	.LVL36-.Ltext0
 4514 01fa B601 0000 		.long	.LVL37-.Ltext0
 4515 01fe 0200      		.word	0x2
 4516 0200 31        		.byte	0x31
 4517 0201 9F        		.byte	0x9f
 4518 0202 B601 0000 		.long	.LVL37-.Ltext0
 4519 0206 BC01 0000 		.long	.LVL38-.Ltext0
 4520 020a 0600      		.word	0x6
 4521 020c 5E        		.byte	0x5e
 4522 020d 93        		.byte	0x93
 4523 020e 01        		.uleb128 0x1
 4524 020f 5F        		.byte	0x5f
 4525 0210 93        		.byte	0x93
 4526 0211 01        		.uleb128 0x1
 4527 0212 BC01 0000 		.long	.LVL38-.Ltext0
 4528 0216 2402 0000 		.long	.LVL41-.Ltext0
 4529 021a 0600      		.word	0x6
 4530 021c 5E        		.byte	0x5e
 4531 021d 93        		.byte	0x93
 4532 021e 01        		.uleb128 0x1
 4533 021f 5F        		.byte	0x5f
 4534 0220 93        		.byte	0x93
 4535 0221 01        		.uleb128 0x1
 4536 0222 2C02 0000 		.long	.LVL42-.Ltext0
 4537 0226 8602 0000 		.long	.LVL47-.Ltext0
 4538 022a 0600      		.word	0x6
 4539 022c 5E        		.byte	0x5e
 4540 022d 93        		.byte	0x93
 4541 022e 01        		.uleb128 0x1
 4542 022f 5F        		.byte	0x5f
 4543 0230 93        		.byte	0x93
 4544 0231 01        		.uleb128 0x1
 4545 0232 0000 0000 		.long	0x0
 4546 0236 0000 0000 		.long	0x0
 4547               	.LLST17:
 4548 023a 4002 0000 		.long	.LVL43-.Ltext0
 4549 023e 7602 0000 		.long	.LVL44-.Ltext0
GAS LISTING /tmp/cchdpaIW.s 			page 81


 4550 0242 0200      		.word	0x2
 4551 0244 8C        		.byte	0x8c
 4552 0245 0B        		.sleb128 11
 4553 0246 7602 0000 		.long	.LVL44-.Ltext0
 4554 024a 7A02 0000 		.long	.LVL45-.Ltext0
 4555 024e 0300      		.word	0x3
 4556 0250 92        		.byte	0x92
 4557 0251 20        		.uleb128 0x20
 4558 0252 0B        		.sleb128 11
 4559 0253 7A02 0000 		.long	.LVL45-.Ltext0
 4560 0257 7E02 0000 		.long	.LVL46-.Ltext0
 4561 025b 0200      		.word	0x2
 4562 025d 8C        		.byte	0x8c
 4563 025e 7D        		.sleb128 -3
 4564 025f 7E02 0000 		.long	.LVL46-.Ltext0
 4565 0263 8C02 0000 		.long	.LFE37-.Ltext0
 4566 0267 0600      		.word	0x6
 4567 0269 68        		.byte	0x68
 4568 026a 93        		.byte	0x93
 4569 026b 01        		.uleb128 0x1
 4570 026c 69        		.byte	0x69
 4571 026d 93        		.byte	0x93
 4572 026e 01        		.uleb128 0x1
 4573 026f 0000 0000 		.long	0x0
 4574 0273 0000 0000 		.long	0x0
 4575               	.LLST18:
 4576 0277 4002 0000 		.long	.LVL43-.Ltext0
 4577 027b 7602 0000 		.long	.LVL44-.Ltext0
 4578 027f 0200      		.word	0x2
 4579 0281 8C        		.byte	0x8c
 4580 0282 09        		.sleb128 9
 4581 0283 7602 0000 		.long	.LVL44-.Ltext0
 4582 0287 7A02 0000 		.long	.LVL45-.Ltext0
 4583 028b 0300      		.word	0x3
 4584 028d 92        		.byte	0x92
 4585 028e 20        		.uleb128 0x20
 4586 028f 09        		.sleb128 9
 4587 0290 7A02 0000 		.long	.LVL45-.Ltext0
 4588 0294 7E02 0000 		.long	.LVL46-.Ltext0
 4589 0298 0200      		.word	0x2
 4590 029a 8C        		.byte	0x8c
 4591 029b 7B        		.sleb128 -5
 4592 029c 7E02 0000 		.long	.LVL46-.Ltext0
 4593 02a0 8C02 0000 		.long	.LFE37-.Ltext0
 4594 02a4 0600      		.word	0x6
 4595 02a6 62        		.byte	0x62
 4596 02a7 93        		.byte	0x93
 4597 02a8 01        		.uleb128 0x1
 4598 02a9 63        		.byte	0x63
 4599 02aa 93        		.byte	0x93
 4600 02ab 01        		.uleb128 0x1
 4601 02ac 0000 0000 		.long	0x0
 4602 02b0 0000 0000 		.long	0x0
 4603               	.LLST19:
 4604 02b4 4002 0000 		.long	.LVL43-.Ltext0
 4605 02b8 7602 0000 		.long	.LVL44-.Ltext0
 4606 02bc 0200      		.word	0x2
GAS LISTING /tmp/cchdpaIW.s 			page 82


 4607 02be 8C        		.byte	0x8c
 4608 02bf 07        		.sleb128 7
 4609 02c0 7602 0000 		.long	.LVL44-.Ltext0
 4610 02c4 7A02 0000 		.long	.LVL45-.Ltext0
 4611 02c8 0300      		.word	0x3
 4612 02ca 92        		.byte	0x92
 4613 02cb 20        		.uleb128 0x20
 4614 02cc 07        		.sleb128 7
 4615 02cd 7A02 0000 		.long	.LVL45-.Ltext0
 4616 02d1 7E02 0000 		.long	.LVL46-.Ltext0
 4617 02d5 0200      		.word	0x2
 4618 02d7 8C        		.byte	0x8c
 4619 02d8 79        		.sleb128 -7
 4620 02d9 7E02 0000 		.long	.LVL46-.Ltext0
 4621 02dd 8C02 0000 		.long	.LFE37-.Ltext0
 4622 02e1 0600      		.word	0x6
 4623 02e3 64        		.byte	0x64
 4624 02e4 93        		.byte	0x93
 4625 02e5 01        		.uleb128 0x1
 4626 02e6 65        		.byte	0x65
 4627 02e7 93        		.byte	0x93
 4628 02e8 01        		.uleb128 0x1
 4629 02e9 0000 0000 		.long	0x0
 4630 02ed 0000 0000 		.long	0x0
 4631               	.LLST20:
 4632 02f1 4002 0000 		.long	.LVL43-.Ltext0
 4633 02f5 7602 0000 		.long	.LVL44-.Ltext0
 4634 02f9 0200      		.word	0x2
 4635 02fb 8C        		.byte	0x8c
 4636 02fc 05        		.sleb128 5
 4637 02fd 7602 0000 		.long	.LVL44-.Ltext0
 4638 0301 7A02 0000 		.long	.LVL45-.Ltext0
 4639 0305 0300      		.word	0x3
 4640 0307 92        		.byte	0x92
 4641 0308 20        		.uleb128 0x20
 4642 0309 05        		.sleb128 5
 4643 030a 7A02 0000 		.long	.LVL45-.Ltext0
 4644 030e 7E02 0000 		.long	.LVL46-.Ltext0
 4645 0312 0200      		.word	0x2
 4646 0314 8C        		.byte	0x8c
 4647 0315 77        		.sleb128 -9
 4648 0316 7E02 0000 		.long	.LVL46-.Ltext0
 4649 031a 8C02 0000 		.long	.LFE37-.Ltext0
 4650 031e 0600      		.word	0x6
 4651 0320 66        		.byte	0x66
 4652 0321 93        		.byte	0x93
 4653 0322 01        		.uleb128 0x1
 4654 0323 67        		.byte	0x67
 4655 0324 93        		.byte	0x93
 4656 0325 01        		.uleb128 0x1
 4657 0326 0000 0000 		.long	0x0
 4658 032a 0000 0000 		.long	0x0
 4659               	.LLST21:
 4660 032e 4002 0000 		.long	.LVL43-.Ltext0
 4661 0332 7602 0000 		.long	.LVL44-.Ltext0
 4662 0336 0200      		.word	0x2
 4663 0338 8C        		.byte	0x8c
GAS LISTING /tmp/cchdpaIW.s 			page 83


 4664 0339 03        		.sleb128 3
 4665 033a 7602 0000 		.long	.LVL44-.Ltext0
 4666 033e 7A02 0000 		.long	.LVL45-.Ltext0
 4667 0342 0300      		.word	0x3
 4668 0344 92        		.byte	0x92
 4669 0345 20        		.uleb128 0x20
 4670 0346 03        		.sleb128 3
 4671 0347 7A02 0000 		.long	.LVL45-.Ltext0
 4672 034b 7E02 0000 		.long	.LVL46-.Ltext0
 4673 034f 0200      		.word	0x2
 4674 0351 8C        		.byte	0x8c
 4675 0352 75        		.sleb128 -11
 4676 0353 7E02 0000 		.long	.LVL46-.Ltext0
 4677 0357 8C02 0000 		.long	.LFE37-.Ltext0
 4678 035b 0600      		.word	0x6
 4679 035d 6E        		.byte	0x6e
 4680 035e 93        		.byte	0x93
 4681 035f 01        		.uleb128 0x1
 4682 0360 6F        		.byte	0x6f
 4683 0361 93        		.byte	0x93
 4684 0362 01        		.uleb128 0x1
 4685 0363 0000 0000 		.long	0x0
 4686 0367 0000 0000 		.long	0x0
 4687               	.LLST22:
 4688 036b 4002 0000 		.long	.LVL43-.Ltext0
 4689 036f 7602 0000 		.long	.LVL44-.Ltext0
 4690 0373 0200      		.word	0x2
 4691 0375 8C        		.byte	0x8c
 4692 0376 01        		.sleb128 1
 4693 0377 7602 0000 		.long	.LVL44-.Ltext0
 4694 037b 7A02 0000 		.long	.LVL45-.Ltext0
 4695 037f 0300      		.word	0x3
 4696 0381 92        		.byte	0x92
 4697 0382 20        		.uleb128 0x20
 4698 0383 01        		.sleb128 1
 4699 0384 7A02 0000 		.long	.LVL45-.Ltext0
 4700 0388 7E02 0000 		.long	.LVL46-.Ltext0
 4701 038c 0200      		.word	0x2
 4702 038e 8C        		.byte	0x8c
 4703 038f 73        		.sleb128 -13
 4704 0390 7E02 0000 		.long	.LVL46-.Ltext0
 4705 0394 8C02 0000 		.long	.LFE37-.Ltext0
 4706 0398 0600      		.word	0x6
 4707 039a 6A        		.byte	0x6a
 4708 039b 93        		.byte	0x93
 4709 039c 01        		.uleb128 0x1
 4710 039d 6B        		.byte	0x6b
 4711 039e 93        		.byte	0x93
 4712 039f 01        		.uleb128 0x1
 4713 03a0 0000 0000 		.long	0x0
 4714 03a4 0000 0000 		.long	0x0
 4715               	.LLST23:
 4716 03a8 8C02 0000 		.long	.LVL48-.Ltext0
 4717 03ac 9202 0000 		.long	.LVL49-.Ltext0
 4718 03b0 0600      		.word	0x6
 4719 03b2 68        		.byte	0x68
 4720 03b3 93        		.byte	0x93
GAS LISTING /tmp/cchdpaIW.s 			page 84


 4721 03b4 01        		.uleb128 0x1
 4722 03b5 69        		.byte	0x69
 4723 03b6 93        		.byte	0x93
 4724 03b7 01        		.uleb128 0x1
 4725 03b8 0000 0000 		.long	0x0
 4726 03bc 0000 0000 		.long	0x0
 4727               	.LLST24:
 4728 03c0 9402 0000 		.long	.LVL50-.Ltext0
 4729 03c4 A202 0000 		.long	.LVL51-.Ltext0
 4730 03c8 0600      		.word	0x6
 4731 03ca 9E        		.byte	0x9e
 4732 03cb 04        		.uleb128 0x4
 4733 03cc 0000 7A44 		.long	0x447a0000
 4734 03d0 0000 0000 		.long	0x0
 4735 03d4 0000 0000 		.long	0x0
 4736               	.LLST25:
 4737 03d8 9402 0000 		.long	.LVL50-.Ltext0
 4738 03dc A202 0000 		.long	.LVL51-.Ltext0
 4739 03e0 0600      		.word	0x6
 4740 03e2 9E        		.byte	0x9e
 4741 03e3 04        		.uleb128 0x4
 4742 03e4 0000 FA46 		.long	0x46fa0000
 4743 03e8 0000 0000 		.long	0x0
 4744 03ec 0000 0000 		.long	0x0
 4745               	.LLST26:
 4746 03f0 9402 0000 		.long	.LVL50-.Ltext0
 4747 03f4 A202 0000 		.long	.LVL51-.Ltext0
 4748 03f8 0400      		.word	0x4
 4749 03fa 0A        		.byte	0xa
 4750 03fb 007D      		.word	0x7d00
 4751 03fd 9F        		.byte	0x9f
 4752 03fe 0000 0000 		.long	0x0
 4753 0402 0000 0000 		.long	0x0
 4754               	.LLST27:
 4755 0406 A802 0000 		.long	.LVL52-.Ltext0
 4756 040a B602 0000 		.long	.LVL53-.Ltext0
 4757 040e 0600      		.word	0x6
 4758 0410 68        		.byte	0x68
 4759 0411 93        		.byte	0x93
 4760 0412 01        		.uleb128 0x1
 4761 0413 69        		.byte	0x69
 4762 0414 93        		.byte	0x93
 4763 0415 01        		.uleb128 0x1
 4764 0416 B602 0000 		.long	.LVL53-.Ltext0
 4765 041a 2203 0000 		.long	.LFE22-.Ltext0
 4766 041e 0600      		.word	0x6
 4767 0420 6E        		.byte	0x6e
 4768 0421 93        		.byte	0x93
 4769 0422 01        		.uleb128 0x1
 4770 0423 6F        		.byte	0x6f
 4771 0424 93        		.byte	0x93
 4772 0425 01        		.uleb128 0x1
 4773 0426 0000 0000 		.long	0x0
 4774 042a 0000 0000 		.long	0x0
 4775               	.LLST28:
 4776 042e 2203 0000 		.long	.LVL54-.Ltext0
 4777 0432 3C03 0000 		.long	.LVL55-.Ltext0
GAS LISTING /tmp/cchdpaIW.s 			page 85


 4778 0436 0600      		.word	0x6
 4779 0438 68        		.byte	0x68
 4780 0439 93        		.byte	0x93
 4781 043a 01        		.uleb128 0x1
 4782 043b 69        		.byte	0x69
 4783 043c 93        		.byte	0x93
 4784 043d 01        		.uleb128 0x1
 4785 043e 0000 0000 		.long	0x0
 4786 0442 0000 0000 		.long	0x0
 4787               	.LLST29:
 4788 0446 7203 0000 		.long	.LVL56-.Ltext0
 4789 044a 8D03 0000 		.long	.LVL57-1-.Ltext0
 4790 044e 0600      		.word	0x6
 4791 0450 68        		.byte	0x68
 4792 0451 93        		.byte	0x93
 4793 0452 01        		.uleb128 0x1
 4794 0453 69        		.byte	0x69
 4795 0454 93        		.byte	0x93
 4796 0455 01        		.uleb128 0x1
 4797 0456 8D03 0000 		.long	.LVL57-1-.Ltext0
 4798 045a 9C03 0000 		.long	.LVL58-.Ltext0
 4799 045e 0600      		.word	0x6
 4800 0460 6C        		.byte	0x6c
 4801 0461 93        		.byte	0x93
 4802 0462 01        		.uleb128 0x1
 4803 0463 6D        		.byte	0x6d
 4804 0464 93        		.byte	0x93
 4805 0465 01        		.uleb128 0x1
 4806 0466 0000 0000 		.long	0x0
 4807 046a 0000 0000 		.long	0x0
 4808               	.LLST30:
 4809 046e A403 0000 		.long	.LVL59-.Ltext0
 4810 0472 B403 0000 		.long	.LVL61-.Ltext0
 4811 0476 0600      		.word	0x6
 4812 0478 68        		.byte	0x68
 4813 0479 93        		.byte	0x93
 4814 047a 01        		.uleb128 0x1
 4815 047b 69        		.byte	0x69
 4816 047c 93        		.byte	0x93
 4817 047d 01        		.uleb128 0x1
 4818 047e B403 0000 		.long	.LVL61-.Ltext0
 4819 0482 CC03 0000 		.long	.LVL64-.Ltext0
 4820 0486 0600      		.word	0x6
 4821 0488 60        		.byte	0x60
 4822 0489 93        		.byte	0x93
 4823 048a 01        		.uleb128 0x1
 4824 048b 61        		.byte	0x61
 4825 048c 93        		.byte	0x93
 4826 048d 01        		.uleb128 0x1
 4827 048e 0000 0000 		.long	0x0
 4828 0492 0000 0000 		.long	0x0
 4829               	.LLST31:
 4830 0496 AE03 0000 		.long	.LVL60-.Ltext0
 4831 049a B403 0000 		.long	.LVL61-.Ltext0
 4832 049e 0200      		.word	0x2
 4833 04a0 30        		.byte	0x30
 4834 04a1 9F        		.byte	0x9f
GAS LISTING /tmp/cchdpaIW.s 			page 86


 4835 04a2 B403 0000 		.long	.LVL61-.Ltext0
 4836 04a6 BE03 0000 		.long	.LVL62-.Ltext0
 4837 04aa 0600      		.word	0x6
 4838 04ac 6C        		.byte	0x6c
 4839 04ad 93        		.byte	0x93
 4840 04ae 01        		.uleb128 0x1
 4841 04af 6D        		.byte	0x6d
 4842 04b0 93        		.byte	0x93
 4843 04b1 01        		.uleb128 0x1
 4844 04b2 BE03 0000 		.long	.LVL62-.Ltext0
 4845 04b6 C803 0000 		.long	.LVL63-.Ltext0
 4846 04ba 0600      		.word	0x6
 4847 04bc 6C        		.byte	0x6c
 4848 04bd 93        		.byte	0x93
 4849 04be 01        		.uleb128 0x1
 4850 04bf 6D        		.byte	0x6d
 4851 04c0 93        		.byte	0x93
 4852 04c1 01        		.uleb128 0x1
 4853 04c2 0000 0000 		.long	0x0
 4854 04c6 0000 0000 		.long	0x0
 4855               	.LLST32:
 4856 04ca CE03 0000 		.long	.LVL65-.Ltext0
 4857 04ce 2A04 0000 		.long	.LVL66-.Ltext0
 4858 04d2 0100      		.word	0x1
 4859 04d4 68        		.byte	0x68
 4860 04d5 2C04 0000 		.long	.LVL67-.Ltext0
 4861 04d9 2E04 0000 		.long	.LVL68-.Ltext0
 4862 04dd 0100      		.word	0x1
 4863 04df 68        		.byte	0x68
 4864 04e0 3004 0000 		.long	.LVL69-.Ltext0
 4865 04e4 3204 0000 		.long	.LVL70-.Ltext0
 4866 04e8 0100      		.word	0x1
 4867 04ea 68        		.byte	0x68
 4868 04eb 3404 0000 		.long	.LVL71-.Ltext0
 4869 04ef 3604 0000 		.long	.LVL72-.Ltext0
 4870 04f3 0100      		.word	0x1
 4871 04f5 68        		.byte	0x68
 4872 04f6 3804 0000 		.long	.LVL73-.Ltext0
 4873 04fa 3A04 0000 		.long	.LVL74-.Ltext0
 4874 04fe 0100      		.word	0x1
 4875 0500 68        		.byte	0x68
 4876 0501 3C04 0000 		.long	.LVL75-.Ltext0
 4877 0505 3E04 0000 		.long	.LVL76-.Ltext0
 4878 0509 0100      		.word	0x1
 4879 050b 68        		.byte	0x68
 4880 050c 4004 0000 		.long	.LVL77-.Ltext0
 4881 0510 4204 0000 		.long	.LVL78-.Ltext0
 4882 0514 0100      		.word	0x1
 4883 0516 68        		.byte	0x68
 4884 0517 4404 0000 		.long	.LVL79-.Ltext0
 4885 051b 4604 0000 		.long	.LVL80-.Ltext0
 4886 051f 0100      		.word	0x1
 4887 0521 68        		.byte	0x68
 4888 0522 4C04 0000 		.long	.LVL81-.Ltext0
 4889 0526 7204 0000 		.long	.LVL82-.Ltext0
 4890 052a 0100      		.word	0x1
 4891 052c 68        		.byte	0x68
GAS LISTING /tmp/cchdpaIW.s 			page 87


 4892 052d 7404 0000 		.long	.LVL83-.Ltext0
 4893 0531 7604 0000 		.long	.LVL84-.Ltext0
 4894 0535 0100      		.word	0x1
 4895 0537 68        		.byte	0x68
 4896 0538 7804 0000 		.long	.LVL85-.Ltext0
 4897 053c 7A04 0000 		.long	.LVL86-.Ltext0
 4898 0540 0100      		.word	0x1
 4899 0542 68        		.byte	0x68
 4900 0543 7C04 0000 		.long	.LVL87-.Ltext0
 4901 0547 7E04 0000 		.long	.LVL88-.Ltext0
 4902 054b 0100      		.word	0x1
 4903 054d 68        		.byte	0x68
 4904 054e 8404 0000 		.long	.LVL89-.Ltext0
 4905 0552 C004 0000 		.long	.LVL90-.Ltext0
 4906 0556 0100      		.word	0x1
 4907 0558 68        		.byte	0x68
 4908 0559 C204 0000 		.long	.LVL91-.Ltext0
 4909 055d C404 0000 		.long	.LVL92-.Ltext0
 4910 0561 0100      		.word	0x1
 4911 0563 68        		.byte	0x68
 4912 0564 C604 0000 		.long	.LVL93-.Ltext0
 4913 0568 C804 0000 		.long	.LVL94-.Ltext0
 4914 056c 0100      		.word	0x1
 4915 056e 68        		.byte	0x68
 4916 056f CA04 0000 		.long	.LVL95-.Ltext0
 4917 0573 CC04 0000 		.long	.LVL96-.Ltext0
 4918 0577 0100      		.word	0x1
 4919 0579 68        		.byte	0x68
 4920 057a CE04 0000 		.long	.LVL97-.Ltext0
 4921 057e D004 0000 		.long	.LVL98-.Ltext0
 4922 0582 0100      		.word	0x1
 4923 0584 68        		.byte	0x68
 4924 0585 D204 0000 		.long	.LVL99-.Ltext0
 4925 0589 D404 0000 		.long	.LVL100-.Ltext0
 4926 058d 0100      		.word	0x1
 4927 058f 68        		.byte	0x68
 4928 0590 D604 0000 		.long	.LVL101-.Ltext0
 4929 0594 D804 0000 		.long	.LVL102-.Ltext0
 4930 0598 0100      		.word	0x1
 4931 059a 68        		.byte	0x68
 4932 059b DA04 0000 		.long	.LVL103-.Ltext0
 4933 059f DC04 0000 		.long	.LVL104-.Ltext0
 4934 05a3 0100      		.word	0x1
 4935 05a5 68        		.byte	0x68
 4936 05a6 E204 0000 		.long	.LVL105-.Ltext0
 4937 05aa 0605 0000 		.long	.LVL106-.Ltext0
 4938 05ae 0100      		.word	0x1
 4939 05b0 68        		.byte	0x68
 4940 05b1 0805 0000 		.long	.LVL107-.Ltext0
 4941 05b5 0A05 0000 		.long	.LVL108-.Ltext0
 4942 05b9 0100      		.word	0x1
 4943 05bb 68        		.byte	0x68
 4944 05bc 0C05 0000 		.long	.LVL109-.Ltext0
 4945 05c0 0E05 0000 		.long	.LVL110-.Ltext0
 4946 05c4 0100      		.word	0x1
 4947 05c6 68        		.byte	0x68
 4948 05c7 1405 0000 		.long	.LVL111-.Ltext0
GAS LISTING /tmp/cchdpaIW.s 			page 88


 4949 05cb 1605 0000 		.long	.LVL112-.Ltext0
 4950 05cf 0100      		.word	0x1
 4951 05d1 68        		.byte	0x68
 4952 05d2 0000 0000 		.long	0x0
 4953 05d6 0000 0000 		.long	0x0
 4954               	.LLST33:
 4955 05da 1C05 0000 		.long	.LVL113-.Ltext0
 4956 05de 7805 0000 		.long	.LVL114-.Ltext0
 4957 05e2 0100      		.word	0x1
 4958 05e4 68        		.byte	0x68
 4959 05e5 7A05 0000 		.long	.LVL115-.Ltext0
 4960 05e9 7C05 0000 		.long	.LVL116-.Ltext0
 4961 05ed 0100      		.word	0x1
 4962 05ef 68        		.byte	0x68
 4963 05f0 7E05 0000 		.long	.LVL117-.Ltext0
 4964 05f4 8005 0000 		.long	.LVL118-.Ltext0
 4965 05f8 0100      		.word	0x1
 4966 05fa 68        		.byte	0x68
 4967 05fb 8205 0000 		.long	.LVL119-.Ltext0
 4968 05ff 8405 0000 		.long	.LVL120-.Ltext0
 4969 0603 0100      		.word	0x1
 4970 0605 68        		.byte	0x68
 4971 0606 8605 0000 		.long	.LVL121-.Ltext0
 4972 060a 8805 0000 		.long	.LVL122-.Ltext0
 4973 060e 0100      		.word	0x1
 4974 0610 68        		.byte	0x68
 4975 0611 8A05 0000 		.long	.LVL123-.Ltext0
 4976 0615 8C05 0000 		.long	.LVL124-.Ltext0
 4977 0619 0100      		.word	0x1
 4978 061b 68        		.byte	0x68
 4979 061c 8E05 0000 		.long	.LVL125-.Ltext0
 4980 0620 9005 0000 		.long	.LVL126-.Ltext0
 4981 0624 0100      		.word	0x1
 4982 0626 68        		.byte	0x68
 4983 0627 9205 0000 		.long	.LVL127-.Ltext0
 4984 062b 9405 0000 		.long	.LVL128-.Ltext0
 4985 062f 0100      		.word	0x1
 4986 0631 68        		.byte	0x68
 4987 0632 9A05 0000 		.long	.LVL129-.Ltext0
 4988 0636 C005 0000 		.long	.LVL130-.Ltext0
 4989 063a 0100      		.word	0x1
 4990 063c 68        		.byte	0x68
 4991 063d C205 0000 		.long	.LVL131-.Ltext0
 4992 0641 C405 0000 		.long	.LVL132-.Ltext0
 4993 0645 0100      		.word	0x1
 4994 0647 68        		.byte	0x68
 4995 0648 C605 0000 		.long	.LVL133-.Ltext0
 4996 064c C805 0000 		.long	.LVL134-.Ltext0
 4997 0650 0100      		.word	0x1
 4998 0652 68        		.byte	0x68
 4999 0653 CA05 0000 		.long	.LVL135-.Ltext0
 5000 0657 CC05 0000 		.long	.LVL136-.Ltext0
 5001 065b 0100      		.word	0x1
 5002 065d 68        		.byte	0x68
 5003 065e D205 0000 		.long	.LVL137-.Ltext0
 5004 0662 0E06 0000 		.long	.LVL138-.Ltext0
 5005 0666 0100      		.word	0x1
GAS LISTING /tmp/cchdpaIW.s 			page 89


 5006 0668 68        		.byte	0x68
 5007 0669 1006 0000 		.long	.LVL139-.Ltext0
 5008 066d 1206 0000 		.long	.LVL140-.Ltext0
 5009 0671 0100      		.word	0x1
 5010 0673 68        		.byte	0x68
 5011 0674 1406 0000 		.long	.LVL141-.Ltext0
 5012 0678 1606 0000 		.long	.LVL142-.Ltext0
 5013 067c 0100      		.word	0x1
 5014 067e 68        		.byte	0x68
 5015 067f 1806 0000 		.long	.LVL143-.Ltext0
 5016 0683 1A06 0000 		.long	.LVL144-.Ltext0
 5017 0687 0100      		.word	0x1
 5018 0689 68        		.byte	0x68
 5019 068a 1C06 0000 		.long	.LVL145-.Ltext0
 5020 068e 1E06 0000 		.long	.LVL146-.Ltext0
 5021 0692 0100      		.word	0x1
 5022 0694 68        		.byte	0x68
 5023 0695 2006 0000 		.long	.LVL147-.Ltext0
 5024 0699 2206 0000 		.long	.LVL148-.Ltext0
 5025 069d 0100      		.word	0x1
 5026 069f 68        		.byte	0x68
 5027 06a0 2406 0000 		.long	.LVL149-.Ltext0
 5028 06a4 2606 0000 		.long	.LVL150-.Ltext0
 5029 06a8 0100      		.word	0x1
 5030 06aa 68        		.byte	0x68
 5031 06ab 2806 0000 		.long	.LVL151-.Ltext0
 5032 06af 2A06 0000 		.long	.LVL152-.Ltext0
 5033 06b3 0100      		.word	0x1
 5034 06b5 68        		.byte	0x68
 5035 06b6 3006 0000 		.long	.LVL153-.Ltext0
 5036 06ba 5406 0000 		.long	.LVL154-.Ltext0
 5037 06be 0100      		.word	0x1
 5038 06c0 68        		.byte	0x68
 5039 06c1 5606 0000 		.long	.LVL155-.Ltext0
 5040 06c5 5806 0000 		.long	.LVL156-.Ltext0
 5041 06c9 0100      		.word	0x1
 5042 06cb 68        		.byte	0x68
 5043 06cc 5A06 0000 		.long	.LVL157-.Ltext0
 5044 06d0 5C06 0000 		.long	.LVL158-.Ltext0
 5045 06d4 0100      		.word	0x1
 5046 06d6 68        		.byte	0x68
 5047 06d7 6206 0000 		.long	.LVL159-.Ltext0
 5048 06db 6406 0000 		.long	.LVL160-.Ltext0
 5049 06df 0100      		.word	0x1
 5050 06e1 68        		.byte	0x68
 5051 06e2 0000 0000 		.long	0x0
 5052 06e6 0000 0000 		.long	0x0
 5053               	.LLST34:
 5054 06ea D007 0000 		.long	.LVL163-.Ltext0
 5055 06ee F207 0000 		.long	.LVL166-.Ltext0
 5056 06f2 0600      		.word	0x6
 5057 06f4 68        		.byte	0x68
 5058 06f5 93        		.byte	0x93
 5059 06f6 01        		.uleb128 0x1
 5060 06f7 69        		.byte	0x69
 5061 06f8 93        		.byte	0x93
 5062 06f9 01        		.uleb128 0x1
GAS LISTING /tmp/cchdpaIW.s 			page 90


 5063 06fa F207 0000 		.long	.LVL166-.Ltext0
 5064 06fe DA09 0000 		.long	.LVL173-.Ltext0
 5065 0702 0600      		.word	0x6
 5066 0704 6C        		.byte	0x6c
 5067 0705 93        		.byte	0x93
 5068 0706 01        		.uleb128 0x1
 5069 0707 6D        		.byte	0x6d
 5070 0708 93        		.byte	0x93
 5071 0709 01        		.uleb128 0x1
 5072 070a 0000 0000 		.long	0x0
 5073 070e 0000 0000 		.long	0x0
 5074               	.LLST35:
 5075 0712 D007 0000 		.long	.LVL163-.Ltext0
 5076 0716 EE07 0000 		.long	.LVL165-.Ltext0
 5077 071a 0600      		.word	0x6
 5078 071c 66        		.byte	0x66
 5079 071d 93        		.byte	0x93
 5080 071e 01        		.uleb128 0x1
 5081 071f 67        		.byte	0x67
 5082 0720 93        		.byte	0x93
 5083 0721 01        		.uleb128 0x1
 5084 0722 EE07 0000 		.long	.LVL165-.Ltext0
 5085 0726 FE07 0000 		.long	.LVL168-.Ltext0
 5086 072a 0600      		.word	0x6
 5087 072c 60        		.byte	0x60
 5088 072d 93        		.byte	0x93
 5089 072e 01        		.uleb128 0x1
 5090 072f 61        		.byte	0x61
 5091 0730 93        		.byte	0x93
 5092 0731 01        		.uleb128 0x1
 5093 0732 FE07 0000 		.long	.LVL168-.Ltext0
 5094 0736 0408 0000 		.long	.LVL169-.Ltext0
 5095 073a 0600      		.word	0x6
 5096 073c 66        		.byte	0x66
 5097 073d 93        		.byte	0x93
 5098 073e 01        		.uleb128 0x1
 5099 073f 67        		.byte	0x67
 5100 0740 93        		.byte	0x93
 5101 0741 01        		.uleb128 0x1
 5102 0742 B809 0000 		.long	.LVL171-.Ltext0
 5103 0746 BE09 0000 		.long	.LVL172-.Ltext0
 5104 074a 0600      		.word	0x6
 5105 074c 66        		.byte	0x66
 5106 074d 93        		.byte	0x93
 5107 074e 01        		.uleb128 0x1
 5108 074f 67        		.byte	0x67
 5109 0750 93        		.byte	0x93
 5110 0751 01        		.uleb128 0x1
 5111 0752 0000 0000 		.long	0x0
 5112 0756 0000 0000 		.long	0x0
 5113               	.LLST36:
 5114 075a E807 0000 		.long	.LVL164-.Ltext0
 5115 075e EE07 0000 		.long	.LVL165-.Ltext0
 5116 0762 0200      		.word	0x2
 5117 0764 30        		.byte	0x30
 5118 0765 9F        		.byte	0x9f
 5119 0766 EE07 0000 		.long	.LVL165-.Ltext0
GAS LISTING /tmp/cchdpaIW.s 			page 91


 5120 076a F807 0000 		.long	.LVL167-.Ltext0
 5121 076e 0600      		.word	0x6
 5122 0770 60        		.byte	0x60
 5123 0771 93        		.byte	0x93
 5124 0772 01        		.uleb128 0x1
 5125 0773 61        		.byte	0x61
 5126 0774 93        		.byte	0x93
 5127 0775 01        		.uleb128 0x1
 5128 0776 F807 0000 		.long	.LVL167-.Ltext0
 5129 077a FE07 0000 		.long	.LVL168-.Ltext0
 5130 077e 0200      		.word	0x2
 5131 0780 30        		.byte	0x30
 5132 0781 9F        		.byte	0x9f
 5133 0782 FE07 0000 		.long	.LVL168-.Ltext0
 5134 0786 AC08 0000 		.long	.LVL170-.Ltext0
 5135 078a 0600      		.word	0x6
 5136 078c 60        		.byte	0x60
 5137 078d 93        		.byte	0x93
 5138 078e 01        		.uleb128 0x1
 5139 078f 61        		.byte	0x61
 5140 0790 93        		.byte	0x93
 5141 0791 01        		.uleb128 0x1
 5142 0792 AC08 0000 		.long	.LVL170-.Ltext0
 5143 0796 DE09 0000 		.long	.LVL174-.Ltext0
 5144 079a 0600      		.word	0x6
 5145 079c 60        		.byte	0x60
 5146 079d 93        		.byte	0x93
 5147 079e 01        		.uleb128 0x1
 5148 079f 61        		.byte	0x61
 5149 07a0 93        		.byte	0x93
 5150 07a1 01        		.uleb128 0x1
 5151 07a2 0000 0000 		.long	0x0
 5152 07a6 0000 0000 		.long	0x0
 5153               	.LLST37:
 5154 07aa EC09 0000 		.long	.LVL175-.Ltext0
 5155 07ae 040A 0000 		.long	.LVL176-.Ltext0
 5156 07b2 0600      		.word	0x6
 5157 07b4 68        		.byte	0x68
 5158 07b5 93        		.byte	0x93
 5159 07b6 01        		.uleb128 0x1
 5160 07b7 69        		.byte	0x69
 5161 07b8 93        		.byte	0x93
 5162 07b9 01        		.uleb128 0x1
 5163 07ba 040A 0000 		.long	.LVL176-.Ltext0
 5164 07be 3E0B 0000 		.long	.LVL179-.Ltext0
 5165 07c2 0600      		.word	0x6
 5166 07c4 6C        		.byte	0x6c
 5167 07c5 93        		.byte	0x93
 5168 07c6 01        		.uleb128 0x1
 5169 07c7 6D        		.byte	0x6d
 5170 07c8 93        		.byte	0x93
 5171 07c9 01        		.uleb128 0x1
 5172 07ca 3E0B 0000 		.long	.LVL179-.Ltext0
 5173 07ce 440B 0000 		.long	.LVL180-.Ltext0
 5174 07d2 0400      		.word	0x4
 5175 07d4 92        		.byte	0x92
 5176 07d5 20        		.uleb128 0x20
GAS LISTING /tmp/cchdpaIW.s 			page 92


 5177 07d6 2A        		.sleb128 42
 5178 07d7 9F        		.byte	0x9f
 5179 07d8 440B 0000 		.long	.LVL180-.Ltext0
 5180 07dc 760B 0000 		.long	.LVL181-.Ltext0
 5181 07e0 0300      		.word	0x3
 5182 07e2 80        		.byte	0x80
 5183 07e3 03        		.sleb128 3
 5184 07e4 9F        		.byte	0x9f
 5185 07e5 0000 0000 		.long	0x0
 5186 07e9 0000 0000 		.long	0x0
 5187               	.LLST38:
 5188 07ed EC09 0000 		.long	.LVL175-.Ltext0
 5189 07f1 940A 0000 		.long	.LVL177-.Ltext0
 5190 07f5 0600      		.word	0x6
 5191 07f7 66        		.byte	0x66
 5192 07f8 93        		.byte	0x93
 5193 07f9 01        		.uleb128 0x1
 5194 07fa 67        		.byte	0x67
 5195 07fb 93        		.byte	0x93
 5196 07fc 01        		.uleb128 0x1
 5197 07fd 940A 0000 		.long	.LVL177-.Ltext0
 5198 0801 A10A 0000 		.long	.LVL178-1-.Ltext0
 5199 0805 0200      		.word	0x2
 5200 0807 8C        		.byte	0x8c
 5201 0808 02        		.sleb128 2
 5202 0809 0000 0000 		.long	0x0
 5203 080d 0000 0000 		.long	0x0
 5204               	.LLST39:
 5205 0811 780B 0000 		.long	.LVL182-.Ltext0
 5206 0815 B40B 0000 		.long	.LVL183-.Ltext0
 5207 0819 0600      		.word	0x6
 5208 081b 60        		.byte	0x60
 5209 081c 93        		.byte	0x93
 5210 081d 01        		.uleb128 0x1
 5211 081e 61        		.byte	0x61
 5212 081f 93        		.byte	0x93
 5213 0820 01        		.uleb128 0x1
 5214 0821 B40B 0000 		.long	.LVL183-.Ltext0
 5215 0825 BA0B 0000 		.long	.LFE34-.Ltext0
 5216 0829 0500      		.word	0x5
 5217 082b 03        		.byte	0x3
 5218 082c 0000 0000 		.long	goal+8
 5219 0830 0000 0000 		.long	0x0
 5220 0834 0000 0000 		.long	0x0
 5221               	.LLST40:
 5222 0838 780B 0000 		.long	.LVL182-.Ltext0
 5223 083c B80B 0000 		.long	.LVL184-.Ltext0
 5224 0840 0600      		.word	0x6
 5225 0842 5E        		.byte	0x5e
 5226 0843 93        		.byte	0x93
 5227 0844 01        		.uleb128 0x1
 5228 0845 5F        		.byte	0x5f
 5229 0846 93        		.byte	0x93
 5230 0847 01        		.uleb128 0x1
 5231 0848 B80B 0000 		.long	.LVL184-.Ltext0
 5232 084c BA0B 0000 		.long	.LFE34-.Ltext0
 5233 0850 0500      		.word	0x5
GAS LISTING /tmp/cchdpaIW.s 			page 93


 5234 0852 03        		.byte	0x3
 5235 0853 0000 0000 		.long	goal+10
 5236 0857 0000 0000 		.long	0x0
 5237 085b 0000 0000 		.long	0x0
 5238               	.LLST41:
 5239 085f 900C 0000 		.long	.LVL185-.Ltext0
 5240 0863 9C0C 0000 		.long	.LVL186-.Ltext0
 5241 0867 0600      		.word	0x6
 5242 0869 5E        		.byte	0x5e
 5243 086a 93        		.byte	0x93
 5244 086b 01        		.uleb128 0x1
 5245 086c 5F        		.byte	0x5f
 5246 086d 93        		.byte	0x93
 5247 086e 01        		.uleb128 0x1
 5248 086f 9C0C 0000 		.long	.LVL186-.Ltext0
 5249 0873 CA0C 0000 		.long	.LVL187-.Ltext0
 5250 0877 0600      		.word	0x6
 5251 0879 60        		.byte	0x60
 5252 087a 93        		.byte	0x93
 5253 087b 01        		.uleb128 0x1
 5254 087c 61        		.byte	0x61
 5255 087d 93        		.byte	0x93
 5256 087e 01        		.uleb128 0x1
 5257 087f CC0C 0000 		.long	.LVL188-.Ltext0
 5258 0883 3013 0000 		.long	.LVL209-.Ltext0
 5259 0887 0600      		.word	0x6
 5260 0889 60        		.byte	0x60
 5261 088a 93        		.byte	0x93
 5262 088b 01        		.uleb128 0x1
 5263 088c 61        		.byte	0x61
 5264 088d 93        		.byte	0x93
 5265 088e 01        		.uleb128 0x1
 5266 088f 0000 0000 		.long	0x0
 5267 0893 0000 0000 		.long	0x0
 5268               	.LLST42:
 5269 0897 900C 0000 		.long	.LVL185-.Ltext0
 5270 089b 9C0C 0000 		.long	.LVL186-.Ltext0
 5271 089f 0200      		.word	0x2
 5272 08a1 31        		.byte	0x31
 5273 08a2 9F        		.byte	0x9f
 5274 08a3 E00F 0000 		.long	.LVL195-.Ltext0
 5275 08a7 EE0F 0000 		.long	.LVL196-.Ltext0
 5276 08ab 0200      		.word	0x2
 5277 08ad 30        		.byte	0x30
 5278 08ae 9F        		.byte	0x9f
 5279 08af 0000 0000 		.long	0x0
 5280 08b3 0000 0000 		.long	0x0
 5281               	.LLST43:
 5282 08b7 6410 0000 		.long	.LVL197-.Ltext0
 5283 08bb 8310 0000 		.long	.LVL198-1-.Ltext0
 5284 08bf 0200      		.word	0x2
 5285 08c1 8C        		.byte	0x8c
 5286 08c2 01        		.sleb128 1
 5287 08c3 0000 0000 		.long	0x0
 5288 08c7 0000 0000 		.long	0x0
 5289               	.LLST44:
 5290 08cb EA10 0000 		.long	.LVL199-.Ltext0
GAS LISTING /tmp/cchdpaIW.s 			page 94


 5291 08cf 0911 0000 		.long	.LVL200-1-.Ltext0
 5292 08d3 0200      		.word	0x2
 5293 08d5 8C        		.byte	0x8c
 5294 08d6 03        		.sleb128 3
 5295 08d7 0000 0000 		.long	0x0
 5296 08db 0000 0000 		.long	0x0
 5297               	.LLST45:
 5298 08df 7011 0000 		.long	.LVL201-.Ltext0
 5299 08e3 8F11 0000 		.long	.LVL202-1-.Ltext0
 5300 08e7 0200      		.word	0x2
 5301 08e9 8C        		.byte	0x8c
 5302 08ea 05        		.sleb128 5
 5303 08eb 0000 0000 		.long	0x0
 5304 08ef 0000 0000 		.long	0x0
 5305               	.LLST46:
 5306 08f3 F611 0000 		.long	.LVL203-.Ltext0
 5307 08f7 1512 0000 		.long	.LVL204-1-.Ltext0
 5308 08fb 0200      		.word	0x2
 5309 08fd 8C        		.byte	0x8c
 5310 08fe 07        		.sleb128 7
 5311 08ff 0000 0000 		.long	0x0
 5312 0903 0000 0000 		.long	0x0
 5313               	.LLST47:
 5314 0907 7C12 0000 		.long	.LVL205-.Ltext0
 5315 090b 9B12 0000 		.long	.LVL206-1-.Ltext0
 5316 090f 0200      		.word	0x2
 5317 0911 8C        		.byte	0x8c
 5318 0912 09        		.sleb128 9
 5319 0913 0000 0000 		.long	0x0
 5320 0917 0000 0000 		.long	0x0
 5321               	.LLST48:
 5322 091b 0213 0000 		.long	.LVL207-.Ltext0
 5323 091f 2113 0000 		.long	.LVL208-1-.Ltext0
 5324 0923 0200      		.word	0x2
 5325 0925 8C        		.byte	0x8c
 5326 0926 0B        		.sleb128 11
 5327 0927 0000 0000 		.long	0x0
 5328 092b 0000 0000 		.long	0x0
 5329               	.LLST49:
 5330 092f B013 0000 		.long	.LVL210-.Ltext0
 5331 0933 C415 0000 		.long	.LVL216-.Ltext0
 5332 0937 0C00      		.word	0xc
 5333 0939 5E        		.byte	0x5e
 5334 093a 93        		.byte	0x93
 5335 093b 01        		.uleb128 0x1
 5336 093c 5F        		.byte	0x5f
 5337 093d 93        		.byte	0x93
 5338 093e 01        		.uleb128 0x1
 5339 093f 60        		.byte	0x60
 5340 0940 93        		.byte	0x93
 5341 0941 01        		.uleb128 0x1
 5342 0942 61        		.byte	0x61
 5343 0943 93        		.byte	0x93
 5344 0944 01        		.uleb128 0x1
 5345 0945 0000 0000 		.long	0x0
 5346 0949 0000 0000 		.long	0x0
 5347               	.LLST50:
GAS LISTING /tmp/cchdpaIW.s 			page 95


 5348 094d E413 0000 		.long	.LVL211-.Ltext0
 5349 0951 C415 0000 		.long	.LVL216-.Ltext0
 5350 0955 0C00      		.word	0xc
 5351 0957 5E        		.byte	0x5e
 5352 0958 93        		.byte	0x93
 5353 0959 01        		.uleb128 0x1
 5354 095a 5F        		.byte	0x5f
 5355 095b 93        		.byte	0x93
 5356 095c 01        		.uleb128 0x1
 5357 095d 60        		.byte	0x60
 5358 095e 93        		.byte	0x93
 5359 095f 01        		.uleb128 0x1
 5360 0960 61        		.byte	0x61
 5361 0961 93        		.byte	0x93
 5362 0962 01        		.uleb128 0x1
 5363 0963 0000 0000 		.long	0x0
 5364 0967 0000 0000 		.long	0x0
 5365               	.LLST51:
 5366 096b 1814 0000 		.long	.LVL212-.Ltext0
 5367 096f C415 0000 		.long	.LVL216-.Ltext0
 5368 0973 0C00      		.word	0xc
 5369 0975 5E        		.byte	0x5e
 5370 0976 93        		.byte	0x93
 5371 0977 01        		.uleb128 0x1
 5372 0978 5F        		.byte	0x5f
 5373 0979 93        		.byte	0x93
 5374 097a 01        		.uleb128 0x1
 5375 097b 60        		.byte	0x60
 5376 097c 93        		.byte	0x93
 5377 097d 01        		.uleb128 0x1
 5378 097e 61        		.byte	0x61
 5379 097f 93        		.byte	0x93
 5380 0980 01        		.uleb128 0x1
 5381 0981 0000 0000 		.long	0x0
 5382 0985 0000 0000 		.long	0x0
 5383               	.LLST52:
 5384 0989 4C14 0000 		.long	.LVL213-.Ltext0
 5385 098d C415 0000 		.long	.LVL216-.Ltext0
 5386 0991 0C00      		.word	0xc
 5387 0993 5E        		.byte	0x5e
 5388 0994 93        		.byte	0x93
 5389 0995 01        		.uleb128 0x1
 5390 0996 5F        		.byte	0x5f
 5391 0997 93        		.byte	0x93
 5392 0998 01        		.uleb128 0x1
 5393 0999 60        		.byte	0x60
 5394 099a 93        		.byte	0x93
 5395 099b 01        		.uleb128 0x1
 5396 099c 61        		.byte	0x61
 5397 099d 93        		.byte	0x93
 5398 099e 01        		.uleb128 0x1
 5399 099f 0000 0000 		.long	0x0
 5400 09a3 0000 0000 		.long	0x0
 5401               	.LLST53:
 5402 09a7 8014 0000 		.long	.LVL214-.Ltext0
 5403 09ab C415 0000 		.long	.LVL216-.Ltext0
 5404 09af 0C00      		.word	0xc
GAS LISTING /tmp/cchdpaIW.s 			page 96


 5405 09b1 5E        		.byte	0x5e
 5406 09b2 93        		.byte	0x93
 5407 09b3 01        		.uleb128 0x1
 5408 09b4 5F        		.byte	0x5f
 5409 09b5 93        		.byte	0x93
 5410 09b6 01        		.uleb128 0x1
 5411 09b7 60        		.byte	0x60
 5412 09b8 93        		.byte	0x93
 5413 09b9 01        		.uleb128 0x1
 5414 09ba 61        		.byte	0x61
 5415 09bb 93        		.byte	0x93
 5416 09bc 01        		.uleb128 0x1
 5417 09bd 0000 0000 		.long	0x0
 5418 09c1 0000 0000 		.long	0x0
 5419               	.LLST54:
 5420 09c5 B414 0000 		.long	.LVL215-.Ltext0
 5421 09c9 C415 0000 		.long	.LVL216-.Ltext0
 5422 09cd 0C00      		.word	0xc
 5423 09cf 5E        		.byte	0x5e
 5424 09d0 93        		.byte	0x93
 5425 09d1 01        		.uleb128 0x1
 5426 09d2 5F        		.byte	0x5f
 5427 09d3 93        		.byte	0x93
 5428 09d4 01        		.uleb128 0x1
 5429 09d5 60        		.byte	0x60
 5430 09d6 93        		.byte	0x93
 5431 09d7 01        		.uleb128 0x1
 5432 09d8 61        		.byte	0x61
 5433 09d9 93        		.byte	0x93
 5434 09da 01        		.uleb128 0x1
 5435 09db 0000 0000 		.long	0x0
 5436 09df 0000 0000 		.long	0x0
 5437               		.section	.debug_info
 5438 0000 AD1B 0000 		.long	0x1bad
 5439 0004 0200      		.word	0x2
 5440 0006 0000 0000 		.long	.Ldebug_abbrev0
 5441 000a 04        		.byte	0x4
 5442 000b 01        		.uleb128 0x1
 5443 000c 0000 0000 		.long	.LASF327
 5444 0010 01        		.byte	0x1
 5445 0011 0000 0000 		.long	.LASF328
 5446 0015 0000 0000 		.long	.LASF329
 5447 0019 0000 0000 		.long	.Ltext0
 5448 001d 0000 0000 		.long	.Letext0
 5449 0021 0000 0000 		.long	.Ldebug_line0
 5450 0025 02        		.uleb128 0x2
 5451 0026 01        		.byte	0x1
 5452 0027 06        		.byte	0x6
 5453 0028 0000 0000 		.long	.LASF0
 5454 002c 03        		.uleb128 0x3
 5455 002d 0000 0000 		.long	.LASF4
 5456 0031 04        		.byte	0x4
 5457 0032 7A        		.byte	0x7a
 5458 0033 3700 0000 		.long	0x37
 5459 0037 02        		.uleb128 0x2
 5460 0038 01        		.byte	0x1
 5461 0039 08        		.byte	0x8
GAS LISTING /tmp/cchdpaIW.s 			page 97


 5462 003a 0000 0000 		.long	.LASF1
 5463 003e 04        		.uleb128 0x4
 5464 003f 02        		.byte	0x2
 5465 0040 05        		.byte	0x5
 5466 0041 696E 7400 		.string	"int"
 5467 0045 02        		.uleb128 0x2
 5468 0046 02        		.byte	0x2
 5469 0047 07        		.byte	0x7
 5470 0048 0000 0000 		.long	.LASF2
 5471 004c 02        		.uleb128 0x2
 5472 004d 04        		.byte	0x4
 5473 004e 05        		.byte	0x5
 5474 004f 0000 0000 		.long	.LASF3
 5475 0053 03        		.uleb128 0x3
 5476 0054 0000 0000 		.long	.LASF5
 5477 0058 04        		.byte	0x4
 5478 0059 7E        		.byte	0x7e
 5479 005a 5E00 0000 		.long	0x5e
 5480 005e 02        		.uleb128 0x2
 5481 005f 04        		.byte	0x4
 5482 0060 07        		.byte	0x7
 5483 0061 0000 0000 		.long	.LASF6
 5484 0065 02        		.uleb128 0x2
 5485 0066 08        		.byte	0x8
 5486 0067 05        		.byte	0x5
 5487 0068 0000 0000 		.long	.LASF7
 5488 006c 02        		.uleb128 0x2
 5489 006d 08        		.byte	0x8
 5490 006e 07        		.byte	0x7
 5491 006f 0000 0000 		.long	.LASF8
 5492 0073 05        		.uleb128 0x5
 5493 0074 0000 0000 		.long	.LASF16
 5494 0078 0E        		.byte	0xe
 5495 0079 05        		.byte	0x5
 5496 007a F2        		.byte	0xf2
 5497 007b F500 0000 		.long	0xf5
 5498 007f 06        		.uleb128 0x6
 5499 0080 6275 6600 		.string	"buf"
 5500 0084 05        		.byte	0x5
 5501 0085 F3        		.byte	0xf3
 5502 0086 F500 0000 		.long	0xf5
 5503 008a 02        		.byte	0x2
 5504 008b 23        		.byte	0x23
 5505 008c 00        		.uleb128 0x0
 5506 008d 07        		.uleb128 0x7
 5507 008e 0000 0000 		.long	.LASF9
 5508 0092 05        		.byte	0x5
 5509 0093 F4        		.byte	0xf4
 5510 0094 3700 0000 		.long	0x37
 5511 0098 02        		.byte	0x2
 5512 0099 23        		.byte	0x23
 5513 009a 02        		.uleb128 0x2
 5514 009b 07        		.uleb128 0x7
 5515 009c 0000 0000 		.long	.LASF10
 5516 00a0 05        		.byte	0x5
 5517 00a1 F5        		.byte	0xf5
 5518 00a2 2C00 0000 		.long	0x2c
GAS LISTING /tmp/cchdpaIW.s 			page 98


 5519 00a6 02        		.byte	0x2
 5520 00a7 23        		.byte	0x23
 5521 00a8 03        		.uleb128 0x3
 5522 00a9 08        		.uleb128 0x8
 5523 00aa 0000 0000 		.long	.LASF11
 5524 00ae 05        		.byte	0x5
 5525 00af 0501      		.word	0x105
 5526 00b1 3E00 0000 		.long	0x3e
 5527 00b5 02        		.byte	0x2
 5528 00b6 23        		.byte	0x23
 5529 00b7 04        		.uleb128 0x4
 5530 00b8 09        		.uleb128 0x9
 5531 00b9 6C65 6E00 		.string	"len"
 5532 00bd 05        		.byte	0x5
 5533 00be 0601      		.word	0x106
 5534 00c0 3E00 0000 		.long	0x3e
 5535 00c4 02        		.byte	0x2
 5536 00c5 23        		.byte	0x23
 5537 00c6 06        		.uleb128 0x6
 5538 00c7 09        		.uleb128 0x9
 5539 00c8 7075 7400 		.string	"put"
 5540 00cc 05        		.byte	0x5
 5541 00cd 0701      		.word	0x107
 5542 00cf 1D01 0000 		.long	0x11d
 5543 00d3 02        		.byte	0x2
 5544 00d4 23        		.byte	0x23
 5545 00d5 08        		.uleb128 0x8
 5546 00d6 09        		.uleb128 0x9
 5547 00d7 6765 7400 		.string	"get"
 5548 00db 05        		.byte	0x5
 5549 00dc 0801      		.word	0x108
 5550 00de 3301 0000 		.long	0x133
 5551 00e2 02        		.byte	0x2
 5552 00e3 23        		.byte	0x23
 5553 00e4 0A        		.uleb128 0xa
 5554 00e5 08        		.uleb128 0x8
 5555 00e6 0000 0000 		.long	.LASF12
 5556 00ea 05        		.byte	0x5
 5557 00eb 0901      		.word	0x109
 5558 00ed 3901 0000 		.long	0x139
 5559 00f1 02        		.byte	0x2
 5560 00f2 23        		.byte	0x23
 5561 00f3 0C        		.uleb128 0xc
 5562 00f4 00        		.byte	0x0
 5563 00f5 0A        		.uleb128 0xa
 5564 00f6 02        		.byte	0x2
 5565 00f7 FB00 0000 		.long	0xfb
 5566 00fb 02        		.uleb128 0x2
 5567 00fc 01        		.byte	0x1
 5568 00fd 08        		.byte	0x8
 5569 00fe 0000 0000 		.long	.LASF13
 5570 0102 0B        		.uleb128 0xb
 5571 0103 01        		.byte	0x1
 5572 0104 3E00 0000 		.long	0x3e
 5573 0108 1701 0000 		.long	0x117
 5574 010c 0C        		.uleb128 0xc
 5575 010d FB00 0000 		.long	0xfb
GAS LISTING /tmp/cchdpaIW.s 			page 99


 5576 0111 0C        		.uleb128 0xc
 5577 0112 1701 0000 		.long	0x117
 5578 0116 00        		.byte	0x0
 5579 0117 0A        		.uleb128 0xa
 5580 0118 02        		.byte	0x2
 5581 0119 7300 0000 		.long	0x73
 5582 011d 0A        		.uleb128 0xa
 5583 011e 02        		.byte	0x2
 5584 011f 0201 0000 		.long	0x102
 5585 0123 0B        		.uleb128 0xb
 5586 0124 01        		.byte	0x1
 5587 0125 3E00 0000 		.long	0x3e
 5588 0129 3301 0000 		.long	0x133
 5589 012d 0C        		.uleb128 0xc
 5590 012e 1701 0000 		.long	0x117
 5591 0132 00        		.byte	0x0
 5592 0133 0A        		.uleb128 0xa
 5593 0134 02        		.byte	0x2
 5594 0135 2301 0000 		.long	0x123
 5595 0139 0D        		.uleb128 0xd
 5596 013a 02        		.byte	0x2
 5597 013b 0E        		.uleb128 0xe
 5598 013c 2C00 0000 		.long	0x2c
 5599 0140 0E        		.uleb128 0xe
 5600 0141 3700 0000 		.long	0x37
 5601 0145 0F        		.uleb128 0xf
 5602 0146 0000 0000 		.long	.LASF23
 5603 014a 01        		.byte	0x1
 5604 014b 06        		.byte	0x6
 5605 014c A2        		.byte	0xa2
 5606 014d 6001 0000 		.long	0x160
 5607 0151 10        		.uleb128 0x10
 5608 0152 0000 0000 		.long	.LASF14
 5609 0156 9D01      		.sleb128 157
 5610 0158 10        		.uleb128 0x10
 5611 0159 0000 0000 		.long	.LASF15
 5612 015d D801      		.sleb128 216
 5613 015f 00        		.byte	0x0
 5614 0160 05        		.uleb128 0x5
 5615 0161 0000 0000 		.long	.LASF17
 5616 0165 04        		.byte	0x4
 5617 0166 06        		.byte	0x6
 5618 0167 B0        		.byte	0xb0
 5619 0168 A501 0000 		.long	0x1a5
 5620 016c 07        		.uleb128 0x7
 5621 016d 0000 0000 		.long	.LASF18
 5622 0171 06        		.byte	0x6
 5623 0172 B2        		.byte	0xb2
 5624 0173 4001 0000 		.long	0x140
 5625 0177 02        		.byte	0x2
 5626 0178 23        		.byte	0x23
 5627 0179 00        		.uleb128 0x0
 5628 017a 07        		.uleb128 0x7
 5629 017b 0000 0000 		.long	.LASF19
 5630 017f 06        		.byte	0x6
 5631 0180 B3        		.byte	0xb3
 5632 0181 4001 0000 		.long	0x140
GAS LISTING /tmp/cchdpaIW.s 			page 100


 5633 0185 02        		.byte	0x2
 5634 0186 23        		.byte	0x23
 5635 0187 01        		.uleb128 0x1
 5636 0188 07        		.uleb128 0x7
 5637 0189 0000 0000 		.long	.LASF20
 5638 018d 06        		.byte	0x6
 5639 018e B4        		.byte	0xb4
 5640 018f 4001 0000 		.long	0x140
 5641 0193 02        		.byte	0x2
 5642 0194 23        		.byte	0x23
 5643 0195 02        		.uleb128 0x2
 5644 0196 07        		.uleb128 0x7
 5645 0197 0000 0000 		.long	.LASF21
 5646 019b 06        		.byte	0x6
 5647 019c B5        		.byte	0xb5
 5648 019d 4001 0000 		.long	0x140
 5649 01a1 02        		.byte	0x2
 5650 01a2 23        		.byte	0x23
 5651 01a3 03        		.uleb128 0x3
 5652 01a4 00        		.byte	0x0
 5653 01a5 03        		.uleb128 0x3
 5654 01a6 0000 0000 		.long	.LASF22
 5655 01aa 06        		.byte	0x6
 5656 01ab B6        		.byte	0xb6
 5657 01ac 6001 0000 		.long	0x160
 5658 01b0 0F        		.uleb128 0xf
 5659 01b1 0000 0000 		.long	.LASF24
 5660 01b5 01        		.byte	0x1
 5661 01b6 06        		.byte	0x6
 5662 01b7 CB        		.byte	0xcb
 5663 01b8 DB01 0000 		.long	0x1db
 5664 01bc 10        		.uleb128 0x10
 5665 01bd 0000 0000 		.long	.LASF25
 5666 01c1 00        		.sleb128 0
 5667 01c2 10        		.uleb128 0x10
 5668 01c3 0000 0000 		.long	.LASF26
 5669 01c7 01        		.sleb128 1
 5670 01c8 10        		.uleb128 0x10
 5671 01c9 0000 0000 		.long	.LASF27
 5672 01cd 02        		.sleb128 2
 5673 01ce 10        		.uleb128 0x10
 5674 01cf 0000 0000 		.long	.LASF28
 5675 01d3 03        		.sleb128 3
 5676 01d4 10        		.uleb128 0x10
 5677 01d5 0000 0000 		.long	.LASF29
 5678 01d9 04        		.sleb128 4
 5679 01da 00        		.byte	0x0
 5680 01db 03        		.uleb128 0x3
 5681 01dc 0000 0000 		.long	.LASF30
 5682 01e0 06        		.byte	0x6
 5683 01e1 D2        		.byte	0xd2
 5684 01e2 B001 0000 		.long	0x1b0
 5685 01e6 0F        		.uleb128 0xf
 5686 01e7 0000 0000 		.long	.LASF31
 5687 01eb 01        		.byte	0x1
 5688 01ec 06        		.byte	0x6
 5689 01ed D5        		.byte	0xd5
GAS LISTING /tmp/cchdpaIW.s 			page 101


 5690 01ee 3002 0000 		.long	0x230
 5691 01f2 10        		.uleb128 0x10
 5692 01f3 0000 0000 		.long	.LASF32
 5693 01f7 00        		.sleb128 0
 5694 01f8 10        		.uleb128 0x10
 5695 01f9 0000 0000 		.long	.LASF33
 5696 01fd 04        		.sleb128 4
 5697 01fe 10        		.uleb128 0x10
 5698 01ff 0000 0000 		.long	.LASF34
 5699 0203 0C        		.sleb128 12
 5700 0204 10        		.uleb128 0x10
 5701 0205 0000 0000 		.long	.LASF35
 5702 0209 14        		.sleb128 20
 5703 020a 10        		.uleb128 0x10
 5704 020b 0000 0000 		.long	.LASF36
 5705 020f 1C        		.sleb128 28
 5706 0210 10        		.uleb128 0x10
 5707 0211 0000 0000 		.long	.LASF37
 5708 0215 24        		.sleb128 36
 5709 0216 10        		.uleb128 0x10
 5710 0217 0000 0000 		.long	.LASF38
 5711 021b 2C        		.sleb128 44
 5712 021c 10        		.uleb128 0x10
 5713 021d 0000 0000 		.long	.LASF39
 5714 0221 34        		.sleb128 52
 5715 0222 10        		.uleb128 0x10
 5716 0223 0000 0000 		.long	.LASF40
 5717 0227 3C        		.sleb128 60
 5718 0228 10        		.uleb128 0x10
 5719 0229 0000 0000 		.long	.LASF41
 5720 022d C400      		.sleb128 68
 5721 022f 00        		.byte	0x0
 5722 0230 03        		.uleb128 0x3
 5723 0231 0000 0000 		.long	.LASF42
 5724 0235 06        		.byte	0x6
 5725 0236 E1        		.byte	0xe1
 5726 0237 E601 0000 		.long	0x1e6
 5727 023b 0F        		.uleb128 0xf
 5728 023c 0000 0000 		.long	.LASF43
 5729 0240 01        		.byte	0x1
 5730 0241 06        		.byte	0x6
 5731 0242 E4        		.byte	0xe4
 5732 0243 6002 0000 		.long	0x260
 5733 0247 10        		.uleb128 0x10
 5734 0248 0000 0000 		.long	.LASF44
 5735 024c 00        		.sleb128 0
 5736 024d 10        		.uleb128 0x10
 5737 024e 0000 0000 		.long	.LASF45
 5738 0252 01        		.sleb128 1
 5739 0253 10        		.uleb128 0x10
 5740 0254 0000 0000 		.long	.LASF46
 5741 0258 02        		.sleb128 2
 5742 0259 10        		.uleb128 0x10
 5743 025a 0000 0000 		.long	.LASF47
 5744 025e 03        		.sleb128 3
 5745 025f 00        		.byte	0x0
 5746 0260 03        		.uleb128 0x3
GAS LISTING /tmp/cchdpaIW.s 			page 102


 5747 0261 0000 0000 		.long	.LASF48
 5748 0265 06        		.byte	0x6
 5749 0266 EA        		.byte	0xea
 5750 0267 3B02 0000 		.long	0x23b
 5751 026b 0F        		.uleb128 0xf
 5752 026c 0000 0000 		.long	.LASF49
 5753 0270 01        		.byte	0x1
 5754 0271 06        		.byte	0x6
 5755 0272 ED        		.byte	0xed
 5756 0273 9002 0000 		.long	0x290
 5757 0277 10        		.uleb128 0x10
 5758 0278 0000 0000 		.long	.LASF50
 5759 027c 00        		.sleb128 0
 5760 027d 10        		.uleb128 0x10
 5761 027e 0000 0000 		.long	.LASF51
 5762 0282 02        		.sleb128 2
 5763 0283 10        		.uleb128 0x10
 5764 0284 0000 0000 		.long	.LASF52
 5765 0288 04        		.sleb128 4
 5766 0289 10        		.uleb128 0x10
 5767 028a 0000 0000 		.long	.LASF53
 5768 028e 0A        		.sleb128 10
 5769 028f 00        		.byte	0x0
 5770 0290 03        		.uleb128 0x3
 5771 0291 0000 0000 		.long	.LASF54
 5772 0295 06        		.byte	0x6
 5773 0296 F3        		.byte	0xf3
 5774 0297 6B02 0000 		.long	0x26b
 5775 029b 11        		.uleb128 0x11
 5776 029c 0000 0000 		.long	.LASF55
 5777 02a0 07        		.byte	0x7
 5778 02a1 06        		.byte	0x6
 5779 02a2 1401      		.word	0x114
 5780 02a4 1203 0000 		.long	0x312
 5781 02a8 08        		.uleb128 0x8
 5782 02a9 0000 0000 		.long	.LASF18
 5783 02ad 06        		.byte	0x6
 5784 02ae 1601      		.word	0x116
 5785 02b0 4001 0000 		.long	0x140
 5786 02b4 02        		.byte	0x2
 5787 02b5 23        		.byte	0x23
 5788 02b6 00        		.uleb128 0x0
 5789 02b7 08        		.uleb128 0x8
 5790 02b8 0000 0000 		.long	.LASF56
 5791 02bc 06        		.byte	0x6
 5792 02bd 1701      		.word	0x117
 5793 02bf 4001 0000 		.long	0x140
 5794 02c3 02        		.byte	0x2
 5795 02c4 23        		.byte	0x23
 5796 02c5 01        		.uleb128 0x1
 5797 02c6 08        		.uleb128 0x8
 5798 02c7 0000 0000 		.long	.LASF57
 5799 02cb 06        		.byte	0x6
 5800 02cc 1801      		.word	0x118
 5801 02ce 4001 0000 		.long	0x140
 5802 02d2 02        		.byte	0x2
 5803 02d3 23        		.byte	0x23
GAS LISTING /tmp/cchdpaIW.s 			page 103


 5804 02d4 02        		.uleb128 0x2
 5805 02d5 08        		.uleb128 0x8
 5806 02d6 0000 0000 		.long	.LASF58
 5807 02da 06        		.byte	0x6
 5808 02db 1901      		.word	0x119
 5809 02dd 4001 0000 		.long	0x140
 5810 02e1 02        		.byte	0x2
 5811 02e2 23        		.byte	0x23
 5812 02e3 03        		.uleb128 0x3
 5813 02e4 08        		.uleb128 0x8
 5814 02e5 0000 0000 		.long	.LASF59
 5815 02e9 06        		.byte	0x6
 5816 02ea 1A01      		.word	0x11a
 5817 02ec 4001 0000 		.long	0x140
 5818 02f0 02        		.byte	0x2
 5819 02f1 23        		.byte	0x23
 5820 02f2 04        		.uleb128 0x4
 5821 02f3 08        		.uleb128 0x8
 5822 02f4 0000 0000 		.long	.LASF60
 5823 02f8 06        		.byte	0x6
 5824 02f9 1B01      		.word	0x11b
 5825 02fb 4001 0000 		.long	0x140
 5826 02ff 02        		.byte	0x2
 5827 0300 23        		.byte	0x23
 5828 0301 05        		.uleb128 0x5
 5829 0302 08        		.uleb128 0x8
 5830 0303 0000 0000 		.long	.LASF61
 5831 0307 06        		.byte	0x6
 5832 0308 1C01      		.word	0x11c
 5833 030a 4001 0000 		.long	0x140
 5834 030e 02        		.byte	0x2
 5835 030f 23        		.byte	0x23
 5836 0310 06        		.uleb128 0x6
 5837 0311 00        		.byte	0x0
 5838 0312 12        		.uleb128 0x12
 5839 0313 0000 0000 		.long	.LASF62
 5840 0317 06        		.byte	0x6
 5841 0318 1D01      		.word	0x11d
 5842 031a 9B02 0000 		.long	0x29b
 5843 031e 13        		.uleb128 0x13
 5844 031f 0000 0000 		.long	.LASF63
 5845 0323 01        		.byte	0x1
 5846 0324 06        		.byte	0x6
 5847 0325 2001      		.word	0x120
 5848 0327 4703 0000 		.long	0x347
 5849 032b 10        		.uleb128 0x10
 5850 032c 0000 0000 		.long	.LASF64
 5851 0330 00        		.sleb128 0
 5852 0331 10        		.uleb128 0x10
 5853 0332 0000 0000 		.long	.LASF65
 5854 0336 C000      		.sleb128 64
 5855 0338 10        		.uleb128 0x10
 5856 0339 0000 0000 		.long	.LASF66
 5857 033d 8001      		.sleb128 128
 5858 033f 10        		.uleb128 0x10
 5859 0340 0000 0000 		.long	.LASF67
 5860 0344 C001      		.sleb128 192
GAS LISTING /tmp/cchdpaIW.s 			page 104


 5861 0346 00        		.byte	0x0
 5862 0347 12        		.uleb128 0x12
 5863 0348 0000 0000 		.long	.LASF68
 5864 034c 06        		.byte	0x6
 5865 034d 2601      		.word	0x126
 5866 034f 1E03 0000 		.long	0x31e
 5867 0353 13        		.uleb128 0x13
 5868 0354 0000 0000 		.long	.LASF69
 5869 0358 01        		.byte	0x1
 5870 0359 06        		.byte	0x6
 5871 035a 2901      		.word	0x129
 5872 035c 7F03 0000 		.long	0x37f
 5873 0360 10        		.uleb128 0x10
 5874 0361 0000 0000 		.long	.LASF70
 5875 0365 00        		.sleb128 0
 5876 0366 10        		.uleb128 0x10
 5877 0367 0000 0000 		.long	.LASF71
 5878 036b 02        		.sleb128 2
 5879 036c 10        		.uleb128 0x10
 5880 036d 0000 0000 		.long	.LASF72
 5881 0371 03        		.sleb128 3
 5882 0372 10        		.uleb128 0x10
 5883 0373 0000 0000 		.long	.LASF73
 5884 0377 07        		.sleb128 7
 5885 0378 10        		.uleb128 0x10
 5886 0379 0000 0000 		.long	.LASF74
 5887 037d 0B        		.sleb128 11
 5888 037e 00        		.byte	0x0
 5889 037f 12        		.uleb128 0x12
 5890 0380 0000 0000 		.long	.LASF75
 5891 0384 06        		.byte	0x6
 5892 0385 3001      		.word	0x130
 5893 0387 5303 0000 		.long	0x353
 5894 038b 13        		.uleb128 0x13
 5895 038c 0000 0000 		.long	.LASF76
 5896 0390 01        		.byte	0x1
 5897 0391 06        		.byte	0x6
 5898 0392 3301      		.word	0x133
 5899 0394 AD03 0000 		.long	0x3ad
 5900 0398 10        		.uleb128 0x10
 5901 0399 0000 0000 		.long	.LASF77
 5902 039d 00        		.sleb128 0
 5903 039e 10        		.uleb128 0x10
 5904 039f 0000 0000 		.long	.LASF78
 5905 03a3 8001      		.sleb128 128
 5906 03a5 10        		.uleb128 0x10
 5907 03a6 0000 0000 		.long	.LASF79
 5908 03aa C001      		.sleb128 192
 5909 03ac 00        		.byte	0x0
 5910 03ad 12        		.uleb128 0x12
 5911 03ae 0000 0000 		.long	.LASF80
 5912 03b2 06        		.byte	0x6
 5913 03b3 3801      		.word	0x138
 5914 03b5 8B03 0000 		.long	0x38b
 5915 03b9 11        		.uleb128 0x11
 5916 03ba 0000 0000 		.long	.LASF81
 5917 03be 08        		.byte	0x8
GAS LISTING /tmp/cchdpaIW.s 			page 105


 5918 03bf 06        		.byte	0x6
 5919 03c0 4201      		.word	0x142
 5920 03c2 3F04 0000 		.long	0x43f
 5921 03c6 08        		.uleb128 0x8
 5922 03c7 0000 0000 		.long	.LASF18
 5923 03cb 06        		.byte	0x6
 5924 03cc 4401      		.word	0x144
 5925 03ce 4001 0000 		.long	0x140
 5926 03d2 02        		.byte	0x2
 5927 03d3 23        		.byte	0x23
 5928 03d4 00        		.uleb128 0x0
 5929 03d5 08        		.uleb128 0x8
 5930 03d6 0000 0000 		.long	.LASF82
 5931 03da 06        		.byte	0x6
 5932 03db 4501      		.word	0x145
 5933 03dd 4001 0000 		.long	0x140
 5934 03e1 02        		.byte	0x2
 5935 03e2 23        		.byte	0x23
 5936 03e3 01        		.uleb128 0x1
 5937 03e4 08        		.uleb128 0x8
 5938 03e5 0000 0000 		.long	.LASF83
 5939 03e9 06        		.byte	0x6
 5940 03ea 4601      		.word	0x146
 5941 03ec 4001 0000 		.long	0x140
 5942 03f0 02        		.byte	0x2
 5943 03f1 23        		.byte	0x23
 5944 03f2 02        		.uleb128 0x2
 5945 03f3 08        		.uleb128 0x8
 5946 03f4 0000 0000 		.long	.LASF84
 5947 03f8 06        		.byte	0x6
 5948 03f9 4701      		.word	0x147
 5949 03fb 4001 0000 		.long	0x140
 5950 03ff 02        		.byte	0x2
 5951 0400 23        		.byte	0x23
 5952 0401 03        		.uleb128 0x3
 5953 0402 08        		.uleb128 0x8
 5954 0403 0000 0000 		.long	.LASF85
 5955 0407 06        		.byte	0x6
 5956 0408 4801      		.word	0x148
 5957 040a 4001 0000 		.long	0x140
 5958 040e 02        		.byte	0x2
 5959 040f 23        		.byte	0x23
 5960 0410 04        		.uleb128 0x4
 5961 0411 08        		.uleb128 0x8
 5962 0412 0000 0000 		.long	.LASF86
 5963 0416 06        		.byte	0x6
 5964 0417 4901      		.word	0x149
 5965 0419 4001 0000 		.long	0x140
 5966 041d 02        		.byte	0x2
 5967 041e 23        		.byte	0x23
 5968 041f 05        		.uleb128 0x5
 5969 0420 08        		.uleb128 0x8
 5970 0421 0000 0000 		.long	.LASF87
 5971 0425 06        		.byte	0x6
 5972 0426 4A01      		.word	0x14a
 5973 0428 4001 0000 		.long	0x140
 5974 042c 02        		.byte	0x2
GAS LISTING /tmp/cchdpaIW.s 			page 106


 5975 042d 23        		.byte	0x23
 5976 042e 06        		.uleb128 0x6
 5977 042f 08        		.uleb128 0x8
 5978 0430 0000 0000 		.long	.LASF88
 5979 0434 06        		.byte	0x6
 5980 0435 4B01      		.word	0x14b
 5981 0437 4001 0000 		.long	0x140
 5982 043b 02        		.byte	0x2
 5983 043c 23        		.byte	0x23
 5984 043d 07        		.uleb128 0x7
 5985 043e 00        		.byte	0x0
 5986 043f 12        		.uleb128 0x12
 5987 0440 0000 0000 		.long	.LASF89
 5988 0444 06        		.byte	0x6
 5989 0445 4C01      		.word	0x14c
 5990 0447 B903 0000 		.long	0x3b9
 5991 044b 11        		.uleb128 0x11
 5992 044c 0000 0000 		.long	.LASF90
 5993 0450 03        		.byte	0x3
 5994 0451 06        		.byte	0x6
 5995 0452 AB01      		.word	0x1ab
 5996 0454 8604 0000 		.long	0x486
 5997 0458 08        		.uleb128 0x8
 5998 0459 0000 0000 		.long	.LASF56
 5999 045d 06        		.byte	0x6
 6000 045e AD01      		.word	0x1ad
 6001 0460 4001 0000 		.long	0x140
 6002 0464 02        		.byte	0x2
 6003 0465 23        		.byte	0x23
 6004 0466 00        		.uleb128 0x0
 6005 0467 08        		.uleb128 0x8
 6006 0468 0000 0000 		.long	.LASF91
 6007 046c 06        		.byte	0x6
 6008 046d AE01      		.word	0x1ae
 6009 046f 4001 0000 		.long	0x140
 6010 0473 02        		.byte	0x2
 6011 0474 23        		.byte	0x23
 6012 0475 01        		.uleb128 0x1
 6013 0476 08        		.uleb128 0x8
 6014 0477 0000 0000 		.long	.LASF18
 6015 047b 06        		.byte	0x6
 6016 047c AF01      		.word	0x1af
 6017 047e 4001 0000 		.long	0x140
 6018 0482 02        		.byte	0x2
 6019 0483 23        		.byte	0x23
 6020 0484 02        		.uleb128 0x2
 6021 0485 00        		.byte	0x0
 6022 0486 12        		.uleb128 0x12
 6023 0487 0000 0000 		.long	.LASF92
 6024 048b 06        		.byte	0x6
 6025 048c B001      		.word	0x1b0
 6026 048e 4B04 0000 		.long	0x44b
 6027 0492 0E        		.uleb128 0xe
 6028 0493 4500 0000 		.long	0x45
 6029 0497 11        		.uleb128 0x11
 6030 0498 0000 0000 		.long	.LASF93
 6031 049c 18        		.byte	0x18
GAS LISTING /tmp/cchdpaIW.s 			page 107


 6032 049d 06        		.byte	0x6
 6033 049e 6E07      		.word	0x76e
 6034 04a0 0C06 0000 		.long	0x60c
 6035 04a4 09        		.uleb128 0x9
 6036 04a5 4449 5200 		.string	"DIR"
 6037 04a9 06        		.byte	0x6
 6038 04aa 7007      		.word	0x770
 6039 04ac 4001 0000 		.long	0x140
 6040 04b0 02        		.byte	0x2
 6041 04b1 23        		.byte	0x23
 6042 04b2 00        		.uleb128 0x0
 6043 04b3 08        		.uleb128 0x8
 6044 04b4 0000 0000 		.long	.LASF94
 6045 04b8 06        		.byte	0x6
 6046 04b9 7107      		.word	0x771
 6047 04bb 4001 0000 		.long	0x140
 6048 04bf 02        		.byte	0x2
 6049 04c0 23        		.byte	0x23
 6050 04c1 01        		.uleb128 0x1
 6051 04c2 08        		.uleb128 0x8
 6052 04c3 0000 0000 		.long	.LASF95
 6053 04c7 06        		.byte	0x6
 6054 04c8 7207      		.word	0x772
 6055 04ca 4001 0000 		.long	0x140
 6056 04ce 02        		.byte	0x2
 6057 04cf 23        		.byte	0x23
 6058 04d0 02        		.uleb128 0x2
 6059 04d1 08        		.uleb128 0x8
 6060 04d2 0000 0000 		.long	.LASF96
 6061 04d6 06        		.byte	0x6
 6062 04d7 7307      		.word	0x773
 6063 04d9 4001 0000 		.long	0x140
 6064 04dd 02        		.byte	0x2
 6065 04de 23        		.byte	0x23
 6066 04df 03        		.uleb128 0x3
 6067 04e0 09        		.uleb128 0x9
 6068 04e1 4F55 5400 		.string	"OUT"
 6069 04e5 06        		.byte	0x6
 6070 04e6 7407      		.word	0x774
 6071 04e8 4001 0000 		.long	0x140
 6072 04ec 02        		.byte	0x2
 6073 04ed 23        		.byte	0x23
 6074 04ee 04        		.uleb128 0x4
 6075 04ef 08        		.uleb128 0x8
 6076 04f0 0000 0000 		.long	.LASF97
 6077 04f4 06        		.byte	0x6
 6078 04f5 7507      		.word	0x775
 6079 04f7 4001 0000 		.long	0x140
 6080 04fb 02        		.byte	0x2
 6081 04fc 23        		.byte	0x23
 6082 04fd 05        		.uleb128 0x5
 6083 04fe 08        		.uleb128 0x8
 6084 04ff 0000 0000 		.long	.LASF98
 6085 0503 06        		.byte	0x6
 6086 0504 7607      		.word	0x776
 6087 0506 4001 0000 		.long	0x140
 6088 050a 02        		.byte	0x2
GAS LISTING /tmp/cchdpaIW.s 			page 108


 6089 050b 23        		.byte	0x23
 6090 050c 06        		.uleb128 0x6
 6091 050d 08        		.uleb128 0x8
 6092 050e 0000 0000 		.long	.LASF99
 6093 0512 06        		.byte	0x6
 6094 0513 7707      		.word	0x777
 6095 0515 4001 0000 		.long	0x140
 6096 0519 02        		.byte	0x2
 6097 051a 23        		.byte	0x23
 6098 051b 07        		.uleb128 0x7
 6099 051c 09        		.uleb128 0x9
 6100 051d 494E 00   		.string	"IN"
 6101 0520 06        		.byte	0x6
 6102 0521 7807      		.word	0x778
 6103 0523 4001 0000 		.long	0x140
 6104 0527 02        		.byte	0x2
 6105 0528 23        		.byte	0x23
 6106 0529 08        		.uleb128 0x8
 6107 052a 08        		.uleb128 0x8
 6108 052b 0000 0000 		.long	.LASF100
 6109 052f 06        		.byte	0x6
 6110 0530 7907      		.word	0x779
 6111 0532 4001 0000 		.long	0x140
 6112 0536 02        		.byte	0x2
 6113 0537 23        		.byte	0x23
 6114 0538 09        		.uleb128 0x9
 6115 0539 08        		.uleb128 0x8
 6116 053a 0000 0000 		.long	.LASF101
 6117 053e 06        		.byte	0x6
 6118 053f 7A07      		.word	0x77a
 6119 0541 4001 0000 		.long	0x140
 6120 0545 02        		.byte	0x2
 6121 0546 23        		.byte	0x23
 6122 0547 0A        		.uleb128 0xa
 6123 0548 08        		.uleb128 0x8
 6124 0549 0000 0000 		.long	.LASF102
 6125 054d 06        		.byte	0x6
 6126 054e 7B07      		.word	0x77b
 6127 0550 4001 0000 		.long	0x140
 6128 0554 02        		.byte	0x2
 6129 0555 23        		.byte	0x23
 6130 0556 0B        		.uleb128 0xb
 6131 0557 08        		.uleb128 0x8
 6132 0558 0000 0000 		.long	.LASF103
 6133 055c 06        		.byte	0x6
 6134 055d 7C07      		.word	0x77c
 6135 055f 4001 0000 		.long	0x140
 6136 0563 02        		.byte	0x2
 6137 0564 23        		.byte	0x23
 6138 0565 0C        		.uleb128 0xc
 6139 0566 08        		.uleb128 0x8
 6140 0567 0000 0000 		.long	.LASF104
 6141 056b 06        		.byte	0x6
 6142 056c 7D07      		.word	0x77d
 6143 056e 4001 0000 		.long	0x140
 6144 0572 02        		.byte	0x2
 6145 0573 23        		.byte	0x23
GAS LISTING /tmp/cchdpaIW.s 			page 109


 6146 0574 0D        		.uleb128 0xd
 6147 0575 08        		.uleb128 0x8
 6148 0576 0000 0000 		.long	.LASF105
 6149 057a 06        		.byte	0x6
 6150 057b 7E07      		.word	0x77e
 6151 057d 4001 0000 		.long	0x140
 6152 0581 02        		.byte	0x2
 6153 0582 23        		.byte	0x23
 6154 0583 0E        		.uleb128 0xe
 6155 0584 08        		.uleb128 0x8
 6156 0585 0000 0000 		.long	.LASF106
 6157 0589 06        		.byte	0x6
 6158 058a 7F07      		.word	0x77f
 6159 058c 4001 0000 		.long	0x140
 6160 0590 02        		.byte	0x2
 6161 0591 23        		.byte	0x23
 6162 0592 0F        		.uleb128 0xf
 6163 0593 08        		.uleb128 0x8
 6164 0594 0000 0000 		.long	.LASF107
 6165 0598 06        		.byte	0x6
 6166 0599 8007      		.word	0x780
 6167 059b 4001 0000 		.long	0x140
 6168 059f 02        		.byte	0x2
 6169 05a0 23        		.byte	0x23
 6170 05a1 10        		.uleb128 0x10
 6171 05a2 08        		.uleb128 0x8
 6172 05a3 0000 0000 		.long	.LASF108
 6173 05a7 06        		.byte	0x6
 6174 05a8 8107      		.word	0x781
 6175 05aa 4001 0000 		.long	0x140
 6176 05ae 02        		.byte	0x2
 6177 05af 23        		.byte	0x23
 6178 05b0 11        		.uleb128 0x11
 6179 05b1 08        		.uleb128 0x8
 6180 05b2 0000 0000 		.long	.LASF109
 6181 05b6 06        		.byte	0x6
 6182 05b7 8207      		.word	0x782
 6183 05b9 4001 0000 		.long	0x140
 6184 05bd 02        		.byte	0x2
 6185 05be 23        		.byte	0x23
 6186 05bf 12        		.uleb128 0x12
 6187 05c0 08        		.uleb128 0x8
 6188 05c1 0000 0000 		.long	.LASF110
 6189 05c5 06        		.byte	0x6
 6190 05c6 8307      		.word	0x783
 6191 05c8 4001 0000 		.long	0x140
 6192 05cc 02        		.byte	0x2
 6193 05cd 23        		.byte	0x23
 6194 05ce 13        		.uleb128 0x13
 6195 05cf 08        		.uleb128 0x8
 6196 05d0 0000 0000 		.long	.LASF111
 6197 05d4 06        		.byte	0x6
 6198 05d5 8407      		.word	0x784
 6199 05d7 4001 0000 		.long	0x140
 6200 05db 02        		.byte	0x2
 6201 05dc 23        		.byte	0x23
 6202 05dd 14        		.uleb128 0x14
GAS LISTING /tmp/cchdpaIW.s 			page 110


 6203 05de 08        		.uleb128 0x8
 6204 05df 0000 0000 		.long	.LASF112
 6205 05e3 06        		.byte	0x6
 6206 05e4 8507      		.word	0x785
 6207 05e6 4001 0000 		.long	0x140
 6208 05ea 02        		.byte	0x2
 6209 05eb 23        		.byte	0x23
 6210 05ec 15        		.uleb128 0x15
 6211 05ed 08        		.uleb128 0x8
 6212 05ee 0000 0000 		.long	.LASF113
 6213 05f2 06        		.byte	0x6
 6214 05f3 8607      		.word	0x786
 6215 05f5 4001 0000 		.long	0x140
 6216 05f9 02        		.byte	0x2
 6217 05fa 23        		.byte	0x23
 6218 05fb 16        		.uleb128 0x16
 6219 05fc 08        		.uleb128 0x8
 6220 05fd 0000 0000 		.long	.LASF114
 6221 0601 06        		.byte	0x6
 6222 0602 8707      		.word	0x787
 6223 0604 4001 0000 		.long	0x140
 6224 0608 02        		.byte	0x2
 6225 0609 23        		.byte	0x23
 6226 060a 17        		.uleb128 0x17
 6227 060b 00        		.byte	0x0
 6228 060c 12        		.uleb128 0x12
 6229 060d 0000 0000 		.long	.LASF115
 6230 0611 06        		.byte	0x6
 6231 0612 8807      		.word	0x788
 6232 0614 9704 0000 		.long	0x497
 6233 0618 13        		.uleb128 0x13
 6234 0619 0000 0000 		.long	.LASF116
 6235 061d 01        		.byte	0x1
 6236 061e 06        		.byte	0x6
 6237 061f 0308      		.word	0x803
 6238 0621 5606 0000 		.long	0x656
 6239 0625 10        		.uleb128 0x10
 6240 0626 0000 0000 		.long	.LASF117
 6241 062a 00        		.sleb128 0
 6242 062b 10        		.uleb128 0x10
 6243 062c 0000 0000 		.long	.LASF118
 6244 0630 08        		.sleb128 8
 6245 0631 10        		.uleb128 0x10
 6246 0632 0000 0000 		.long	.LASF119
 6247 0636 10        		.sleb128 16
 6248 0637 10        		.uleb128 0x10
 6249 0638 0000 0000 		.long	.LASF120
 6250 063c 18        		.sleb128 24
 6251 063d 10        		.uleb128 0x10
 6252 063e 0000 0000 		.long	.LASF121
 6253 0642 20        		.sleb128 32
 6254 0643 10        		.uleb128 0x10
 6255 0644 0000 0000 		.long	.LASF122
 6256 0648 28        		.sleb128 40
 6257 0649 10        		.uleb128 0x10
 6258 064a 0000 0000 		.long	.LASF123
 6259 064e 30        		.sleb128 48
GAS LISTING /tmp/cchdpaIW.s 			page 111


 6260 064f 10        		.uleb128 0x10
 6261 0650 0000 0000 		.long	.LASF124
 6262 0654 38        		.sleb128 56
 6263 0655 00        		.byte	0x0
 6264 0656 14        		.uleb128 0x14
 6265 0657 02        		.byte	0x2
 6266 0658 06        		.byte	0x6
 6267 0659 4308      		.word	0x843
 6268 065b 7E06 0000 		.long	0x67e
 6269 065f 08        		.uleb128 0x8
 6270 0660 0000 0000 		.long	.LASF125
 6271 0664 06        		.byte	0x6
 6272 0665 4308      		.word	0x843
 6273 0667 4001 0000 		.long	0x140
 6274 066b 02        		.byte	0x2
 6275 066c 23        		.byte	0x23
 6276 066d 00        		.uleb128 0x0
 6277 066e 08        		.uleb128 0x8
 6278 066f 0000 0000 		.long	.LASF126
 6279 0673 06        		.byte	0x6
 6280 0674 4308      		.word	0x843
 6281 0676 4001 0000 		.long	0x140
 6282 067a 02        		.byte	0x2
 6283 067b 23        		.byte	0x23
 6284 067c 01        		.uleb128 0x1
 6285 067d 00        		.byte	0x0
 6286 067e 15        		.uleb128 0x15
 6287 067f 02        		.byte	0x2
 6288 0680 06        		.byte	0x6
 6289 0681 4308      		.word	0x843
 6290 0683 9906 0000 		.long	0x699
 6291 0687 16        		.uleb128 0x16
 6292 0688 434E 5400 		.string	"CNT"
 6293 068c 06        		.byte	0x6
 6294 068d 4308      		.word	0x843
 6295 068f 9204 0000 		.long	0x492
 6296 0693 17        		.uleb128 0x17
 6297 0694 5606 0000 		.long	0x656
 6298 0698 00        		.byte	0x0
 6299 0699 14        		.uleb128 0x14
 6300 069a 02        		.byte	0x2
 6301 069b 06        		.byte	0x6
 6302 069c 4808      		.word	0x848
 6303 069e C106 0000 		.long	0x6c1
 6304 06a2 08        		.uleb128 0x8
 6305 06a3 0000 0000 		.long	.LASF127
 6306 06a7 06        		.byte	0x6
 6307 06a8 4808      		.word	0x848
 6308 06aa 4001 0000 		.long	0x140
 6309 06ae 02        		.byte	0x2
 6310 06af 23        		.byte	0x23
 6311 06b0 00        		.uleb128 0x0
 6312 06b1 08        		.uleb128 0x8
 6313 06b2 0000 0000 		.long	.LASF128
 6314 06b6 06        		.byte	0x6
 6315 06b7 4808      		.word	0x848
 6316 06b9 4001 0000 		.long	0x140
GAS LISTING /tmp/cchdpaIW.s 			page 112


 6317 06bd 02        		.byte	0x2
 6318 06be 23        		.byte	0x23
 6319 06bf 01        		.uleb128 0x1
 6320 06c0 00        		.byte	0x0
 6321 06c1 15        		.uleb128 0x15
 6322 06c2 02        		.byte	0x2
 6323 06c3 06        		.byte	0x6
 6324 06c4 4808      		.word	0x848
 6325 06c6 DC06 0000 		.long	0x6dc
 6326 06ca 16        		.uleb128 0x16
 6327 06cb 5045 5200 		.string	"PER"
 6328 06cf 06        		.byte	0x6
 6329 06d0 4808      		.word	0x848
 6330 06d2 9204 0000 		.long	0x492
 6331 06d6 17        		.uleb128 0x17
 6332 06d7 9906 0000 		.long	0x699
 6333 06db 00        		.byte	0x0
 6334 06dc 14        		.uleb128 0x14
 6335 06dd 02        		.byte	0x2
 6336 06de 06        		.byte	0x6
 6337 06df 4908      		.word	0x849
 6338 06e1 0407 0000 		.long	0x704
 6339 06e5 08        		.uleb128 0x8
 6340 06e6 0000 0000 		.long	.LASF129
 6341 06ea 06        		.byte	0x6
 6342 06eb 4908      		.word	0x849
 6343 06ed 4001 0000 		.long	0x140
 6344 06f1 02        		.byte	0x2
 6345 06f2 23        		.byte	0x23
 6346 06f3 00        		.uleb128 0x0
 6347 06f4 08        		.uleb128 0x8
 6348 06f5 0000 0000 		.long	.LASF130
 6349 06f9 06        		.byte	0x6
 6350 06fa 4908      		.word	0x849
 6351 06fc 4001 0000 		.long	0x140
 6352 0700 02        		.byte	0x2
 6353 0701 23        		.byte	0x23
 6354 0702 01        		.uleb128 0x1
 6355 0703 00        		.byte	0x0
 6356 0704 15        		.uleb128 0x15
 6357 0705 02        		.byte	0x2
 6358 0706 06        		.byte	0x6
 6359 0707 4908      		.word	0x849
 6360 0709 1F07 0000 		.long	0x71f
 6361 070d 16        		.uleb128 0x16
 6362 070e 4343 4100 		.string	"CCA"
 6363 0712 06        		.byte	0x6
 6364 0713 4908      		.word	0x849
 6365 0715 9204 0000 		.long	0x492
 6366 0719 17        		.uleb128 0x17
 6367 071a DC06 0000 		.long	0x6dc
 6368 071e 00        		.byte	0x0
 6369 071f 14        		.uleb128 0x14
 6370 0720 02        		.byte	0x2
 6371 0721 06        		.byte	0x6
 6372 0722 4A08      		.word	0x84a
 6373 0724 4707 0000 		.long	0x747
GAS LISTING /tmp/cchdpaIW.s 			page 113


 6374 0728 08        		.uleb128 0x8
 6375 0729 0000 0000 		.long	.LASF131
 6376 072d 06        		.byte	0x6
 6377 072e 4A08      		.word	0x84a
 6378 0730 4001 0000 		.long	0x140
 6379 0734 02        		.byte	0x2
 6380 0735 23        		.byte	0x23
 6381 0736 00        		.uleb128 0x0
 6382 0737 08        		.uleb128 0x8
 6383 0738 0000 0000 		.long	.LASF132
 6384 073c 06        		.byte	0x6
 6385 073d 4A08      		.word	0x84a
 6386 073f 4001 0000 		.long	0x140
 6387 0743 02        		.byte	0x2
 6388 0744 23        		.byte	0x23
 6389 0745 01        		.uleb128 0x1
 6390 0746 00        		.byte	0x0
 6391 0747 15        		.uleb128 0x15
 6392 0748 02        		.byte	0x2
 6393 0749 06        		.byte	0x6
 6394 074a 4A08      		.word	0x84a
 6395 074c 6207 0000 		.long	0x762
 6396 0750 16        		.uleb128 0x16
 6397 0751 4343 4200 		.string	"CCB"
 6398 0755 06        		.byte	0x6
 6399 0756 4A08      		.word	0x84a
 6400 0758 9204 0000 		.long	0x492
 6401 075c 17        		.uleb128 0x17
 6402 075d 1F07 0000 		.long	0x71f
 6403 0761 00        		.byte	0x0
 6404 0762 14        		.uleb128 0x14
 6405 0763 02        		.byte	0x2
 6406 0764 06        		.byte	0x6
 6407 0765 4B08      		.word	0x84b
 6408 0767 8A07 0000 		.long	0x78a
 6409 076b 08        		.uleb128 0x8
 6410 076c 0000 0000 		.long	.LASF133
 6411 0770 06        		.byte	0x6
 6412 0771 4B08      		.word	0x84b
 6413 0773 4001 0000 		.long	0x140
 6414 0777 02        		.byte	0x2
 6415 0778 23        		.byte	0x23
 6416 0779 00        		.uleb128 0x0
 6417 077a 08        		.uleb128 0x8
 6418 077b 0000 0000 		.long	.LASF134
 6419 077f 06        		.byte	0x6
 6420 0780 4B08      		.word	0x84b
 6421 0782 4001 0000 		.long	0x140
 6422 0786 02        		.byte	0x2
 6423 0787 23        		.byte	0x23
 6424 0788 01        		.uleb128 0x1
 6425 0789 00        		.byte	0x0
 6426 078a 15        		.uleb128 0x15
 6427 078b 02        		.byte	0x2
 6428 078c 06        		.byte	0x6
 6429 078d 4B08      		.word	0x84b
 6430 078f A507 0000 		.long	0x7a5
GAS LISTING /tmp/cchdpaIW.s 			page 114


 6431 0793 16        		.uleb128 0x16
 6432 0794 4343 4300 		.string	"CCC"
 6433 0798 06        		.byte	0x6
 6434 0799 4B08      		.word	0x84b
 6435 079b 9204 0000 		.long	0x492
 6436 079f 17        		.uleb128 0x17
 6437 07a0 6207 0000 		.long	0x762
 6438 07a4 00        		.byte	0x0
 6439 07a5 14        		.uleb128 0x14
 6440 07a6 02        		.byte	0x2
 6441 07a7 06        		.byte	0x6
 6442 07a8 4C08      		.word	0x84c
 6443 07aa CD07 0000 		.long	0x7cd
 6444 07ae 08        		.uleb128 0x8
 6445 07af 0000 0000 		.long	.LASF135
 6446 07b3 06        		.byte	0x6
 6447 07b4 4C08      		.word	0x84c
 6448 07b6 4001 0000 		.long	0x140
 6449 07ba 02        		.byte	0x2
 6450 07bb 23        		.byte	0x23
 6451 07bc 00        		.uleb128 0x0
 6452 07bd 08        		.uleb128 0x8
 6453 07be 0000 0000 		.long	.LASF136
 6454 07c2 06        		.byte	0x6
 6455 07c3 4C08      		.word	0x84c
 6456 07c5 4001 0000 		.long	0x140
 6457 07c9 02        		.byte	0x2
 6458 07ca 23        		.byte	0x23
 6459 07cb 01        		.uleb128 0x1
 6460 07cc 00        		.byte	0x0
 6461 07cd 15        		.uleb128 0x15
 6462 07ce 02        		.byte	0x2
 6463 07cf 06        		.byte	0x6
 6464 07d0 4C08      		.word	0x84c
 6465 07d2 E807 0000 		.long	0x7e8
 6466 07d6 16        		.uleb128 0x16
 6467 07d7 4343 4400 		.string	"CCD"
 6468 07db 06        		.byte	0x6
 6469 07dc 4C08      		.word	0x84c
 6470 07de 9204 0000 		.long	0x492
 6471 07e2 17        		.uleb128 0x17
 6472 07e3 A507 0000 		.long	0x7a5
 6473 07e7 00        		.byte	0x0
 6474 07e8 14        		.uleb128 0x14
 6475 07e9 02        		.byte	0x2
 6476 07ea 06        		.byte	0x6
 6477 07eb 5308      		.word	0x853
 6478 07ed 1008 0000 		.long	0x810
 6479 07f1 08        		.uleb128 0x8
 6480 07f2 0000 0000 		.long	.LASF137
 6481 07f6 06        		.byte	0x6
 6482 07f7 5308      		.word	0x853
 6483 07f9 4001 0000 		.long	0x140
 6484 07fd 02        		.byte	0x2
 6485 07fe 23        		.byte	0x23
 6486 07ff 00        		.uleb128 0x0
 6487 0800 08        		.uleb128 0x8
GAS LISTING /tmp/cchdpaIW.s 			page 115


 6488 0801 0000 0000 		.long	.LASF138
 6489 0805 06        		.byte	0x6
 6490 0806 5308      		.word	0x853
 6491 0808 4001 0000 		.long	0x140
 6492 080c 02        		.byte	0x2
 6493 080d 23        		.byte	0x23
 6494 080e 01        		.uleb128 0x1
 6495 080f 00        		.byte	0x0
 6496 0810 15        		.uleb128 0x15
 6497 0811 02        		.byte	0x2
 6498 0812 06        		.byte	0x6
 6499 0813 5308      		.word	0x853
 6500 0815 2B08 0000 		.long	0x82b
 6501 0819 18        		.uleb128 0x18
 6502 081a 0000 0000 		.long	.LASF139
 6503 081e 06        		.byte	0x6
 6504 081f 5308      		.word	0x853
 6505 0821 9204 0000 		.long	0x492
 6506 0825 17        		.uleb128 0x17
 6507 0826 E807 0000 		.long	0x7e8
 6508 082a 00        		.byte	0x0
 6509 082b 14        		.uleb128 0x14
 6510 082c 02        		.byte	0x2
 6511 082d 06        		.byte	0x6
 6512 082e 5408      		.word	0x854
 6513 0830 5308 0000 		.long	0x853
 6514 0834 08        		.uleb128 0x8
 6515 0835 0000 0000 		.long	.LASF140
 6516 0839 06        		.byte	0x6
 6517 083a 5408      		.word	0x854
 6518 083c 4001 0000 		.long	0x140
 6519 0840 02        		.byte	0x2
 6520 0841 23        		.byte	0x23
 6521 0842 00        		.uleb128 0x0
 6522 0843 08        		.uleb128 0x8
 6523 0844 0000 0000 		.long	.LASF141
 6524 0848 06        		.byte	0x6
 6525 0849 5408      		.word	0x854
 6526 084b 4001 0000 		.long	0x140
 6527 084f 02        		.byte	0x2
 6528 0850 23        		.byte	0x23
 6529 0851 01        		.uleb128 0x1
 6530 0852 00        		.byte	0x0
 6531 0853 15        		.uleb128 0x15
 6532 0854 02        		.byte	0x2
 6533 0855 06        		.byte	0x6
 6534 0856 5408      		.word	0x854
 6535 0858 6E08 0000 		.long	0x86e
 6536 085c 18        		.uleb128 0x18
 6537 085d 0000 0000 		.long	.LASF142
 6538 0861 06        		.byte	0x6
 6539 0862 5408      		.word	0x854
 6540 0864 9204 0000 		.long	0x492
 6541 0868 17        		.uleb128 0x17
 6542 0869 2B08 0000 		.long	0x82b
 6543 086d 00        		.byte	0x0
 6544 086e 14        		.uleb128 0x14
GAS LISTING /tmp/cchdpaIW.s 			page 116


 6545 086f 02        		.byte	0x2
 6546 0870 06        		.byte	0x6
 6547 0871 5508      		.word	0x855
 6548 0873 9608 0000 		.long	0x896
 6549 0877 08        		.uleb128 0x8
 6550 0878 0000 0000 		.long	.LASF143
 6551 087c 06        		.byte	0x6
 6552 087d 5508      		.word	0x855
 6553 087f 4001 0000 		.long	0x140
 6554 0883 02        		.byte	0x2
 6555 0884 23        		.byte	0x23
 6556 0885 00        		.uleb128 0x0
 6557 0886 08        		.uleb128 0x8
 6558 0887 0000 0000 		.long	.LASF144
 6559 088b 06        		.byte	0x6
 6560 088c 5508      		.word	0x855
 6561 088e 4001 0000 		.long	0x140
 6562 0892 02        		.byte	0x2
 6563 0893 23        		.byte	0x23
 6564 0894 01        		.uleb128 0x1
 6565 0895 00        		.byte	0x0
 6566 0896 15        		.uleb128 0x15
 6567 0897 02        		.byte	0x2
 6568 0898 06        		.byte	0x6
 6569 0899 5508      		.word	0x855
 6570 089b B108 0000 		.long	0x8b1
 6571 089f 18        		.uleb128 0x18
 6572 08a0 0000 0000 		.long	.LASF145
 6573 08a4 06        		.byte	0x6
 6574 08a5 5508      		.word	0x855
 6575 08a7 9204 0000 		.long	0x492
 6576 08ab 17        		.uleb128 0x17
 6577 08ac 6E08 0000 		.long	0x86e
 6578 08b0 00        		.byte	0x0
 6579 08b1 14        		.uleb128 0x14
 6580 08b2 02        		.byte	0x2
 6581 08b3 06        		.byte	0x6
 6582 08b4 5608      		.word	0x856
 6583 08b6 D908 0000 		.long	0x8d9
 6584 08ba 08        		.uleb128 0x8
 6585 08bb 0000 0000 		.long	.LASF146
 6586 08bf 06        		.byte	0x6
 6587 08c0 5608      		.word	0x856
 6588 08c2 4001 0000 		.long	0x140
 6589 08c6 02        		.byte	0x2
 6590 08c7 23        		.byte	0x23
 6591 08c8 00        		.uleb128 0x0
 6592 08c9 08        		.uleb128 0x8
 6593 08ca 0000 0000 		.long	.LASF147
 6594 08ce 06        		.byte	0x6
 6595 08cf 5608      		.word	0x856
 6596 08d1 4001 0000 		.long	0x140
 6597 08d5 02        		.byte	0x2
 6598 08d6 23        		.byte	0x23
 6599 08d7 01        		.uleb128 0x1
 6600 08d8 00        		.byte	0x0
 6601 08d9 15        		.uleb128 0x15
GAS LISTING /tmp/cchdpaIW.s 			page 117


 6602 08da 02        		.byte	0x2
 6603 08db 06        		.byte	0x6
 6604 08dc 5608      		.word	0x856
 6605 08de F408 0000 		.long	0x8f4
 6606 08e2 18        		.uleb128 0x18
 6607 08e3 0000 0000 		.long	.LASF148
 6608 08e7 06        		.byte	0x6
 6609 08e8 5608      		.word	0x856
 6610 08ea 9204 0000 		.long	0x492
 6611 08ee 17        		.uleb128 0x17
 6612 08ef B108 0000 		.long	0x8b1
 6613 08f3 00        		.byte	0x0
 6614 08f4 14        		.uleb128 0x14
 6615 08f5 02        		.byte	0x2
 6616 08f6 06        		.byte	0x6
 6617 08f7 5708      		.word	0x857
 6618 08f9 1C09 0000 		.long	0x91c
 6619 08fd 08        		.uleb128 0x8
 6620 08fe 0000 0000 		.long	.LASF149
 6621 0902 06        		.byte	0x6
 6622 0903 5708      		.word	0x857
 6623 0905 4001 0000 		.long	0x140
 6624 0909 02        		.byte	0x2
 6625 090a 23        		.byte	0x23
 6626 090b 00        		.uleb128 0x0
 6627 090c 08        		.uleb128 0x8
 6628 090d 0000 0000 		.long	.LASF150
 6629 0911 06        		.byte	0x6
 6630 0912 5708      		.word	0x857
 6631 0914 4001 0000 		.long	0x140
 6632 0918 02        		.byte	0x2
 6633 0919 23        		.byte	0x23
 6634 091a 01        		.uleb128 0x1
 6635 091b 00        		.byte	0x0
 6636 091c 15        		.uleb128 0x15
 6637 091d 02        		.byte	0x2
 6638 091e 06        		.byte	0x6
 6639 091f 5708      		.word	0x857
 6640 0921 3709 0000 		.long	0x937
 6641 0925 18        		.uleb128 0x18
 6642 0926 0000 0000 		.long	.LASF151
 6643 092a 06        		.byte	0x6
 6644 092b 5708      		.word	0x857
 6645 092d 9204 0000 		.long	0x492
 6646 0931 17        		.uleb128 0x17
 6647 0932 F408 0000 		.long	0x8f4
 6648 0936 00        		.byte	0x0
 6649 0937 11        		.uleb128 0x11
 6650 0938 0000 0000 		.long	.LASF152
 6651 093c 40        		.byte	0x40
 6652 093d 06        		.byte	0x6
 6653 093e 2108      		.word	0x821
 6654 0940 130C 0000 		.long	0xc13
 6655 0944 08        		.uleb128 0x8
 6656 0945 0000 0000 		.long	.LASF153
 6657 0949 06        		.byte	0x6
 6658 094a 2308      		.word	0x823
GAS LISTING /tmp/cchdpaIW.s 			page 118


 6659 094c 4001 0000 		.long	0x140
 6660 0950 02        		.byte	0x2
 6661 0951 23        		.byte	0x23
 6662 0952 00        		.uleb128 0x0
 6663 0953 08        		.uleb128 0x8
 6664 0954 0000 0000 		.long	.LASF154
 6665 0958 06        		.byte	0x6
 6666 0959 2408      		.word	0x824
 6667 095b 4001 0000 		.long	0x140
 6668 095f 02        		.byte	0x2
 6669 0960 23        		.byte	0x23
 6670 0961 01        		.uleb128 0x1
 6671 0962 08        		.uleb128 0x8
 6672 0963 0000 0000 		.long	.LASF155
 6673 0967 06        		.byte	0x6
 6674 0968 2508      		.word	0x825
 6675 096a 4001 0000 		.long	0x140
 6676 096e 02        		.byte	0x2
 6677 096f 23        		.byte	0x23
 6678 0970 02        		.uleb128 0x2
 6679 0971 08        		.uleb128 0x8
 6680 0972 0000 0000 		.long	.LASF156
 6681 0976 06        		.byte	0x6
 6682 0977 2608      		.word	0x826
 6683 0979 4001 0000 		.long	0x140
 6684 097d 02        		.byte	0x2
 6685 097e 23        		.byte	0x23
 6686 097f 03        		.uleb128 0x3
 6687 0980 08        		.uleb128 0x8
 6688 0981 0000 0000 		.long	.LASF157
 6689 0985 06        		.byte	0x6
 6690 0986 2708      		.word	0x827
 6691 0988 4001 0000 		.long	0x140
 6692 098c 02        		.byte	0x2
 6693 098d 23        		.byte	0x23
 6694 098e 04        		.uleb128 0x4
 6695 098f 08        		.uleb128 0x8
 6696 0990 0000 0000 		.long	.LASF158
 6697 0994 06        		.byte	0x6
 6698 0995 2808      		.word	0x828
 6699 0997 4001 0000 		.long	0x140
 6700 099b 02        		.byte	0x2
 6701 099c 23        		.byte	0x23
 6702 099d 05        		.uleb128 0x5
 6703 099e 08        		.uleb128 0x8
 6704 099f 0000 0000 		.long	.LASF159
 6705 09a3 06        		.byte	0x6
 6706 09a4 2908      		.word	0x829
 6707 09a6 4001 0000 		.long	0x140
 6708 09aa 02        		.byte	0x2
 6709 09ab 23        		.byte	0x23
 6710 09ac 06        		.uleb128 0x6
 6711 09ad 08        		.uleb128 0x8
 6712 09ae 0000 0000 		.long	.LASF160
 6713 09b2 06        		.byte	0x6
 6714 09b3 2A08      		.word	0x82a
 6715 09b5 4001 0000 		.long	0x140
GAS LISTING /tmp/cchdpaIW.s 			page 119


 6716 09b9 02        		.byte	0x2
 6717 09ba 23        		.byte	0x23
 6718 09bb 07        		.uleb128 0x7
 6719 09bc 08        		.uleb128 0x8
 6720 09bd 0000 0000 		.long	.LASF161
 6721 09c1 06        		.byte	0x6
 6722 09c2 2B08      		.word	0x82b
 6723 09c4 4001 0000 		.long	0x140
 6724 09c8 02        		.byte	0x2
 6725 09c9 23        		.byte	0x23
 6726 09ca 08        		.uleb128 0x8
 6727 09cb 08        		.uleb128 0x8
 6728 09cc 0000 0000 		.long	.LASF162
 6729 09d0 06        		.byte	0x6
 6730 09d1 2C08      		.word	0x82c
 6731 09d3 4001 0000 		.long	0x140
 6732 09d7 02        		.byte	0x2
 6733 09d8 23        		.byte	0x23
 6734 09d9 09        		.uleb128 0x9
 6735 09da 08        		.uleb128 0x8
 6736 09db 0000 0000 		.long	.LASF163
 6737 09df 06        		.byte	0x6
 6738 09e0 2D08      		.word	0x82d
 6739 09e2 4001 0000 		.long	0x140
 6740 09e6 02        		.byte	0x2
 6741 09e7 23        		.byte	0x23
 6742 09e8 0A        		.uleb128 0xa
 6743 09e9 08        		.uleb128 0x8
 6744 09ea 0000 0000 		.long	.LASF164
 6745 09ee 06        		.byte	0x6
 6746 09ef 2E08      		.word	0x82e
 6747 09f1 4001 0000 		.long	0x140
 6748 09f5 02        		.byte	0x2
 6749 09f6 23        		.byte	0x23
 6750 09f7 0B        		.uleb128 0xb
 6751 09f8 08        		.uleb128 0x8
 6752 09f9 0000 0000 		.long	.LASF103
 6753 09fd 06        		.byte	0x6
 6754 09fe 2F08      		.word	0x82f
 6755 0a00 4001 0000 		.long	0x140
 6756 0a04 02        		.byte	0x2
 6757 0a05 23        		.byte	0x23
 6758 0a06 0C        		.uleb128 0xc
 6759 0a07 08        		.uleb128 0x8
 6760 0a08 0000 0000 		.long	.LASF104
 6761 0a0c 06        		.byte	0x6
 6762 0a0d 3008      		.word	0x830
 6763 0a0f 4001 0000 		.long	0x140
 6764 0a13 02        		.byte	0x2
 6765 0a14 23        		.byte	0x23
 6766 0a15 0D        		.uleb128 0xd
 6767 0a16 08        		.uleb128 0x8
 6768 0a17 0000 0000 		.long	.LASF105
 6769 0a1b 06        		.byte	0x6
 6770 0a1c 3108      		.word	0x831
 6771 0a1e 4001 0000 		.long	0x140
 6772 0a22 02        		.byte	0x2
GAS LISTING /tmp/cchdpaIW.s 			page 120


 6773 0a23 23        		.byte	0x23
 6774 0a24 0E        		.uleb128 0xe
 6775 0a25 08        		.uleb128 0x8
 6776 0a26 0000 0000 		.long	.LASF165
 6777 0a2a 06        		.byte	0x6
 6778 0a2b 3208      		.word	0x832
 6779 0a2d 4001 0000 		.long	0x140
 6780 0a31 02        		.byte	0x2
 6781 0a32 23        		.byte	0x23
 6782 0a33 0F        		.uleb128 0xf
 6783 0a34 08        		.uleb128 0x8
 6784 0a35 0000 0000 		.long	.LASF166
 6785 0a39 06        		.byte	0x6
 6786 0a3a 3308      		.word	0x833
 6787 0a3c 4001 0000 		.long	0x140
 6788 0a40 02        		.byte	0x2
 6789 0a41 23        		.byte	0x23
 6790 0a42 10        		.uleb128 0x10
 6791 0a43 08        		.uleb128 0x8
 6792 0a44 0000 0000 		.long	.LASF167
 6793 0a48 06        		.byte	0x6
 6794 0a49 3408      		.word	0x834
 6795 0a4b 4001 0000 		.long	0x140
 6796 0a4f 02        		.byte	0x2
 6797 0a50 23        		.byte	0x23
 6798 0a51 11        		.uleb128 0x11
 6799 0a52 08        		.uleb128 0x8
 6800 0a53 0000 0000 		.long	.LASF168
 6801 0a57 06        		.byte	0x6
 6802 0a58 3508      		.word	0x835
 6803 0a5a 4001 0000 		.long	0x140
 6804 0a5e 02        		.byte	0x2
 6805 0a5f 23        		.byte	0x23
 6806 0a60 12        		.uleb128 0x12
 6807 0a61 08        		.uleb128 0x8
 6808 0a62 0000 0000 		.long	.LASF169
 6809 0a66 06        		.byte	0x6
 6810 0a67 3608      		.word	0x836
 6811 0a69 4001 0000 		.long	0x140
 6812 0a6d 02        		.byte	0x2
 6813 0a6e 23        		.byte	0x23
 6814 0a6f 13        		.uleb128 0x13
 6815 0a70 08        		.uleb128 0x8
 6816 0a71 0000 0000 		.long	.LASF170
 6817 0a75 06        		.byte	0x6
 6818 0a76 3708      		.word	0x837
 6819 0a78 4001 0000 		.long	0x140
 6820 0a7c 02        		.byte	0x2
 6821 0a7d 23        		.byte	0x23
 6822 0a7e 14        		.uleb128 0x14
 6823 0a7f 08        		.uleb128 0x8
 6824 0a80 0000 0000 		.long	.LASF171
 6825 0a84 06        		.byte	0x6
 6826 0a85 3808      		.word	0x838
 6827 0a87 4001 0000 		.long	0x140
 6828 0a8b 02        		.byte	0x2
 6829 0a8c 23        		.byte	0x23
GAS LISTING /tmp/cchdpaIW.s 			page 121


 6830 0a8d 15        		.uleb128 0x15
 6831 0a8e 08        		.uleb128 0x8
 6832 0a8f 0000 0000 		.long	.LASF172
 6833 0a93 06        		.byte	0x6
 6834 0a94 3908      		.word	0x839
 6835 0a96 4001 0000 		.long	0x140
 6836 0a9a 02        		.byte	0x2
 6837 0a9b 23        		.byte	0x23
 6838 0a9c 16        		.uleb128 0x16
 6839 0a9d 08        		.uleb128 0x8
 6840 0a9e 0000 0000 		.long	.LASF173
 6841 0aa2 06        		.byte	0x6
 6842 0aa3 3A08      		.word	0x83a
 6843 0aa5 4001 0000 		.long	0x140
 6844 0aa9 02        		.byte	0x2
 6845 0aaa 23        		.byte	0x23
 6846 0aab 17        		.uleb128 0x17
 6847 0aac 08        		.uleb128 0x8
 6848 0aad 0000 0000 		.long	.LASF174
 6849 0ab1 06        		.byte	0x6
 6850 0ab2 3B08      		.word	0x83b
 6851 0ab4 4001 0000 		.long	0x140
 6852 0ab8 02        		.byte	0x2
 6853 0ab9 23        		.byte	0x23
 6854 0aba 18        		.uleb128 0x18
 6855 0abb 08        		.uleb128 0x8
 6856 0abc 0000 0000 		.long	.LASF175
 6857 0ac0 06        		.byte	0x6
 6858 0ac1 3C08      		.word	0x83c
 6859 0ac3 4001 0000 		.long	0x140
 6860 0ac7 02        		.byte	0x2
 6861 0ac8 23        		.byte	0x23
 6862 0ac9 19        		.uleb128 0x19
 6863 0aca 08        		.uleb128 0x8
 6864 0acb 0000 0000 		.long	.LASF176
 6865 0acf 06        		.byte	0x6
 6866 0ad0 3D08      		.word	0x83d
 6867 0ad2 4001 0000 		.long	0x140
 6868 0ad6 02        		.byte	0x2
 6869 0ad7 23        		.byte	0x23
 6870 0ad8 1A        		.uleb128 0x1a
 6871 0ad9 08        		.uleb128 0x8
 6872 0ada 0000 0000 		.long	.LASF177
 6873 0ade 06        		.byte	0x6
 6874 0adf 3E08      		.word	0x83e
 6875 0ae1 4001 0000 		.long	0x140
 6876 0ae5 02        		.byte	0x2
 6877 0ae6 23        		.byte	0x23
 6878 0ae7 1B        		.uleb128 0x1b
 6879 0ae8 08        		.uleb128 0x8
 6880 0ae9 0000 0000 		.long	.LASF178
 6881 0aed 06        		.byte	0x6
 6882 0aee 3F08      		.word	0x83f
 6883 0af0 4001 0000 		.long	0x140
 6884 0af4 02        		.byte	0x2
 6885 0af5 23        		.byte	0x23
 6886 0af6 1C        		.uleb128 0x1c
GAS LISTING /tmp/cchdpaIW.s 			page 122


 6887 0af7 08        		.uleb128 0x8
 6888 0af8 0000 0000 		.long	.LASF179
 6889 0afc 06        		.byte	0x6
 6890 0afd 4008      		.word	0x840
 6891 0aff 4001 0000 		.long	0x140
 6892 0b03 02        		.byte	0x2
 6893 0b04 23        		.byte	0x23
 6894 0b05 1D        		.uleb128 0x1d
 6895 0b06 08        		.uleb128 0x8
 6896 0b07 0000 0000 		.long	.LASF180
 6897 0b0b 06        		.byte	0x6
 6898 0b0c 4108      		.word	0x841
 6899 0b0e 4001 0000 		.long	0x140
 6900 0b12 02        		.byte	0x2
 6901 0b13 23        		.byte	0x23
 6902 0b14 1E        		.uleb128 0x1e
 6903 0b15 08        		.uleb128 0x8
 6904 0b16 0000 0000 		.long	.LASF181
 6905 0b1a 06        		.byte	0x6
 6906 0b1b 4208      		.word	0x842
 6907 0b1d 4001 0000 		.long	0x140
 6908 0b21 02        		.byte	0x2
 6909 0b22 23        		.byte	0x23
 6910 0b23 1F        		.uleb128 0x1f
 6911 0b24 19        		.uleb128 0x19
 6912 0b25 7E06 0000 		.long	0x67e
 6913 0b29 02        		.byte	0x2
 6914 0b2a 23        		.byte	0x23
 6915 0b2b 20        		.uleb128 0x20
 6916 0b2c 08        		.uleb128 0x8
 6917 0b2d 0000 0000 		.long	.LASF182
 6918 0b31 06        		.byte	0x6
 6919 0b32 4408      		.word	0x844
 6920 0b34 4001 0000 		.long	0x140
 6921 0b38 02        		.byte	0x2
 6922 0b39 23        		.byte	0x23
 6923 0b3a 22        		.uleb128 0x22
 6924 0b3b 08        		.uleb128 0x8
 6925 0b3c 0000 0000 		.long	.LASF183
 6926 0b40 06        		.byte	0x6
 6927 0b41 4508      		.word	0x845
 6928 0b43 4001 0000 		.long	0x140
 6929 0b47 02        		.byte	0x2
 6930 0b48 23        		.byte	0x23
 6931 0b49 23        		.uleb128 0x23
 6932 0b4a 08        		.uleb128 0x8
 6933 0b4b 0000 0000 		.long	.LASF184
 6934 0b4f 06        		.byte	0x6
 6935 0b50 4608      		.word	0x846
 6936 0b52 4001 0000 		.long	0x140
 6937 0b56 02        		.byte	0x2
 6938 0b57 23        		.byte	0x23
 6939 0b58 24        		.uleb128 0x24
 6940 0b59 08        		.uleb128 0x8
 6941 0b5a 0000 0000 		.long	.LASF185
 6942 0b5e 06        		.byte	0x6
 6943 0b5f 4708      		.word	0x847
GAS LISTING /tmp/cchdpaIW.s 			page 123


 6944 0b61 4001 0000 		.long	0x140
 6945 0b65 02        		.byte	0x2
 6946 0b66 23        		.byte	0x23
 6947 0b67 25        		.uleb128 0x25
 6948 0b68 19        		.uleb128 0x19
 6949 0b69 C106 0000 		.long	0x6c1
 6950 0b6d 02        		.byte	0x2
 6951 0b6e 23        		.byte	0x23
 6952 0b6f 26        		.uleb128 0x26
 6953 0b70 19        		.uleb128 0x19
 6954 0b71 0407 0000 		.long	0x704
 6955 0b75 02        		.byte	0x2
 6956 0b76 23        		.byte	0x23
 6957 0b77 28        		.uleb128 0x28
 6958 0b78 19        		.uleb128 0x19
 6959 0b79 4707 0000 		.long	0x747
 6960 0b7d 02        		.byte	0x2
 6961 0b7e 23        		.byte	0x23
 6962 0b7f 2A        		.uleb128 0x2a
 6963 0b80 19        		.uleb128 0x19
 6964 0b81 8A07 0000 		.long	0x78a
 6965 0b85 02        		.byte	0x2
 6966 0b86 23        		.byte	0x23
 6967 0b87 2C        		.uleb128 0x2c
 6968 0b88 19        		.uleb128 0x19
 6969 0b89 CD07 0000 		.long	0x7cd
 6970 0b8d 02        		.byte	0x2
 6971 0b8e 23        		.byte	0x23
 6972 0b8f 2E        		.uleb128 0x2e
 6973 0b90 08        		.uleb128 0x8
 6974 0b91 0000 0000 		.long	.LASF186
 6975 0b95 06        		.byte	0x6
 6976 0b96 4D08      		.word	0x84d
 6977 0b98 4001 0000 		.long	0x140
 6978 0b9c 02        		.byte	0x2
 6979 0b9d 23        		.byte	0x23
 6980 0b9e 30        		.uleb128 0x30
 6981 0b9f 08        		.uleb128 0x8
 6982 0ba0 0000 0000 		.long	.LASF187
 6983 0ba4 06        		.byte	0x6
 6984 0ba5 4E08      		.word	0x84e
 6985 0ba7 4001 0000 		.long	0x140
 6986 0bab 02        		.byte	0x2
 6987 0bac 23        		.byte	0x23
 6988 0bad 31        		.uleb128 0x31
 6989 0bae 08        		.uleb128 0x8
 6990 0baf 0000 0000 		.long	.LASF188
 6991 0bb3 06        		.byte	0x6
 6992 0bb4 4F08      		.word	0x84f
 6993 0bb6 4001 0000 		.long	0x140
 6994 0bba 02        		.byte	0x2
 6995 0bbb 23        		.byte	0x23
 6996 0bbc 32        		.uleb128 0x32
 6997 0bbd 08        		.uleb128 0x8
 6998 0bbe 0000 0000 		.long	.LASF189
 6999 0bc2 06        		.byte	0x6
 7000 0bc3 5008      		.word	0x850
GAS LISTING /tmp/cchdpaIW.s 			page 124


 7001 0bc5 4001 0000 		.long	0x140
 7002 0bc9 02        		.byte	0x2
 7003 0bca 23        		.byte	0x23
 7004 0bcb 33        		.uleb128 0x33
 7005 0bcc 08        		.uleb128 0x8
 7006 0bcd 0000 0000 		.long	.LASF190
 7007 0bd1 06        		.byte	0x6
 7008 0bd2 5108      		.word	0x851
 7009 0bd4 4001 0000 		.long	0x140
 7010 0bd8 02        		.byte	0x2
 7011 0bd9 23        		.byte	0x23
 7012 0bda 34        		.uleb128 0x34
 7013 0bdb 08        		.uleb128 0x8
 7014 0bdc 0000 0000 		.long	.LASF191
 7015 0be0 06        		.byte	0x6
 7016 0be1 5208      		.word	0x852
 7017 0be3 4001 0000 		.long	0x140
 7018 0be7 02        		.byte	0x2
 7019 0be8 23        		.byte	0x23
 7020 0be9 35        		.uleb128 0x35
 7021 0bea 19        		.uleb128 0x19
 7022 0beb 1008 0000 		.long	0x810
 7023 0bef 02        		.byte	0x2
 7024 0bf0 23        		.byte	0x23
 7025 0bf1 36        		.uleb128 0x36
 7026 0bf2 19        		.uleb128 0x19
 7027 0bf3 5308 0000 		.long	0x853
 7028 0bf7 02        		.byte	0x2
 7029 0bf8 23        		.byte	0x23
 7030 0bf9 38        		.uleb128 0x38
 7031 0bfa 19        		.uleb128 0x19
 7032 0bfb 9608 0000 		.long	0x896
 7033 0bff 02        		.byte	0x2
 7034 0c00 23        		.byte	0x23
 7035 0c01 3A        		.uleb128 0x3a
 7036 0c02 19        		.uleb128 0x19
 7037 0c03 D908 0000 		.long	0x8d9
 7038 0c07 02        		.byte	0x2
 7039 0c08 23        		.byte	0x23
 7040 0c09 3C        		.uleb128 0x3c
 7041 0c0a 19        		.uleb128 0x19
 7042 0c0b 1C09 0000 		.long	0x91c
 7043 0c0f 02        		.byte	0x2
 7044 0c10 23        		.byte	0x23
 7045 0c11 3E        		.uleb128 0x3e
 7046 0c12 00        		.byte	0x0
 7047 0c13 12        		.uleb128 0x12
 7048 0c14 0000 0000 		.long	.LASF192
 7049 0c18 06        		.byte	0x6
 7050 0c19 5808      		.word	0x858
 7051 0c1b 3709 0000 		.long	0x937
 7052 0c1f 13        		.uleb128 0x13
 7053 0c20 0000 0000 		.long	.LASF193
 7054 0c24 01        		.byte	0x1
 7055 0c25 06        		.byte	0x6
 7056 0c26 BF08      		.word	0x8bf
 7057 0c28 8D0C 0000 		.long	0xc8d
GAS LISTING /tmp/cchdpaIW.s 			page 125


 7058 0c2c 10        		.uleb128 0x10
 7059 0c2d 0000 0000 		.long	.LASF194
 7060 0c31 00        		.sleb128 0
 7061 0c32 10        		.uleb128 0x10
 7062 0c33 0000 0000 		.long	.LASF195
 7063 0c37 01        		.sleb128 1
 7064 0c38 10        		.uleb128 0x10
 7065 0c39 0000 0000 		.long	.LASF196
 7066 0c3d 02        		.sleb128 2
 7067 0c3e 10        		.uleb128 0x10
 7068 0c3f 0000 0000 		.long	.LASF197
 7069 0c43 03        		.sleb128 3
 7070 0c44 10        		.uleb128 0x10
 7071 0c45 0000 0000 		.long	.LASF198
 7072 0c49 04        		.sleb128 4
 7073 0c4a 10        		.uleb128 0x10
 7074 0c4b 0000 0000 		.long	.LASF199
 7075 0c4f 05        		.sleb128 5
 7076 0c50 10        		.uleb128 0x10
 7077 0c51 0000 0000 		.long	.LASF200
 7078 0c55 06        		.sleb128 6
 7079 0c56 10        		.uleb128 0x10
 7080 0c57 0000 0000 		.long	.LASF201
 7081 0c5b 07        		.sleb128 7
 7082 0c5c 10        		.uleb128 0x10
 7083 0c5d 0000 0000 		.long	.LASF202
 7084 0c61 08        		.sleb128 8
 7085 0c62 10        		.uleb128 0x10
 7086 0c63 0000 0000 		.long	.LASF203
 7087 0c67 09        		.sleb128 9
 7088 0c68 10        		.uleb128 0x10
 7089 0c69 0000 0000 		.long	.LASF204
 7090 0c6d 0A        		.sleb128 10
 7091 0c6e 10        		.uleb128 0x10
 7092 0c6f 0000 0000 		.long	.LASF205
 7093 0c73 0B        		.sleb128 11
 7094 0c74 10        		.uleb128 0x10
 7095 0c75 0000 0000 		.long	.LASF206
 7096 0c79 0C        		.sleb128 12
 7097 0c7a 10        		.uleb128 0x10
 7098 0c7b 0000 0000 		.long	.LASF207
 7099 0c7f 0D        		.sleb128 13
 7100 0c80 10        		.uleb128 0x10
 7101 0c81 0000 0000 		.long	.LASF208
 7102 0c85 0E        		.sleb128 14
 7103 0c86 10        		.uleb128 0x10
 7104 0c87 0000 0000 		.long	.LASF209
 7105 0c8b 0F        		.sleb128 15
 7106 0c8c 00        		.byte	0x0
 7107 0c8d 13        		.uleb128 0x13
 7108 0c8e 0000 0000 		.long	.LASF210
 7109 0c92 01        		.byte	0x1
 7110 0c93 06        		.byte	0x6
 7111 0c94 0209      		.word	0x902
 7112 0c96 B30C 0000 		.long	0xcb3
 7113 0c9a 10        		.uleb128 0x10
 7114 0c9b 0000 0000 		.long	.LASF211
GAS LISTING /tmp/cchdpaIW.s 			page 126


 7115 0c9f 00        		.sleb128 0
 7116 0ca0 10        		.uleb128 0x10
 7117 0ca1 0000 0000 		.long	.LASF212
 7118 0ca5 01        		.sleb128 1
 7119 0ca6 10        		.uleb128 0x10
 7120 0ca7 0000 0000 		.long	.LASF213
 7121 0cab 02        		.sleb128 2
 7122 0cac 10        		.uleb128 0x10
 7123 0cad 0000 0000 		.long	.LASF214
 7124 0cb1 03        		.sleb128 3
 7125 0cb2 00        		.byte	0x0
 7126 0cb3 11        		.uleb128 0x11
 7127 0cb4 0000 0000 		.long	.LASF215
 7128 0cb8 08        		.byte	0x8
 7129 0cb9 06        		.byte	0x6
 7130 0cba 5009      		.word	0x950
 7131 0cbc 390D 0000 		.long	0xd39
 7132 0cc0 08        		.uleb128 0x8
 7133 0cc1 0000 0000 		.long	.LASF216
 7134 0cc5 06        		.byte	0x6
 7135 0cc6 5209      		.word	0x952
 7136 0cc8 4001 0000 		.long	0x140
 7137 0ccc 02        		.byte	0x2
 7138 0ccd 23        		.byte	0x23
 7139 0cce 00        		.uleb128 0x0
 7140 0ccf 08        		.uleb128 0x8
 7141 0cd0 0000 0000 		.long	.LASF56
 7142 0cd4 06        		.byte	0x6
 7143 0cd5 5309      		.word	0x953
 7144 0cd7 4001 0000 		.long	0x140
 7145 0cdb 02        		.byte	0x2
 7146 0cdc 23        		.byte	0x23
 7147 0cdd 01        		.uleb128 0x1
 7148 0cde 08        		.uleb128 0x8
 7149 0cdf 0000 0000 		.long	.LASF217
 7150 0ce3 06        		.byte	0x6
 7151 0ce4 5409      		.word	0x954
 7152 0ce6 4001 0000 		.long	0x140
 7153 0cea 02        		.byte	0x2
 7154 0ceb 23        		.byte	0x23
 7155 0cec 02        		.uleb128 0x2
 7156 0ced 08        		.uleb128 0x8
 7157 0cee 0000 0000 		.long	.LASF153
 7158 0cf2 06        		.byte	0x6
 7159 0cf3 5509      		.word	0x955
 7160 0cf5 4001 0000 		.long	0x140
 7161 0cf9 02        		.byte	0x2
 7162 0cfa 23        		.byte	0x23
 7163 0cfb 03        		.uleb128 0x3
 7164 0cfc 08        		.uleb128 0x8
 7165 0cfd 0000 0000 		.long	.LASF154
 7166 0d01 06        		.byte	0x6
 7167 0d02 5609      		.word	0x956
 7168 0d04 4001 0000 		.long	0x140
 7169 0d08 02        		.byte	0x2
 7170 0d09 23        		.byte	0x23
 7171 0d0a 04        		.uleb128 0x4
GAS LISTING /tmp/cchdpaIW.s 			page 127


 7172 0d0b 08        		.uleb128 0x8
 7173 0d0c 0000 0000 		.long	.LASF155
 7174 0d10 06        		.byte	0x6
 7175 0d11 5709      		.word	0x957
 7176 0d13 4001 0000 		.long	0x140
 7177 0d17 02        		.byte	0x2
 7178 0d18 23        		.byte	0x23
 7179 0d19 05        		.uleb128 0x5
 7180 0d1a 08        		.uleb128 0x8
 7181 0d1b 0000 0000 		.long	.LASF218
 7182 0d1f 06        		.byte	0x6
 7183 0d20 5809      		.word	0x958
 7184 0d22 4001 0000 		.long	0x140
 7185 0d26 02        		.byte	0x2
 7186 0d27 23        		.byte	0x23
 7187 0d28 06        		.uleb128 0x6
 7188 0d29 08        		.uleb128 0x8
 7189 0d2a 0000 0000 		.long	.LASF219
 7190 0d2e 06        		.byte	0x6
 7191 0d2f 5909      		.word	0x959
 7192 0d31 4001 0000 		.long	0x140
 7193 0d35 02        		.byte	0x2
 7194 0d36 23        		.byte	0x23
 7195 0d37 07        		.uleb128 0x7
 7196 0d38 00        		.byte	0x0
 7197 0d39 12        		.uleb128 0x12
 7198 0d3a 0000 0000 		.long	.LASF220
 7199 0d3e 06        		.byte	0x6
 7200 0d3f 5A09      		.word	0x95a
 7201 0d41 B30C 0000 		.long	0xcb3
 7202 0d45 02        		.uleb128 0x2
 7203 0d46 01        		.byte	0x1
 7204 0d47 08        		.byte	0x8
 7205 0d48 0000 0000 		.long	.LASF221
 7206 0d4c 02        		.uleb128 0x2
 7207 0d4d 01        		.byte	0x1
 7208 0d4e 08        		.byte	0x8
 7209 0d4f 0000 0000 		.long	.LASF221
 7210 0d53 11        		.uleb128 0x11
 7211 0d54 0000 0000 		.long	.LASF222
 7212 0d58 24        		.byte	0x24
 7213 0d59 01        		.byte	0x1
 7214 0d5a 1C01      		.word	0x11c
 7215 0d5c 6F0E 0000 		.long	0xe6f
 7216 0d60 08        		.uleb128 0x8
 7217 0d61 0000 0000 		.long	.LASF223
 7218 0d65 01        		.byte	0x1
 7219 0d66 1D01      		.word	0x11d
 7220 0d68 3E00 0000 		.long	0x3e
 7221 0d6c 02        		.byte	0x2
 7222 0d6d 23        		.byte	0x23
 7223 0d6e 00        		.uleb128 0x0
 7224 0d6f 08        		.uleb128 0x8
 7225 0d70 0000 0000 		.long	.LASF224
 7226 0d74 01        		.byte	0x1
 7227 0d75 1E01      		.word	0x11e
 7228 0d77 3E00 0000 		.long	0x3e
GAS LISTING /tmp/cchdpaIW.s 			page 128


 7229 0d7b 02        		.byte	0x2
 7230 0d7c 23        		.byte	0x23
 7231 0d7d 02        		.uleb128 0x2
 7232 0d7e 08        		.uleb128 0x8
 7233 0d7f 0000 0000 		.long	.LASF225
 7234 0d83 01        		.byte	0x1
 7235 0d84 1F01      		.word	0x11f
 7236 0d86 3E00 0000 		.long	0x3e
 7237 0d8a 02        		.byte	0x2
 7238 0d8b 23        		.byte	0x23
 7239 0d8c 04        		.uleb128 0x4
 7240 0d8d 08        		.uleb128 0x8
 7241 0d8e 0000 0000 		.long	.LASF226
 7242 0d92 01        		.byte	0x1
 7243 0d93 2001      		.word	0x120
 7244 0d95 5E00 0000 		.long	0x5e
 7245 0d99 02        		.byte	0x2
 7246 0d9a 23        		.byte	0x23
 7247 0d9b 06        		.uleb128 0x6
 7248 0d9c 08        		.uleb128 0x8
 7249 0d9d 0000 0000 		.long	.LASF227
 7250 0da1 01        		.byte	0x1
 7251 0da2 2101      		.word	0x121
 7252 0da4 3E00 0000 		.long	0x3e
 7253 0da8 02        		.byte	0x2
 7254 0da9 23        		.byte	0x23
 7255 0daa 0A        		.uleb128 0xa
 7256 0dab 08        		.uleb128 0x8
 7257 0dac 0000 0000 		.long	.LASF228
 7258 0db0 01        		.byte	0x1
 7259 0db1 2201      		.word	0x122
 7260 0db3 3E00 0000 		.long	0x3e
 7261 0db7 02        		.byte	0x2
 7262 0db8 23        		.byte	0x23
 7263 0db9 0C        		.uleb128 0xc
 7264 0dba 08        		.uleb128 0x8
 7265 0dbb 0000 0000 		.long	.LASF229
 7266 0dbf 01        		.byte	0x1
 7267 0dc0 2301      		.word	0x123
 7268 0dc2 3E00 0000 		.long	0x3e
 7269 0dc6 02        		.byte	0x2
 7270 0dc7 23        		.byte	0x23
 7271 0dc8 0E        		.uleb128 0xe
 7272 0dc9 08        		.uleb128 0x8
 7273 0dca 0000 0000 		.long	.LASF230
 7274 0dce 01        		.byte	0x1
 7275 0dcf 2401      		.word	0x124
 7276 0dd1 3E00 0000 		.long	0x3e
 7277 0dd5 02        		.byte	0x2
 7278 0dd6 23        		.byte	0x23
 7279 0dd7 10        		.uleb128 0x10
 7280 0dd8 08        		.uleb128 0x8
 7281 0dd9 0000 0000 		.long	.LASF231
 7282 0ddd 01        		.byte	0x1
 7283 0dde 2501      		.word	0x125
 7284 0de0 3E00 0000 		.long	0x3e
 7285 0de4 02        		.byte	0x2
GAS LISTING /tmp/cchdpaIW.s 			page 129


 7286 0de5 23        		.byte	0x23
 7287 0de6 12        		.uleb128 0x12
 7288 0de7 08        		.uleb128 0x8
 7289 0de8 0000 0000 		.long	.LASF232
 7290 0dec 01        		.byte	0x1
 7291 0ded 2901      		.word	0x129
 7292 0def FB00 0000 		.long	0xfb
 7293 0df3 02        		.byte	0x2
 7294 0df4 23        		.byte	0x23
 7295 0df5 14        		.uleb128 0x14
 7296 0df6 08        		.uleb128 0x8
 7297 0df7 0000 0000 		.long	.LASF233
 7298 0dfb 01        		.byte	0x1
 7299 0dfc 2A01      		.word	0x12a
 7300 0dfe 3E00 0000 		.long	0x3e
 7301 0e02 02        		.byte	0x2
 7302 0e03 23        		.byte	0x23
 7303 0e04 15        		.uleb128 0x15
 7304 0e05 08        		.uleb128 0x8
 7305 0e06 0000 0000 		.long	.LASF234
 7306 0e0a 01        		.byte	0x1
 7307 0e0b 2B01      		.word	0x12b
 7308 0e0d FB00 0000 		.long	0xfb
 7309 0e11 02        		.byte	0x2
 7310 0e12 23        		.byte	0x23
 7311 0e13 17        		.uleb128 0x17
 7312 0e14 08        		.uleb128 0x8
 7313 0e15 0000 0000 		.long	.LASF235
 7314 0e19 01        		.byte	0x1
 7315 0e1a 2C01      		.word	0x12c
 7316 0e1c 3E00 0000 		.long	0x3e
 7317 0e20 02        		.byte	0x2
 7318 0e21 23        		.byte	0x23
 7319 0e22 18        		.uleb128 0x18
 7320 0e23 08        		.uleb128 0x8
 7321 0e24 0000 0000 		.long	.LASF236
 7322 0e28 01        		.byte	0x1
 7323 0e29 2D01      		.word	0x12d
 7324 0e2b FB00 0000 		.long	0xfb
 7325 0e2f 02        		.byte	0x2
 7326 0e30 23        		.byte	0x23
 7327 0e31 1A        		.uleb128 0x1a
 7328 0e32 08        		.uleb128 0x8
 7329 0e33 0000 0000 		.long	.LASF237
 7330 0e37 01        		.byte	0x1
 7331 0e38 2E01      		.word	0x12e
 7332 0e3a 3E00 0000 		.long	0x3e
 7333 0e3e 02        		.byte	0x2
 7334 0e3f 23        		.byte	0x23
 7335 0e40 1B        		.uleb128 0x1b
 7336 0e41 08        		.uleb128 0x8
 7337 0e42 0000 0000 		.long	.LASF238
 7338 0e46 01        		.byte	0x1
 7339 0e47 2F01      		.word	0x12f
 7340 0e49 FB00 0000 		.long	0xfb
 7341 0e4d 02        		.byte	0x2
 7342 0e4e 23        		.byte	0x23
GAS LISTING /tmp/cchdpaIW.s 			page 130


 7343 0e4f 1D        		.uleb128 0x1d
 7344 0e50 08        		.uleb128 0x8
 7345 0e51 0000 0000 		.long	.LASF239
 7346 0e55 01        		.byte	0x1
 7347 0e56 3001      		.word	0x130
 7348 0e58 3E00 0000 		.long	0x3e
 7349 0e5c 02        		.byte	0x2
 7350 0e5d 23        		.byte	0x23
 7351 0e5e 1E        		.uleb128 0x1e
 7352 0e5f 08        		.uleb128 0x8
 7353 0e60 0000 0000 		.long	.LASF240
 7354 0e64 01        		.byte	0x1
 7355 0e65 3201      		.word	0x132
 7356 0e67 4C00 0000 		.long	0x4c
 7357 0e6b 02        		.byte	0x2
 7358 0e6c 23        		.byte	0x23
 7359 0e6d 20        		.uleb128 0x20
 7360 0e6e 00        		.byte	0x0
 7361 0e6f 1A        		.uleb128 0x1a
 7362 0e70 0000 0000 		.long	.LASF330
 7363 0e74 03        		.byte	0x3
 7364 0e75 D2        		.byte	0xd2
 7365 0e76 01        		.byte	0x1
 7366 0e77 03        		.byte	0x3
 7367 0e78 B90E 0000 		.long	0xeb9
 7368 0e7c 1B        		.uleb128 0x1b
 7369 0e7d 0000 0000 		.long	.LASF245
 7370 0e81 03        		.byte	0x3
 7371 0e82 D2        		.byte	0xd2
 7372 0e83 B90E 0000 		.long	0xeb9
 7373 0e87 1C        		.uleb128 0x1c
 7374 0e88 0000 0000 		.long	.LASF241
 7375 0e8c 03        		.byte	0x3
 7376 0e8d D4        		.byte	0xd4
 7377 0e8e 2C00 0000 		.long	0x2c
 7378 0e92 1C        		.uleb128 0x1c
 7379 0e93 0000 0000 		.long	.LASF242
 7380 0e97 03        		.byte	0x3
 7381 0e98 D5        		.byte	0xd5
 7382 0e99 B90E 0000 		.long	0xeb9
 7383 0e9d 1C        		.uleb128 0x1c
 7384 0e9e 0000 0000 		.long	.LASF243
 7385 0ea2 03        		.byte	0x3
 7386 0ea3 D7        		.byte	0xd7
 7387 0ea4 5300 0000 		.long	0x53
 7388 0ea8 1D        		.uleb128 0x1d
 7389 0ea9 01        		.byte	0x1
 7390 0eaa 0000 0000 		.long	.LASF309
 7391 0eae 03        		.byte	0x3
 7392 0eaf D8        		.byte	0xd8
 7393 0eb0 01        		.byte	0x1
 7394 0eb1 01        		.byte	0x1
 7395 0eb2 0C        		.uleb128 0xc
 7396 0eb3 5E00 0000 		.long	0x5e
 7397 0eb7 00        		.byte	0x0
 7398 0eb8 00        		.byte	0x0
 7399 0eb9 02        		.uleb128 0x2
GAS LISTING /tmp/cchdpaIW.s 			page 131


 7400 0eba 04        		.byte	0x4
 7401 0ebb 04        		.byte	0x4
 7402 0ebc 0000 0000 		.long	.LASF244
 7403 0ec0 1E        		.uleb128 0x1e
 7404 0ec1 01        		.byte	0x1
 7405 0ec2 0000 0000 		.long	.LASF331
 7406 0ec6 01        		.byte	0x1
 7407 0ec7 9B        		.byte	0x9b
 7408 0ec8 01        		.byte	0x1
 7409 0ec9 4C00 0000 		.long	0x4c
 7410 0ecd 01        		.byte	0x1
 7411 0ece 1F        		.uleb128 0x1f
 7412 0ecf 01        		.byte	0x1
 7413 0ed0 0000 0000 		.long	.LASF252
 7414 0ed4 01        		.byte	0x1
 7415 0ed5 6002      		.word	0x260
 7416 0ed7 01        		.byte	0x1
 7417 0ed8 01        		.byte	0x1
 7418 0ed9 260F 0000 		.long	0xf26
 7419 0edd 20        		.uleb128 0x20
 7420 0ede 0000 0000 		.long	.LASF246
 7421 0ee2 01        		.byte	0x1
 7422 0ee3 6002      		.word	0x260
 7423 0ee5 3E00 0000 		.long	0x3e
 7424 0ee9 20        		.uleb128 0x20
 7425 0eea 0000 0000 		.long	.LASF247
 7426 0eee 01        		.byte	0x1
 7427 0eef 6002      		.word	0x260
 7428 0ef1 3E00 0000 		.long	0x3e
 7429 0ef5 20        		.uleb128 0x20
 7430 0ef6 0000 0000 		.long	.LASF248
 7431 0efa 01        		.byte	0x1
 7432 0efb 6002      		.word	0x260
 7433 0efd 3E00 0000 		.long	0x3e
 7434 0f01 20        		.uleb128 0x20
 7435 0f02 0000 0000 		.long	.LASF249
 7436 0f06 01        		.byte	0x1
 7437 0f07 6002      		.word	0x260
 7438 0f09 3E00 0000 		.long	0x3e
 7439 0f0d 20        		.uleb128 0x20
 7440 0f0e 0000 0000 		.long	.LASF250
 7441 0f12 01        		.byte	0x1
 7442 0f13 6002      		.word	0x260
 7443 0f15 3E00 0000 		.long	0x3e
 7444 0f19 20        		.uleb128 0x20
 7445 0f1a 0000 0000 		.long	.LASF251
 7446 0f1e 01        		.byte	0x1
 7447 0f1f 6002      		.word	0x260
 7448 0f21 3E00 0000 		.long	0x3e
 7449 0f25 00        		.byte	0x0
 7450 0f26 1F        		.uleb128 0x1f
 7451 0f27 01        		.byte	0x1
 7452 0f28 0000 0000 		.long	.LASF253
 7453 0f2c 01        		.byte	0x1
 7454 0f2d B801      		.word	0x1b8
 7455 0f2f 01        		.byte	0x1
 7456 0f30 01        		.byte	0x1
GAS LISTING /tmp/cchdpaIW.s 			page 132


 7457 0f31 4E0F 0000 		.long	0xf4e
 7458 0f35 20        		.uleb128 0x20
 7459 0f36 0000 0000 		.long	.LASF254
 7460 0f3a 01        		.byte	0x1
 7461 0f3b B801      		.word	0x1b8
 7462 0f3d 4E0F 0000 		.long	0xf4e
 7463 0f41 20        		.uleb128 0x20
 7464 0f42 0000 0000 		.long	.LASF255
 7465 0f46 01        		.byte	0x1
 7466 0f47 B801      		.word	0x1b8
 7467 0f49 4C00 0000 		.long	0x4c
 7468 0f4d 00        		.byte	0x0
 7469 0f4e 0A        		.uleb128 0xa
 7470 0f4f 02        		.byte	0x2
 7471 0f50 530D 0000 		.long	0xd53
 7472 0f54 21        		.uleb128 0x21
 7473 0f55 01        		.byte	0x1
 7474 0f56 0000 0000 		.long	.LASF332
 7475 0f5a 01        		.byte	0x1
 7476 0f5b 8B        		.byte	0x8b
 7477 0f5c 01        		.byte	0x1
 7478 0f5d 3E00 0000 		.long	0x3e
 7479 0f61 01        		.byte	0x1
 7480 0f62 700F 0000 		.long	0xf70
 7481 0f66 22        		.uleb128 0x22
 7482 0f67 6E00      		.string	"n"
 7483 0f69 01        		.byte	0x1
 7484 0f6a 8B        		.byte	0x8b
 7485 0f6b 3E00 0000 		.long	0x3e
 7486 0f6f 00        		.byte	0x0
 7487 0f70 23        		.uleb128 0x23
 7488 0f71 0000 0000 		.long	.LASF333
 7489 0f75 01        		.byte	0x1
 7490 0f76 64        		.byte	0x64
 7491 0f77 01        		.byte	0x1
 7492 0f78 01        		.byte	0x1
 7493 0f79 24        		.uleb128 0x24
 7494 0f7a 0000 0000 		.long	.LASF334
 7495 0f7e 01        		.byte	0x1
 7496 0f7f 4A        		.byte	0x4a
 7497 0f80 01        		.byte	0x1
 7498 0f81 3E00 0000 		.long	0x3e
 7499 0f85 0000 0000 		.long	.LFB18
 7500 0f89 0000 0000 		.long	.LFE18
 7501 0f8d 03        		.byte	0x3
 7502 0f8e 92        		.byte	0x92
 7503 0f8f 20        		.uleb128 0x20
 7504 0f90 00        		.sleb128 0
 7505 0f91 B20F 0000 		.long	0xfb2
 7506 0f95 25        		.uleb128 0x25
 7507 0f96 6300      		.string	"c"
 7508 0f98 01        		.byte	0x1
 7509 0f99 4A        		.byte	0x4a
 7510 0f9a FB00 0000 		.long	0xfb
 7511 0f9e 0000 0000 		.long	.LLST0
 7512 0fa2 26        		.uleb128 0x26
 7513 0fa3 0000 0000 		.long	.LASF256
GAS LISTING /tmp/cchdpaIW.s 			page 133


 7514 0fa7 01        		.byte	0x1
 7515 0fa8 4A        		.byte	0x4a
 7516 0fa9 1701 0000 		.long	0x117
 7517 0fad 0000 0000 		.long	.LLST1
 7518 0fb1 00        		.byte	0x0
 7519 0fb2 27        		.uleb128 0x27
 7520 0fb3 01        		.byte	0x1
 7521 0fb4 0000 0000 		.long	.LASF261
 7522 0fb8 02        		.byte	0x2
 7523 0fb9 4D        		.byte	0x4d
 7524 0fba 01        		.byte	0x1
 7525 0fbb 0000 0000 		.long	.LFB7
 7526 0fbf 0000 0000 		.long	.LFE7
 7527 0fc3 03        		.byte	0x3
 7528 0fc4 92        		.byte	0x92
 7529 0fc5 20        		.uleb128 0x20
 7530 0fc6 00        		.sleb128 0
 7531 0fc7 0410 0000 		.long	0x1004
 7532 0fcb 26        		.uleb128 0x26
 7533 0fcc 0000 0000 		.long	.LASF257
 7534 0fd0 02        		.byte	0x2
 7535 0fd1 4D        		.byte	0x4d
 7536 0fd2 0410 0000 		.long	0x1004
 7537 0fd6 0000 0000 		.long	.LLST2
 7538 0fda 28        		.uleb128 0x28
 7539 0fdb 0000 0000 		.long	.LASF258
 7540 0fdf 02        		.byte	0x2
 7541 0fe0 4D        		.byte	0x4d
 7542 0fe1 2C00 0000 		.long	0x2c
 7543 0fe5 01        		.byte	0x1
 7544 0fe6 66        		.byte	0x66
 7545 0fe7 29        		.uleb128 0x29
 7546 0fe8 0000 0000 		.long	.LASF259
 7547 0fec 02        		.byte	0x2
 7548 0fed 6C        		.byte	0x6c
 7549 0fee 3B01 0000 		.long	0x13b
 7550 0ff2 01        		.byte	0x1
 7551 0ff3 62        		.byte	0x62
 7552 0ff4 2A        		.uleb128 0x2a
 7553 0ff5 0000 0000 		.long	.LASF260
 7554 0ff9 02        		.byte	0x2
 7555 0ffa 6D        		.byte	0x6d
 7556 0ffb 0410 0000 		.long	0x1004
 7557 0fff 0000 0000 		.long	.LLST3
 7558 1003 00        		.byte	0x0
 7559 1004 0A        		.uleb128 0xa
 7560 1005 02        		.byte	0x2
 7561 1006 3B01 0000 		.long	0x13b
 7562 100a 27        		.uleb128 0x27
 7563 100b 01        		.byte	0x1
 7564 100c 0000 0000 		.long	.LASF262
 7565 1010 02        		.byte	0x2
 7566 1011 8D        		.byte	0x8d
 7567 1012 01        		.byte	0x1
 7568 1013 0000 0000 		.long	.LFB8
 7569 1017 0000 0000 		.long	.LFE8
 7570 101b 03        		.byte	0x3
GAS LISTING /tmp/cchdpaIW.s 			page 134


 7571 101c 92        		.byte	0x92
 7572 101d 20        		.uleb128 0x20
 7573 101e 00        		.sleb128 0
 7574 101f 4D10 0000 		.long	0x104d
 7575 1023 26        		.uleb128 0x26
 7576 1024 0000 0000 		.long	.LASF263
 7577 1028 02        		.byte	0x2
 7578 1029 8D        		.byte	0x8d
 7579 102a 4703 0000 		.long	0x347
 7580 102e 0000 0000 		.long	.LLST4
 7581 1032 28        		.uleb128 0x28
 7582 1033 0000 0000 		.long	.LASF264
 7583 1037 02        		.byte	0x2
 7584 1038 8E        		.byte	0x8e
 7585 1039 4D10 0000 		.long	0x104d
 7586 103d 01        		.byte	0x1
 7587 103e 66        		.byte	0x66
 7588 103f 28        		.uleb128 0x28
 7589 1040 0000 0000 		.long	.LASF265
 7590 1044 02        		.byte	0x2
 7591 1045 8F        		.byte	0x8f
 7592 1046 7F03 0000 		.long	0x37f
 7593 104a 01        		.byte	0x1
 7594 104b 64        		.byte	0x64
 7595 104c 00        		.byte	0x0
 7596 104d 02        		.uleb128 0x2
 7597 104e 01        		.byte	0x1
 7598 104f 02        		.byte	0x2
 7599 1050 0000 0000 		.long	.LASF266
 7600 1054 27        		.uleb128 0x27
 7601 1055 01        		.byte	0x1
 7602 1056 0000 0000 		.long	.LASF267
 7603 105a 02        		.byte	0x2
 7604 105b A7        		.byte	0xa7
 7605 105c 01        		.byte	0x1
 7606 105d 0000 0000 		.long	.LFB9
 7607 1061 0000 0000 		.long	.LFE9
 7608 1065 03        		.byte	0x3
 7609 1066 92        		.byte	0x92
 7610 1067 20        		.uleb128 0x20
 7611 1068 00        		.sleb128 0
 7612 1069 8A10 0000 		.long	0x108a
 7613 106d 28        		.uleb128 0x28
 7614 106e 0000 0000 		.long	.LASF268
 7615 1072 02        		.byte	0x2
 7616 1073 A7        		.byte	0xa7
 7617 1074 AD03 0000 		.long	0x3ad
 7618 1078 01        		.byte	0x1
 7619 1079 68        		.byte	0x68
 7620 107a 26        		.uleb128 0x26
 7621 107b 0000 0000 		.long	.LASF269
 7622 107f 02        		.byte	0x2
 7623 1080 A7        		.byte	0xa7
 7624 1081 2C00 0000 		.long	0x2c
 7625 1085 0000 0000 		.long	.LLST5
 7626 1089 00        		.byte	0x0
 7627 108a 2B        		.uleb128 0x2b
GAS LISTING /tmp/cchdpaIW.s 			page 135


 7628 108b 01        		.byte	0x1
 7629 108c 0000 0000 		.long	.LASF276
 7630 1090 02        		.byte	0x2
 7631 1091 BB        		.byte	0xbb
 7632 1092 01        		.byte	0x1
 7633 1093 2C00 0000 		.long	0x2c
 7634 1097 0000 0000 		.long	.LFB10
 7635 109b 0000 0000 		.long	.LFE10
 7636 109f 03        		.byte	0x3
 7637 10a0 92        		.byte	0x92
 7638 10a1 20        		.uleb128 0x20
 7639 10a2 00        		.sleb128 0
 7640 10a3 C610 0000 		.long	0x10c6
 7641 10a7 26        		.uleb128 0x26
 7642 10a8 0000 0000 		.long	.LASF270
 7643 10ac 02        		.byte	0x2
 7644 10ad BB        		.byte	0xbb
 7645 10ae 2C00 0000 		.long	0x2c
 7646 10b2 0000 0000 		.long	.LLST6
 7647 10b6 2A        		.uleb128 0x2a
 7648 10b7 0000 0000 		.long	.LASF271
 7649 10bb 02        		.byte	0x2
 7650 10bc BE        		.byte	0xbe
 7651 10bd 2C00 0000 		.long	0x2c
 7652 10c1 0000 0000 		.long	.LLST7
 7653 10c5 00        		.byte	0x0
 7654 10c6 27        		.uleb128 0x27
 7655 10c7 01        		.byte	0x1
 7656 10c8 0000 0000 		.long	.LASF272
 7657 10cc 02        		.byte	0x2
 7658 10cd CE        		.byte	0xce
 7659 10ce 01        		.byte	0x1
 7660 10cf 0000 0000 		.long	.LFB11
 7661 10d3 0000 0000 		.long	.LFE11
 7662 10d7 03        		.byte	0x3
 7663 10d8 92        		.byte	0x92
 7664 10d9 20        		.uleb128 0x20
 7665 10da 00        		.sleb128 0
 7666 10db 0D11 0000 		.long	0x110d
 7667 10df 26        		.uleb128 0x26
 7668 10e0 0000 0000 		.long	.LASF273
 7669 10e4 02        		.byte	0x2
 7670 10e5 CE        		.byte	0xce
 7671 10e6 3002 0000 		.long	0x230
 7672 10ea 0000 0000 		.long	.LLST8
 7673 10ee 26        		.uleb128 0x26
 7674 10ef 0000 0000 		.long	.LASF274
 7675 10f3 02        		.byte	0x2
 7676 10f4 CF        		.byte	0xcf
 7677 10f5 6002 0000 		.long	0x260
 7678 10f9 0000 0000 		.long	.LLST9
 7679 10fd 2A        		.uleb128 0x2a
 7680 10fe 0000 0000 		.long	.LASF275
 7681 1102 02        		.byte	0x2
 7682 1103 D1        		.byte	0xd1
 7683 1104 2C00 0000 		.long	0x2c
 7684 1108 0000 0000 		.long	.LLST10
GAS LISTING /tmp/cchdpaIW.s 			page 136


 7685 110c 00        		.byte	0x0
 7686 110d 2B        		.uleb128 0x2b
 7687 110e 01        		.byte	0x1
 7688 110f 0000 0000 		.long	.LASF277
 7689 1113 02        		.byte	0x2
 7690 1114 E1        		.byte	0xe1
 7691 1115 01        		.byte	0x1
 7692 1116 2C00 0000 		.long	0x2c
 7693 111a 0000 0000 		.long	.LFB12
 7694 111e 0000 0000 		.long	.LFE12
 7695 1122 03        		.byte	0x3
 7696 1123 92        		.byte	0x92
 7697 1124 20        		.uleb128 0x20
 7698 1125 00        		.sleb128 0
 7699 1126 4911 0000 		.long	0x1149
 7700 112a 26        		.uleb128 0x26
 7701 112b 0000 0000 		.long	.LASF268
 7702 112f 02        		.byte	0x2
 7703 1130 E1        		.byte	0xe1
 7704 1131 DB01 0000 		.long	0x1db
 7705 1135 0000 0000 		.long	.LLST11
 7706 1139 2A        		.uleb128 0x2a
 7707 113a 0000 0000 		.long	.LASF278
 7708 113e 02        		.byte	0x2
 7709 113f E3        		.byte	0xe3
 7710 1140 2C00 0000 		.long	0x2c
 7711 1144 0000 0000 		.long	.LLST12
 7712 1148 00        		.byte	0x0
 7713 1149 27        		.uleb128 0x27
 7714 114a 01        		.byte	0x1
 7715 114b 0000 0000 		.long	.LASF279
 7716 114f 02        		.byte	0x2
 7717 1150 F1        		.byte	0xf1
 7718 1151 01        		.byte	0x1
 7719 1152 0000 0000 		.long	.LFB13
 7720 1156 0000 0000 		.long	.LFE13
 7721 115a 03        		.byte	0x3
 7722 115b 92        		.byte	0x92
 7723 115c 20        		.uleb128 0x20
 7724 115d 00        		.sleb128 0
 7725 115e 7011 0000 		.long	0x1170
 7726 1162 28        		.uleb128 0x28
 7727 1163 0000 0000 		.long	.LASF268
 7728 1167 02        		.byte	0x2
 7729 1168 F1        		.byte	0xf1
 7730 1169 9002 0000 		.long	0x290
 7731 116d 01        		.byte	0x1
 7732 116e 68        		.byte	0x68
 7733 116f 00        		.byte	0x0
 7734 1170 2C        		.uleb128 0x2c
 7735 1171 01        		.byte	0x1
 7736 1172 0000 0000 		.long	.LASF280
 7737 1176 02        		.byte	0x2
 7738 1177 0401      		.word	0x104
 7739 1179 01        		.byte	0x1
 7740 117a 0000 0000 		.long	.LFB14
 7741 117e 0000 0000 		.long	.LFE14
GAS LISTING /tmp/cchdpaIW.s 			page 137


 7742 1182 03        		.byte	0x3
 7743 1183 92        		.byte	0x92
 7744 1184 20        		.uleb128 0x20
 7745 1185 00        		.sleb128 0
 7746 1186 A911 0000 		.long	0x11a9
 7747 118a 2D        		.uleb128 0x2d
 7748 118b 0000 0000 		.long	.LASF281
 7749 118f 02        		.byte	0x2
 7750 1190 0401      		.word	0x104
 7751 1192 2C00 0000 		.long	0x2c
 7752 1196 0000 0000 		.long	.LLST13
 7753 119a 2E        		.uleb128 0x2e
 7754 119b 0000 0000 		.long	.LASF282
 7755 119f 02        		.byte	0x2
 7756 11a0 0401      		.word	0x104
 7757 11a2 4D10 0000 		.long	0x104d
 7758 11a6 01        		.byte	0x1
 7759 11a7 66        		.byte	0x66
 7760 11a8 00        		.byte	0x0
 7761 11a9 2F        		.uleb128 0x2f
 7762 11aa 01        		.byte	0x1
 7763 11ab 0000 0000 		.long	.LASF283
 7764 11af 02        		.byte	0x2
 7765 11b0 1801      		.word	0x118
 7766 11b2 01        		.byte	0x1
 7767 11b3 0000 0000 		.long	.LFB15
 7768 11b7 0000 0000 		.long	.LFE15
 7769 11bb 03        		.byte	0x3
 7770 11bc 92        		.byte	0x92
 7771 11bd 20        		.uleb128 0x20
 7772 11be 00        		.sleb128 0
 7773 11bf 2F        		.uleb128 0x2f
 7774 11c0 01        		.byte	0x1
 7775 11c1 0000 0000 		.long	.LASF284
 7776 11c5 02        		.byte	0x2
 7777 11c6 2401      		.word	0x124
 7778 11c8 01        		.byte	0x1
 7779 11c9 0000 0000 		.long	.LFB16
 7780 11cd 0000 0000 		.long	.LFE16
 7781 11d1 03        		.byte	0x3
 7782 11d2 92        		.byte	0x92
 7783 11d3 20        		.uleb128 0x20
 7784 11d4 00        		.sleb128 0
 7785 11d5 30        		.uleb128 0x30
 7786 11d6 01        		.byte	0x1
 7787 11d7 0000 0000 		.long	.LASF285
 7788 11db 01        		.byte	0x1
 7789 11dc 46        		.byte	0x46
 7790 11dd 01        		.byte	0x1
 7791 11de 0000 0000 		.long	.LFB17
 7792 11e2 0000 0000 		.long	.LFE17
 7793 11e6 03        		.byte	0x3
 7794 11e7 92        		.byte	0x92
 7795 11e8 20        		.uleb128 0x20
 7796 11e9 00        		.sleb128 0
 7797 11ea 31        		.uleb128 0x31
 7798 11eb 01        		.byte	0x1
GAS LISTING /tmp/cchdpaIW.s 			page 138


 7799 11ec 0000 0000 		.long	.LASF311
 7800 11f0 01        		.byte	0x1
 7801 11f1 57        		.byte	0x57
 7802 11f2 01        		.byte	0x1
 7803 11f3 3E00 0000 		.long	0x3e
 7804 11f7 0000 0000 		.long	.LFB19
 7805 11fb 0000 0000 		.long	.LFE19
 7806 11ff 03        		.byte	0x3
 7807 1200 92        		.byte	0x92
 7808 1201 20        		.uleb128 0x20
 7809 1202 00        		.sleb128 0
 7810 1203 2C        		.uleb128 0x2c
 7811 1204 01        		.byte	0x1
 7812 1205 0000 0000 		.long	.LASF286
 7813 1209 01        		.byte	0x1
 7814 120a 1E03      		.word	0x31e
 7815 120c 01        		.byte	0x1
 7816 120d 0000 0000 		.long	.LFB37
 7817 1211 0000 0000 		.long	.LFE37
 7818 1215 03        		.byte	0x3
 7819 1216 92        		.byte	0x92
 7820 1217 20        		.uleb128 0x20
 7821 1218 00        		.sleb128 0
 7822 1219 9E12 0000 		.long	0x129e
 7823 121d 32        		.uleb128 0x32
 7824 121e 0000 0000 		.long	.LASF287
 7825 1222 01        		.byte	0x1
 7826 1223 2003      		.word	0x320
 7827 1225 9E12 0000 		.long	0x129e
 7828 1229 02        		.byte	0x2
 7829 122a 8C        		.byte	0x8c
 7830 122b 01        		.sleb128 1
 7831 122c 33        		.uleb128 0x33
 7832 122d 6300      		.string	"c"
 7833 122f 01        		.byte	0x1
 7834 1230 2103      		.word	0x321
 7835 1232 3E00 0000 		.long	0x3e
 7836 1236 0000 0000 		.long	.LLST14
 7837 123a 33        		.uleb128 0x33
 7838 123b 6900      		.string	"i"
 7839 123d 01        		.byte	0x1
 7840 123e 2203      		.word	0x322
 7841 1240 3E00 0000 		.long	0x3e
 7842 1244 0000 0000 		.long	.LLST15
 7843 1248 33        		.uleb128 0x33
 7844 1249 6600      		.string	"f"
 7845 124b 01        		.byte	0x1
 7846 124c 2303      		.word	0x323
 7847 124e 3E00 0000 		.long	0x3e
 7848 1252 0000 0000 		.long	.LLST16
 7849 1256 34        		.uleb128 0x34
 7850 1257 CE0E 0000 		.long	0xece
 7851 125b 0000 0000 		.long	.LBB78
 7852 125f 0000 0000 		.long	.LBE78
 7853 1263 01        		.byte	0x1
 7854 1264 3503      		.word	0x335
 7855 1266 35        		.uleb128 0x35
GAS LISTING /tmp/cchdpaIW.s 			page 139


 7856 1267 190F 0000 		.long	0xf19
 7857 126b 0000 0000 		.long	.LLST17
 7858 126f 35        		.uleb128 0x35
 7859 1270 0D0F 0000 		.long	0xf0d
 7860 1274 0000 0000 		.long	.LLST18
 7861 1278 35        		.uleb128 0x35
 7862 1279 010F 0000 		.long	0xf01
 7863 127d 0000 0000 		.long	.LLST19
 7864 1281 35        		.uleb128 0x35
 7865 1282 F50E 0000 		.long	0xef5
 7866 1286 0000 0000 		.long	.LLST20
 7867 128a 35        		.uleb128 0x35
 7868 128b E90E 0000 		.long	0xee9
 7869 128f 0000 0000 		.long	.LLST21
 7870 1293 35        		.uleb128 0x35
 7871 1294 DD0E 0000 		.long	0xedd
 7872 1298 0000 0000 		.long	.LLST22
 7873 129c 00        		.byte	0x0
 7874 129d 00        		.byte	0x0
 7875 129e 36        		.uleb128 0x36
 7876 129f 3E00 0000 		.long	0x3e
 7877 12a3 AE12 0000 		.long	0x12ae
 7878 12a7 37        		.uleb128 0x37
 7879 12a8 4500 0000 		.long	0x45
 7880 12ac 06        		.byte	0x6
 7881 12ad 00        		.byte	0x0
 7882 12ae 27        		.uleb128 0x27
 7883 12af 01        		.byte	0x1
 7884 12b0 0000 0000 		.long	.LASF288
 7885 12b4 01        		.byte	0x1
 7886 12b5 7A        		.byte	0x7a
 7887 12b6 01        		.byte	0x1
 7888 12b7 0000 0000 		.long	.LFB21
 7889 12bb 0000 0000 		.long	.LFE21
 7890 12bf 03        		.byte	0x3
 7891 12c0 92        		.byte	0x92
 7892 12c1 20        		.uleb128 0x20
 7893 12c2 00        		.sleb128 0
 7894 12c3 1013 0000 		.long	0x1310
 7895 12c7 25        		.uleb128 0x25
 7896 12c8 6D73 00   		.string	"ms"
 7897 12cb 01        		.byte	0x1
 7898 12cc 7A        		.byte	0x7a
 7899 12cd 3E00 0000 		.long	0x3e
 7900 12d1 0000 0000 		.long	.LLST23
 7901 12d5 38        		.uleb128 0x38
 7902 12d6 6F0E 0000 		.long	0xe6f
 7903 12da 0000 0000 		.long	.LBB80
 7904 12de 0000 0000 		.long	.LBE80
 7905 12e2 01        		.byte	0x1
 7906 12e3 7D        		.byte	0x7d
 7907 12e4 35        		.uleb128 0x35
 7908 12e5 7C0E 0000 		.long	0xe7c
 7909 12e9 0000 0000 		.long	.LLST24
 7910 12ed 39        		.uleb128 0x39
 7911 12ee 0000 0000 		.long	.LBB81
 7912 12f2 0000 0000 		.long	.LBE81
GAS LISTING /tmp/cchdpaIW.s 			page 140


 7913 12f6 3A        		.uleb128 0x3a
 7914 12f7 870E 0000 		.long	0xe87
 7915 12fb 3B        		.uleb128 0x3b
 7916 12fc 920E 0000 		.long	0xe92
 7917 1300 0000 0000 		.long	.LLST25
 7918 1304 3B        		.uleb128 0x3b
 7919 1305 9D0E 0000 		.long	0xe9d
 7920 1309 0000 0000 		.long	.LLST26
 7921 130d 00        		.byte	0x0
 7922 130e 00        		.byte	0x0
 7923 130f 00        		.byte	0x0
 7924 1310 2B        		.uleb128 0x2b
 7925 1311 01        		.byte	0x1
 7926 1312 0000 0000 		.long	.LASF289
 7927 1316 01        		.byte	0x1
 7928 1317 81        		.byte	0x81
 7929 1318 01        		.byte	0x1
 7930 1319 3E00 0000 		.long	0x3e
 7931 131d 0000 0000 		.long	.LFB22
 7932 1321 0000 0000 		.long	.LFE22
 7933 1325 03        		.byte	0x3
 7934 1326 92        		.byte	0x92
 7935 1327 20        		.uleb128 0x20
 7936 1328 00        		.sleb128 0
 7937 1329 4B13 0000 		.long	0x134b
 7938 132d 25        		.uleb128 0x25
 7939 132e 6100      		.string	"a"
 7940 1330 01        		.byte	0x1
 7941 1331 81        		.byte	0x81
 7942 1332 4B13 0000 		.long	0x134b
 7943 1336 0000 0000 		.long	.LLST27
 7944 133a 3C        		.uleb128 0x3c
 7945 133b 6200      		.string	"b"
 7946 133d 01        		.byte	0x1
 7947 133e 81        		.byte	0x81
 7948 133f 4B13 0000 		.long	0x134b
 7949 1343 06        		.byte	0x6
 7950 1344 66        		.byte	0x66
 7951 1345 93        		.byte	0x93
 7952 1346 01        		.uleb128 0x1
 7953 1347 67        		.byte	0x67
 7954 1348 93        		.byte	0x93
 7955 1349 01        		.uleb128 0x1
 7956 134a 00        		.byte	0x0
 7957 134b 0A        		.uleb128 0xa
 7958 134c 02        		.byte	0x2
 7959 134d 3E00 0000 		.long	0x3e
 7960 1351 3D        		.uleb128 0x3d
 7961 1352 540F 0000 		.long	0xf54
 7962 1356 0000 0000 		.long	.LFB23
 7963 135a 0000 0000 		.long	.LFE23
 7964 135e 03        		.byte	0x3
 7965 135f 92        		.byte	0x92
 7966 1360 20        		.uleb128 0x20
 7967 1361 00        		.sleb128 0
 7968 1362 7013 0000 		.long	0x1370
 7969 1366 35        		.uleb128 0x35
GAS LISTING /tmp/cchdpaIW.s 			page 141


 7970 1367 660F 0000 		.long	0xf66
 7971 136b 0000 0000 		.long	.LLST28
 7972 136f 00        		.byte	0x0
 7973 1370 30        		.uleb128 0x30
 7974 1371 01        		.byte	0x1
 7975 1372 0000 0000 		.long	.LASF290
 7976 1376 01        		.byte	0x1
 7977 1377 90        		.byte	0x90
 7978 1378 01        		.byte	0x1
 7979 1379 0000 0000 		.long	.LFB24
 7980 137d 0000 0000 		.long	.LFE24
 7981 1381 03        		.byte	0x3
 7982 1382 92        		.byte	0x92
 7983 1383 20        		.uleb128 0x20
 7984 1384 00        		.sleb128 0
 7985 1385 3E        		.uleb128 0x3e
 7986 1386 C00E 0000 		.long	0xec0
 7987 138a 0000 0000 		.long	.LFB25
 7988 138e 0000 0000 		.long	.LFE25
 7989 1392 03        		.byte	0x3
 7990 1393 92        		.byte	0x92
 7991 1394 20        		.uleb128 0x20
 7992 1395 00        		.sleb128 0
 7993 1396 27        		.uleb128 0x27
 7994 1397 01        		.byte	0x1
 7995 1398 0000 0000 		.long	.LASF291
 7996 139c 01        		.byte	0x1
 7997 139d 9F        		.byte	0x9f
 7998 139e 01        		.byte	0x1
 7999 139f 0000 0000 		.long	.LFB26
 8000 13a3 0000 0000 		.long	.LFE26
 8001 13a7 03        		.byte	0x3
 8002 13a8 92        		.byte	0x92
 8003 13a9 20        		.uleb128 0x20
 8004 13aa 00        		.sleb128 0
 8005 13ab BF13 0000 		.long	0x13bf
 8006 13af 26        		.uleb128 0x26
 8007 13b0 0000 0000 		.long	.LASF292
 8008 13b4 01        		.byte	0x1
 8009 13b5 9F        		.byte	0x9f
 8010 13b6 3E00 0000 		.long	0x3e
 8011 13ba 0000 0000 		.long	.LLST29
 8012 13be 00        		.byte	0x0
 8013 13bf 27        		.uleb128 0x27
 8014 13c0 01        		.byte	0x1
 8015 13c1 0000 0000 		.long	.LASF293
 8016 13c5 01        		.byte	0x1
 8017 13c6 A6        		.byte	0xa6
 8018 13c7 01        		.byte	0x1
 8019 13c8 0000 0000 		.long	.LFB27
 8020 13cc 0000 0000 		.long	.LFE27
 8021 13d0 03        		.byte	0x3
 8022 13d1 92        		.byte	0x92
 8023 13d2 20        		.uleb128 0x20
 8024 13d3 00        		.sleb128 0
 8025 13d4 F313 0000 		.long	0x13f3
 8026 13d8 25        		.uleb128 0x25
GAS LISTING /tmp/cchdpaIW.s 			page 142


 8027 13d9 6E00      		.string	"n"
 8028 13db 01        		.byte	0x1
 8029 13dc A6        		.byte	0xa6
 8030 13dd 3E00 0000 		.long	0x3e
 8031 13e1 0000 0000 		.long	.LLST30
 8032 13e5 3F        		.uleb128 0x3f
 8033 13e6 6900      		.string	"i"
 8034 13e8 01        		.byte	0x1
 8035 13e9 A7        		.byte	0xa7
 8036 13ea 3E00 0000 		.long	0x3e
 8037 13ee 0000 0000 		.long	.LLST31
 8038 13f2 00        		.byte	0x0
 8039 13f3 27        		.uleb128 0x27
 8040 13f4 01        		.byte	0x1
 8041 13f5 0000 0000 		.long	.LASF294
 8042 13f9 01        		.byte	0x1
 8043 13fa AF        		.byte	0xaf
 8044 13fb 01        		.byte	0x1
 8045 13fc 0000 0000 		.long	.LFB28
 8046 1400 0000 0000 		.long	.LFE28
 8047 1404 03        		.byte	0x3
 8048 1405 92        		.byte	0x92
 8049 1406 20        		.uleb128 0x20
 8050 1407 00        		.sleb128 0
 8051 1408 2E14 0000 		.long	0x142e
 8052 140c 26        		.uleb128 0x26
 8053 140d 0000 0000 		.long	.LASF295
 8054 1411 01        		.byte	0x1
 8055 1412 AF        		.byte	0xaf
 8056 1413 FB00 0000 		.long	0xfb
 8057 1417 0000 0000 		.long	.LLST32
 8058 141b 28        		.uleb128 0x28
 8059 141c 0000 0000 		.long	.LASF296
 8060 1420 01        		.byte	0x1
 8061 1421 AF        		.byte	0xaf
 8062 1422 3E00 0000 		.long	0x3e
 8063 1426 06        		.byte	0x6
 8064 1427 66        		.byte	0x66
 8065 1428 93        		.byte	0x93
 8066 1429 01        		.uleb128 0x1
 8067 142a 67        		.byte	0x67
 8068 142b 93        		.byte	0x93
 8069 142c 01        		.uleb128 0x1
 8070 142d 00        		.byte	0x0
 8071 142e 27        		.uleb128 0x27
 8072 142f 01        		.byte	0x1
 8073 1430 0000 0000 		.long	.LASF297
 8074 1434 01        		.byte	0x1
 8075 1435 E6        		.byte	0xe6
 8076 1436 01        		.byte	0x1
 8077 1437 0000 0000 		.long	.LFB29
 8078 143b 0000 0000 		.long	.LFE29
 8079 143f 03        		.byte	0x3
 8080 1440 92        		.byte	0x92
 8081 1441 20        		.uleb128 0x20
 8082 1442 00        		.sleb128 0
 8083 1443 6914 0000 		.long	0x1469
GAS LISTING /tmp/cchdpaIW.s 			page 143


 8084 1447 26        		.uleb128 0x26
 8085 1448 0000 0000 		.long	.LASF295
 8086 144c 01        		.byte	0x1
 8087 144d E6        		.byte	0xe6
 8088 144e FB00 0000 		.long	0xfb
 8089 1452 0000 0000 		.long	.LLST33
 8090 1456 28        		.uleb128 0x28
 8091 1457 0000 0000 		.long	.LASF296
 8092 145b 01        		.byte	0x1
 8093 145c E6        		.byte	0xe6
 8094 145d 3E00 0000 		.long	0x3e
 8095 1461 06        		.byte	0x6
 8096 1462 66        		.byte	0x66
 8097 1463 93        		.byte	0x93
 8098 1464 01        		.uleb128 0x1
 8099 1465 67        		.byte	0x67
 8100 1466 93        		.byte	0x93
 8101 1467 01        		.uleb128 0x1
 8102 1468 00        		.byte	0x0
 8103 1469 3D        		.uleb128 0x3d
 8104 146a 260F 0000 		.long	0xf26
 8105 146e 0000 0000 		.long	.LFB30
 8106 1472 0000 0000 		.long	.LFE30
 8107 1476 03        		.byte	0x3
 8108 1477 92        		.byte	0x92
 8109 1478 20        		.uleb128 0x20
 8110 1479 00        		.sleb128 0
 8111 147a 9D14 0000 		.long	0x149d
 8112 147e 40        		.uleb128 0x40
 8113 147f 350F 0000 		.long	0xf35
 8114 1483 06        		.byte	0x6
 8115 1484 68        		.byte	0x68
 8116 1485 93        		.byte	0x93
 8117 1486 01        		.uleb128 0x1
 8118 1487 69        		.byte	0x69
 8119 1488 93        		.byte	0x93
 8120 1489 01        		.uleb128 0x1
 8121 148a 40        		.uleb128 0x40
 8122 148b 410F 0000 		.long	0xf41
 8123 148f 0C        		.byte	0xc
 8124 1490 64        		.byte	0x64
 8125 1491 93        		.byte	0x93
 8126 1492 01        		.uleb128 0x1
 8127 1493 65        		.byte	0x65
 8128 1494 93        		.byte	0x93
 8129 1495 01        		.uleb128 0x1
 8130 1496 66        		.byte	0x66
 8131 1497 93        		.byte	0x93
 8132 1498 01        		.uleb128 0x1
 8133 1499 67        		.byte	0x67
 8134 149a 93        		.byte	0x93
 8135 149b 01        		.uleb128 0x1
 8136 149c 00        		.byte	0x0
 8137 149d 2C        		.uleb128 0x2c
 8138 149e 01        		.byte	0x1
 8139 149f 0000 0000 		.long	.LASF298
 8140 14a3 01        		.byte	0x1
GAS LISTING /tmp/cchdpaIW.s 			page 144


 8141 14a4 BD01      		.word	0x1bd
 8142 14a6 01        		.byte	0x1
 8143 14a7 0000 0000 		.long	.LFB31
 8144 14ab 0000 0000 		.long	.LFE31
 8145 14af 03        		.byte	0x3
 8146 14b0 92        		.byte	0x92
 8147 14b1 20        		.uleb128 0x20
 8148 14b2 00        		.sleb128 0
 8149 14b3 D614 0000 		.long	0x14d6
 8150 14b7 2E        		.uleb128 0x2e
 8151 14b8 0000 0000 		.long	.LASF254
 8152 14bc 01        		.byte	0x1
 8153 14bd BD01      		.word	0x1bd
 8154 14bf 530D 0000 		.long	0xd53
 8155 14c3 02        		.byte	0x2
 8156 14c4 91        		.byte	0x91
 8157 14c5 0E        		.sleb128 14
 8158 14c6 2E        		.uleb128 0x2e
 8159 14c7 0000 0000 		.long	.LASF299
 8160 14cb 01        		.byte	0x1
 8161 14cc BD01      		.word	0x1bd
 8162 14ce 3E00 0000 		.long	0x3e
 8163 14d2 02        		.byte	0x2
 8164 14d3 91        		.byte	0x91
 8165 14d4 32        		.sleb128 50
 8166 14d5 00        		.byte	0x0
 8167 14d6 2C        		.uleb128 0x2c
 8168 14d7 01        		.byte	0x1
 8169 14d8 0000 0000 		.long	.LASF300
 8170 14dc 01        		.byte	0x1
 8171 14dd F101      		.word	0x1f1
 8172 14df 01        		.byte	0x1
 8173 14e0 0000 0000 		.long	.LFB32
 8174 14e4 0000 0000 		.long	.LFE32
 8175 14e8 03        		.byte	0x3
 8176 14e9 92        		.byte	0x92
 8177 14ea 20        		.uleb128 0x20
 8178 14eb 00        		.sleb128 0
 8179 14ec 4115 0000 		.long	0x1541
 8180 14f0 2D        		.uleb128 0x2d
 8181 14f1 0000 0000 		.long	.LASF254
 8182 14f5 01        		.byte	0x1
 8183 14f6 F101      		.word	0x1f1
 8184 14f8 4E0F 0000 		.long	0xf4e
 8185 14fc 0000 0000 		.long	.LLST34
 8186 1500 2D        		.uleb128 0x2d
 8187 1501 0000 0000 		.long	.LASF301
 8188 1505 01        		.byte	0x1
 8189 1506 F101      		.word	0x1f1
 8190 1508 3E00 0000 		.long	0x3e
 8191 150c 0000 0000 		.long	.LLST35
 8192 1510 41        		.uleb128 0x41
 8193 1511 0000 0000 		.long	.LASF302
 8194 1515 01        		.byte	0x1
 8195 1516 F201      		.word	0x1f2
 8196 1518 3E00 0000 		.long	0x3e
 8197 151c 0000 0000 		.long	.LLST36
GAS LISTING /tmp/cchdpaIW.s 			page 145


 8198 1520 42        		.uleb128 0x42
 8199 1521 C00E 0000 		.long	0xec0
 8200 1525 0000 0000 		.long	.LBB82
 8201 1529 0000 0000 		.long	.LBE82
 8202 152d 01        		.byte	0x1
 8203 152e FF01      		.word	0x1ff
 8204 1530 42        		.uleb128 0x42
 8205 1531 C00E 0000 		.long	0xec0
 8206 1535 0000 0000 		.long	.LBB84
 8207 1539 0000 0000 		.long	.LBE84
 8208 153d 01        		.byte	0x1
 8209 153e 0102      		.word	0x201
 8210 1540 00        		.byte	0x0
 8211 1541 2C        		.uleb128 0x2c
 8212 1542 01        		.byte	0x1
 8213 1543 0000 0000 		.long	.LASF303
 8214 1547 01        		.byte	0x1
 8215 1548 3202      		.word	0x232
 8216 154a 01        		.byte	0x1
 8217 154b 0000 0000 		.long	.LFB33
 8218 154f 0000 0000 		.long	.LFE33
 8219 1553 03        		.byte	0x3
 8220 1554 92        		.byte	0x92
 8221 1555 20        		.uleb128 0x20
 8222 1556 00        		.sleb128 0
 8223 1557 7C15 0000 		.long	0x157c
 8224 155b 2D        		.uleb128 0x2d
 8225 155c 0000 0000 		.long	.LASF254
 8226 1560 01        		.byte	0x1
 8227 1561 3202      		.word	0x232
 8228 1563 4E0F 0000 		.long	0xf4e
 8229 1567 0000 0000 		.long	.LLST37
 8230 156b 2D        		.uleb128 0x2d
 8231 156c 0000 0000 		.long	.LASF304
 8232 1570 01        		.byte	0x1
 8233 1571 3202      		.word	0x232
 8234 1573 3E00 0000 		.long	0x3e
 8235 1577 0000 0000 		.long	.LLST38
 8236 157b 00        		.byte	0x0
 8237 157c 3D        		.uleb128 0x3d
 8238 157d CE0E 0000 		.long	0xece
 8239 1581 0000 0000 		.long	.LFB34
 8240 1585 0000 0000 		.long	.LFE34
 8241 1589 03        		.byte	0x3
 8242 158a 92        		.byte	0x92
 8243 158b 20        		.uleb128 0x20
 8244 158c 00        		.sleb128 0
 8245 158d D415 0000 		.long	0x15d4
 8246 1591 40        		.uleb128 0x40
 8247 1592 DD0E 0000 		.long	0xedd
 8248 1596 06        		.byte	0x6
 8249 1597 68        		.byte	0x68
 8250 1598 93        		.byte	0x93
 8251 1599 01        		.uleb128 0x1
 8252 159a 69        		.byte	0x69
 8253 159b 93        		.byte	0x93
 8254 159c 01        		.uleb128 0x1
GAS LISTING /tmp/cchdpaIW.s 			page 146


 8255 159d 40        		.uleb128 0x40
 8256 159e E90E 0000 		.long	0xee9
 8257 15a2 06        		.byte	0x6
 8258 15a3 66        		.byte	0x66
 8259 15a4 93        		.byte	0x93
 8260 15a5 01        		.uleb128 0x1
 8261 15a6 67        		.byte	0x67
 8262 15a7 93        		.byte	0x93
 8263 15a8 01        		.uleb128 0x1
 8264 15a9 40        		.uleb128 0x40
 8265 15aa F50E 0000 		.long	0xef5
 8266 15ae 06        		.byte	0x6
 8267 15af 64        		.byte	0x64
 8268 15b0 93        		.byte	0x93
 8269 15b1 01        		.uleb128 0x1
 8270 15b2 65        		.byte	0x65
 8271 15b3 93        		.byte	0x93
 8272 15b4 01        		.uleb128 0x1
 8273 15b5 40        		.uleb128 0x40
 8274 15b6 010F 0000 		.long	0xf01
 8275 15ba 06        		.byte	0x6
 8276 15bb 62        		.byte	0x62
 8277 15bc 93        		.byte	0x93
 8278 15bd 01        		.uleb128 0x1
 8279 15be 63        		.byte	0x63
 8280 15bf 93        		.byte	0x93
 8281 15c0 01        		.uleb128 0x1
 8282 15c1 35        		.uleb128 0x35
 8283 15c2 0D0F 0000 		.long	0xf0d
 8284 15c6 0000 0000 		.long	.LLST39
 8285 15ca 35        		.uleb128 0x35
 8286 15cb 190F 0000 		.long	0xf19
 8287 15cf 0000 0000 		.long	.LLST40
 8288 15d3 00        		.byte	0x0
 8289 15d4 2C        		.uleb128 0x2c
 8290 15d5 01        		.byte	0x1
 8291 15d6 0000 0000 		.long	.LASF305
 8292 15da 01        		.byte	0x1
 8293 15db 7C02      		.word	0x27c
 8294 15dd 01        		.byte	0x1
 8295 15de 0000 0000 		.long	.LFB35
 8296 15e2 0000 0000 		.long	.LFE35
 8297 15e6 03        		.byte	0x3
 8298 15e7 92        		.byte	0x92
 8299 15e8 20        		.uleb128 0x20
 8300 15e9 00        		.sleb128 0
 8301 15ea 7018 0000 		.long	0x1870
 8302 15ee 32        		.uleb128 0x32
 8303 15ef 0000 0000 		.long	.LASF306
 8304 15f3 01        		.byte	0x1
 8305 15f4 7E02      		.word	0x27e
 8306 15f6 7018 0000 		.long	0x1870
 8307 15fa 02        		.byte	0x2
 8308 15fb 8C        		.byte	0x8c
 8309 15fc 01        		.sleb128 1
 8310 15fd 41        		.uleb128 0x41
 8311 15fe 0000 0000 		.long	.LASF307
GAS LISTING /tmp/cchdpaIW.s 			page 147


 8312 1602 01        		.byte	0x1
 8313 1603 8802      		.word	0x288
 8314 1605 3E00 0000 		.long	0x3e
 8315 1609 0000 0000 		.long	.LLST41
 8316 160d 33        		.uleb128 0x33
 8317 160e 6900      		.string	"i"
 8318 1610 01        		.byte	0x1
 8319 1611 8902      		.word	0x289
 8320 1613 3E00 0000 		.long	0x3e
 8321 1617 0000 0000 		.long	.LLST42
 8322 161b 43        		.uleb128 0x43
 8323 161c 260F 0000 		.long	0xf26
 8324 1620 0000 0000 		.long	.LBB86
 8325 1624 0000 0000 		.long	.Ldebug_ranges0+0x0
 8326 1628 01        		.byte	0x1
 8327 1629 9202      		.word	0x292
 8328 162b 4116 0000 		.long	0x1641
 8329 162f 44        		.uleb128 0x44
 8330 1630 410F 0000 		.long	0xf41
 8331 1634 40        		.uleb128 0x40
 8332 1635 350F 0000 		.long	0xf35
 8333 1639 06        		.byte	0x6
 8334 163a 03        		.byte	0x3
 8335 163b 0000 0000 		.long	Base
 8336 163f 9F        		.byte	0x9f
 8337 1640 00        		.byte	0x0
 8338 1641 43        		.uleb128 0x43
 8339 1642 260F 0000 		.long	0xf26
 8340 1646 0000 0000 		.long	.LBB90
 8341 164a 0000 0000 		.long	.Ldebug_ranges0+0x18
 8342 164e 01        		.byte	0x1
 8343 164f 9302      		.word	0x293
 8344 1651 6716 0000 		.long	0x1667
 8345 1655 44        		.uleb128 0x44
 8346 1656 410F 0000 		.long	0xf41
 8347 165a 40        		.uleb128 0x40
 8348 165b 350F 0000 		.long	0xf35
 8349 165f 06        		.byte	0x6
 8350 1660 03        		.byte	0x3
 8351 1661 0000 0000 		.long	Shoulder
 8352 1665 9F        		.byte	0x9f
 8353 1666 00        		.byte	0x0
 8354 1667 43        		.uleb128 0x43
 8355 1668 260F 0000 		.long	0xf26
 8356 166c 0000 0000 		.long	.LBB94
 8357 1670 0000 0000 		.long	.Ldebug_ranges0+0x30
 8358 1674 01        		.byte	0x1
 8359 1675 9402      		.word	0x294
 8360 1677 8D16 0000 		.long	0x168d
 8361 167b 44        		.uleb128 0x44
 8362 167c 410F 0000 		.long	0xf41
 8363 1680 40        		.uleb128 0x40
 8364 1681 350F 0000 		.long	0xf35
 8365 1685 06        		.byte	0x6
 8366 1686 03        		.byte	0x3
 8367 1687 0000 0000 		.long	Elbow
 8368 168b 9F        		.byte	0x9f
GAS LISTING /tmp/cchdpaIW.s 			page 148


 8369 168c 00        		.byte	0x0
 8370 168d 43        		.uleb128 0x43
 8371 168e 260F 0000 		.long	0xf26
 8372 1692 0000 0000 		.long	.LBB98
 8373 1696 0000 0000 		.long	.Ldebug_ranges0+0x48
 8374 169a 01        		.byte	0x1
 8375 169b 9502      		.word	0x295
 8376 169d B316 0000 		.long	0x16b3
 8377 16a1 44        		.uleb128 0x44
 8378 16a2 410F 0000 		.long	0xf41
 8379 16a6 40        		.uleb128 0x40
 8380 16a7 350F 0000 		.long	0xf35
 8381 16ab 06        		.byte	0x6
 8382 16ac 03        		.byte	0x3
 8383 16ad 0000 0000 		.long	Right_Wrist
 8384 16b1 9F        		.byte	0x9f
 8385 16b2 00        		.byte	0x0
 8386 16b3 43        		.uleb128 0x43
 8387 16b4 260F 0000 		.long	0xf26
 8388 16b8 0000 0000 		.long	.LBB102
 8389 16bc 0000 0000 		.long	.Ldebug_ranges0+0x60
 8390 16c0 01        		.byte	0x1
 8391 16c1 9602      		.word	0x296
 8392 16c3 D916 0000 		.long	0x16d9
 8393 16c7 44        		.uleb128 0x44
 8394 16c8 410F 0000 		.long	0xf41
 8395 16cc 40        		.uleb128 0x40
 8396 16cd 350F 0000 		.long	0xf35
 8397 16d1 06        		.byte	0x6
 8398 16d2 03        		.byte	0x3
 8399 16d3 0000 0000 		.long	Left_Wrist
 8400 16d7 9F        		.byte	0x9f
 8401 16d8 00        		.byte	0x0
 8402 16d9 43        		.uleb128 0x43
 8403 16da 260F 0000 		.long	0xf26
 8404 16de 0000 0000 		.long	.LBB106
 8405 16e2 0000 0000 		.long	.Ldebug_ranges0+0x78
 8406 16e6 01        		.byte	0x1
 8407 16e7 9702      		.word	0x297
 8408 16e9 FF16 0000 		.long	0x16ff
 8409 16ed 44        		.uleb128 0x44
 8410 16ee 410F 0000 		.long	0xf41
 8411 16f2 40        		.uleb128 0x40
 8412 16f3 350F 0000 		.long	0xf35
 8413 16f7 06        		.byte	0x6
 8414 16f8 03        		.byte	0x3
 8415 16f9 0000 0000 		.long	Gripper
 8416 16fd 9F        		.byte	0x9f
 8417 16fe 00        		.byte	0x0
 8418 16ff 42        		.uleb128 0x42
 8419 1700 C00E 0000 		.long	0xec0
 8420 1704 0000 0000 		.long	.LBB110
 8421 1708 0000 0000 		.long	.LBE110
 8422 170c 01        		.byte	0x1
 8423 170d A002      		.word	0x2a0
 8424 170f 42        		.uleb128 0x42
 8425 1710 C00E 0000 		.long	0xec0
GAS LISTING /tmp/cchdpaIW.s 			page 149


 8426 1714 0000 0000 		.long	.LBB112
 8427 1718 0000 0000 		.long	.LBE112
 8428 171c 01        		.byte	0x1
 8429 171d A102      		.word	0x2a1
 8430 171f 45        		.uleb128 0x45
 8431 1720 540F 0000 		.long	0xf54
 8432 1724 0000 0000 		.long	.LBB114
 8433 1728 0000 0000 		.long	.LBE114
 8434 172c 01        		.byte	0x1
 8435 172d A202      		.word	0x2a2
 8436 172f 3D17 0000 		.long	0x173d
 8437 1733 35        		.uleb128 0x35
 8438 1734 660F 0000 		.long	0xf66
 8439 1738 0000 0000 		.long	.LLST43
 8440 173c 00        		.byte	0x0
 8441 173d 42        		.uleb128 0x42
 8442 173e C00E 0000 		.long	0xec0
 8443 1742 0000 0000 		.long	.LBB116
 8444 1746 0000 0000 		.long	.LBE116
 8445 174a 01        		.byte	0x1
 8446 174b A402      		.word	0x2a4
 8447 174d 42        		.uleb128 0x42
 8448 174e C00E 0000 		.long	0xec0
 8449 1752 0000 0000 		.long	.LBB118
 8450 1756 0000 0000 		.long	.LBE118
 8451 175a 01        		.byte	0x1
 8452 175b A502      		.word	0x2a5
 8453 175d 45        		.uleb128 0x45
 8454 175e 540F 0000 		.long	0xf54
 8455 1762 0000 0000 		.long	.LBB120
 8456 1766 0000 0000 		.long	.LBE120
 8457 176a 01        		.byte	0x1
 8458 176b A602      		.word	0x2a6
 8459 176d 7B17 0000 		.long	0x177b
 8460 1771 35        		.uleb128 0x35
 8461 1772 660F 0000 		.long	0xf66
 8462 1776 0000 0000 		.long	.LLST44
 8463 177a 00        		.byte	0x0
 8464 177b 42        		.uleb128 0x42
 8465 177c C00E 0000 		.long	0xec0
 8466 1780 0000 0000 		.long	.LBB122
 8467 1784 0000 0000 		.long	.LBE122
 8468 1788 01        		.byte	0x1
 8469 1789 A802      		.word	0x2a8
 8470 178b 42        		.uleb128 0x42
 8471 178c C00E 0000 		.long	0xec0
 8472 1790 0000 0000 		.long	.LBB124
 8473 1794 0000 0000 		.long	.LBE124
 8474 1798 01        		.byte	0x1
 8475 1799 A902      		.word	0x2a9
 8476 179b 45        		.uleb128 0x45
 8477 179c 540F 0000 		.long	0xf54
 8478 17a0 0000 0000 		.long	.LBB126
 8479 17a4 0000 0000 		.long	.LBE126
 8480 17a8 01        		.byte	0x1
 8481 17a9 AA02      		.word	0x2aa
 8482 17ab B917 0000 		.long	0x17b9
GAS LISTING /tmp/cchdpaIW.s 			page 150


 8483 17af 35        		.uleb128 0x35
 8484 17b0 660F 0000 		.long	0xf66
 8485 17b4 0000 0000 		.long	.LLST45
 8486 17b8 00        		.byte	0x0
 8487 17b9 42        		.uleb128 0x42
 8488 17ba C00E 0000 		.long	0xec0
 8489 17be 0000 0000 		.long	.LBB128
 8490 17c2 0000 0000 		.long	.LBE128
 8491 17c6 01        		.byte	0x1
 8492 17c7 AC02      		.word	0x2ac
 8493 17c9 42        		.uleb128 0x42
 8494 17ca C00E 0000 		.long	0xec0
 8495 17ce 0000 0000 		.long	.LBB130
 8496 17d2 0000 0000 		.long	.LBE130
 8497 17d6 01        		.byte	0x1
 8498 17d7 AD02      		.word	0x2ad
 8499 17d9 45        		.uleb128 0x45
 8500 17da 540F 0000 		.long	0xf54
 8501 17de 0000 0000 		.long	.LBB132
 8502 17e2 0000 0000 		.long	.LBE132
 8503 17e6 01        		.byte	0x1
 8504 17e7 AE02      		.word	0x2ae
 8505 17e9 F717 0000 		.long	0x17f7
 8506 17ed 35        		.uleb128 0x35
 8507 17ee 660F 0000 		.long	0xf66
 8508 17f2 0000 0000 		.long	.LLST46
 8509 17f6 00        		.byte	0x0
 8510 17f7 42        		.uleb128 0x42
 8511 17f8 C00E 0000 		.long	0xec0
 8512 17fc 0000 0000 		.long	.LBB134
 8513 1800 0000 0000 		.long	.LBE134
 8514 1804 01        		.byte	0x1
 8515 1805 B002      		.word	0x2b0
 8516 1807 42        		.uleb128 0x42
 8517 1808 C00E 0000 		.long	0xec0
 8518 180c 0000 0000 		.long	.LBB136
 8519 1810 0000 0000 		.long	.LBE136
 8520 1814 01        		.byte	0x1
 8521 1815 B102      		.word	0x2b1
 8522 1817 45        		.uleb128 0x45
 8523 1818 540F 0000 		.long	0xf54
 8524 181c 0000 0000 		.long	.LBB138
 8525 1820 0000 0000 		.long	.LBE138
 8526 1824 01        		.byte	0x1
 8527 1825 B202      		.word	0x2b2
 8528 1827 3518 0000 		.long	0x1835
 8529 182b 35        		.uleb128 0x35
 8530 182c 660F 0000 		.long	0xf66
 8531 1830 0000 0000 		.long	.LLST47
 8532 1834 00        		.byte	0x0
 8533 1835 42        		.uleb128 0x42
 8534 1836 C00E 0000 		.long	0xec0
 8535 183a 0000 0000 		.long	.LBB140
 8536 183e 0000 0000 		.long	.LBE140
 8537 1842 01        		.byte	0x1
 8538 1843 B402      		.word	0x2b4
 8539 1845 42        		.uleb128 0x42
GAS LISTING /tmp/cchdpaIW.s 			page 151


 8540 1846 C00E 0000 		.long	0xec0
 8541 184a 0000 0000 		.long	.LBB142
 8542 184e 0000 0000 		.long	.LBE142
 8543 1852 01        		.byte	0x1
 8544 1853 B502      		.word	0x2b5
 8545 1855 34        		.uleb128 0x34
 8546 1856 540F 0000 		.long	0xf54
 8547 185a 0000 0000 		.long	.LBB144
 8548 185e 0000 0000 		.long	.LBE144
 8549 1862 01        		.byte	0x1
 8550 1863 B602      		.word	0x2b6
 8551 1865 35        		.uleb128 0x35
 8552 1866 660F 0000 		.long	0xf66
 8553 186a 0000 0000 		.long	.LLST48
 8554 186e 00        		.byte	0x0
 8555 186f 00        		.byte	0x0
 8556 1870 36        		.uleb128 0x36
 8557 1871 3E00 0000 		.long	0x3e
 8558 1875 8018 0000 		.long	0x1880
 8559 1879 37        		.uleb128 0x37
 8560 187a 4500 0000 		.long	0x45
 8561 187e 05        		.byte	0x5
 8562 187f 00        		.byte	0x0
 8563 1880 2C        		.uleb128 0x2c
 8564 1881 01        		.byte	0x1
 8565 1882 0000 0000 		.long	.LASF308
 8566 1886 01        		.byte	0x1
 8567 1887 CE02      		.word	0x2ce
 8568 1889 01        		.byte	0x1
 8569 188a 0000 0000 		.long	.LFB36
 8570 188e 0000 0000 		.long	.LFE36
 8571 1892 03        		.byte	0x3
 8572 1893 92        		.byte	0x92
 8573 1894 20        		.uleb128 0x20
 8574 1895 00        		.sleb128 0
 8575 1896 BB19 0000 		.long	0x19bb
 8576 189a 46        		.uleb128 0x46
 8577 189b 0000 0000 		.long	.Ldebug_ranges0+0x90
 8578 189f B418 0000 		.long	0x18b4
 8579 18a3 47        		.uleb128 0x47
 8580 18a4 01        		.byte	0x1
 8581 18a5 0000 0000 		.long	.LASF286
 8582 18a9 01        		.byte	0x1
 8583 18aa 0B03      		.word	0x30b
 8584 18ac 3E00 0000 		.long	0x3e
 8585 18b0 01        		.byte	0x1
 8586 18b1 48        		.uleb128 0x48
 8587 18b2 00        		.byte	0x0
 8588 18b3 00        		.byte	0x0
 8589 18b4 43        		.uleb128 0x43
 8590 18b5 260F 0000 		.long	0xf26
 8591 18b9 0000 0000 		.long	.LBB147
 8592 18bd 0000 0000 		.long	.Ldebug_ranges0+0xa8
 8593 18c1 01        		.byte	0x1
 8594 18c2 D302      		.word	0x2d3
 8595 18c4 D718 0000 		.long	0x18d7
 8596 18c8 35        		.uleb128 0x35
GAS LISTING /tmp/cchdpaIW.s 			page 152


 8597 18c9 410F 0000 		.long	0xf41
 8598 18cd 0000 0000 		.long	.LLST49
 8599 18d1 44        		.uleb128 0x44
 8600 18d2 350F 0000 		.long	0xf35
 8601 18d6 00        		.byte	0x0
 8602 18d7 45        		.uleb128 0x45
 8603 18d8 260F 0000 		.long	0xf26
 8604 18dc 0000 0000 		.long	.LBB151
 8605 18e0 0000 0000 		.long	.LBE151
 8606 18e4 01        		.byte	0x1
 8607 18e5 D402      		.word	0x2d4
 8608 18e7 FA18 0000 		.long	0x18fa
 8609 18eb 35        		.uleb128 0x35
 8610 18ec 410F 0000 		.long	0xf41
 8611 18f0 0000 0000 		.long	.LLST50
 8612 18f4 44        		.uleb128 0x44
 8613 18f5 350F 0000 		.long	0xf35
 8614 18f9 00        		.byte	0x0
 8615 18fa 45        		.uleb128 0x45
 8616 18fb 260F 0000 		.long	0xf26
 8617 18ff 0000 0000 		.long	.LBB153
 8618 1903 0000 0000 		.long	.LBE153
 8619 1907 01        		.byte	0x1
 8620 1908 D502      		.word	0x2d5
 8621 190a 1D19 0000 		.long	0x191d
 8622 190e 35        		.uleb128 0x35
 8623 190f 410F 0000 		.long	0xf41
 8624 1913 0000 0000 		.long	.LLST51
 8625 1917 44        		.uleb128 0x44
 8626 1918 350F 0000 		.long	0xf35
 8627 191c 00        		.byte	0x0
 8628 191d 45        		.uleb128 0x45
 8629 191e 260F 0000 		.long	0xf26
 8630 1922 0000 0000 		.long	.LBB155
 8631 1926 0000 0000 		.long	.LBE155
 8632 192a 01        		.byte	0x1
 8633 192b D602      		.word	0x2d6
 8634 192d 4019 0000 		.long	0x1940
 8635 1931 35        		.uleb128 0x35
 8636 1932 410F 0000 		.long	0xf41
 8637 1936 0000 0000 		.long	.LLST52
 8638 193a 44        		.uleb128 0x44
 8639 193b 350F 0000 		.long	0xf35
 8640 193f 00        		.byte	0x0
 8641 1940 45        		.uleb128 0x45
 8642 1941 260F 0000 		.long	0xf26
 8643 1945 0000 0000 		.long	.LBB157
 8644 1949 0000 0000 		.long	.LBE157
 8645 194d 01        		.byte	0x1
 8646 194e D702      		.word	0x2d7
 8647 1950 6319 0000 		.long	0x1963
 8648 1954 35        		.uleb128 0x35
 8649 1955 410F 0000 		.long	0xf41
 8650 1959 0000 0000 		.long	.LLST53
 8651 195d 44        		.uleb128 0x44
 8652 195e 350F 0000 		.long	0xf35
 8653 1962 00        		.byte	0x0
GAS LISTING /tmp/cchdpaIW.s 			page 153


 8654 1963 45        		.uleb128 0x45
 8655 1964 260F 0000 		.long	0xf26
 8656 1968 0000 0000 		.long	.LBB159
 8657 196c 0000 0000 		.long	.LBE159
 8658 1970 01        		.byte	0x1
 8659 1971 D802      		.word	0x2d8
 8660 1973 8619 0000 		.long	0x1986
 8661 1977 35        		.uleb128 0x35
 8662 1978 410F 0000 		.long	0xf41
 8663 197c 0000 0000 		.long	.LLST54
 8664 1980 44        		.uleb128 0x44
 8665 1981 350F 0000 		.long	0xf35
 8666 1985 00        		.byte	0x0
 8667 1986 42        		.uleb128 0x42
 8668 1987 C00E 0000 		.long	0xec0
 8669 198b 0000 0000 		.long	.LBB161
 8670 198f 0000 0000 		.long	.LBE161
 8671 1993 01        		.byte	0x1
 8672 1994 E902      		.word	0x2e9
 8673 1996 42        		.uleb128 0x42
 8674 1997 C00E 0000 		.long	0xec0
 8675 199b 0000 0000 		.long	.LBB163
 8676 199f 0000 0000 		.long	.LBE163
 8677 19a3 01        		.byte	0x1
 8678 19a4 EA02      		.word	0x2ea
 8679 19a6 39        		.uleb128 0x39
 8680 19a7 0000 0000 		.long	.LBB165
 8681 19ab 0000 0000 		.long	.LBE165
 8682 19af 49        		.uleb128 0x49
 8683 19b0 6900      		.string	"i"
 8684 19b2 01        		.byte	0x1
 8685 19b3 EE02      		.word	0x2ee
 8686 19b5 3E00 0000 		.long	0x3e
 8687 19b9 00        		.byte	0x0
 8688 19ba 00        		.byte	0x0
 8689 19bb 2C        		.uleb128 0x2c
 8690 19bc 01        		.byte	0x1
 8691 19bd 0000 0000 		.long	.LASF310
 8692 19c1 01        		.byte	0x1
 8693 19c2 3A03      		.word	0x33a
 8694 19c4 01        		.byte	0x1
 8695 19c5 0000 0000 		.long	.LFB38
 8696 19c9 0000 0000 		.long	.LFE38
 8697 19cd 03        		.byte	0x3
 8698 19ce 92        		.byte	0x92
 8699 19cf 20        		.uleb128 0x20
 8700 19d0 00        		.sleb128 0
 8701 19d1 E619 0000 		.long	0x19e6
 8702 19d5 42        		.uleb128 0x42
 8703 19d6 700F 0000 		.long	0xf70
 8704 19da 0000 0000 		.long	.LBB167
 8705 19de 0000 0000 		.long	.LBE167
 8706 19e2 01        		.byte	0x1
 8707 19e3 5403      		.word	0x354
 8708 19e5 00        		.byte	0x0
 8709 19e6 4A        		.uleb128 0x4a
 8710 19e7 01        		.byte	0x1
GAS LISTING /tmp/cchdpaIW.s 			page 154


 8711 19e8 0000 0000 		.long	.LASF312
 8712 19ec 01        		.byte	0x1
 8713 19ed 5703      		.word	0x357
 8714 19ef 01        		.byte	0x1
 8715 19f0 3E00 0000 		.long	0x3e
 8716 19f4 0000 0000 		.long	.LFB39
 8717 19f8 0000 0000 		.long	.LFE39
 8718 19fc 03        		.byte	0x3
 8719 19fd 92        		.byte	0x92
 8720 19fe 20        		.uleb128 0x20
 8721 19ff 00        		.sleb128 0
 8722 1a00 36        		.uleb128 0x36
 8723 1a01 1701 0000 		.long	0x117
 8724 1a05 0B1A 0000 		.long	0x1a0b
 8725 1a09 4B        		.uleb128 0x4b
 8726 1a0a 00        		.byte	0x0
 8727 1a0b 4C        		.uleb128 0x4c
 8728 1a0c 0000 0000 		.long	.LASF313
 8729 1a10 05        		.byte	0x5
 8730 1a11 9501      		.word	0x195
 8731 1a13 001A 0000 		.long	0x1a00
 8732 1a17 01        		.byte	0x1
 8733 1a18 01        		.byte	0x1
 8734 1a19 4D        		.uleb128 0x4d
 8735 1a1a 0000 0000 		.long	.LASF314
 8736 1a1e 01        		.byte	0x1
 8737 1a1f 38        		.byte	0x38
 8738 1a20 3E00 0000 		.long	0x3e
 8739 1a24 01        		.byte	0x1
 8740 1a25 01        		.byte	0x1
 8741 1a26 4D        		.uleb128 0x4d
 8742 1a27 0000 0000 		.long	.LASF315
 8743 1a2b 01        		.byte	0x1
 8744 1a2c 3A        		.byte	0x3a
 8745 1a2d 7018 0000 		.long	0x1870
 8746 1a31 01        		.byte	0x1
 8747 1a32 01        		.byte	0x1
 8748 1a33 4D        		.uleb128 0x4d
 8749 1a34 0000 0000 		.long	.LASF316
 8750 1a38 01        		.byte	0x1
 8751 1a39 3B        		.byte	0x3b
 8752 1a3a 7018 0000 		.long	0x1870
 8753 1a3e 01        		.byte	0x1
 8754 1a3f 01        		.byte	0x1
 8755 1a40 4D        		.uleb128 0x4d
 8756 1a41 0000 0000 		.long	.LASF317
 8757 1a45 01        		.byte	0x1
 8758 1a46 3C        		.byte	0x3c
 8759 1a47 4D1A 0000 		.long	0x1a4d
 8760 1a4b 01        		.byte	0x1
 8761 1a4c 01        		.byte	0x1
 8762 1a4d 0E        		.uleb128 0xe
 8763 1a4e 5E00 0000 		.long	0x5e
 8764 1a52 4D        		.uleb128 0x4d
 8765 1a53 0000 0000 		.long	.LASF318
 8766 1a57 01        		.byte	0x1
 8767 1a58 3D        		.byte	0x3d
GAS LISTING /tmp/cchdpaIW.s 			page 155


 8768 1a59 3E00 0000 		.long	0x3e
 8769 1a5d 01        		.byte	0x1
 8770 1a5e 01        		.byte	0x1
 8771 1a5f 29        		.uleb128 0x29
 8772 1a60 0000 0000 		.long	.LASF319
 8773 1a64 01        		.byte	0x1
 8774 1a65 43        		.byte	0x43
 8775 1a66 7300 0000 		.long	0x73
 8776 1a6a 05        		.byte	0x5
 8777 1a6b 03        		.byte	0x3
 8778 1a6c 0000 0000 		.long	mystdout
 8779 1a70 4C        		.uleb128 0x4c
 8780 1a71 0000 0000 		.long	.LASF320
 8781 1a75 01        		.byte	0x1
 8782 1a76 3301      		.word	0x133
 8783 1a78 530D 0000 		.long	0xd53
 8784 1a7c 01        		.byte	0x1
 8785 1a7d 01        		.byte	0x1
 8786 1a7e 4C        		.uleb128 0x4c
 8787 1a7f 0000 0000 		.long	.LASF321
 8788 1a83 01        		.byte	0x1
 8789 1a84 3301      		.word	0x133
 8790 1a86 530D 0000 		.long	0xd53
 8791 1a8a 01        		.byte	0x1
 8792 1a8b 01        		.byte	0x1
 8793 1a8c 4C        		.uleb128 0x4c
 8794 1a8d 0000 0000 		.long	.LASF322
 8795 1a91 01        		.byte	0x1
 8796 1a92 3301      		.word	0x133
 8797 1a94 530D 0000 		.long	0xd53
 8798 1a98 01        		.byte	0x1
 8799 1a99 01        		.byte	0x1
 8800 1a9a 4C        		.uleb128 0x4c
 8801 1a9b 0000 0000 		.long	.LASF323
 8802 1a9f 01        		.byte	0x1
 8803 1aa0 3301      		.word	0x133
 8804 1aa2 530D 0000 		.long	0xd53
 8805 1aa6 01        		.byte	0x1
 8806 1aa7 01        		.byte	0x1
 8807 1aa8 4C        		.uleb128 0x4c
 8808 1aa9 0000 0000 		.long	.LASF324
 8809 1aad 01        		.byte	0x1
 8810 1aae 3301      		.word	0x133
 8811 1ab0 530D 0000 		.long	0xd53
 8812 1ab4 01        		.byte	0x1
 8813 1ab5 01        		.byte	0x1
 8814 1ab6 4C        		.uleb128 0x4c
 8815 1ab7 0000 0000 		.long	.LASF325
 8816 1abb 01        		.byte	0x1
 8817 1abc 3301      		.word	0x133
 8818 1abe 530D 0000 		.long	0xd53
 8819 1ac2 01        		.byte	0x1
 8820 1ac3 01        		.byte	0x1
 8821 1ac4 4C        		.uleb128 0x4c
 8822 1ac5 0000 0000 		.long	.LASF313
 8823 1ac9 05        		.byte	0x5
 8824 1aca 9501      		.word	0x195
GAS LISTING /tmp/cchdpaIW.s 			page 156


 8825 1acc 001A 0000 		.long	0x1a00
 8826 1ad0 01        		.byte	0x1
 8827 1ad1 01        		.byte	0x1
 8828 1ad2 4E        		.uleb128 0x4e
 8829 1ad3 0000 0000 		.long	.LASF314
 8830 1ad7 01        		.byte	0x1
 8831 1ad8 38        		.byte	0x38
 8832 1ad9 3E00 0000 		.long	0x3e
 8833 1add 01        		.byte	0x1
 8834 1ade 05        		.byte	0x5
 8835 1adf 03        		.byte	0x3
 8836 1ae0 0000 0000 		.long	state
 8837 1ae4 4E        		.uleb128 0x4e
 8838 1ae5 0000 0000 		.long	.LASF326
 8839 1ae9 01        		.byte	0x1
 8840 1aea 39        		.byte	0x39
 8841 1aeb 3E00 0000 		.long	0x3e
 8842 1aef 01        		.byte	0x1
 8843 1af0 05        		.byte	0x5
 8844 1af1 03        		.byte	0x3
 8845 1af2 0000 0000 		.long	debugFlag
 8846 1af6 4E        		.uleb128 0x4e
 8847 1af7 0000 0000 		.long	.LASF315
 8848 1afb 01        		.byte	0x1
 8849 1afc 3A        		.byte	0x3a
 8850 1afd 7018 0000 		.long	0x1870
 8851 1b01 01        		.byte	0x1
 8852 1b02 05        		.byte	0x5
 8853 1b03 03        		.byte	0x3
 8854 1b04 0000 0000 		.long	goal
 8855 1b08 4E        		.uleb128 0x4e
 8856 1b09 0000 0000 		.long	.LASF316
 8857 1b0d 01        		.byte	0x1
 8858 1b0e 3B        		.byte	0x3b
 8859 1b0f 7018 0000 		.long	0x1870
 8860 1b13 01        		.byte	0x1
 8861 1b14 05        		.byte	0x5
 8862 1b15 03        		.byte	0x3
 8863 1b16 0000 0000 		.long	pose
 8864 1b1a 4E        		.uleb128 0x4e
 8865 1b1b 0000 0000 		.long	.LASF317
 8866 1b1f 01        		.byte	0x1
 8867 1b20 3C        		.byte	0x3c
 8868 1b21 4D1A 0000 		.long	0x1a4d
 8869 1b25 01        		.byte	0x1
 8870 1b26 05        		.byte	0x5
 8871 1b27 03        		.byte	0x3
 8872 1b28 0000 0000 		.long	elapsedMillis
 8873 1b2c 4E        		.uleb128 0x4e
 8874 1b2d 0000 0000 		.long	.LASF318
 8875 1b31 01        		.byte	0x1
 8876 1b32 3D        		.byte	0x3d
 8877 1b33 3E00 0000 		.long	0x3e
 8878 1b37 01        		.byte	0x1
 8879 1b38 05        		.byte	0x5
 8880 1b39 03        		.byte	0x3
 8881 1b3a 0000 0000 		.long	maxSpeed
GAS LISTING /tmp/cchdpaIW.s 			page 157


 8882 1b3e 4F        		.uleb128 0x4f
 8883 1b3f 0000 0000 		.long	.LASF320
 8884 1b43 01        		.byte	0x1
 8885 1b44 4001      		.word	0x140
 8886 1b46 530D 0000 		.long	0xd53
 8887 1b4a 01        		.byte	0x1
 8888 1b4b 05        		.byte	0x5
 8889 1b4c 03        		.byte	0x3
 8890 1b4d 0000 0000 		.long	Base
 8891 1b51 4F        		.uleb128 0x4f
 8892 1b52 0000 0000 		.long	.LASF321
 8893 1b56 01        		.byte	0x1
 8894 1b57 5401      		.word	0x154
 8895 1b59 530D 0000 		.long	0xd53
 8896 1b5d 01        		.byte	0x1
 8897 1b5e 05        		.byte	0x5
 8898 1b5f 03        		.byte	0x3
 8899 1b60 0000 0000 		.long	Shoulder
 8900 1b64 4F        		.uleb128 0x4f
 8901 1b65 0000 0000 		.long	.LASF322
 8902 1b69 01        		.byte	0x1
 8903 1b6a 6701      		.word	0x167
 8904 1b6c 530D 0000 		.long	0xd53
 8905 1b70 01        		.byte	0x1
 8906 1b71 05        		.byte	0x5
 8907 1b72 03        		.byte	0x3
 8908 1b73 0000 0000 		.long	Elbow
 8909 1b77 4F        		.uleb128 0x4f
 8910 1b78 0000 0000 		.long	.LASF323
 8911 1b7c 01        		.byte	0x1
 8912 1b7d 8D01      		.word	0x18d
 8913 1b7f 530D 0000 		.long	0xd53
 8914 1b83 01        		.byte	0x1
 8915 1b84 05        		.byte	0x5
 8916 1b85 03        		.byte	0x3
 8917 1b86 0000 0000 		.long	Left_Wrist
 8918 1b8a 4F        		.uleb128 0x4f
 8919 1b8b 0000 0000 		.long	.LASF324
 8920 1b8f 01        		.byte	0x1
 8921 1b90 7A01      		.word	0x17a
 8922 1b92 530D 0000 		.long	0xd53
 8923 1b96 01        		.byte	0x1
 8924 1b97 05        		.byte	0x5
 8925 1b98 03        		.byte	0x3
 8926 1b99 0000 0000 		.long	Right_Wrist
 8927 1b9d 4F        		.uleb128 0x4f
 8928 1b9e 0000 0000 		.long	.LASF325
 8929 1ba2 01        		.byte	0x1
 8930 1ba3 A101      		.word	0x1a1
 8931 1ba5 530D 0000 		.long	0xd53
 8932 1ba9 01        		.byte	0x1
 8933 1baa 05        		.byte	0x5
 8934 1bab 03        		.byte	0x3
 8935 1bac 0000 0000 		.long	Gripper
 8936 1bb0 00        		.byte	0x0
 8937               		.section	.debug_abbrev
 8938 0000 01        		.uleb128 0x1
GAS LISTING /tmp/cchdpaIW.s 			page 158


 8939 0001 11        		.uleb128 0x11
 8940 0002 01        		.byte	0x1
 8941 0003 25        		.uleb128 0x25
 8942 0004 0E        		.uleb128 0xe
 8943 0005 13        		.uleb128 0x13
 8944 0006 0B        		.uleb128 0xb
 8945 0007 03        		.uleb128 0x3
 8946 0008 0E        		.uleb128 0xe
 8947 0009 1B        		.uleb128 0x1b
 8948 000a 0E        		.uleb128 0xe
 8949 000b 11        		.uleb128 0x11
 8950 000c 01        		.uleb128 0x1
 8951 000d 12        		.uleb128 0x12
 8952 000e 01        		.uleb128 0x1
 8953 000f 10        		.uleb128 0x10
 8954 0010 06        		.uleb128 0x6
 8955 0011 00        		.byte	0x0
 8956 0012 00        		.byte	0x0
 8957 0013 02        		.uleb128 0x2
 8958 0014 24        		.uleb128 0x24
 8959 0015 00        		.byte	0x0
 8960 0016 0B        		.uleb128 0xb
 8961 0017 0B        		.uleb128 0xb
 8962 0018 3E        		.uleb128 0x3e
 8963 0019 0B        		.uleb128 0xb
 8964 001a 03        		.uleb128 0x3
 8965 001b 0E        		.uleb128 0xe
 8966 001c 00        		.byte	0x0
 8967 001d 00        		.byte	0x0
 8968 001e 03        		.uleb128 0x3
 8969 001f 16        		.uleb128 0x16
 8970 0020 00        		.byte	0x0
 8971 0021 03        		.uleb128 0x3
 8972 0022 0E        		.uleb128 0xe
 8973 0023 3A        		.uleb128 0x3a
 8974 0024 0B        		.uleb128 0xb
 8975 0025 3B        		.uleb128 0x3b
 8976 0026 0B        		.uleb128 0xb
 8977 0027 49        		.uleb128 0x49
 8978 0028 13        		.uleb128 0x13
 8979 0029 00        		.byte	0x0
 8980 002a 00        		.byte	0x0
 8981 002b 04        		.uleb128 0x4
 8982 002c 24        		.uleb128 0x24
 8983 002d 00        		.byte	0x0
 8984 002e 0B        		.uleb128 0xb
 8985 002f 0B        		.uleb128 0xb
 8986 0030 3E        		.uleb128 0x3e
 8987 0031 0B        		.uleb128 0xb
 8988 0032 03        		.uleb128 0x3
 8989 0033 08        		.uleb128 0x8
 8990 0034 00        		.byte	0x0
 8991 0035 00        		.byte	0x0
 8992 0036 05        		.uleb128 0x5
 8993 0037 13        		.uleb128 0x13
 8994 0038 01        		.byte	0x1
 8995 0039 03        		.uleb128 0x3
GAS LISTING /tmp/cchdpaIW.s 			page 159


 8996 003a 0E        		.uleb128 0xe
 8997 003b 0B        		.uleb128 0xb
 8998 003c 0B        		.uleb128 0xb
 8999 003d 3A        		.uleb128 0x3a
 9000 003e 0B        		.uleb128 0xb
 9001 003f 3B        		.uleb128 0x3b
 9002 0040 0B        		.uleb128 0xb
 9003 0041 01        		.uleb128 0x1
 9004 0042 13        		.uleb128 0x13
 9005 0043 00        		.byte	0x0
 9006 0044 00        		.byte	0x0
 9007 0045 06        		.uleb128 0x6
 9008 0046 0D        		.uleb128 0xd
 9009 0047 00        		.byte	0x0
 9010 0048 03        		.uleb128 0x3
 9011 0049 08        		.uleb128 0x8
 9012 004a 3A        		.uleb128 0x3a
 9013 004b 0B        		.uleb128 0xb
 9014 004c 3B        		.uleb128 0x3b
 9015 004d 0B        		.uleb128 0xb
 9016 004e 49        		.uleb128 0x49
 9017 004f 13        		.uleb128 0x13
 9018 0050 38        		.uleb128 0x38
 9019 0051 0A        		.uleb128 0xa
 9020 0052 00        		.byte	0x0
 9021 0053 00        		.byte	0x0
 9022 0054 07        		.uleb128 0x7
 9023 0055 0D        		.uleb128 0xd
 9024 0056 00        		.byte	0x0
 9025 0057 03        		.uleb128 0x3
 9026 0058 0E        		.uleb128 0xe
 9027 0059 3A        		.uleb128 0x3a
 9028 005a 0B        		.uleb128 0xb
 9029 005b 3B        		.uleb128 0x3b
 9030 005c 0B        		.uleb128 0xb
 9031 005d 49        		.uleb128 0x49
 9032 005e 13        		.uleb128 0x13
 9033 005f 38        		.uleb128 0x38
 9034 0060 0A        		.uleb128 0xa
 9035 0061 00        		.byte	0x0
 9036 0062 00        		.byte	0x0
 9037 0063 08        		.uleb128 0x8
 9038 0064 0D        		.uleb128 0xd
 9039 0065 00        		.byte	0x0
 9040 0066 03        		.uleb128 0x3
 9041 0067 0E        		.uleb128 0xe
 9042 0068 3A        		.uleb128 0x3a
 9043 0069 0B        		.uleb128 0xb
 9044 006a 3B        		.uleb128 0x3b
 9045 006b 05        		.uleb128 0x5
 9046 006c 49        		.uleb128 0x49
 9047 006d 13        		.uleb128 0x13
 9048 006e 38        		.uleb128 0x38
 9049 006f 0A        		.uleb128 0xa
 9050 0070 00        		.byte	0x0
 9051 0071 00        		.byte	0x0
 9052 0072 09        		.uleb128 0x9
GAS LISTING /tmp/cchdpaIW.s 			page 160


 9053 0073 0D        		.uleb128 0xd
 9054 0074 00        		.byte	0x0
 9055 0075 03        		.uleb128 0x3
 9056 0076 08        		.uleb128 0x8
 9057 0077 3A        		.uleb128 0x3a
 9058 0078 0B        		.uleb128 0xb
 9059 0079 3B        		.uleb128 0x3b
 9060 007a 05        		.uleb128 0x5
 9061 007b 49        		.uleb128 0x49
 9062 007c 13        		.uleb128 0x13
 9063 007d 38        		.uleb128 0x38
 9064 007e 0A        		.uleb128 0xa
 9065 007f 00        		.byte	0x0
 9066 0080 00        		.byte	0x0
 9067 0081 0A        		.uleb128 0xa
 9068 0082 0F        		.uleb128 0xf
 9069 0083 00        		.byte	0x0
 9070 0084 0B        		.uleb128 0xb
 9071 0085 0B        		.uleb128 0xb
 9072 0086 49        		.uleb128 0x49
 9073 0087 13        		.uleb128 0x13
 9074 0088 00        		.byte	0x0
 9075 0089 00        		.byte	0x0
 9076 008a 0B        		.uleb128 0xb
 9077 008b 15        		.uleb128 0x15
 9078 008c 01        		.byte	0x1
 9079 008d 27        		.uleb128 0x27
 9080 008e 0C        		.uleb128 0xc
 9081 008f 49        		.uleb128 0x49
 9082 0090 13        		.uleb128 0x13
 9083 0091 01        		.uleb128 0x1
 9084 0092 13        		.uleb128 0x13
 9085 0093 00        		.byte	0x0
 9086 0094 00        		.byte	0x0
 9087 0095 0C        		.uleb128 0xc
 9088 0096 05        		.uleb128 0x5
 9089 0097 00        		.byte	0x0
 9090 0098 49        		.uleb128 0x49
 9091 0099 13        		.uleb128 0x13
 9092 009a 00        		.byte	0x0
 9093 009b 00        		.byte	0x0
 9094 009c 0D        		.uleb128 0xd
 9095 009d 0F        		.uleb128 0xf
 9096 009e 00        		.byte	0x0
 9097 009f 0B        		.uleb128 0xb
 9098 00a0 0B        		.uleb128 0xb
 9099 00a1 00        		.byte	0x0
 9100 00a2 00        		.byte	0x0
 9101 00a3 0E        		.uleb128 0xe
 9102 00a4 35        		.uleb128 0x35
 9103 00a5 00        		.byte	0x0
 9104 00a6 49        		.uleb128 0x49
 9105 00a7 13        		.uleb128 0x13
 9106 00a8 00        		.byte	0x0
 9107 00a9 00        		.byte	0x0
 9108 00aa 0F        		.uleb128 0xf
 9109 00ab 04        		.uleb128 0x4
GAS LISTING /tmp/cchdpaIW.s 			page 161


 9110 00ac 01        		.byte	0x1
 9111 00ad 03        		.uleb128 0x3
 9112 00ae 0E        		.uleb128 0xe
 9113 00af 0B        		.uleb128 0xb
 9114 00b0 0B        		.uleb128 0xb
 9115 00b1 3A        		.uleb128 0x3a
 9116 00b2 0B        		.uleb128 0xb
 9117 00b3 3B        		.uleb128 0x3b
 9118 00b4 0B        		.uleb128 0xb
 9119 00b5 01        		.uleb128 0x1
 9120 00b6 13        		.uleb128 0x13
 9121 00b7 00        		.byte	0x0
 9122 00b8 00        		.byte	0x0
 9123 00b9 10        		.uleb128 0x10
 9124 00ba 28        		.uleb128 0x28
 9125 00bb 00        		.byte	0x0
 9126 00bc 03        		.uleb128 0x3
 9127 00bd 0E        		.uleb128 0xe
 9128 00be 1C        		.uleb128 0x1c
 9129 00bf 0D        		.uleb128 0xd
 9130 00c0 00        		.byte	0x0
 9131 00c1 00        		.byte	0x0
 9132 00c2 11        		.uleb128 0x11
 9133 00c3 13        		.uleb128 0x13
 9134 00c4 01        		.byte	0x1
 9135 00c5 03        		.uleb128 0x3
 9136 00c6 0E        		.uleb128 0xe
 9137 00c7 0B        		.uleb128 0xb
 9138 00c8 0B        		.uleb128 0xb
 9139 00c9 3A        		.uleb128 0x3a
 9140 00ca 0B        		.uleb128 0xb
 9141 00cb 3B        		.uleb128 0x3b
 9142 00cc 05        		.uleb128 0x5
 9143 00cd 01        		.uleb128 0x1
 9144 00ce 13        		.uleb128 0x13
 9145 00cf 00        		.byte	0x0
 9146 00d0 00        		.byte	0x0
 9147 00d1 12        		.uleb128 0x12
 9148 00d2 16        		.uleb128 0x16
 9149 00d3 00        		.byte	0x0
 9150 00d4 03        		.uleb128 0x3
 9151 00d5 0E        		.uleb128 0xe
 9152 00d6 3A        		.uleb128 0x3a
 9153 00d7 0B        		.uleb128 0xb
 9154 00d8 3B        		.uleb128 0x3b
 9155 00d9 05        		.uleb128 0x5
 9156 00da 49        		.uleb128 0x49
 9157 00db 13        		.uleb128 0x13
 9158 00dc 00        		.byte	0x0
 9159 00dd 00        		.byte	0x0
 9160 00de 13        		.uleb128 0x13
 9161 00df 04        		.uleb128 0x4
 9162 00e0 01        		.byte	0x1
 9163 00e1 03        		.uleb128 0x3
 9164 00e2 0E        		.uleb128 0xe
 9165 00e3 0B        		.uleb128 0xb
 9166 00e4 0B        		.uleb128 0xb
GAS LISTING /tmp/cchdpaIW.s 			page 162


 9167 00e5 3A        		.uleb128 0x3a
 9168 00e6 0B        		.uleb128 0xb
 9169 00e7 3B        		.uleb128 0x3b
 9170 00e8 05        		.uleb128 0x5
 9171 00e9 01        		.uleb128 0x1
 9172 00ea 13        		.uleb128 0x13
 9173 00eb 00        		.byte	0x0
 9174 00ec 00        		.byte	0x0
 9175 00ed 14        		.uleb128 0x14
 9176 00ee 13        		.uleb128 0x13
 9177 00ef 01        		.byte	0x1
 9178 00f0 0B        		.uleb128 0xb
 9179 00f1 0B        		.uleb128 0xb
 9180 00f2 3A        		.uleb128 0x3a
 9181 00f3 0B        		.uleb128 0xb
 9182 00f4 3B        		.uleb128 0x3b
 9183 00f5 05        		.uleb128 0x5
 9184 00f6 01        		.uleb128 0x1
 9185 00f7 13        		.uleb128 0x13
 9186 00f8 00        		.byte	0x0
 9187 00f9 00        		.byte	0x0
 9188 00fa 15        		.uleb128 0x15
 9189 00fb 17        		.uleb128 0x17
 9190 00fc 01        		.byte	0x1
 9191 00fd 0B        		.uleb128 0xb
 9192 00fe 0B        		.uleb128 0xb
 9193 00ff 3A        		.uleb128 0x3a
 9194 0100 0B        		.uleb128 0xb
 9195 0101 3B        		.uleb128 0x3b
 9196 0102 05        		.uleb128 0x5
 9197 0103 01        		.uleb128 0x1
 9198 0104 13        		.uleb128 0x13
 9199 0105 00        		.byte	0x0
 9200 0106 00        		.byte	0x0
 9201 0107 16        		.uleb128 0x16
 9202 0108 0D        		.uleb128 0xd
 9203 0109 00        		.byte	0x0
 9204 010a 03        		.uleb128 0x3
 9205 010b 08        		.uleb128 0x8
 9206 010c 3A        		.uleb128 0x3a
 9207 010d 0B        		.uleb128 0xb
 9208 010e 3B        		.uleb128 0x3b
 9209 010f 05        		.uleb128 0x5
 9210 0110 49        		.uleb128 0x49
 9211 0111 13        		.uleb128 0x13
 9212 0112 00        		.byte	0x0
 9213 0113 00        		.byte	0x0
 9214 0114 17        		.uleb128 0x17
 9215 0115 0D        		.uleb128 0xd
 9216 0116 00        		.byte	0x0
 9217 0117 49        		.uleb128 0x49
 9218 0118 13        		.uleb128 0x13
 9219 0119 00        		.byte	0x0
 9220 011a 00        		.byte	0x0
 9221 011b 18        		.uleb128 0x18
 9222 011c 0D        		.uleb128 0xd
 9223 011d 00        		.byte	0x0
GAS LISTING /tmp/cchdpaIW.s 			page 163


 9224 011e 03        		.uleb128 0x3
 9225 011f 0E        		.uleb128 0xe
 9226 0120 3A        		.uleb128 0x3a
 9227 0121 0B        		.uleb128 0xb
 9228 0122 3B        		.uleb128 0x3b
 9229 0123 05        		.uleb128 0x5
 9230 0124 49        		.uleb128 0x49
 9231 0125 13        		.uleb128 0x13
 9232 0126 00        		.byte	0x0
 9233 0127 00        		.byte	0x0
 9234 0128 19        		.uleb128 0x19
 9235 0129 0D        		.uleb128 0xd
 9236 012a 00        		.byte	0x0
 9237 012b 49        		.uleb128 0x49
 9238 012c 13        		.uleb128 0x13
 9239 012d 38        		.uleb128 0x38
 9240 012e 0A        		.uleb128 0xa
 9241 012f 00        		.byte	0x0
 9242 0130 00        		.byte	0x0
 9243 0131 1A        		.uleb128 0x1a
 9244 0132 2E        		.uleb128 0x2e
 9245 0133 01        		.byte	0x1
 9246 0134 03        		.uleb128 0x3
 9247 0135 0E        		.uleb128 0xe
 9248 0136 3A        		.uleb128 0x3a
 9249 0137 0B        		.uleb128 0xb
 9250 0138 3B        		.uleb128 0x3b
 9251 0139 0B        		.uleb128 0xb
 9252 013a 27        		.uleb128 0x27
 9253 013b 0C        		.uleb128 0xc
 9254 013c 20        		.uleb128 0x20
 9255 013d 0B        		.uleb128 0xb
 9256 013e 01        		.uleb128 0x1
 9257 013f 13        		.uleb128 0x13
 9258 0140 00        		.byte	0x0
 9259 0141 00        		.byte	0x0
 9260 0142 1B        		.uleb128 0x1b
 9261 0143 05        		.uleb128 0x5
 9262 0144 00        		.byte	0x0
 9263 0145 03        		.uleb128 0x3
 9264 0146 0E        		.uleb128 0xe
 9265 0147 3A        		.uleb128 0x3a
 9266 0148 0B        		.uleb128 0xb
 9267 0149 3B        		.uleb128 0x3b
 9268 014a 0B        		.uleb128 0xb
 9269 014b 49        		.uleb128 0x49
 9270 014c 13        		.uleb128 0x13
 9271 014d 00        		.byte	0x0
 9272 014e 00        		.byte	0x0
 9273 014f 1C        		.uleb128 0x1c
 9274 0150 34        		.uleb128 0x34
 9275 0151 00        		.byte	0x0
 9276 0152 03        		.uleb128 0x3
 9277 0153 0E        		.uleb128 0xe
 9278 0154 3A        		.uleb128 0x3a
 9279 0155 0B        		.uleb128 0xb
 9280 0156 3B        		.uleb128 0x3b
GAS LISTING /tmp/cchdpaIW.s 			page 164


 9281 0157 0B        		.uleb128 0xb
 9282 0158 49        		.uleb128 0x49
 9283 0159 13        		.uleb128 0x13
 9284 015a 00        		.byte	0x0
 9285 015b 00        		.byte	0x0
 9286 015c 1D        		.uleb128 0x1d
 9287 015d 2E        		.uleb128 0x2e
 9288 015e 01        		.byte	0x1
 9289 015f 3F        		.uleb128 0x3f
 9290 0160 0C        		.uleb128 0xc
 9291 0161 03        		.uleb128 0x3
 9292 0162 0E        		.uleb128 0xe
 9293 0163 3A        		.uleb128 0x3a
 9294 0164 0B        		.uleb128 0xb
 9295 0165 3B        		.uleb128 0x3b
 9296 0166 0B        		.uleb128 0xb
 9297 0167 27        		.uleb128 0x27
 9298 0168 0C        		.uleb128 0xc
 9299 0169 3C        		.uleb128 0x3c
 9300 016a 0C        		.uleb128 0xc
 9301 016b 00        		.byte	0x0
 9302 016c 00        		.byte	0x0
 9303 016d 1E        		.uleb128 0x1e
 9304 016e 2E        		.uleb128 0x2e
 9305 016f 00        		.byte	0x0
 9306 0170 3F        		.uleb128 0x3f
 9307 0171 0C        		.uleb128 0xc
 9308 0172 03        		.uleb128 0x3
 9309 0173 0E        		.uleb128 0xe
 9310 0174 3A        		.uleb128 0x3a
 9311 0175 0B        		.uleb128 0xb
 9312 0176 3B        		.uleb128 0x3b
 9313 0177 0B        		.uleb128 0xb
 9314 0178 27        		.uleb128 0x27
 9315 0179 0C        		.uleb128 0xc
 9316 017a 49        		.uleb128 0x49
 9317 017b 13        		.uleb128 0x13
 9318 017c 20        		.uleb128 0x20
 9319 017d 0B        		.uleb128 0xb
 9320 017e 00        		.byte	0x0
 9321 017f 00        		.byte	0x0
 9322 0180 1F        		.uleb128 0x1f
 9323 0181 2E        		.uleb128 0x2e
 9324 0182 01        		.byte	0x1
 9325 0183 3F        		.uleb128 0x3f
 9326 0184 0C        		.uleb128 0xc
 9327 0185 03        		.uleb128 0x3
 9328 0186 0E        		.uleb128 0xe
 9329 0187 3A        		.uleb128 0x3a
 9330 0188 0B        		.uleb128 0xb
 9331 0189 3B        		.uleb128 0x3b
 9332 018a 05        		.uleb128 0x5
 9333 018b 27        		.uleb128 0x27
 9334 018c 0C        		.uleb128 0xc
 9335 018d 20        		.uleb128 0x20
 9336 018e 0B        		.uleb128 0xb
 9337 018f 01        		.uleb128 0x1
GAS LISTING /tmp/cchdpaIW.s 			page 165


 9338 0190 13        		.uleb128 0x13
 9339 0191 00        		.byte	0x0
 9340 0192 00        		.byte	0x0
 9341 0193 20        		.uleb128 0x20
 9342 0194 05        		.uleb128 0x5
 9343 0195 00        		.byte	0x0
 9344 0196 03        		.uleb128 0x3
 9345 0197 0E        		.uleb128 0xe
 9346 0198 3A        		.uleb128 0x3a
 9347 0199 0B        		.uleb128 0xb
 9348 019a 3B        		.uleb128 0x3b
 9349 019b 05        		.uleb128 0x5
 9350 019c 49        		.uleb128 0x49
 9351 019d 13        		.uleb128 0x13
 9352 019e 00        		.byte	0x0
 9353 019f 00        		.byte	0x0
 9354 01a0 21        		.uleb128 0x21
 9355 01a1 2E        		.uleb128 0x2e
 9356 01a2 01        		.byte	0x1
 9357 01a3 3F        		.uleb128 0x3f
 9358 01a4 0C        		.uleb128 0xc
 9359 01a5 03        		.uleb128 0x3
 9360 01a6 0E        		.uleb128 0xe
 9361 01a7 3A        		.uleb128 0x3a
 9362 01a8 0B        		.uleb128 0xb
 9363 01a9 3B        		.uleb128 0x3b
 9364 01aa 0B        		.uleb128 0xb
 9365 01ab 27        		.uleb128 0x27
 9366 01ac 0C        		.uleb128 0xc
 9367 01ad 49        		.uleb128 0x49
 9368 01ae 13        		.uleb128 0x13
 9369 01af 20        		.uleb128 0x20
 9370 01b0 0B        		.uleb128 0xb
 9371 01b1 01        		.uleb128 0x1
 9372 01b2 13        		.uleb128 0x13
 9373 01b3 00        		.byte	0x0
 9374 01b4 00        		.byte	0x0
 9375 01b5 22        		.uleb128 0x22
 9376 01b6 05        		.uleb128 0x5
 9377 01b7 00        		.byte	0x0
 9378 01b8 03        		.uleb128 0x3
 9379 01b9 08        		.uleb128 0x8
 9380 01ba 3A        		.uleb128 0x3a
 9381 01bb 0B        		.uleb128 0xb
 9382 01bc 3B        		.uleb128 0x3b
 9383 01bd 0B        		.uleb128 0xb
 9384 01be 49        		.uleb128 0x49
 9385 01bf 13        		.uleb128 0x13
 9386 01c0 00        		.byte	0x0
 9387 01c1 00        		.byte	0x0
 9388 01c2 23        		.uleb128 0x23
 9389 01c3 2E        		.uleb128 0x2e
 9390 01c4 00        		.byte	0x0
 9391 01c5 03        		.uleb128 0x3
 9392 01c6 0E        		.uleb128 0xe
 9393 01c7 3A        		.uleb128 0x3a
 9394 01c8 0B        		.uleb128 0xb
GAS LISTING /tmp/cchdpaIW.s 			page 166


 9395 01c9 3B        		.uleb128 0x3b
 9396 01ca 0B        		.uleb128 0xb
 9397 01cb 27        		.uleb128 0x27
 9398 01cc 0C        		.uleb128 0xc
 9399 01cd 20        		.uleb128 0x20
 9400 01ce 0B        		.uleb128 0xb
 9401 01cf 00        		.byte	0x0
 9402 01d0 00        		.byte	0x0
 9403 01d1 24        		.uleb128 0x24
 9404 01d2 2E        		.uleb128 0x2e
 9405 01d3 01        		.byte	0x1
 9406 01d4 03        		.uleb128 0x3
 9407 01d5 0E        		.uleb128 0xe
 9408 01d6 3A        		.uleb128 0x3a
 9409 01d7 0B        		.uleb128 0xb
 9410 01d8 3B        		.uleb128 0x3b
 9411 01d9 0B        		.uleb128 0xb
 9412 01da 27        		.uleb128 0x27
 9413 01db 0C        		.uleb128 0xc
 9414 01dc 49        		.uleb128 0x49
 9415 01dd 13        		.uleb128 0x13
 9416 01de 11        		.uleb128 0x11
 9417 01df 01        		.uleb128 0x1
 9418 01e0 12        		.uleb128 0x12
 9419 01e1 01        		.uleb128 0x1
 9420 01e2 40        		.uleb128 0x40
 9421 01e3 0A        		.uleb128 0xa
 9422 01e4 01        		.uleb128 0x1
 9423 01e5 13        		.uleb128 0x13
 9424 01e6 00        		.byte	0x0
 9425 01e7 00        		.byte	0x0
 9426 01e8 25        		.uleb128 0x25
 9427 01e9 05        		.uleb128 0x5
 9428 01ea 00        		.byte	0x0
 9429 01eb 03        		.uleb128 0x3
 9430 01ec 08        		.uleb128 0x8
 9431 01ed 3A        		.uleb128 0x3a
 9432 01ee 0B        		.uleb128 0xb
 9433 01ef 3B        		.uleb128 0x3b
 9434 01f0 0B        		.uleb128 0xb
 9435 01f1 49        		.uleb128 0x49
 9436 01f2 13        		.uleb128 0x13
 9437 01f3 02        		.uleb128 0x2
 9438 01f4 06        		.uleb128 0x6
 9439 01f5 00        		.byte	0x0
 9440 01f6 00        		.byte	0x0
 9441 01f7 26        		.uleb128 0x26
 9442 01f8 05        		.uleb128 0x5
 9443 01f9 00        		.byte	0x0
 9444 01fa 03        		.uleb128 0x3
 9445 01fb 0E        		.uleb128 0xe
 9446 01fc 3A        		.uleb128 0x3a
 9447 01fd 0B        		.uleb128 0xb
 9448 01fe 3B        		.uleb128 0x3b
 9449 01ff 0B        		.uleb128 0xb
 9450 0200 49        		.uleb128 0x49
 9451 0201 13        		.uleb128 0x13
GAS LISTING /tmp/cchdpaIW.s 			page 167


 9452 0202 02        		.uleb128 0x2
 9453 0203 06        		.uleb128 0x6
 9454 0204 00        		.byte	0x0
 9455 0205 00        		.byte	0x0
 9456 0206 27        		.uleb128 0x27
 9457 0207 2E        		.uleb128 0x2e
 9458 0208 01        		.byte	0x1
 9459 0209 3F        		.uleb128 0x3f
 9460 020a 0C        		.uleb128 0xc
 9461 020b 03        		.uleb128 0x3
 9462 020c 0E        		.uleb128 0xe
 9463 020d 3A        		.uleb128 0x3a
 9464 020e 0B        		.uleb128 0xb
 9465 020f 3B        		.uleb128 0x3b
 9466 0210 0B        		.uleb128 0xb
 9467 0211 27        		.uleb128 0x27
 9468 0212 0C        		.uleb128 0xc
 9469 0213 11        		.uleb128 0x11
 9470 0214 01        		.uleb128 0x1
 9471 0215 12        		.uleb128 0x12
 9472 0216 01        		.uleb128 0x1
 9473 0217 40        		.uleb128 0x40
 9474 0218 0A        		.uleb128 0xa
 9475 0219 01        		.uleb128 0x1
 9476 021a 13        		.uleb128 0x13
 9477 021b 00        		.byte	0x0
 9478 021c 00        		.byte	0x0
 9479 021d 28        		.uleb128 0x28
 9480 021e 05        		.uleb128 0x5
 9481 021f 00        		.byte	0x0
 9482 0220 03        		.uleb128 0x3
 9483 0221 0E        		.uleb128 0xe
 9484 0222 3A        		.uleb128 0x3a
 9485 0223 0B        		.uleb128 0xb
 9486 0224 3B        		.uleb128 0x3b
 9487 0225 0B        		.uleb128 0xb
 9488 0226 49        		.uleb128 0x49
 9489 0227 13        		.uleb128 0x13
 9490 0228 02        		.uleb128 0x2
 9491 0229 0A        		.uleb128 0xa
 9492 022a 00        		.byte	0x0
 9493 022b 00        		.byte	0x0
 9494 022c 29        		.uleb128 0x29
 9495 022d 34        		.uleb128 0x34
 9496 022e 00        		.byte	0x0
 9497 022f 03        		.uleb128 0x3
 9498 0230 0E        		.uleb128 0xe
 9499 0231 3A        		.uleb128 0x3a
 9500 0232 0B        		.uleb128 0xb
 9501 0233 3B        		.uleb128 0x3b
 9502 0234 0B        		.uleb128 0xb
 9503 0235 49        		.uleb128 0x49
 9504 0236 13        		.uleb128 0x13
 9505 0237 02        		.uleb128 0x2
 9506 0238 0A        		.uleb128 0xa
 9507 0239 00        		.byte	0x0
 9508 023a 00        		.byte	0x0
GAS LISTING /tmp/cchdpaIW.s 			page 168


 9509 023b 2A        		.uleb128 0x2a
 9510 023c 34        		.uleb128 0x34
 9511 023d 00        		.byte	0x0
 9512 023e 03        		.uleb128 0x3
 9513 023f 0E        		.uleb128 0xe
 9514 0240 3A        		.uleb128 0x3a
 9515 0241 0B        		.uleb128 0xb
 9516 0242 3B        		.uleb128 0x3b
 9517 0243 0B        		.uleb128 0xb
 9518 0244 49        		.uleb128 0x49
 9519 0245 13        		.uleb128 0x13
 9520 0246 02        		.uleb128 0x2
 9521 0247 06        		.uleb128 0x6
 9522 0248 00        		.byte	0x0
 9523 0249 00        		.byte	0x0
 9524 024a 2B        		.uleb128 0x2b
 9525 024b 2E        		.uleb128 0x2e
 9526 024c 01        		.byte	0x1
 9527 024d 3F        		.uleb128 0x3f
 9528 024e 0C        		.uleb128 0xc
 9529 024f 03        		.uleb128 0x3
 9530 0250 0E        		.uleb128 0xe
 9531 0251 3A        		.uleb128 0x3a
 9532 0252 0B        		.uleb128 0xb
 9533 0253 3B        		.uleb128 0x3b
 9534 0254 0B        		.uleb128 0xb
 9535 0255 27        		.uleb128 0x27
 9536 0256 0C        		.uleb128 0xc
 9537 0257 49        		.uleb128 0x49
 9538 0258 13        		.uleb128 0x13
 9539 0259 11        		.uleb128 0x11
 9540 025a 01        		.uleb128 0x1
 9541 025b 12        		.uleb128 0x12
 9542 025c 01        		.uleb128 0x1
 9543 025d 40        		.uleb128 0x40
 9544 025e 0A        		.uleb128 0xa
 9545 025f 01        		.uleb128 0x1
 9546 0260 13        		.uleb128 0x13
 9547 0261 00        		.byte	0x0
 9548 0262 00        		.byte	0x0
 9549 0263 2C        		.uleb128 0x2c
 9550 0264 2E        		.uleb128 0x2e
 9551 0265 01        		.byte	0x1
 9552 0266 3F        		.uleb128 0x3f
 9553 0267 0C        		.uleb128 0xc
 9554 0268 03        		.uleb128 0x3
 9555 0269 0E        		.uleb128 0xe
 9556 026a 3A        		.uleb128 0x3a
 9557 026b 0B        		.uleb128 0xb
 9558 026c 3B        		.uleb128 0x3b
 9559 026d 05        		.uleb128 0x5
 9560 026e 27        		.uleb128 0x27
 9561 026f 0C        		.uleb128 0xc
 9562 0270 11        		.uleb128 0x11
 9563 0271 01        		.uleb128 0x1
 9564 0272 12        		.uleb128 0x12
 9565 0273 01        		.uleb128 0x1
GAS LISTING /tmp/cchdpaIW.s 			page 169


 9566 0274 40        		.uleb128 0x40
 9567 0275 0A        		.uleb128 0xa
 9568 0276 01        		.uleb128 0x1
 9569 0277 13        		.uleb128 0x13
 9570 0278 00        		.byte	0x0
 9571 0279 00        		.byte	0x0
 9572 027a 2D        		.uleb128 0x2d
 9573 027b 05        		.uleb128 0x5
 9574 027c 00        		.byte	0x0
 9575 027d 03        		.uleb128 0x3
 9576 027e 0E        		.uleb128 0xe
 9577 027f 3A        		.uleb128 0x3a
 9578 0280 0B        		.uleb128 0xb
 9579 0281 3B        		.uleb128 0x3b
 9580 0282 05        		.uleb128 0x5
 9581 0283 49        		.uleb128 0x49
 9582 0284 13        		.uleb128 0x13
 9583 0285 02        		.uleb128 0x2
 9584 0286 06        		.uleb128 0x6
 9585 0287 00        		.byte	0x0
 9586 0288 00        		.byte	0x0
 9587 0289 2E        		.uleb128 0x2e
 9588 028a 05        		.uleb128 0x5
 9589 028b 00        		.byte	0x0
 9590 028c 03        		.uleb128 0x3
 9591 028d 0E        		.uleb128 0xe
 9592 028e 3A        		.uleb128 0x3a
 9593 028f 0B        		.uleb128 0xb
 9594 0290 3B        		.uleb128 0x3b
 9595 0291 05        		.uleb128 0x5
 9596 0292 49        		.uleb128 0x49
 9597 0293 13        		.uleb128 0x13
 9598 0294 02        		.uleb128 0x2
 9599 0295 0A        		.uleb128 0xa
 9600 0296 00        		.byte	0x0
 9601 0297 00        		.byte	0x0
 9602 0298 2F        		.uleb128 0x2f
 9603 0299 2E        		.uleb128 0x2e
 9604 029a 00        		.byte	0x0
 9605 029b 3F        		.uleb128 0x3f
 9606 029c 0C        		.uleb128 0xc
 9607 029d 03        		.uleb128 0x3
 9608 029e 0E        		.uleb128 0xe
 9609 029f 3A        		.uleb128 0x3a
 9610 02a0 0B        		.uleb128 0xb
 9611 02a1 3B        		.uleb128 0x3b
 9612 02a2 05        		.uleb128 0x5
 9613 02a3 27        		.uleb128 0x27
 9614 02a4 0C        		.uleb128 0xc
 9615 02a5 11        		.uleb128 0x11
 9616 02a6 01        		.uleb128 0x1
 9617 02a7 12        		.uleb128 0x12
 9618 02a8 01        		.uleb128 0x1
 9619 02a9 40        		.uleb128 0x40
 9620 02aa 0A        		.uleb128 0xa
 9621 02ab 00        		.byte	0x0
 9622 02ac 00        		.byte	0x0
GAS LISTING /tmp/cchdpaIW.s 			page 170


 9623 02ad 30        		.uleb128 0x30
 9624 02ae 2E        		.uleb128 0x2e
 9625 02af 00        		.byte	0x0
 9626 02b0 3F        		.uleb128 0x3f
 9627 02b1 0C        		.uleb128 0xc
 9628 02b2 03        		.uleb128 0x3
 9629 02b3 0E        		.uleb128 0xe
 9630 02b4 3A        		.uleb128 0x3a
 9631 02b5 0B        		.uleb128 0xb
 9632 02b6 3B        		.uleb128 0x3b
 9633 02b7 0B        		.uleb128 0xb
 9634 02b8 27        		.uleb128 0x27
 9635 02b9 0C        		.uleb128 0xc
 9636 02ba 11        		.uleb128 0x11
 9637 02bb 01        		.uleb128 0x1
 9638 02bc 12        		.uleb128 0x12
 9639 02bd 01        		.uleb128 0x1
 9640 02be 40        		.uleb128 0x40
 9641 02bf 0A        		.uleb128 0xa
 9642 02c0 00        		.byte	0x0
 9643 02c1 00        		.byte	0x0
 9644 02c2 31        		.uleb128 0x31
 9645 02c3 2E        		.uleb128 0x2e
 9646 02c4 00        		.byte	0x0
 9647 02c5 3F        		.uleb128 0x3f
 9648 02c6 0C        		.uleb128 0xc
 9649 02c7 03        		.uleb128 0x3
 9650 02c8 0E        		.uleb128 0xe
 9651 02c9 3A        		.uleb128 0x3a
 9652 02ca 0B        		.uleb128 0xb
 9653 02cb 3B        		.uleb128 0x3b
 9654 02cc 0B        		.uleb128 0xb
 9655 02cd 27        		.uleb128 0x27
 9656 02ce 0C        		.uleb128 0xc
 9657 02cf 49        		.uleb128 0x49
 9658 02d0 13        		.uleb128 0x13
 9659 02d1 11        		.uleb128 0x11
 9660 02d2 01        		.uleb128 0x1
 9661 02d3 12        		.uleb128 0x12
 9662 02d4 01        		.uleb128 0x1
 9663 02d5 40        		.uleb128 0x40
 9664 02d6 0A        		.uleb128 0xa
 9665 02d7 00        		.byte	0x0
 9666 02d8 00        		.byte	0x0
 9667 02d9 32        		.uleb128 0x32
 9668 02da 34        		.uleb128 0x34
 9669 02db 00        		.byte	0x0
 9670 02dc 03        		.uleb128 0x3
 9671 02dd 0E        		.uleb128 0xe
 9672 02de 3A        		.uleb128 0x3a
 9673 02df 0B        		.uleb128 0xb
 9674 02e0 3B        		.uleb128 0x3b
 9675 02e1 05        		.uleb128 0x5
 9676 02e2 49        		.uleb128 0x49
 9677 02e3 13        		.uleb128 0x13
 9678 02e4 02        		.uleb128 0x2
 9679 02e5 0A        		.uleb128 0xa
GAS LISTING /tmp/cchdpaIW.s 			page 171


 9680 02e6 00        		.byte	0x0
 9681 02e7 00        		.byte	0x0
 9682 02e8 33        		.uleb128 0x33
 9683 02e9 34        		.uleb128 0x34
 9684 02ea 00        		.byte	0x0
 9685 02eb 03        		.uleb128 0x3
 9686 02ec 08        		.uleb128 0x8
 9687 02ed 3A        		.uleb128 0x3a
 9688 02ee 0B        		.uleb128 0xb
 9689 02ef 3B        		.uleb128 0x3b
 9690 02f0 05        		.uleb128 0x5
 9691 02f1 49        		.uleb128 0x49
 9692 02f2 13        		.uleb128 0x13
 9693 02f3 02        		.uleb128 0x2
 9694 02f4 06        		.uleb128 0x6
 9695 02f5 00        		.byte	0x0
 9696 02f6 00        		.byte	0x0
 9697 02f7 34        		.uleb128 0x34
 9698 02f8 1D        		.uleb128 0x1d
 9699 02f9 01        		.byte	0x1
 9700 02fa 31        		.uleb128 0x31
 9701 02fb 13        		.uleb128 0x13
 9702 02fc 11        		.uleb128 0x11
 9703 02fd 01        		.uleb128 0x1
 9704 02fe 12        		.uleb128 0x12
 9705 02ff 01        		.uleb128 0x1
 9706 0300 58        		.uleb128 0x58
 9707 0301 0B        		.uleb128 0xb
 9708 0302 59        		.uleb128 0x59
 9709 0303 05        		.uleb128 0x5
 9710 0304 00        		.byte	0x0
 9711 0305 00        		.byte	0x0
 9712 0306 35        		.uleb128 0x35
 9713 0307 05        		.uleb128 0x5
 9714 0308 00        		.byte	0x0
 9715 0309 31        		.uleb128 0x31
 9716 030a 13        		.uleb128 0x13
 9717 030b 02        		.uleb128 0x2
 9718 030c 06        		.uleb128 0x6
 9719 030d 00        		.byte	0x0
 9720 030e 00        		.byte	0x0
 9721 030f 36        		.uleb128 0x36
 9722 0310 01        		.uleb128 0x1
 9723 0311 01        		.byte	0x1
 9724 0312 49        		.uleb128 0x49
 9725 0313 13        		.uleb128 0x13
 9726 0314 01        		.uleb128 0x1
 9727 0315 13        		.uleb128 0x13
 9728 0316 00        		.byte	0x0
 9729 0317 00        		.byte	0x0
 9730 0318 37        		.uleb128 0x37
 9731 0319 21        		.uleb128 0x21
 9732 031a 00        		.byte	0x0
 9733 031b 49        		.uleb128 0x49
 9734 031c 13        		.uleb128 0x13
 9735 031d 2F        		.uleb128 0x2f
 9736 031e 0B        		.uleb128 0xb
GAS LISTING /tmp/cchdpaIW.s 			page 172


 9737 031f 00        		.byte	0x0
 9738 0320 00        		.byte	0x0
 9739 0321 38        		.uleb128 0x38
 9740 0322 1D        		.uleb128 0x1d
 9741 0323 01        		.byte	0x1
 9742 0324 31        		.uleb128 0x31
 9743 0325 13        		.uleb128 0x13
 9744 0326 11        		.uleb128 0x11
 9745 0327 01        		.uleb128 0x1
 9746 0328 12        		.uleb128 0x12
 9747 0329 01        		.uleb128 0x1
 9748 032a 58        		.uleb128 0x58
 9749 032b 0B        		.uleb128 0xb
 9750 032c 59        		.uleb128 0x59
 9751 032d 0B        		.uleb128 0xb
 9752 032e 00        		.byte	0x0
 9753 032f 00        		.byte	0x0
 9754 0330 39        		.uleb128 0x39
 9755 0331 0B        		.uleb128 0xb
 9756 0332 01        		.byte	0x1
 9757 0333 11        		.uleb128 0x11
 9758 0334 01        		.uleb128 0x1
 9759 0335 12        		.uleb128 0x12
 9760 0336 01        		.uleb128 0x1
 9761 0337 00        		.byte	0x0
 9762 0338 00        		.byte	0x0
 9763 0339 3A        		.uleb128 0x3a
 9764 033a 34        		.uleb128 0x34
 9765 033b 00        		.byte	0x0
 9766 033c 31        		.uleb128 0x31
 9767 033d 13        		.uleb128 0x13
 9768 033e 00        		.byte	0x0
 9769 033f 00        		.byte	0x0
 9770 0340 3B        		.uleb128 0x3b
 9771 0341 34        		.uleb128 0x34
 9772 0342 00        		.byte	0x0
 9773 0343 31        		.uleb128 0x31
 9774 0344 13        		.uleb128 0x13
 9775 0345 02        		.uleb128 0x2
 9776 0346 06        		.uleb128 0x6
 9777 0347 00        		.byte	0x0
 9778 0348 00        		.byte	0x0
 9779 0349 3C        		.uleb128 0x3c
 9780 034a 05        		.uleb128 0x5
 9781 034b 00        		.byte	0x0
 9782 034c 03        		.uleb128 0x3
 9783 034d 08        		.uleb128 0x8
 9784 034e 3A        		.uleb128 0x3a
 9785 034f 0B        		.uleb128 0xb
 9786 0350 3B        		.uleb128 0x3b
 9787 0351 0B        		.uleb128 0xb
 9788 0352 49        		.uleb128 0x49
 9789 0353 13        		.uleb128 0x13
 9790 0354 02        		.uleb128 0x2
 9791 0355 0A        		.uleb128 0xa
 9792 0356 00        		.byte	0x0
 9793 0357 00        		.byte	0x0
GAS LISTING /tmp/cchdpaIW.s 			page 173


 9794 0358 3D        		.uleb128 0x3d
 9795 0359 2E        		.uleb128 0x2e
 9796 035a 01        		.byte	0x1
 9797 035b 31        		.uleb128 0x31
 9798 035c 13        		.uleb128 0x13
 9799 035d 11        		.uleb128 0x11
 9800 035e 01        		.uleb128 0x1
 9801 035f 12        		.uleb128 0x12
 9802 0360 01        		.uleb128 0x1
 9803 0361 40        		.uleb128 0x40
 9804 0362 0A        		.uleb128 0xa
 9805 0363 01        		.uleb128 0x1
 9806 0364 13        		.uleb128 0x13
 9807 0365 00        		.byte	0x0
 9808 0366 00        		.byte	0x0
 9809 0367 3E        		.uleb128 0x3e
 9810 0368 2E        		.uleb128 0x2e
 9811 0369 00        		.byte	0x0
 9812 036a 31        		.uleb128 0x31
 9813 036b 13        		.uleb128 0x13
 9814 036c 11        		.uleb128 0x11
 9815 036d 01        		.uleb128 0x1
 9816 036e 12        		.uleb128 0x12
 9817 036f 01        		.uleb128 0x1
 9818 0370 40        		.uleb128 0x40
 9819 0371 0A        		.uleb128 0xa
 9820 0372 00        		.byte	0x0
 9821 0373 00        		.byte	0x0
 9822 0374 3F        		.uleb128 0x3f
 9823 0375 34        		.uleb128 0x34
 9824 0376 00        		.byte	0x0
 9825 0377 03        		.uleb128 0x3
 9826 0378 08        		.uleb128 0x8
 9827 0379 3A        		.uleb128 0x3a
 9828 037a 0B        		.uleb128 0xb
 9829 037b 3B        		.uleb128 0x3b
 9830 037c 0B        		.uleb128 0xb
 9831 037d 49        		.uleb128 0x49
 9832 037e 13        		.uleb128 0x13
 9833 037f 02        		.uleb128 0x2
 9834 0380 06        		.uleb128 0x6
 9835 0381 00        		.byte	0x0
 9836 0382 00        		.byte	0x0
 9837 0383 40        		.uleb128 0x40
 9838 0384 05        		.uleb128 0x5
 9839 0385 00        		.byte	0x0
 9840 0386 31        		.uleb128 0x31
 9841 0387 13        		.uleb128 0x13
 9842 0388 02        		.uleb128 0x2
 9843 0389 0A        		.uleb128 0xa
 9844 038a 00        		.byte	0x0
 9845 038b 00        		.byte	0x0
 9846 038c 41        		.uleb128 0x41
 9847 038d 34        		.uleb128 0x34
 9848 038e 00        		.byte	0x0
 9849 038f 03        		.uleb128 0x3
 9850 0390 0E        		.uleb128 0xe
GAS LISTING /tmp/cchdpaIW.s 			page 174


 9851 0391 3A        		.uleb128 0x3a
 9852 0392 0B        		.uleb128 0xb
 9853 0393 3B        		.uleb128 0x3b
 9854 0394 05        		.uleb128 0x5
 9855 0395 49        		.uleb128 0x49
 9856 0396 13        		.uleb128 0x13
 9857 0397 02        		.uleb128 0x2
 9858 0398 06        		.uleb128 0x6
 9859 0399 00        		.byte	0x0
 9860 039a 00        		.byte	0x0
 9861 039b 42        		.uleb128 0x42
 9862 039c 1D        		.uleb128 0x1d
 9863 039d 00        		.byte	0x0
 9864 039e 31        		.uleb128 0x31
 9865 039f 13        		.uleb128 0x13
 9866 03a0 11        		.uleb128 0x11
 9867 03a1 01        		.uleb128 0x1
 9868 03a2 12        		.uleb128 0x12
 9869 03a3 01        		.uleb128 0x1
 9870 03a4 58        		.uleb128 0x58
 9871 03a5 0B        		.uleb128 0xb
 9872 03a6 59        		.uleb128 0x59
 9873 03a7 05        		.uleb128 0x5
 9874 03a8 00        		.byte	0x0
 9875 03a9 00        		.byte	0x0
 9876 03aa 43        		.uleb128 0x43
 9877 03ab 1D        		.uleb128 0x1d
 9878 03ac 01        		.byte	0x1
 9879 03ad 31        		.uleb128 0x31
 9880 03ae 13        		.uleb128 0x13
 9881 03af 52        		.uleb128 0x52
 9882 03b0 01        		.uleb128 0x1
 9883 03b1 55        		.uleb128 0x55
 9884 03b2 06        		.uleb128 0x6
 9885 03b3 58        		.uleb128 0x58
 9886 03b4 0B        		.uleb128 0xb
 9887 03b5 59        		.uleb128 0x59
 9888 03b6 05        		.uleb128 0x5
 9889 03b7 01        		.uleb128 0x1
 9890 03b8 13        		.uleb128 0x13
 9891 03b9 00        		.byte	0x0
 9892 03ba 00        		.byte	0x0
 9893 03bb 44        		.uleb128 0x44
 9894 03bc 05        		.uleb128 0x5
 9895 03bd 00        		.byte	0x0
 9896 03be 31        		.uleb128 0x31
 9897 03bf 13        		.uleb128 0x13
 9898 03c0 00        		.byte	0x0
 9899 03c1 00        		.byte	0x0
 9900 03c2 45        		.uleb128 0x45
 9901 03c3 1D        		.uleb128 0x1d
 9902 03c4 01        		.byte	0x1
 9903 03c5 31        		.uleb128 0x31
 9904 03c6 13        		.uleb128 0x13
 9905 03c7 11        		.uleb128 0x11
 9906 03c8 01        		.uleb128 0x1
 9907 03c9 12        		.uleb128 0x12
GAS LISTING /tmp/cchdpaIW.s 			page 175


 9908 03ca 01        		.uleb128 0x1
 9909 03cb 58        		.uleb128 0x58
 9910 03cc 0B        		.uleb128 0xb
 9911 03cd 59        		.uleb128 0x59
 9912 03ce 05        		.uleb128 0x5
 9913 03cf 01        		.uleb128 0x1
 9914 03d0 13        		.uleb128 0x13
 9915 03d1 00        		.byte	0x0
 9916 03d2 00        		.byte	0x0
 9917 03d3 46        		.uleb128 0x46
 9918 03d4 0B        		.uleb128 0xb
 9919 03d5 01        		.byte	0x1
 9920 03d6 55        		.uleb128 0x55
 9921 03d7 06        		.uleb128 0x6
 9922 03d8 01        		.uleb128 0x1
 9923 03d9 13        		.uleb128 0x13
 9924 03da 00        		.byte	0x0
 9925 03db 00        		.byte	0x0
 9926 03dc 47        		.uleb128 0x47
 9927 03dd 2E        		.uleb128 0x2e
 9928 03de 01        		.byte	0x1
 9929 03df 3F        		.uleb128 0x3f
 9930 03e0 0C        		.uleb128 0xc
 9931 03e1 03        		.uleb128 0x3
 9932 03e2 0E        		.uleb128 0xe
 9933 03e3 3A        		.uleb128 0x3a
 9934 03e4 0B        		.uleb128 0xb
 9935 03e5 3B        		.uleb128 0x3b
 9936 03e6 05        		.uleb128 0x5
 9937 03e7 49        		.uleb128 0x49
 9938 03e8 13        		.uleb128 0x13
 9939 03e9 3C        		.uleb128 0x3c
 9940 03ea 0C        		.uleb128 0xc
 9941 03eb 00        		.byte	0x0
 9942 03ec 00        		.byte	0x0
 9943 03ed 48        		.uleb128 0x48
 9944 03ee 18        		.uleb128 0x18
 9945 03ef 00        		.byte	0x0
 9946 03f0 00        		.byte	0x0
 9947 03f1 00        		.byte	0x0
 9948 03f2 49        		.uleb128 0x49
 9949 03f3 34        		.uleb128 0x34
 9950 03f4 00        		.byte	0x0
 9951 03f5 03        		.uleb128 0x3
 9952 03f6 08        		.uleb128 0x8
 9953 03f7 3A        		.uleb128 0x3a
 9954 03f8 0B        		.uleb128 0xb
 9955 03f9 3B        		.uleb128 0x3b
 9956 03fa 05        		.uleb128 0x5
 9957 03fb 49        		.uleb128 0x49
 9958 03fc 13        		.uleb128 0x13
 9959 03fd 00        		.byte	0x0
 9960 03fe 00        		.byte	0x0
 9961 03ff 4A        		.uleb128 0x4a
 9962 0400 2E        		.uleb128 0x2e
 9963 0401 00        		.byte	0x0
 9964 0402 3F        		.uleb128 0x3f
GAS LISTING /tmp/cchdpaIW.s 			page 176


 9965 0403 0C        		.uleb128 0xc
 9966 0404 03        		.uleb128 0x3
 9967 0405 0E        		.uleb128 0xe
 9968 0406 3A        		.uleb128 0x3a
 9969 0407 0B        		.uleb128 0xb
 9970 0408 3B        		.uleb128 0x3b
 9971 0409 05        		.uleb128 0x5
 9972 040a 27        		.uleb128 0x27
 9973 040b 0C        		.uleb128 0xc
 9974 040c 49        		.uleb128 0x49
 9975 040d 13        		.uleb128 0x13
 9976 040e 11        		.uleb128 0x11
 9977 040f 01        		.uleb128 0x1
 9978 0410 12        		.uleb128 0x12
 9979 0411 01        		.uleb128 0x1
 9980 0412 40        		.uleb128 0x40
 9981 0413 0A        		.uleb128 0xa
 9982 0414 00        		.byte	0x0
 9983 0415 00        		.byte	0x0
 9984 0416 4B        		.uleb128 0x4b
 9985 0417 21        		.uleb128 0x21
 9986 0418 00        		.byte	0x0
 9987 0419 00        		.byte	0x0
 9988 041a 00        		.byte	0x0
 9989 041b 4C        		.uleb128 0x4c
 9990 041c 34        		.uleb128 0x34
 9991 041d 00        		.byte	0x0
 9992 041e 03        		.uleb128 0x3
 9993 041f 0E        		.uleb128 0xe
 9994 0420 3A        		.uleb128 0x3a
 9995 0421 0B        		.uleb128 0xb
 9996 0422 3B        		.uleb128 0x3b
 9997 0423 05        		.uleb128 0x5
 9998 0424 49        		.uleb128 0x49
 9999 0425 13        		.uleb128 0x13
 10000 0426 3F        		.uleb128 0x3f
 10001 0427 0C        		.uleb128 0xc
 10002 0428 3C        		.uleb128 0x3c
 10003 0429 0C        		.uleb128 0xc
 10004 042a 00        		.byte	0x0
 10005 042b 00        		.byte	0x0
 10006 042c 4D        		.uleb128 0x4d
 10007 042d 34        		.uleb128 0x34
 10008 042e 00        		.byte	0x0
 10009 042f 03        		.uleb128 0x3
 10010 0430 0E        		.uleb128 0xe
 10011 0431 3A        		.uleb128 0x3a
 10012 0432 0B        		.uleb128 0xb
 10013 0433 3B        		.uleb128 0x3b
 10014 0434 0B        		.uleb128 0xb
 10015 0435 49        		.uleb128 0x49
 10016 0436 13        		.uleb128 0x13
 10017 0437 3F        		.uleb128 0x3f
 10018 0438 0C        		.uleb128 0xc
 10019 0439 3C        		.uleb128 0x3c
 10020 043a 0C        		.uleb128 0xc
 10021 043b 00        		.byte	0x0
GAS LISTING /tmp/cchdpaIW.s 			page 177


 10022 043c 00        		.byte	0x0
 10023 043d 4E        		.uleb128 0x4e
 10024 043e 34        		.uleb128 0x34
 10025 043f 00        		.byte	0x0
 10026 0440 03        		.uleb128 0x3
 10027 0441 0E        		.uleb128 0xe
 10028 0442 3A        		.uleb128 0x3a
 10029 0443 0B        		.uleb128 0xb
 10030 0444 3B        		.uleb128 0x3b
 10031 0445 0B        		.uleb128 0xb
 10032 0446 49        		.uleb128 0x49
 10033 0447 13        		.uleb128 0x13
 10034 0448 3F        		.uleb128 0x3f
 10035 0449 0C        		.uleb128 0xc
 10036 044a 02        		.uleb128 0x2
 10037 044b 0A        		.uleb128 0xa
 10038 044c 00        		.byte	0x0
 10039 044d 00        		.byte	0x0
 10040 044e 4F        		.uleb128 0x4f
 10041 044f 34        		.uleb128 0x34
 10042 0450 00        		.byte	0x0
 10043 0451 03        		.uleb128 0x3
 10044 0452 0E        		.uleb128 0xe
 10045 0453 3A        		.uleb128 0x3a
 10046 0454 0B        		.uleb128 0xb
 10047 0455 3B        		.uleb128 0x3b
 10048 0456 05        		.uleb128 0x5
 10049 0457 49        		.uleb128 0x49
 10050 0458 13        		.uleb128 0x13
 10051 0459 3F        		.uleb128 0x3f
 10052 045a 0C        		.uleb128 0xc
 10053 045b 02        		.uleb128 0x2
 10054 045c 0A        		.uleb128 0xa
 10055 045d 00        		.byte	0x0
 10056 045e 00        		.byte	0x0
 10057 045f 00        		.byte	0x0
 10058               		.section	.debug_pubnames,"",@progbits
 10059 0000 C802 0000 		.long	0x2c8
 10060 0004 0200      		.word	0x2
 10061 0006 0000 0000 		.long	.Ldebug_info0
 10062 000a B11B 0000 		.long	0x1bb1
 10063 000e B20F 0000 		.long	0xfb2
 10064 0012 4343 5057 		.string	"CCPWrite"
 10064      7269 7465 
 10064      00
 10065 001b 0A10 0000 		.long	0x100a
 10066 001f 434C 4B53 		.string	"CLKSYS_XOSC_Config"
 10066      5953 5F58 
 10066      4F53 435F 
 10066      436F 6E66 
 10066      6967 00
 10067 0032 5410 0000 		.long	0x1054
 10068 0036 434C 4B53 		.string	"CLKSYS_PLL_Config"
 10068      5953 5F50 
 10068      4C4C 5F43 
 10068      6F6E 6669 
 10068      6700 
GAS LISTING /tmp/cchdpaIW.s 			page 178


 10069 0048 8A10 0000 		.long	0x108a
 10070 004c 434C 4B53 		.string	"CLKSYS_Disable"
 10070      5953 5F44 
 10070      6973 6162 
 10070      6C65 00
 10071 005b C610 0000 		.long	0x10c6
 10072 005f 434C 4B53 		.string	"CLKSYS_Prescalers_Config"
 10072      5953 5F50 
 10072      7265 7363 
 10072      616C 6572 
 10072      735F 436F 
 10073 0078 0D11 0000 		.long	0x110d
 10074 007c 434C 4B53 		.string	"CLKSYS_Main_ClockSource_Select"
 10074      5953 5F4D 
 10074      6169 6E5F 
 10074      436C 6F63 
 10074      6B53 6F75 
 10075 009b 4911 0000 		.long	0x1149
 10076 009f 434C 4B53 		.string	"CLKSYS_RTC_ClockSource_Enable"
 10076      5953 5F52 
 10076      5443 5F43 
 10076      6C6F 636B 
 10076      536F 7572 
 10077 00bd 7011 0000 		.long	0x1170
 10078 00c1 434C 4B53 		.string	"CLKSYS_AutoCalibration_Enable"
 10078      5953 5F41 
 10078      7574 6F43 
 10078      616C 6962 
 10078      7261 7469 
 10079 00df A911 0000 		.long	0x11a9
 10080 00e3 434C 4B53 		.string	"CLKSYS_XOSC_FailureDetection_Enable"
 10080      5953 5F58 
 10080      4F53 435F 
 10080      4661 696C 
 10080      7572 6544 
 10081 0107 BF11 0000 		.long	0x11bf
 10082 010b 434C 4B53 		.string	"CLKSYS_Configuration_Lock"
 10082      5953 5F43 
 10082      6F6E 6669 
 10082      6775 7261 
 10082      7469 6F6E 
 10083 0125 D511 0000 		.long	0x11d5
 10084 0129 5F5F 7665 		.string	"__vector_14"
 10084      6374 6F72 
 10084      5F31 3400 
 10085 0135 EA11 0000 		.long	0x11ea
 10086 0139 7561 7274 		.string	"uart_getchar"
 10086      5F67 6574 
 10086      6368 6172 
 10086      00
 10087 0146 0312 0000 		.long	0x1203
 10088 014a 7570 6461 		.string	"update"
 10088      7465 00
 10089 0151 AE12 0000 		.long	0x12ae
 10090 0155 6465 6C61 		.string	"delay_ms"
 10090      795F 6D73 
 10090      00
GAS LISTING /tmp/cchdpaIW.s 			page 179


 10091 015e 1013 0000 		.long	0x1310
 10092 0162 636F 6D70 		.string	"compareArray"
 10092      6172 6541 
 10092      7272 6179 
 10092      00
 10093 016f 5113 0000 		.long	0x1351
 10094 0173 7369 676E 		.string	"signum"
 10094      756D 00
 10095 017a 7013 0000 		.long	0x1370
 10096 017e 436F 6E66 		.string	"Config32MHzClock"
 10096      6967 3332 
 10096      4D48 7A43 
 10096      6C6F 636B 
 10096      00
 10097 018f 8513 0000 		.long	0x1385
 10098 0193 6D69 6C6C 		.string	"millis"
 10098      6973 00
 10099 019a 9613 0000 		.long	0x1396
 10100 019e 626C 696E 		.string	"blink"
 10100      6B00 
 10101 01a4 BF13 0000 		.long	0x13bf
 10102 01a8 626C 696E 		.string	"blinkN"
 10102      6B4E 00
 10103 01af F313 0000 		.long	0x13f3
 10104 01b3 7365 7450 		.string	"setPin"
 10104      696E 00
 10105 01ba 2E14 0000 		.long	0x142e
 10106 01be 636C 6561 		.string	"clearPin"
 10106      7250 696E 
 10106      00
 10107 01c7 6914 0000 		.long	0x1469
 10108 01cb 7365 7453 		.string	"setSpeed"
 10108      7065 6564 
 10108      00
 10109 01d4 9D14 0000 		.long	0x149d
 10110 01d8 7374 6570 		.string	"stepMotor"
 10110      4D6F 746F 
 10110      7200 
 10111 01e2 D614 0000 		.long	0x14d6
 10112 01e6 7374 6570 		.string	"step"
 10112      00
 10113 01eb 4115 0000 		.long	0x1541
 10114 01ef 7374 6570 		.string	"stepOne"
 10114      4F6E 6500 
 10115 01f7 7C15 0000 		.long	0x157c
 10116 01fb 6368 616E 		.string	"changeGoal"
 10116      6765 476F 
 10116      616C 00
 10117 0206 D415 0000 		.long	0x15d4
 10118 020a 6D6F 7665 		.string	"moveToGoal"
 10118      546F 476F 
 10118      616C 00
 10119 0215 8018 0000 		.long	0x1880
 10120 0219 6D61 696E 		.string	"mainLoop"
 10120      4C6F 6F70 
 10120      00
 10121 0222 BB19 0000 		.long	0x19bb
GAS LISTING /tmp/cchdpaIW.s 			page 180


 10122 0226 696E 6974 		.string	"init"
 10122      00
 10123 022b E619 0000 		.long	0x19e6
 10124 022f 6D61 696E 		.string	"main"
 10124      00
 10125 0234 D21A 0000 		.long	0x1ad2
 10126 0238 7374 6174 		.string	"state"
 10126      6500 
 10127 023e E41A 0000 		.long	0x1ae4
 10128 0242 6465 6275 		.string	"debugFlag"
 10128      6746 6C61 
 10128      6700 
 10129 024c F61A 0000 		.long	0x1af6
 10130 0250 676F 616C 		.string	"goal"
 10130      00
 10131 0255 081B 0000 		.long	0x1b08
 10132 0259 706F 7365 		.string	"pose"
 10132      00
 10133 025e 1A1B 0000 		.long	0x1b1a
 10134 0262 656C 6170 		.string	"elapsedMillis"
 10134      7365 644D 
 10134      696C 6C69 
 10134      7300 
 10135 0270 2C1B 0000 		.long	0x1b2c
 10136 0274 6D61 7853 		.string	"maxSpeed"
 10136      7065 6564 
 10136      00
 10137 027d 3E1B 0000 		.long	0x1b3e
 10138 0281 4261 7365 		.string	"Base"
 10138      00
 10139 0286 511B 0000 		.long	0x1b51
 10140 028a 5368 6F75 		.string	"Shoulder"
 10140      6C64 6572 
 10140      00
 10141 0293 641B 0000 		.long	0x1b64
 10142 0297 456C 626F 		.string	"Elbow"
 10142      7700 
 10143 029d 771B 0000 		.long	0x1b77
 10144 02a1 4C65 6674 		.string	"Left_Wrist"
 10144      5F57 7269 
 10144      7374 00
 10145 02ac 8A1B 0000 		.long	0x1b8a
 10146 02b0 5269 6768 		.string	"Right_Wrist"
 10146      745F 5772 
 10146      6973 7400 
 10147 02bc 9D1B 0000 		.long	0x1b9d
 10148 02c0 4772 6970 		.string	"Gripper"
 10148      7065 7200 
 10149 02c8 0000 0000 		.long	0x0
 10150               		.section	.debug_pubtypes,"",@progbits
 10151 0000 4C02 0000 		.long	0x24c
 10152 0004 0200      		.word	0x2
 10153 0006 0000 0000 		.long	.Ldebug_info0
 10154 000a B11B 0000 		.long	0x1bb1
 10155 000e 2C00 0000 		.long	0x2c
 10156 0012 7569 6E74 		.string	"uint8_t"
 10156      385F 7400 
GAS LISTING /tmp/cchdpaIW.s 			page 181


 10157 001a 5300 0000 		.long	0x53
 10158 001e 7569 6E74 		.string	"uint32_t"
 10158      3332 5F74 
 10158      00
 10159 0027 7300 0000 		.long	0x73
 10160 002b 5F5F 6669 		.string	"__file"
 10160      6C65 00
 10161 0032 4501 0000 		.long	0x145
 10162 0036 4343 505F 		.string	"CCP_enum"
 10162      656E 756D 
 10162      00
 10163 003f 6001 0000 		.long	0x160
 10164 0043 434C 4B5F 		.string	"CLK_struct"
 10164      7374 7275 
 10164      6374 00
 10165 004e A501 0000 		.long	0x1a5
 10166 0052 434C 4B5F 		.string	"CLK_t"
 10166      7400 
 10167 0058 B001 0000 		.long	0x1b0
 10168 005c 434C 4B5F 		.string	"CLK_SCLKSEL_enum"
 10168      5343 4C4B 
 10168      5345 4C5F 
 10168      656E 756D 
 10168      00
 10169 006d DB01 0000 		.long	0x1db
 10170 0071 434C 4B5F 		.string	"CLK_SCLKSEL_t"
 10170      5343 4C4B 
 10170      5345 4C5F 
 10170      7400 
 10171 007f E601 0000 		.long	0x1e6
 10172 0083 434C 4B5F 		.string	"CLK_PSADIV_enum"
 10172      5053 4144 
 10172      4956 5F65 
 10172      6E75 6D00 
 10173 0093 3002 0000 		.long	0x230
 10174 0097 434C 4B5F 		.string	"CLK_PSADIV_t"
 10174      5053 4144 
 10174      4956 5F74 
 10174      00
 10175 00a4 3B02 0000 		.long	0x23b
 10176 00a8 434C 4B5F 		.string	"CLK_PSBCDIV_enum"
 10176      5053 4243 
 10176      4449 565F 
 10176      656E 756D 
 10176      00
 10177 00b9 6002 0000 		.long	0x260
 10178 00bd 434C 4B5F 		.string	"CLK_PSBCDIV_t"
 10178      5053 4243 
 10178      4449 565F 
 10178      7400 
 10179 00cb 6B02 0000 		.long	0x26b
 10180 00cf 434C 4B5F 		.string	"CLK_RTCSRC_enum"
 10180      5254 4353 
 10180      5243 5F65 
 10180      6E75 6D00 
 10181 00df 9002 0000 		.long	0x290
 10182 00e3 434C 4B5F 		.string	"CLK_RTCSRC_t"
GAS LISTING /tmp/cchdpaIW.s 			page 182


 10182      5254 4353 
 10182      5243 5F74 
 10182      00
 10183 00f0 9B02 0000 		.long	0x29b
 10184 00f4 4F53 435F 		.string	"OSC_struct"
 10184      7374 7275 
 10184      6374 00
 10185 00ff 1203 0000 		.long	0x312
 10186 0103 4F53 435F 		.string	"OSC_t"
 10186      7400 
 10187 0109 1E03 0000 		.long	0x31e
 10188 010d 4F53 435F 		.string	"OSC_FRQRANGE_enum"
 10188      4652 5152 
 10188      414E 4745 
 10188      5F65 6E75 
 10188      6D00 
 10189 011f 4703 0000 		.long	0x347
 10190 0123 4F53 435F 		.string	"OSC_FRQRANGE_t"
 10190      4652 5152 
 10190      414E 4745 
 10190      5F74 00
 10191 0132 5303 0000 		.long	0x353
 10192 0136 4F53 435F 		.string	"OSC_XOSCSEL_enum"
 10192      584F 5343 
 10192      5345 4C5F 
 10192      656E 756D 
 10192      00
 10193 0147 7F03 0000 		.long	0x37f
 10194 014b 4F53 435F 		.string	"OSC_XOSCSEL_t"
 10194      584F 5343 
 10194      5345 4C5F 
 10194      7400 
 10195 0159 8B03 0000 		.long	0x38b
 10196 015d 4F53 435F 		.string	"OSC_PLLSRC_enum"
 10196      504C 4C53 
 10196      5243 5F65 
 10196      6E75 6D00 
 10197 016d AD03 0000 		.long	0x3ad
 10198 0171 4F53 435F 		.string	"OSC_PLLSRC_t"
 10198      504C 4C53 
 10198      5243 5F74 
 10198      00
 10199 017e B903 0000 		.long	0x3b9
 10200 0182 4446 4C4C 		.string	"DFLL_struct"
 10200      5F73 7472 
 10200      7563 7400 
 10201 018e 3F04 0000 		.long	0x43f
 10202 0192 4446 4C4C 		.string	"DFLL_t"
 10202      5F74 00
 10203 0199 4B04 0000 		.long	0x44b
 10204 019d 504D 4943 		.string	"PMIC_struct"
 10204      5F73 7472 
 10204      7563 7400 
 10205 01a9 8604 0000 		.long	0x486
 10206 01ad 504D 4943 		.string	"PMIC_t"
 10206      5F74 00
 10207 01b4 9704 0000 		.long	0x497
GAS LISTING /tmp/cchdpaIW.s 			page 183


 10208 01b8 504F 5254 		.string	"PORT_struct"
 10208      5F73 7472 
 10208      7563 7400 
 10209 01c4 0C06 0000 		.long	0x60c
 10210 01c8 504F 5254 		.string	"PORT_t"
 10210      5F74 00
 10211 01cf 1806 0000 		.long	0x618
 10212 01d3 504F 5254 		.string	"PORT_OPC_enum"
 10212      5F4F 5043 
 10212      5F65 6E75 
 10212      6D00 
 10213 01e1 3709 0000 		.long	0x937
 10214 01e5 5443 305F 		.string	"TC0_struct"
 10214      7374 7275 
 10214      6374 00
 10215 01f0 130C 0000 		.long	0xc13
 10216 01f4 5443 305F 		.string	"TC0_t"
 10216      7400 
 10217 01fa 1F0C 0000 		.long	0xc1f
 10218 01fe 5443 5F43 		.string	"TC_CLKSEL_enum"
 10218      4C4B 5345 
 10218      4C5F 656E 
 10218      756D 00
 10219 020d 8D0C 0000 		.long	0xc8d
 10220 0211 5443 5F4F 		.string	"TC_OVFINTLVL_enum"
 10220      5646 494E 
 10220      544C 564C 
 10220      5F65 6E75 
 10220      6D00 
 10221 0223 B30C 0000 		.long	0xcb3
 10222 0227 5553 4152 		.string	"USART_struct"
 10222      545F 7374 
 10222      7275 6374 
 10222      00
 10223 0234 390D 0000 		.long	0xd39
 10224 0238 5553 4152 		.string	"USART_t"
 10224      545F 7400 
 10225 0240 530D 0000 		.long	0xd53
 10226 0244 5374 6570 		.string	"Stepper"
 10226      7065 7200 
 10227 024c 0000 0000 		.long	0x0
 10228               		.section	.debug_aranges,"",@progbits
 10229 0000 1C00 0000 		.long	0x1c
 10230 0004 0200      		.word	0x2
 10231 0006 0000 0000 		.long	.Ldebug_info0
 10232 000a 04        		.byte	0x4
 10233 000b 00        		.byte	0x0
 10234 000c 0000      		.word	0x0
 10235 000e 0000      		.word	0x0
 10236 0010 0000 0000 		.long	.Ltext0
 10237 0014 CA16 0000 		.long	.Letext0-.Ltext0
 10238 0018 0000 0000 		.long	0x0
 10239 001c 0000 0000 		.long	0x0
 10240               		.section	.debug_ranges,"",@progbits
 10241               	.Ldebug_ranges0:
 10242 0000 000D 0000 		.long	.LBB86-.Ltext0
 10243 0004 200D 0000 		.long	.LBE86-.Ltext0
GAS LISTING /tmp/cchdpaIW.s 			page 184


 10244 0008 600D 0000 		.long	.LBB89-.Ltext0
 10245 000c 7C0D 0000 		.long	.LBE89-.Ltext0
 10246 0010 0000 0000 		.long	0x0
 10247 0014 0000 0000 		.long	0x0
 10248 0018 7C0D 0000 		.long	.LBB90-.Ltext0
 10249 001c 9C0D 0000 		.long	.LBE90-.Ltext0
 10250 0020 DC0D 0000 		.long	.LBB93-.Ltext0
 10251 0024 F40D 0000 		.long	.LBE93-.Ltext0
 10252 0028 0000 0000 		.long	0x0
 10253 002c 0000 0000 		.long	0x0
 10254 0030 F40D 0000 		.long	.LBB94-.Ltext0
 10255 0034 140E 0000 		.long	.LBE94-.Ltext0
 10256 0038 540E 0000 		.long	.LBB97-.Ltext0
 10257 003c 6C0E 0000 		.long	.LBE97-.Ltext0
 10258 0040 0000 0000 		.long	0x0
 10259 0044 0000 0000 		.long	0x0
 10260 0048 6C0E 0000 		.long	.LBB98-.Ltext0
 10261 004c 8C0E 0000 		.long	.LBE98-.Ltext0
 10262 0050 D00E 0000 		.long	.LBB101-.Ltext0
 10263 0054 E80E 0000 		.long	.LBE101-.Ltext0
 10264 0058 0000 0000 		.long	0x0
 10265 005c 0000 0000 		.long	0x0
 10266 0060 E80E 0000 		.long	.LBB102-.Ltext0
 10267 0064 080F 0000 		.long	.LBE102-.Ltext0
 10268 0068 4C0F 0000 		.long	.LBB105-.Ltext0
 10269 006c 640F 0000 		.long	.LBE105-.Ltext0
 10270 0070 0000 0000 		.long	0x0
 10271 0074 0000 0000 		.long	0x0
 10272 0078 640F 0000 		.long	.LBB106-.Ltext0
 10273 007c 840F 0000 		.long	.LBE106-.Ltext0
 10274 0080 C80F 0000 		.long	.LBB109-.Ltext0
 10275 0084 EE0F 0000 		.long	.LBE109-.Ltext0
 10276 0088 0000 0000 		.long	0x0
 10277 008c 0000 0000 		.long	0x0
 10278 0090 7013 0000 		.long	.LBB146-.Ltext0
 10279 0094 7613 0000 		.long	.LBE146-.Ltext0
 10280 0098 CA15 0000 		.long	.LBB166-.Ltext0
 10281 009c F215 0000 		.long	.LBE166-.Ltext0
 10282 00a0 0000 0000 		.long	0x0
 10283 00a4 0000 0000 		.long	0x0
 10284 00a8 7613 0000 		.long	.LBB147-.Ltext0
 10285 00ac 8213 0000 		.long	.LBE147-.Ltext0
 10286 00b0 B013 0000 		.long	.LBB150-.Ltext0
 10287 00b4 E413 0000 		.long	.LBE150-.Ltext0
 10288 00b8 0000 0000 		.long	0x0
 10289 00bc 0000 0000 		.long	0x0
 10290               		.section	.debug_line
 10291 0000 E80E 0000 		.long	.LELT0-.LSLT0
 10292               	.LSLT0:
 10293 0004 0200      		.word	0x2
 10294 0006 0001 0000 		.long	.LELTP0-.LASLTP0
 10295               	.LASLTP0:
 10296 000a 01        		.byte	0x1
 10297 000b 01        		.byte	0x1
 10298 000c F6        		.byte	0xf6
 10299 000d F5        		.byte	0xf5
 10300 000e 0A        		.byte	0xa
GAS LISTING /tmp/cchdpaIW.s 			page 185


 10301 000f 00        		.byte	0x0
 10302 0010 01        		.byte	0x1
 10303 0011 01        		.byte	0x1
 10304 0012 01        		.byte	0x1
 10305 0013 01        		.byte	0x1
 10306 0014 00        		.byte	0x0
 10307 0015 00        		.byte	0x0
 10308 0016 00        		.byte	0x0
 10309 0017 01        		.byte	0x1
 10310 0018 7265 7175 		.ascii	"requiredFiles"
 10310      6972 6564 
 10310      4669 6C65 
 10310      73
 10311 0025 00        		.byte	0
 10312 0026 2F75 7372 		.ascii	"/usr/lib/gcc/avr/4.5.3/../../../avr/include"
 10312      2F6C 6962 
 10312      2F67 6363 
 10312      2F61 7672 
 10312      2F34 2E35 
 10313 0051 00        		.byte	0
 10314 0052 2F75 7372 		.ascii	"/usr/lib/gcc/avr/4.5.3/../../../avr/include/avr"
 10314      2F6C 6962 
 10314      2F67 6363 
 10314      2F61 7672 
 10314      2F34 2E35 
 10315 0081 00        		.byte	0
 10316 0082 2F75 7372 		.ascii	"/usr/lib/gcc/avr/4.5.3/../../../avr/include/util"
 10316      2F6C 6962 
 10316      2F67 6363 
 10316      2F61 7672 
 10316      2F34 2E35 
 10317 00b2 00        		.byte	0
 10318 00b3 00        		.byte	0x0
 10319 00b4 6D61 696E 		.string	"main.c"
 10319      2E63 00
 10320 00bb 00        		.uleb128 0x0
 10321 00bc 00        		.uleb128 0x0
 10322 00bd 00        		.uleb128 0x0
 10323 00be 636C 6B73 		.string	"clksys_driver.c"
 10323      7973 5F64 
 10323      7269 7665 
 10323      722E 6300 
 10324 00ce 01        		.uleb128 0x1
 10325 00cf 00        		.uleb128 0x0
 10326 00d0 00        		.uleb128 0x0
 10327 00d1 7574 696C 		.string	"util/delay.h"
 10327      2F64 656C 
 10327      6179 2E68 
 10327      00
 10328 00de 02        		.uleb128 0x2
 10329 00df 00        		.uleb128 0x0
 10330 00e0 00        		.uleb128 0x0
 10331 00e1 7374 6469 		.string	"stdint.h"
 10331      6E74 2E68 
 10331      00
 10332 00ea 02        		.uleb128 0x2
 10333 00eb 00        		.uleb128 0x0
GAS LISTING /tmp/cchdpaIW.s 			page 186


 10334 00ec 00        		.uleb128 0x0
 10335 00ed 7374 6469 		.string	"stdio.h"
 10335      6F2E 6800 
 10336 00f5 02        		.uleb128 0x2
 10337 00f6 00        		.uleb128 0x0
 10338 00f7 00        		.uleb128 0x0
 10339 00f8 6176 722F 		.string	"avr/iox16a4.h"
 10339      696F 7831 
 10339      3661 342E 
 10339      6800 
 10340 0106 02        		.uleb128 0x2
 10341 0107 00        		.uleb128 0x0
 10342 0108 00        		.uleb128 0x0
 10343 0109 00        		.byte	0x0
 10344               	.LELTP0:
 10345 010a 00        		.byte	0x0
 10346 010b 05        		.uleb128 0x5
 10347 010c 02        		.byte	0x2
 10348 010d 0000 0000 		.long	.LM1
 10349 0111 5D        		.byte	0x5d
 10350 0112 00        		.byte	0x0
 10351 0113 05        		.uleb128 0x5
 10352 0114 02        		.byte	0x2
 10353 0115 0000 0000 		.long	.LM2
 10354 0119 15        		.byte	0x15
 10355 011a 00        		.byte	0x0
 10356 011b 05        		.uleb128 0x5
 10357 011c 02        		.byte	0x2
 10358 011d 0000 0000 		.long	.LM3
 10359 0121 15        		.byte	0x15
 10360 0122 00        		.byte	0x0
 10361 0123 05        		.uleb128 0x5
 10362 0124 02        		.byte	0x2
 10363 0125 0000 0000 		.long	.LM4
 10364 0129 17        		.byte	0x17
 10365 012a 00        		.byte	0x0
 10366 012b 05        		.uleb128 0x5
 10367 012c 02        		.byte	0x2
 10368 012d 0000 0000 		.long	.LM5
 10369 0131 17        		.byte	0x17
 10370 0132 00        		.byte	0x0
 10371 0133 05        		.uleb128 0x5
 10372 0134 02        		.byte	0x2
 10373 0135 0000 0000 		.long	.LM6
 10374 0139 17        		.byte	0x17
 10375 013a 00        		.byte	0x0
 10376 013b 05        		.uleb128 0x5
 10377 013c 02        		.byte	0x2
 10378 013d 0000 0000 		.long	.LM7
 10379 0141 04        		.byte	0x4
 10380 0142 02        		.uleb128 0x2
 10381 0143 0D        		.byte	0xd
 10382 0144 00        		.byte	0x0
 10383 0145 05        		.uleb128 0x5
 10384 0146 02        		.byte	0x2
 10385 0147 0000 0000 		.long	.LM8
 10386 014b 32        		.byte	0x32
GAS LISTING /tmp/cchdpaIW.s 			page 187


 10387 014c 00        		.byte	0x0
 10388 014d 05        		.uleb128 0x5
 10389 014e 02        		.byte	0x2
 10390 014f 0000 0000 		.long	.LM9
 10391 0153 17        		.byte	0x17
 10392 0154 00        		.byte	0x0
 10393 0155 05        		.uleb128 0x5
 10394 0156 02        		.byte	0x2
 10395 0157 0000 0000 		.long	.LM10
 10396 015b 16        		.byte	0x16
 10397 015c 00        		.byte	0x0
 10398 015d 05        		.uleb128 0x5
 10399 015e 02        		.byte	0x2
 10400 015f 0000 0000 		.long	.LM11
 10401 0163 1E        		.byte	0x1e
 10402 0164 00        		.byte	0x0
 10403 0165 05        		.uleb128 0x5
 10404 0166 02        		.byte	0x2
 10405 0167 0000 0000 		.long	.LM12
 10406 016b 16        		.byte	0x16
 10407 016c 00        		.byte	0x0
 10408 016d 05        		.uleb128 0x5
 10409 016e 02        		.byte	0x2
 10410 016f 0000 0000 		.long	.LM13
 10411 0173 27        		.byte	0x27
 10412 0174 00        		.byte	0x0
 10413 0175 05        		.uleb128 0x5
 10414 0176 02        		.byte	0x2
 10415 0177 0000 0000 		.long	.LM14
 10416 017b 15        		.byte	0x15
 10417 017c 00        		.byte	0x0
 10418 017d 05        		.uleb128 0x5
 10419 017e 02        		.byte	0x2
 10420 017f 0000 0000 		.long	.LM15
 10421 0183 01        		.byte	0x1
 10422 0184 00        		.byte	0x0
 10423 0185 05        		.uleb128 0x5
 10424 0186 02        		.byte	0x2
 10425 0187 0000 0000 		.long	.LM16
 10426 018b 17        		.byte	0x17
 10427 018c 00        		.byte	0x0
 10428 018d 05        		.uleb128 0x5
 10429 018e 02        		.byte	0x2
 10430 018f 0000 0000 		.long	.LM17
 10431 0193 28        		.byte	0x28
 10432 0194 00        		.byte	0x0
 10433 0195 05        		.uleb128 0x5
 10434 0196 02        		.byte	0x2
 10435 0197 0000 0000 		.long	.LM18
 10436 019b 15        		.byte	0x15
 10437 019c 00        		.byte	0x0
 10438 019d 05        		.uleb128 0x5
 10439 019e 02        		.byte	0x2
 10440 019f 0000 0000 		.long	.LM19
 10441 01a3 15        		.byte	0x15
 10442 01a4 00        		.byte	0x0
 10443 01a5 05        		.uleb128 0x5
GAS LISTING /tmp/cchdpaIW.s 			page 188


 10444 01a6 02        		.byte	0x2
 10445 01a7 0000 0000 		.long	.LM20
 10446 01ab 15        		.byte	0x15
 10447 01ac 00        		.byte	0x0
 10448 01ad 05        		.uleb128 0x5
 10449 01ae 02        		.byte	0x2
 10450 01af 0000 0000 		.long	.LM21
 10451 01b3 25        		.byte	0x25
 10452 01b4 00        		.byte	0x0
 10453 01b5 05        		.uleb128 0x5
 10454 01b6 02        		.byte	0x2
 10455 01b7 0000 0000 		.long	.LM22
 10456 01bb 15        		.byte	0x15
 10457 01bc 00        		.byte	0x0
 10458 01bd 05        		.uleb128 0x5
 10459 01be 02        		.byte	0x2
 10460 01bf 0000 0000 		.long	.LM23
 10461 01c3 15        		.byte	0x15
 10462 01c4 00        		.byte	0x0
 10463 01c5 05        		.uleb128 0x5
 10464 01c6 02        		.byte	0x2
 10465 01c7 0000 0000 		.long	.LM24
 10466 01cb 16        		.byte	0x16
 10467 01cc 00        		.byte	0x0
 10468 01cd 05        		.uleb128 0x5
 10469 01ce 02        		.byte	0x2
 10470 01cf 0000 0000 		.long	.LM25
 10471 01d3 24        		.byte	0x24
 10472 01d4 00        		.byte	0x0
 10473 01d5 05        		.uleb128 0x5
 10474 01d6 02        		.byte	0x2
 10475 01d7 0000 0000 		.long	.LM26
 10476 01db 15        		.byte	0x15
 10477 01dc 00        		.byte	0x0
 10478 01dd 05        		.uleb128 0x5
 10479 01de 02        		.byte	0x2
 10480 01df 0000 0000 		.long	.LM27
 10481 01e3 15        		.byte	0x15
 10482 01e4 00        		.byte	0x0
 10483 01e5 05        		.uleb128 0x5
 10484 01e6 02        		.byte	0x2
 10485 01e7 0000 0000 		.long	.LM28
 10486 01eb 15        		.byte	0x15
 10487 01ec 00        		.byte	0x0
 10488 01ed 05        		.uleb128 0x5
 10489 01ee 02        		.byte	0x2
 10490 01ef 0000 0000 		.long	.LM29
 10491 01f3 23        		.byte	0x23
 10492 01f4 00        		.byte	0x0
 10493 01f5 05        		.uleb128 0x5
 10494 01f6 02        		.byte	0x2
 10495 01f7 0000 0000 		.long	.LM30
 10496 01fb 15        		.byte	0x15
 10497 01fc 00        		.byte	0x0
 10498 01fd 05        		.uleb128 0x5
 10499 01fe 02        		.byte	0x2
 10500 01ff 0000 0000 		.long	.LM31
GAS LISTING /tmp/cchdpaIW.s 			page 189


 10501 0203 15        		.byte	0x15
 10502 0204 00        		.byte	0x0
 10503 0205 05        		.uleb128 0x5
 10504 0206 02        		.byte	0x2
 10505 0207 0000 0000 		.long	.LM32
 10506 020b 15        		.byte	0x15
 10507 020c 00        		.byte	0x0
 10508 020d 05        		.uleb128 0x5
 10509 020e 02        		.byte	0x2
 10510 020f 0000 0000 		.long	.LM33
 10511 0213 16        		.byte	0x16
 10512 0214 00        		.byte	0x0
 10513 0215 05        		.uleb128 0x5
 10514 0216 02        		.byte	0x2
 10515 0217 0000 0000 		.long	.LM34
 10516 021b 1F        		.byte	0x1f
 10517 021c 00        		.byte	0x0
 10518 021d 05        		.uleb128 0x5
 10519 021e 02        		.byte	0x2
 10520 021f 0000 0000 		.long	.LM35
 10521 0223 15        		.byte	0x15
 10522 0224 00        		.byte	0x0
 10523 0225 05        		.uleb128 0x5
 10524 0226 02        		.byte	0x2
 10525 0227 0000 0000 		.long	.LM36
 10526 022b 17        		.byte	0x17
 10527 022c 00        		.byte	0x0
 10528 022d 05        		.uleb128 0x5
 10529 022e 02        		.byte	0x2
 10530 022f 0000 0000 		.long	.LM37
 10531 0233 23        		.byte	0x23
 10532 0234 00        		.byte	0x0
 10533 0235 05        		.uleb128 0x5
 10534 0236 02        		.byte	0x2
 10535 0237 0000 0000 		.long	.LM38
 10536 023b 15        		.byte	0x15
 10537 023c 00        		.byte	0x0
 10538 023d 05        		.uleb128 0x5
 10539 023e 02        		.byte	0x2
 10540 023f 0000 0000 		.long	.LM39
 10541 0243 01        		.byte	0x1
 10542 0244 00        		.byte	0x0
 10543 0245 05        		.uleb128 0x5
 10544 0246 02        		.byte	0x2
 10545 0247 0000 0000 		.long	.LM40
 10546 024b 16        		.byte	0x16
 10547 024c 00        		.byte	0x0
 10548 024d 05        		.uleb128 0x5
 10549 024e 02        		.byte	0x2
 10550 024f 0000 0000 		.long	.LM41
 10551 0253 15        		.byte	0x15
 10552 0254 00        		.byte	0x0
 10553 0255 05        		.uleb128 0x5
 10554 0256 02        		.byte	0x2
 10555 0257 0000 0000 		.long	.LM42
 10556 025b 15        		.byte	0x15
 10557 025c 00        		.byte	0x0
GAS LISTING /tmp/cchdpaIW.s 			page 190


 10558 025d 05        		.uleb128 0x5
 10559 025e 02        		.byte	0x2
 10560 025f 0000 0000 		.long	.LM43
 10561 0263 15        		.byte	0x15
 10562 0264 00        		.byte	0x0
 10563 0265 05        		.uleb128 0x5
 10564 0266 02        		.byte	0x2
 10565 0267 0000 0000 		.long	.LM44
 10566 026b 22        		.byte	0x22
 10567 026c 00        		.byte	0x0
 10568 026d 05        		.uleb128 0x5
 10569 026e 02        		.byte	0x2
 10570 026f 0000 0000 		.long	.LM45
 10571 0273 15        		.byte	0x15
 10572 0274 00        		.byte	0x0
 10573 0275 05        		.uleb128 0x5
 10574 0276 02        		.byte	0x2
 10575 0277 0000 0000 		.long	.LM46
 10576 027b 15        		.byte	0x15
 10577 027c 00        		.byte	0x0
 10578 027d 05        		.uleb128 0x5
 10579 027e 02        		.byte	0x2
 10580 027f 0000 0000 		.long	.LM47
 10581 0283 1E        		.byte	0x1e
 10582 0284 00        		.byte	0x0
 10583 0285 05        		.uleb128 0x5
 10584 0286 02        		.byte	0x2
 10585 0287 0000 0000 		.long	.LM48
 10586 028b 15        		.byte	0x15
 10587 028c 00        		.byte	0x0
 10588 028d 05        		.uleb128 0x5
 10589 028e 02        		.byte	0x2
 10590 028f 0000 0000 		.long	.LM49
 10591 0293 15        		.byte	0x15
 10592 0294 00        		.byte	0x0
 10593 0295 05        		.uleb128 0x5
 10594 0296 02        		.byte	0x2
 10595 0297 0000 0000 		.long	.LM50
 10596 029b 04        		.byte	0x4
 10597 029c 01        		.uleb128 0x1
 10598 029d 03        		.byte	0x3
 10599 029e 9F7E      		.sleb128 -225
 10600 02a0 01        		.byte	0x1
 10601 02a1 00        		.byte	0x0
 10602 02a2 05        		.uleb128 0x5
 10603 02a3 02        		.byte	0x2
 10604 02a4 0000 0000 		.long	.LM51
 10605 02a8 15        		.byte	0x15
 10606 02a9 00        		.byte	0x0
 10607 02aa 05        		.uleb128 0x5
 10608 02ab 02        		.byte	0x2
 10609 02ac 0000 0000 		.long	.LM52
 10610 02b0 15        		.byte	0x15
 10611 02b1 00        		.byte	0x0
 10612 02b2 05        		.uleb128 0x5
 10613 02b3 02        		.byte	0x2
 10614 02b4 0000 0000 		.long	.LM53
GAS LISTING /tmp/cchdpaIW.s 			page 191


 10615 02b8 23        		.byte	0x23
 10616 02b9 00        		.byte	0x0
 10617 02ba 05        		.uleb128 0x5
 10618 02bb 02        		.byte	0x2
 10619 02bc 0000 0000 		.long	.LM54
 10620 02c0 15        		.byte	0x15
 10621 02c1 00        		.byte	0x0
 10622 02c2 05        		.uleb128 0x5
 10623 02c3 02        		.byte	0x2
 10624 02c4 0000 0000 		.long	.LM55
 10625 02c8 17        		.byte	0x17
 10626 02c9 00        		.byte	0x0
 10627 02ca 05        		.uleb128 0x5
 10628 02cb 02        		.byte	0x2
 10629 02cc 0000 0000 		.long	.LM56
 10630 02d0 15        		.byte	0x15
 10631 02d1 00        		.byte	0x0
 10632 02d2 05        		.uleb128 0x5
 10633 02d3 02        		.byte	0x2
 10634 02d4 0000 0000 		.long	.LM57
 10635 02d8 15        		.byte	0x15
 10636 02d9 00        		.byte	0x0
 10637 02da 05        		.uleb128 0x5
 10638 02db 02        		.byte	0x2
 10639 02dc 0000 0000 		.long	.LM58
 10640 02e0 03        		.byte	0x3
 10641 02e1 C105      		.sleb128 705
 10642 02e3 01        		.byte	0x1
 10643 02e4 00        		.byte	0x0
 10644 02e5 05        		.uleb128 0x5
 10645 02e6 02        		.byte	0x2
 10646 02e7 0000 0000 		.long	.LM59
 10647 02eb 15        		.byte	0x15
 10648 02ec 00        		.byte	0x0
 10649 02ed 05        		.uleb128 0x5
 10650 02ee 02        		.byte	0x2
 10651 02ef 0000 0000 		.long	.LM60
 10652 02f3 15        		.byte	0x15
 10653 02f4 00        		.byte	0x0
 10654 02f5 05        		.uleb128 0x5
 10655 02f6 02        		.byte	0x2
 10656 02f7 0000 0000 		.long	.LM61
 10657 02fb 12        		.byte	0x12
 10658 02fc 00        		.byte	0x0
 10659 02fd 05        		.uleb128 0x5
 10660 02fe 02        		.byte	0x2
 10661 02ff 0000 0000 		.long	.LM62
 10662 0303 23        		.byte	0x23
 10663 0304 00        		.byte	0x0
 10664 0305 05        		.uleb128 0x5
 10665 0306 02        		.byte	0x2
 10666 0307 0000 0000 		.long	.LM63
 10667 030b 0E        		.byte	0xe
 10668 030c 00        		.byte	0x0
 10669 030d 05        		.uleb128 0x5
 10670 030e 02        		.byte	0x2
 10671 030f 0000 0000 		.long	.LM64
GAS LISTING /tmp/cchdpaIW.s 			page 192


 10672 0313 15        		.byte	0x15
 10673 0314 00        		.byte	0x0
 10674 0315 05        		.uleb128 0x5
 10675 0316 02        		.byte	0x2
 10676 0317 0000 0000 		.long	.LM65
 10677 031b 16        		.byte	0x16
 10678 031c 00        		.byte	0x0
 10679 031d 05        		.uleb128 0x5
 10680 031e 02        		.byte	0x2
 10681 031f 0000 0000 		.long	.LM66
 10682 0323 16        		.byte	0x16
 10683 0324 00        		.byte	0x0
 10684 0325 05        		.uleb128 0x5
 10685 0326 02        		.byte	0x2
 10686 0327 0000 0000 		.long	.LM67
 10687 032b 16        		.byte	0x16
 10688 032c 00        		.byte	0x0
 10689 032d 05        		.uleb128 0x5
 10690 032e 02        		.byte	0x2
 10691 032f 0000 0000 		.long	.LM68
 10692 0333 16        		.byte	0x16
 10693 0334 00        		.byte	0x0
 10694 0335 05        		.uleb128 0x5
 10695 0336 02        		.byte	0x2
 10696 0337 0000 0000 		.long	.LM69
 10697 033b 17        		.byte	0x17
 10698 033c 00        		.byte	0x0
 10699 033d 05        		.uleb128 0x5
 10700 033e 02        		.byte	0x2
 10701 033f 0000 0000 		.long	.LM70
 10702 0343 03        		.byte	0x3
 10703 0344 71        		.sleb128 -15
 10704 0345 01        		.byte	0x1
 10705 0346 00        		.byte	0x0
 10706 0347 05        		.uleb128 0x5
 10707 0348 02        		.byte	0x2
 10708 0349 0000 0000 		.long	.LM71
 10709 034d 1D        		.byte	0x1d
 10710 034e 00        		.byte	0x0
 10711 034f 05        		.uleb128 0x5
 10712 0350 02        		.byte	0x2
 10713 0351 0000 0000 		.long	.LM72
 10714 0355 1C        		.byte	0x1c
 10715 0356 00        		.byte	0x0
 10716 0357 05        		.uleb128 0x5
 10717 0358 02        		.byte	0x2
 10718 0359 0000 0000 		.long	.LM73
 10719 035d 03        		.byte	0x3
 10720 035e BF7E      		.sleb128 -193
 10721 0360 01        		.byte	0x1
 10722 0361 00        		.byte	0x0
 10723 0362 05        		.uleb128 0x5
 10724 0363 02        		.byte	0x2
 10725 0364 0000 0000 		.long	.LM74
 10726 0368 15        		.byte	0x15
 10727 0369 00        		.byte	0x0
 10728 036a 05        		.uleb128 0x5
GAS LISTING /tmp/cchdpaIW.s 			page 193


 10729 036b 02        		.byte	0x2
 10730 036c 0000 0000 		.long	.LM75
 10731 0370 15        		.byte	0x15
 10732 0371 00        		.byte	0x0
 10733 0372 05        		.uleb128 0x5
 10734 0373 02        		.byte	0x2
 10735 0374 0000 0000 		.long	.LM76
 10736 0378 15        		.byte	0x15
 10737 0379 00        		.byte	0x0
 10738 037a 05        		.uleb128 0x5
 10739 037b 02        		.byte	0x2
 10740 037c 0000 0000 		.long	.LM77
 10741 0380 15        		.byte	0x15
 10742 0381 00        		.byte	0x0
 10743 0382 05        		.uleb128 0x5
 10744 0383 02        		.byte	0x2
 10745 0384 0000 0000 		.long	.LM78
 10746 0388 15        		.byte	0x15
 10747 0389 00        		.byte	0x0
 10748 038a 05        		.uleb128 0x5
 10749 038b 02        		.byte	0x2
 10750 038c 0000 0000 		.long	.LM79
 10751 0390 D3        		.byte	0xd3
 10752 0391 00        		.byte	0x0
 10753 0392 05        		.uleb128 0x5
 10754 0393 02        		.byte	0x2
 10755 0394 0000 0000 		.long	.LM80
 10756 0398 03        		.byte	0x3
 10757 0399 C37A      		.sleb128 -701
 10758 039b 01        		.byte	0x1
 10759 039c 00        		.byte	0x0
 10760 039d 05        		.uleb128 0x5
 10761 039e 02        		.byte	0x2
 10762 039f 0000 0000 		.long	.LM81
 10763 03a3 01        		.byte	0x1
 10764 03a4 00        		.byte	0x0
 10765 03a5 05        		.uleb128 0x5
 10766 03a6 02        		.byte	0x2
 10767 03a7 0000 0000 		.long	.LM82
 10768 03ab 15        		.byte	0x15
 10769 03ac 00        		.byte	0x0
 10770 03ad 05        		.uleb128 0x5
 10771 03ae 02        		.byte	0x2
 10772 03af 0000 0000 		.long	.LM83
 10773 03b3 04        		.byte	0x4
 10774 03b4 03        		.uleb128 0x3
 10775 03b5 7E        		.byte	0x7e
 10776 03b6 00        		.byte	0x0
 10777 03b7 05        		.uleb128 0x5
 10778 03b8 02        		.byte	0x2
 10779 03b9 0000 0000 		.long	.LM84
 10780 03bd 04        		.byte	0x4
 10781 03be 01        		.uleb128 0x1
 10782 03bf 03        		.byte	0x3
 10783 03c0 967F      		.sleb128 -106
 10784 03c2 01        		.byte	0x1
 10785 03c3 00        		.byte	0x0
GAS LISTING /tmp/cchdpaIW.s 			page 194


 10786 03c4 05        		.uleb128 0x5
 10787 03c5 02        		.byte	0x2
 10788 03c6 0000 0000 		.long	.LM85
 10789 03ca 16        		.byte	0x16
 10790 03cb 00        		.byte	0x0
 10791 03cc 05        		.uleb128 0x5
 10792 03cd 02        		.byte	0x2
 10793 03ce 0000 0000 		.long	.LM86
 10794 03d2 17        		.byte	0x17
 10795 03d3 00        		.byte	0x0
 10796 03d4 05        		.uleb128 0x5
 10797 03d5 02        		.byte	0x2
 10798 03d6 0000 0000 		.long	.LM87
 10799 03da 15        		.byte	0x15
 10800 03db 00        		.byte	0x0
 10801 03dc 05        		.uleb128 0x5
 10802 03dd 02        		.byte	0x2
 10803 03de 0000 0000 		.long	.LM88
 10804 03e2 01        		.byte	0x1
 10805 03e3 00        		.byte	0x0
 10806 03e4 05        		.uleb128 0x5
 10807 03e5 02        		.byte	0x2
 10808 03e6 0000 0000 		.long	.LM89
 10809 03ea 15        		.byte	0x15
 10810 03eb 00        		.byte	0x0
 10811 03ec 05        		.uleb128 0x5
 10812 03ed 02        		.byte	0x2
 10813 03ee 0000 0000 		.long	.LM90
 10814 03f2 15        		.byte	0x15
 10815 03f3 00        		.byte	0x0
 10816 03f4 05        		.uleb128 0x5
 10817 03f5 02        		.byte	0x2
 10818 03f6 0000 0000 		.long	.LM91
 10819 03fa 15        		.byte	0x15
 10820 03fb 00        		.byte	0x0
 10821 03fc 05        		.uleb128 0x5
 10822 03fd 02        		.byte	0x2
 10823 03fe 0000 0000 		.long	.LM92
 10824 0402 10        		.byte	0x10
 10825 0403 00        		.byte	0x0
 10826 0404 05        		.uleb128 0x5
 10827 0405 02        		.byte	0x2
 10828 0406 0000 0000 		.long	.LM93
 10829 040a 15        		.byte	0x15
 10830 040b 00        		.byte	0x0
 10831 040c 05        		.uleb128 0x5
 10832 040d 02        		.byte	0x2
 10833 040e 0000 0000 		.long	.LM94
 10834 0412 1A        		.byte	0x1a
 10835 0413 00        		.byte	0x0
 10836 0414 05        		.uleb128 0x5
 10837 0415 02        		.byte	0x2
 10838 0416 0000 0000 		.long	.LM95
 10839 041a 17        		.byte	0x17
 10840 041b 00        		.byte	0x0
 10841 041c 05        		.uleb128 0x5
 10842 041d 02        		.byte	0x2
GAS LISTING /tmp/cchdpaIW.s 			page 195


 10843 041e 0000 0000 		.long	.LM96
 10844 0422 15        		.byte	0x15
 10845 0423 00        		.byte	0x0
 10846 0424 05        		.uleb128 0x5
 10847 0425 02        		.byte	0x2
 10848 0426 0000 0000 		.long	.LM97
 10849 042a 01        		.byte	0x1
 10850 042b 00        		.byte	0x0
 10851 042c 05        		.uleb128 0x5
 10852 042d 02        		.byte	0x2
 10853 042e 0000 0000 		.long	.LM98
 10854 0432 01        		.byte	0x1
 10855 0433 00        		.byte	0x0
 10856 0434 05        		.uleb128 0x5
 10857 0435 02        		.byte	0x2
 10858 0436 0000 0000 		.long	.LM99
 10859 043a 15        		.byte	0x15
 10860 043b 00        		.byte	0x0
 10861 043c 05        		.uleb128 0x5
 10862 043d 02        		.byte	0x2
 10863 043e 0000 0000 		.long	.LM100
 10864 0442 18        		.byte	0x18
 10865 0443 00        		.byte	0x0
 10866 0444 05        		.uleb128 0x5
 10867 0445 02        		.byte	0x2
 10868 0446 0000 0000 		.long	.LM101
 10869 044a 15        		.byte	0x15
 10870 044b 00        		.byte	0x0
 10871 044c 05        		.uleb128 0x5
 10872 044d 02        		.byte	0x2
 10873 044e 0000 0000 		.long	.LM102
 10874 0452 16        		.byte	0x16
 10875 0453 00        		.byte	0x0
 10876 0454 05        		.uleb128 0x5
 10877 0455 02        		.byte	0x2
 10878 0456 0000 0000 		.long	.LM103
 10879 045a 15        		.byte	0x15
 10880 045b 00        		.byte	0x0
 10881 045c 05        		.uleb128 0x5
 10882 045d 02        		.byte	0x2
 10883 045e 0000 0000 		.long	.LM104
 10884 0462 15        		.byte	0x15
 10885 0463 00        		.byte	0x0
 10886 0464 05        		.uleb128 0x5
 10887 0465 02        		.byte	0x2
 10888 0466 0000 0000 		.long	.LM105
 10889 046a 15        		.byte	0x15
 10890 046b 00        		.byte	0x0
 10891 046c 05        		.uleb128 0x5
 10892 046d 02        		.byte	0x2
 10893 046e 0000 0000 		.long	.LM106
 10894 0472 15        		.byte	0x15
 10895 0473 00        		.byte	0x0
 10896 0474 05        		.uleb128 0x5
 10897 0475 02        		.byte	0x2
 10898 0476 0000 0000 		.long	.LM107
 10899 047a 17        		.byte	0x17
GAS LISTING /tmp/cchdpaIW.s 			page 196


 10900 047b 00        		.byte	0x0
 10901 047c 05        		.uleb128 0x5
 10902 047d 02        		.byte	0x2
 10903 047e 0000 0000 		.long	.LM108
 10904 0482 15        		.byte	0x15
 10905 0483 00        		.byte	0x0
 10906 0484 05        		.uleb128 0x5
 10907 0485 02        		.byte	0x2
 10908 0486 0000 0000 		.long	.LM109
 10909 048a 15        		.byte	0x15
 10910 048b 00        		.byte	0x0
 10911 048c 05        		.uleb128 0x5
 10912 048d 02        		.byte	0x2
 10913 048e 0000 0000 		.long	.LM110
 10914 0492 16        		.byte	0x16
 10915 0493 00        		.byte	0x0
 10916 0494 05        		.uleb128 0x5
 10917 0495 02        		.byte	0x2
 10918 0496 0000 0000 		.long	.LM111
 10919 049a 15        		.byte	0x15
 10920 049b 00        		.byte	0x0
 10921 049c 05        		.uleb128 0x5
 10922 049d 02        		.byte	0x2
 10923 049e 0000 0000 		.long	.LM112
 10924 04a2 15        		.byte	0x15
 10925 04a3 00        		.byte	0x0
 10926 04a4 05        		.uleb128 0x5
 10927 04a5 02        		.byte	0x2
 10928 04a6 0000 0000 		.long	.LM113
 10929 04aa 15        		.byte	0x15
 10930 04ab 00        		.byte	0x0
 10931 04ac 05        		.uleb128 0x5
 10932 04ad 02        		.byte	0x2
 10933 04ae 0000 0000 		.long	.LM114
 10934 04b2 15        		.byte	0x15
 10935 04b3 00        		.byte	0x0
 10936 04b4 05        		.uleb128 0x5
 10937 04b5 02        		.byte	0x2
 10938 04b6 0000 0000 		.long	.LM115
 10939 04ba 15        		.byte	0x15
 10940 04bb 00        		.byte	0x0
 10941 04bc 05        		.uleb128 0x5
 10942 04bd 02        		.byte	0x2
 10943 04be 0000 0000 		.long	.LM116
 10944 04c2 16        		.byte	0x16
 10945 04c3 00        		.byte	0x0
 10946 04c4 05        		.uleb128 0x5
 10947 04c5 02        		.byte	0x2
 10948 04c6 0000 0000 		.long	.LM117
 10949 04ca 16        		.byte	0x16
 10950 04cb 00        		.byte	0x0
 10951 04cc 05        		.uleb128 0x5
 10952 04cd 02        		.byte	0x2
 10953 04ce 0000 0000 		.long	.LM118
 10954 04d2 15        		.byte	0x15
 10955 04d3 00        		.byte	0x0
 10956 04d4 05        		.uleb128 0x5
GAS LISTING /tmp/cchdpaIW.s 			page 197


 10957 04d5 02        		.byte	0x2
 10958 04d6 0000 0000 		.long	.LM119
 10959 04da 13        		.byte	0x13
 10960 04db 00        		.byte	0x0
 10961 04dc 05        		.uleb128 0x5
 10962 04dd 02        		.byte	0x2
 10963 04de 0000 0000 		.long	.LM120
 10964 04e2 01        		.byte	0x1
 10965 04e3 00        		.byte	0x0
 10966 04e4 05        		.uleb128 0x5
 10967 04e5 02        		.byte	0x2
 10968 04e6 0000 0000 		.long	.LM121
 10969 04ea 17        		.byte	0x17
 10970 04eb 00        		.byte	0x0
 10971 04ec 05        		.uleb128 0x5
 10972 04ed 02        		.byte	0x2
 10973 04ee 0000 0000 		.long	.LM122
 10974 04f2 18        		.byte	0x18
 10975 04f3 00        		.byte	0x0
 10976 04f4 05        		.uleb128 0x5
 10977 04f5 02        		.byte	0x2
 10978 04f6 0000 0000 		.long	.LM123
 10979 04fa 15        		.byte	0x15
 10980 04fb 00        		.byte	0x0
 10981 04fc 05        		.uleb128 0x5
 10982 04fd 02        		.byte	0x2
 10983 04fe 0000 0000 		.long	.LM124
 10984 0502 17        		.byte	0x17
 10985 0503 00        		.byte	0x0
 10986 0504 05        		.uleb128 0x5
 10987 0505 02        		.byte	0x2
 10988 0506 0000 0000 		.long	.LM125
 10989 050a 15        		.byte	0x15
 10990 050b 00        		.byte	0x0
 10991 050c 05        		.uleb128 0x5
 10992 050d 02        		.byte	0x2
 10993 050e 0000 0000 		.long	.LM126
 10994 0512 15        		.byte	0x15
 10995 0513 00        		.byte	0x0
 10996 0514 05        		.uleb128 0x5
 10997 0515 02        		.byte	0x2
 10998 0516 0000 0000 		.long	.LM127
 10999 051a 15        		.byte	0x15
 11000 051b 00        		.byte	0x0
 11001 051c 05        		.uleb128 0x5
 11002 051d 02        		.byte	0x2
 11003 051e 0000 0000 		.long	.LM128
 11004 0522 15        		.byte	0x15
 11005 0523 00        		.byte	0x0
 11006 0524 05        		.uleb128 0x5
 11007 0525 02        		.byte	0x2
 11008 0526 0000 0000 		.long	.LM129
 11009 052a 15        		.byte	0x15
 11010 052b 00        		.byte	0x0
 11011 052c 05        		.uleb128 0x5
 11012 052d 02        		.byte	0x2
 11013 052e 0000 0000 		.long	.LM130
GAS LISTING /tmp/cchdpaIW.s 			page 198


 11014 0532 15        		.byte	0x15
 11015 0533 00        		.byte	0x0
 11016 0534 05        		.uleb128 0x5
 11017 0535 02        		.byte	0x2
 11018 0536 0000 0000 		.long	.LM131
 11019 053a 15        		.byte	0x15
 11020 053b 00        		.byte	0x0
 11021 053c 05        		.uleb128 0x5
 11022 053d 02        		.byte	0x2
 11023 053e 0000 0000 		.long	.LM132
 11024 0542 15        		.byte	0x15
 11025 0543 00        		.byte	0x0
 11026 0544 05        		.uleb128 0x5
 11027 0545 02        		.byte	0x2
 11028 0546 0000 0000 		.long	.LM133
 11029 054a 1A        		.byte	0x1a
 11030 054b 00        		.byte	0x0
 11031 054c 05        		.uleb128 0x5
 11032 054d 02        		.byte	0x2
 11033 054e 0000 0000 		.long	.LM134
 11034 0552 15        		.byte	0x15
 11035 0553 00        		.byte	0x0
 11036 0554 05        		.uleb128 0x5
 11037 0555 02        		.byte	0x2
 11038 0556 0000 0000 		.long	.LM135
 11039 055a 15        		.byte	0x15
 11040 055b 00        		.byte	0x0
 11041 055c 05        		.uleb128 0x5
 11042 055d 02        		.byte	0x2
 11043 055e 0000 0000 		.long	.LM136
 11044 0562 15        		.byte	0x15
 11045 0563 00        		.byte	0x0
 11046 0564 05        		.uleb128 0x5
 11047 0565 02        		.byte	0x2
 11048 0566 0000 0000 		.long	.LM137
 11049 056a 15        		.byte	0x15
 11050 056b 00        		.byte	0x0
 11051 056c 05        		.uleb128 0x5
 11052 056d 02        		.byte	0x2
 11053 056e 0000 0000 		.long	.LM138
 11054 0572 1A        		.byte	0x1a
 11055 0573 00        		.byte	0x0
 11056 0574 05        		.uleb128 0x5
 11057 0575 02        		.byte	0x2
 11058 0576 0000 0000 		.long	.LM139
 11059 057a 15        		.byte	0x15
 11060 057b 00        		.byte	0x0
 11061 057c 05        		.uleb128 0x5
 11062 057d 02        		.byte	0x2
 11063 057e 0000 0000 		.long	.LM140
 11064 0582 15        		.byte	0x15
 11065 0583 00        		.byte	0x0
 11066 0584 05        		.uleb128 0x5
 11067 0585 02        		.byte	0x2
 11068 0586 0000 0000 		.long	.LM141
 11069 058a 15        		.byte	0x15
 11070 058b 00        		.byte	0x0
GAS LISTING /tmp/cchdpaIW.s 			page 199


 11071 058c 05        		.uleb128 0x5
 11072 058d 02        		.byte	0x2
 11073 058e 0000 0000 		.long	.LM142
 11074 0592 15        		.byte	0x15
 11075 0593 00        		.byte	0x0
 11076 0594 05        		.uleb128 0x5
 11077 0595 02        		.byte	0x2
 11078 0596 0000 0000 		.long	.LM143
 11079 059a 15        		.byte	0x15
 11080 059b 00        		.byte	0x0
 11081 059c 05        		.uleb128 0x5
 11082 059d 02        		.byte	0x2
 11083 059e 0000 0000 		.long	.LM144
 11084 05a2 15        		.byte	0x15
 11085 05a3 00        		.byte	0x0
 11086 05a4 05        		.uleb128 0x5
 11087 05a5 02        		.byte	0x2
 11088 05a6 0000 0000 		.long	.LM145
 11089 05aa 15        		.byte	0x15
 11090 05ab 00        		.byte	0x0
 11091 05ac 05        		.uleb128 0x5
 11092 05ad 02        		.byte	0x2
 11093 05ae 0000 0000 		.long	.LM146
 11094 05b2 15        		.byte	0x15
 11095 05b3 00        		.byte	0x0
 11096 05b4 05        		.uleb128 0x5
 11097 05b5 02        		.byte	0x2
 11098 05b6 0000 0000 		.long	.LM147
 11099 05ba 1A        		.byte	0x1a
 11100 05bb 00        		.byte	0x0
 11101 05bc 05        		.uleb128 0x5
 11102 05bd 02        		.byte	0x2
 11103 05be 0000 0000 		.long	.LM148
 11104 05c2 15        		.byte	0x15
 11105 05c3 00        		.byte	0x0
 11106 05c4 05        		.uleb128 0x5
 11107 05c5 02        		.byte	0x2
 11108 05c6 0000 0000 		.long	.LM149
 11109 05ca 15        		.byte	0x15
 11110 05cb 00        		.byte	0x0
 11111 05cc 05        		.uleb128 0x5
 11112 05cd 02        		.byte	0x2
 11113 05ce 0000 0000 		.long	.LM150
 11114 05d2 15        		.byte	0x15
 11115 05d3 00        		.byte	0x0
 11116 05d4 05        		.uleb128 0x5
 11117 05d5 02        		.byte	0x2
 11118 05d6 0000 0000 		.long	.LM151
 11119 05da 15        		.byte	0x15
 11120 05db 00        		.byte	0x0
 11121 05dc 05        		.uleb128 0x5
 11122 05dd 02        		.byte	0x2
 11123 05de 0000 0000 		.long	.LM152
 11124 05e2 1D        		.byte	0x1d
 11125 05e3 00        		.byte	0x0
 11126 05e4 05        		.uleb128 0x5
 11127 05e5 02        		.byte	0x2
GAS LISTING /tmp/cchdpaIW.s 			page 200


 11128 05e6 0000 0000 		.long	.LM153
 11129 05ea 15        		.byte	0x15
 11130 05eb 00        		.byte	0x0
 11131 05ec 05        		.uleb128 0x5
 11132 05ed 02        		.byte	0x2
 11133 05ee 0000 0000 		.long	.LM154
 11134 05f2 17        		.byte	0x17
 11135 05f3 00        		.byte	0x0
 11136 05f4 05        		.uleb128 0x5
 11137 05f5 02        		.byte	0x2
 11138 05f6 0000 0000 		.long	.LM155
 11139 05fa 15        		.byte	0x15
 11140 05fb 00        		.byte	0x0
 11141 05fc 05        		.uleb128 0x5
 11142 05fd 02        		.byte	0x2
 11143 05fe 0000 0000 		.long	.LM156
 11144 0602 15        		.byte	0x15
 11145 0603 00        		.byte	0x0
 11146 0604 05        		.uleb128 0x5
 11147 0605 02        		.byte	0x2
 11148 0606 0000 0000 		.long	.LM157
 11149 060a 15        		.byte	0x15
 11150 060b 00        		.byte	0x0
 11151 060c 05        		.uleb128 0x5
 11152 060d 02        		.byte	0x2
 11153 060e 0000 0000 		.long	.LM158
 11154 0612 15        		.byte	0x15
 11155 0613 00        		.byte	0x0
 11156 0614 05        		.uleb128 0x5
 11157 0615 02        		.byte	0x2
 11158 0616 0000 0000 		.long	.LM159
 11159 061a 15        		.byte	0x15
 11160 061b 00        		.byte	0x0
 11161 061c 05        		.uleb128 0x5
 11162 061d 02        		.byte	0x2
 11163 061e 0000 0000 		.long	.LM160
 11164 0622 15        		.byte	0x15
 11165 0623 00        		.byte	0x0
 11166 0624 05        		.uleb128 0x5
 11167 0625 02        		.byte	0x2
 11168 0626 0000 0000 		.long	.LM161
 11169 062a 15        		.byte	0x15
 11170 062b 00        		.byte	0x0
 11171 062c 05        		.uleb128 0x5
 11172 062d 02        		.byte	0x2
 11173 062e 0000 0000 		.long	.LM162
 11174 0632 15        		.byte	0x15
 11175 0633 00        		.byte	0x0
 11176 0634 05        		.uleb128 0x5
 11177 0635 02        		.byte	0x2
 11178 0636 0000 0000 		.long	.LM163
 11179 063a 1A        		.byte	0x1a
 11180 063b 00        		.byte	0x0
 11181 063c 05        		.uleb128 0x5
 11182 063d 02        		.byte	0x2
 11183 063e 0000 0000 		.long	.LM164
 11184 0642 15        		.byte	0x15
GAS LISTING /tmp/cchdpaIW.s 			page 201


 11185 0643 00        		.byte	0x0
 11186 0644 05        		.uleb128 0x5
 11187 0645 02        		.byte	0x2
 11188 0646 0000 0000 		.long	.LM165
 11189 064a 15        		.byte	0x15
 11190 064b 00        		.byte	0x0
 11191 064c 05        		.uleb128 0x5
 11192 064d 02        		.byte	0x2
 11193 064e 0000 0000 		.long	.LM166
 11194 0652 15        		.byte	0x15
 11195 0653 00        		.byte	0x0
 11196 0654 05        		.uleb128 0x5
 11197 0655 02        		.byte	0x2
 11198 0656 0000 0000 		.long	.LM167
 11199 065a 15        		.byte	0x15
 11200 065b 00        		.byte	0x0
 11201 065c 05        		.uleb128 0x5
 11202 065d 02        		.byte	0x2
 11203 065e 0000 0000 		.long	.LM168
 11204 0662 1A        		.byte	0x1a
 11205 0663 00        		.byte	0x0
 11206 0664 05        		.uleb128 0x5
 11207 0665 02        		.byte	0x2
 11208 0666 0000 0000 		.long	.LM169
 11209 066a 15        		.byte	0x15
 11210 066b 00        		.byte	0x0
 11211 066c 05        		.uleb128 0x5
 11212 066d 02        		.byte	0x2
 11213 066e 0000 0000 		.long	.LM170
 11214 0672 15        		.byte	0x15
 11215 0673 00        		.byte	0x0
 11216 0674 05        		.uleb128 0x5
 11217 0675 02        		.byte	0x2
 11218 0676 0000 0000 		.long	.LM171
 11219 067a 15        		.byte	0x15
 11220 067b 00        		.byte	0x0
 11221 067c 05        		.uleb128 0x5
 11222 067d 02        		.byte	0x2
 11223 067e 0000 0000 		.long	.LM172
 11224 0682 15        		.byte	0x15
 11225 0683 00        		.byte	0x0
 11226 0684 05        		.uleb128 0x5
 11227 0685 02        		.byte	0x2
 11228 0686 0000 0000 		.long	.LM173
 11229 068a 15        		.byte	0x15
 11230 068b 00        		.byte	0x0
 11231 068c 05        		.uleb128 0x5
 11232 068d 02        		.byte	0x2
 11233 068e 0000 0000 		.long	.LM174
 11234 0692 15        		.byte	0x15
 11235 0693 00        		.byte	0x0
 11236 0694 05        		.uleb128 0x5
 11237 0695 02        		.byte	0x2
 11238 0696 0000 0000 		.long	.LM175
 11239 069a 15        		.byte	0x15
 11240 069b 00        		.byte	0x0
 11241 069c 05        		.uleb128 0x5
GAS LISTING /tmp/cchdpaIW.s 			page 202


 11242 069d 02        		.byte	0x2
 11243 069e 0000 0000 		.long	.LM176
 11244 06a2 15        		.byte	0x15
 11245 06a3 00        		.byte	0x0
 11246 06a4 05        		.uleb128 0x5
 11247 06a5 02        		.byte	0x2
 11248 06a6 0000 0000 		.long	.LM177
 11249 06aa 1A        		.byte	0x1a
 11250 06ab 00        		.byte	0x0
 11251 06ac 05        		.uleb128 0x5
 11252 06ad 02        		.byte	0x2
 11253 06ae 0000 0000 		.long	.LM178
 11254 06b2 15        		.byte	0x15
 11255 06b3 00        		.byte	0x0
 11256 06b4 05        		.uleb128 0x5
 11257 06b5 02        		.byte	0x2
 11258 06b6 0000 0000 		.long	.LM179
 11259 06ba 15        		.byte	0x15
 11260 06bb 00        		.byte	0x0
 11261 06bc 05        		.uleb128 0x5
 11262 06bd 02        		.byte	0x2
 11263 06be 0000 0000 		.long	.LM180
 11264 06c2 15        		.byte	0x15
 11265 06c3 00        		.byte	0x0
 11266 06c4 05        		.uleb128 0x5
 11267 06c5 02        		.byte	0x2
 11268 06c6 0000 0000 		.long	.LM181
 11269 06ca 15        		.byte	0x15
 11270 06cb 00        		.byte	0x0
 11271 06cc 05        		.uleb128 0x5
 11272 06cd 02        		.byte	0x2
 11273 06ce 0000 0000 		.long	.LM182
 11274 06d2 B8        		.byte	0xb8
 11275 06d3 00        		.byte	0x0
 11276 06d4 05        		.uleb128 0x5
 11277 06d5 02        		.byte	0x2
 11278 06d6 0000 0000 		.long	.LM183
 11279 06da 15        		.byte	0x15
 11280 06db 00        		.byte	0x0
 11281 06dc 05        		.uleb128 0x5
 11282 06dd 02        		.byte	0x2
 11283 06de 0000 0000 		.long	.LM184
 11284 06e2 15        		.byte	0x15
 11285 06e3 00        		.byte	0x0
 11286 06e4 05        		.uleb128 0x5
 11287 06e5 02        		.byte	0x2
 11288 06e6 0000 0000 		.long	.LM185
 11289 06ea 17        		.byte	0x17
 11290 06eb 00        		.byte	0x0
 11291 06ec 05        		.uleb128 0x5
 11292 06ed 02        		.byte	0x2
 11293 06ee 0000 0000 		.long	.LM186
 11294 06f2 01        		.byte	0x1
 11295 06f3 00        		.byte	0x0
 11296 06f4 05        		.uleb128 0x5
 11297 06f5 02        		.byte	0x2
 11298 06f6 0000 0000 		.long	.LM187
GAS LISTING /tmp/cchdpaIW.s 			page 203


 11299 06fa 15        		.byte	0x15
 11300 06fb 00        		.byte	0x0
 11301 06fc 05        		.uleb128 0x5
 11302 06fd 02        		.byte	0x2
 11303 06fe 0000 0000 		.long	.LM188
 11304 0702 15        		.byte	0x15
 11305 0703 00        		.byte	0x0
 11306 0704 05        		.uleb128 0x5
 11307 0705 02        		.byte	0x2
 11308 0706 0000 0000 		.long	.LM189
 11309 070a 16        		.byte	0x16
 11310 070b 00        		.byte	0x0
 11311 070c 05        		.uleb128 0x5
 11312 070d 02        		.byte	0x2
 11313 070e 0000 0000 		.long	.LM190
 11314 0712 18        		.byte	0x18
 11315 0713 00        		.byte	0x0
 11316 0714 05        		.uleb128 0x5
 11317 0715 02        		.byte	0x2
 11318 0716 0000 0000 		.long	.LM191
 11319 071a 15        		.byte	0x15
 11320 071b 00        		.byte	0x0
 11321 071c 05        		.uleb128 0x5
 11322 071d 02        		.byte	0x2
 11323 071e 0000 0000 		.long	.LM192
 11324 0722 17        		.byte	0x17
 11325 0723 00        		.byte	0x0
 11326 0724 05        		.uleb128 0x5
 11327 0725 02        		.byte	0x2
 11328 0726 0000 0000 		.long	.LM193
 11329 072a 18        		.byte	0x18
 11330 072b 00        		.byte	0x0
 11331 072c 05        		.uleb128 0x5
 11332 072d 02        		.byte	0x2
 11333 072e 0000 0000 		.long	.LM194
 11334 0732 15        		.byte	0x15
 11335 0733 00        		.byte	0x0
 11336 0734 05        		.uleb128 0x5
 11337 0735 02        		.byte	0x2
 11338 0736 0000 0000 		.long	.LM195
 11339 073a 18        		.byte	0x18
 11340 073b 00        		.byte	0x0
 11341 073c 05        		.uleb128 0x5
 11342 073d 02        		.byte	0x2
 11343 073e 0000 0000 		.long	.LM196
 11344 0742 15        		.byte	0x15
 11345 0743 00        		.byte	0x0
 11346 0744 05        		.uleb128 0x5
 11347 0745 02        		.byte	0x2
 11348 0746 0000 0000 		.long	.LM197
 11349 074a 16        		.byte	0x16
 11350 074b 00        		.byte	0x0
 11351 074c 05        		.uleb128 0x5
 11352 074d 02        		.byte	0x2
 11353 074e 0000 0000 		.long	.LM198
 11354 0752 15        		.byte	0x15
 11355 0753 00        		.byte	0x0
GAS LISTING /tmp/cchdpaIW.s 			page 204


 11356 0754 05        		.uleb128 0x5
 11357 0755 02        		.byte	0x2
 11358 0756 0000 0000 		.long	.LM199
 11359 075a 19        		.byte	0x19
 11360 075b 00        		.byte	0x0
 11361 075c 05        		.uleb128 0x5
 11362 075d 02        		.byte	0x2
 11363 075e 0000 0000 		.long	.LM200
 11364 0762 15        		.byte	0x15
 11365 0763 00        		.byte	0x0
 11366 0764 05        		.uleb128 0x5
 11367 0765 02        		.byte	0x2
 11368 0766 0000 0000 		.long	.LM201
 11369 076a 15        		.byte	0x15
 11370 076b 00        		.byte	0x0
 11371 076c 05        		.uleb128 0x5
 11372 076d 02        		.byte	0x2
 11373 076e 0000 0000 		.long	.LM202
 11374 0772 15        		.byte	0x15
 11375 0773 00        		.byte	0x0
 11376 0774 05        		.uleb128 0x5
 11377 0775 02        		.byte	0x2
 11378 0776 0000 0000 		.long	.LM203
 11379 077a 15        		.byte	0x15
 11380 077b 00        		.byte	0x0
 11381 077c 05        		.uleb128 0x5
 11382 077d 02        		.byte	0x2
 11383 077e 0000 0000 		.long	.LM204
 11384 0782 16        		.byte	0x16
 11385 0783 00        		.byte	0x0
 11386 0784 05        		.uleb128 0x5
 11387 0785 02        		.byte	0x2
 11388 0786 0000 0000 		.long	.LM205
 11389 078a 15        		.byte	0x15
 11390 078b 00        		.byte	0x0
 11391 078c 05        		.uleb128 0x5
 11392 078d 02        		.byte	0x2
 11393 078e 0000 0000 		.long	.LM206
 11394 0792 19        		.byte	0x19
 11395 0793 00        		.byte	0x0
 11396 0794 05        		.uleb128 0x5
 11397 0795 02        		.byte	0x2
 11398 0796 0000 0000 		.long	.LM207
 11399 079a 15        		.byte	0x15
 11400 079b 00        		.byte	0x0
 11401 079c 05        		.uleb128 0x5
 11402 079d 02        		.byte	0x2
 11403 079e 0000 0000 		.long	.LM208
 11404 07a2 15        		.byte	0x15
 11405 07a3 00        		.byte	0x0
 11406 07a4 05        		.uleb128 0x5
 11407 07a5 02        		.byte	0x2
 11408 07a6 0000 0000 		.long	.LM209
 11409 07aa 15        		.byte	0x15
 11410 07ab 00        		.byte	0x0
 11411 07ac 05        		.uleb128 0x5
 11412 07ad 02        		.byte	0x2
GAS LISTING /tmp/cchdpaIW.s 			page 205


 11413 07ae 0000 0000 		.long	.LM210
 11414 07b2 18        		.byte	0x18
 11415 07b3 00        		.byte	0x0
 11416 07b4 05        		.uleb128 0x5
 11417 07b5 02        		.byte	0x2
 11418 07b6 0000 0000 		.long	.LM211
 11419 07ba 17        		.byte	0x17
 11420 07bb 00        		.byte	0x0
 11421 07bc 05        		.uleb128 0x5
 11422 07bd 02        		.byte	0x2
 11423 07be 0000 0000 		.long	.LM212
 11424 07c2 17        		.byte	0x17
 11425 07c3 00        		.byte	0x0
 11426 07c4 05        		.uleb128 0x5
 11427 07c5 02        		.byte	0x2
 11428 07c6 0000 0000 		.long	.LM213
 11429 07ca 16        		.byte	0x16
 11430 07cb 00        		.byte	0x0
 11431 07cc 05        		.uleb128 0x5
 11432 07cd 02        		.byte	0x2
 11433 07ce 0000 0000 		.long	.LM214
 11434 07d2 17        		.byte	0x17
 11435 07d3 00        		.byte	0x0
 11436 07d4 05        		.uleb128 0x5
 11437 07d5 02        		.byte	0x2
 11438 07d6 0000 0000 		.long	.LM215
 11439 07da 15        		.byte	0x15
 11440 07db 00        		.byte	0x0
 11441 07dc 05        		.uleb128 0x5
 11442 07dd 02        		.byte	0x2
 11443 07de 0000 0000 		.long	.LM216
 11444 07e2 03        		.byte	0x3
 11445 07e3 A27D      		.sleb128 -350
 11446 07e5 01        		.byte	0x1
 11447 07e6 00        		.byte	0x0
 11448 07e7 05        		.uleb128 0x5
 11449 07e8 02        		.byte	0x2
 11450 07e9 0000 0000 		.long	.LM217
 11451 07ed 03        		.byte	0x3
 11452 07ee E302      		.sleb128 355
 11453 07f0 01        		.byte	0x1
 11454 07f1 00        		.byte	0x0
 11455 07f2 05        		.uleb128 0x5
 11456 07f3 02        		.byte	0x2
 11457 07f4 0000 0000 		.long	.LM218
 11458 07f8 03        		.byte	0x3
 11459 07f9 9D7D      		.sleb128 -355
 11460 07fb 01        		.byte	0x1
 11461 07fc 00        		.byte	0x0
 11462 07fd 05        		.uleb128 0x5
 11463 07fe 02        		.byte	0x2
 11464 07ff 0000 0000 		.long	.LM219
 11465 0803 03        		.byte	0x3
 11466 0804 E502      		.sleb128 357
 11467 0806 01        		.byte	0x1
 11468 0807 00        		.byte	0x0
 11469 0808 05        		.uleb128 0x5
GAS LISTING /tmp/cchdpaIW.s 			page 206


 11470 0809 02        		.byte	0x2
 11471 080a 0000 0000 		.long	.LM220
 11472 080e 16        		.byte	0x16
 11473 080f 00        		.byte	0x0
 11474 0810 05        		.uleb128 0x5
 11475 0811 02        		.byte	0x2
 11476 0812 0000 0000 		.long	.LM221
 11477 0816 15        		.byte	0x15
 11478 0817 00        		.byte	0x0
 11479 0818 05        		.uleb128 0x5
 11480 0819 02        		.byte	0x2
 11481 081a 0000 0000 		.long	.LM222
 11482 081e 15        		.byte	0x15
 11483 081f 00        		.byte	0x0
 11484 0820 05        		.uleb128 0x5
 11485 0821 02        		.byte	0x2
 11486 0822 0000 0000 		.long	.LM223
 11487 0826 15        		.byte	0x15
 11488 0827 00        		.byte	0x0
 11489 0828 05        		.uleb128 0x5
 11490 0829 02        		.byte	0x2
 11491 082a 0000 0000 		.long	.LM224
 11492 082e 15        		.byte	0x15
 11493 082f 00        		.byte	0x0
 11494 0830 05        		.uleb128 0x5
 11495 0831 02        		.byte	0x2
 11496 0832 0000 0000 		.long	.LM225
 11497 0836 18        		.byte	0x18
 11498 0837 00        		.byte	0x0
 11499 0838 05        		.uleb128 0x5
 11500 0839 02        		.byte	0x2
 11501 083a 0000 0000 		.long	.LM226
 11502 083e 15        		.byte	0x15
 11503 083f 00        		.byte	0x0
 11504 0840 05        		.uleb128 0x5
 11505 0841 02        		.byte	0x2
 11506 0842 0000 0000 		.long	.LM227
 11507 0846 16        		.byte	0x16
 11508 0847 00        		.byte	0x0
 11509 0848 05        		.uleb128 0x5
 11510 0849 02        		.byte	0x2
 11511 084a 0000 0000 		.long	.LM228
 11512 084e 15        		.byte	0x15
 11513 084f 00        		.byte	0x0
 11514 0850 05        		.uleb128 0x5
 11515 0851 02        		.byte	0x2
 11516 0852 0000 0000 		.long	.LM229
 11517 0856 17        		.byte	0x17
 11518 0857 00        		.byte	0x0
 11519 0858 05        		.uleb128 0x5
 11520 0859 02        		.byte	0x2
 11521 085a 0000 0000 		.long	.LM230
 11522 085e 17        		.byte	0x17
 11523 085f 00        		.byte	0x0
 11524 0860 05        		.uleb128 0x5
 11525 0861 02        		.byte	0x2
 11526 0862 0000 0000 		.long	.LM231
GAS LISTING /tmp/cchdpaIW.s 			page 207


 11527 0866 17        		.byte	0x17
 11528 0867 00        		.byte	0x0
 11529 0868 05        		.uleb128 0x5
 11530 0869 02        		.byte	0x2
 11531 086a 0000 0000 		.long	.LM232
 11532 086e 16        		.byte	0x16
 11533 086f 00        		.byte	0x0
 11534 0870 05        		.uleb128 0x5
 11535 0871 02        		.byte	0x2
 11536 0872 0000 0000 		.long	.LM233
 11537 0876 16        		.byte	0x16
 11538 0877 00        		.byte	0x0
 11539 0878 05        		.uleb128 0x5
 11540 0879 02        		.byte	0x2
 11541 087a 0000 0000 		.long	.LM234
 11542 087e 15        		.byte	0x15
 11543 087f 00        		.byte	0x0
 11544 0880 05        		.uleb128 0x5
 11545 0881 02        		.byte	0x2
 11546 0882 0000 0000 		.long	.LM235
 11547 0886 15        		.byte	0x15
 11548 0887 00        		.byte	0x0
 11549 0888 05        		.uleb128 0x5
 11550 0889 02        		.byte	0x2
 11551 088a 0000 0000 		.long	.LM236
 11552 088e 15        		.byte	0x15
 11553 088f 00        		.byte	0x0
 11554 0890 05        		.uleb128 0x5
 11555 0891 02        		.byte	0x2
 11556 0892 0000 0000 		.long	.LM237
 11557 0896 18        		.byte	0x18
 11558 0897 00        		.byte	0x0
 11559 0898 05        		.uleb128 0x5
 11560 0899 02        		.byte	0x2
 11561 089a 0000 0000 		.long	.LM238
 11562 089e 15        		.byte	0x15
 11563 089f 00        		.byte	0x0
 11564 08a0 05        		.uleb128 0x5
 11565 08a1 02        		.byte	0x2
 11566 08a2 0000 0000 		.long	.LM239
 11567 08a6 16        		.byte	0x16
 11568 08a7 00        		.byte	0x0
 11569 08a8 05        		.uleb128 0x5
 11570 08a9 02        		.byte	0x2
 11571 08aa 0000 0000 		.long	.LM240
 11572 08ae 17        		.byte	0x17
 11573 08af 00        		.byte	0x0
 11574 08b0 05        		.uleb128 0x5
 11575 08b1 02        		.byte	0x2
 11576 08b2 0000 0000 		.long	.LM241
 11577 08b6 03        		.byte	0x3
 11578 08b7 6C        		.sleb128 -20
 11579 08b8 01        		.byte	0x1
 11580 08b9 00        		.byte	0x0
 11581 08ba 05        		.uleb128 0x5
 11582 08bb 02        		.byte	0x2
 11583 08bc 0000 0000 		.long	.LM242
GAS LISTING /tmp/cchdpaIW.s 			page 208


 11584 08c0 03        		.byte	0x3
 11585 08c1 68        		.sleb128 -24
 11586 08c2 01        		.byte	0x1
 11587 08c3 00        		.byte	0x0
 11588 08c4 05        		.uleb128 0x5
 11589 08c5 02        		.byte	0x2
 11590 08c6 0000 0000 		.long	.LM243
 11591 08ca 16        		.byte	0x16
 11592 08cb 00        		.byte	0x0
 11593 08cc 05        		.uleb128 0x5
 11594 08cd 02        		.byte	0x2
 11595 08ce 0000 0000 		.long	.LM244
 11596 08d2 42        		.byte	0x42
 11597 08d3 00        		.byte	0x0
 11598 08d4 05        		.uleb128 0x5
 11599 08d5 02        		.byte	0x2
 11600 08d6 0000 0000 		.long	.LM245
 11601 08da 19        		.byte	0x19
 11602 08db 00        		.byte	0x0
 11603 08dc 05        		.uleb128 0x5
 11604 08dd 02        		.byte	0x2
 11605 08de 0000 0000 		.long	.LM246
 11606 08e2 15        		.byte	0x15
 11607 08e3 00        		.byte	0x0
 11608 08e4 05        		.uleb128 0x5
 11609 08e5 02        		.byte	0x2
 11610 08e6 0000 0000 		.long	.LM247
 11611 08ea 17        		.byte	0x17
 11612 08eb 00        		.byte	0x0
 11613 08ec 05        		.uleb128 0x5
 11614 08ed 02        		.byte	0x2
 11615 08ee 0000 0000 		.long	.LM248
 11616 08f2 15        		.byte	0x15
 11617 08f3 00        		.byte	0x0
 11618 08f4 05        		.uleb128 0x5
 11619 08f5 02        		.byte	0x2
 11620 08f6 0000 0000 		.long	.LM249
 11621 08fa 15        		.byte	0x15
 11622 08fb 00        		.byte	0x0
 11623 08fc 05        		.uleb128 0x5
 11624 08fd 02        		.byte	0x2
 11625 08fe 0000 0000 		.long	.LM250
 11626 0902 15        		.byte	0x15
 11627 0903 00        		.byte	0x0
 11628 0904 05        		.uleb128 0x5
 11629 0905 02        		.byte	0x2
 11630 0906 0000 0000 		.long	.LM251
 11631 090a 15        		.byte	0x15
 11632 090b 00        		.byte	0x0
 11633 090c 05        		.uleb128 0x5
 11634 090d 02        		.byte	0x2
 11635 090e 0000 0000 		.long	.LM252
 11636 0912 17        		.byte	0x17
 11637 0913 00        		.byte	0x0
 11638 0914 05        		.uleb128 0x5
 11639 0915 02        		.byte	0x2
 11640 0916 0000 0000 		.long	.LM253
GAS LISTING /tmp/cchdpaIW.s 			page 209


 11641 091a 17        		.byte	0x17
 11642 091b 00        		.byte	0x0
 11643 091c 05        		.uleb128 0x5
 11644 091d 02        		.byte	0x2
 11645 091e 0000 0000 		.long	.LM254
 11646 0922 15        		.byte	0x15
 11647 0923 00        		.byte	0x0
 11648 0924 05        		.uleb128 0x5
 11649 0925 02        		.byte	0x2
 11650 0926 0000 0000 		.long	.LM255
 11651 092a 16        		.byte	0x16
 11652 092b 00        		.byte	0x0
 11653 092c 05        		.uleb128 0x5
 11654 092d 02        		.byte	0x2
 11655 092e 0000 0000 		.long	.LM256
 11656 0932 15        		.byte	0x15
 11657 0933 00        		.byte	0x0
 11658 0934 05        		.uleb128 0x5
 11659 0935 02        		.byte	0x2
 11660 0936 0000 0000 		.long	.LM257
 11661 093a 17        		.byte	0x17
 11662 093b 00        		.byte	0x0
 11663 093c 05        		.uleb128 0x5
 11664 093d 02        		.byte	0x2
 11665 093e 0000 0000 		.long	.LM258
 11666 0942 17        		.byte	0x17
 11667 0943 00        		.byte	0x0
 11668 0944 05        		.uleb128 0x5
 11669 0945 02        		.byte	0x2
 11670 0946 0000 0000 		.long	.LM259
 11671 094a 16        		.byte	0x16
 11672 094b 00        		.byte	0x0
 11673 094c 05        		.uleb128 0x5
 11674 094d 02        		.byte	0x2
 11675 094e 0000 0000 		.long	.LM260
 11676 0952 16        		.byte	0x16
 11677 0953 00        		.byte	0x0
 11678 0954 05        		.uleb128 0x5
 11679 0955 02        		.byte	0x2
 11680 0956 0000 0000 		.long	.LM261
 11681 095a 15        		.byte	0x15
 11682 095b 00        		.byte	0x0
 11683 095c 05        		.uleb128 0x5
 11684 095d 02        		.byte	0x2
 11685 095e 0000 0000 		.long	.LM262
 11686 0962 15        		.byte	0x15
 11687 0963 00        		.byte	0x0
 11688 0964 05        		.uleb128 0x5
 11689 0965 02        		.byte	0x2
 11690 0966 0000 0000 		.long	.LM263
 11691 096a 15        		.byte	0x15
 11692 096b 00        		.byte	0x0
 11693 096c 05        		.uleb128 0x5
 11694 096d 02        		.byte	0x2
 11695 096e 0000 0000 		.long	.LM264
 11696 0972 16        		.byte	0x16
 11697 0973 00        		.byte	0x0
GAS LISTING /tmp/cchdpaIW.s 			page 210


 11698 0974 05        		.uleb128 0x5
 11699 0975 02        		.byte	0x2
 11700 0976 0000 0000 		.long	.LM265
 11701 097a 17        		.byte	0x17
 11702 097b 00        		.byte	0x0
 11703 097c 05        		.uleb128 0x5
 11704 097d 02        		.byte	0x2
 11705 097e 0000 0000 		.long	.LM266
 11706 0982 15        		.byte	0x15
 11707 0983 00        		.byte	0x0
 11708 0984 05        		.uleb128 0x5
 11709 0985 02        		.byte	0x2
 11710 0986 0000 0000 		.long	.LM267
 11711 098a 16        		.byte	0x16
 11712 098b 00        		.byte	0x0
 11713 098c 05        		.uleb128 0x5
 11714 098d 02        		.byte	0x2
 11715 098e 0000 0000 		.long	.LM268
 11716 0992 17        		.byte	0x17
 11717 0993 00        		.byte	0x0
 11718 0994 05        		.uleb128 0x5
 11719 0995 02        		.byte	0x2
 11720 0996 0000 0000 		.long	.LM269
 11721 099a 16        		.byte	0x16
 11722 099b 00        		.byte	0x0
 11723 099c 05        		.uleb128 0x5
 11724 099d 02        		.byte	0x2
 11725 099e 0000 0000 		.long	.LM270
 11726 09a2 16        		.byte	0x16
 11727 09a3 00        		.byte	0x0
 11728 09a4 05        		.uleb128 0x5
 11729 09a5 02        		.byte	0x2
 11730 09a6 0000 0000 		.long	.LM271
 11731 09aa 28        		.byte	0x28
 11732 09ab 00        		.byte	0x0
 11733 09ac 05        		.uleb128 0x5
 11734 09ad 02        		.byte	0x2
 11735 09ae 0000 0000 		.long	.LM272
 11736 09b2 15        		.byte	0x15
 11737 09b3 00        		.byte	0x0
 11738 09b4 05        		.uleb128 0x5
 11739 09b5 02        		.byte	0x2
 11740 09b6 0000 0000 		.long	.LM273
 11741 09ba 15        		.byte	0x15
 11742 09bb 00        		.byte	0x0
 11743 09bc 05        		.uleb128 0x5
 11744 09bd 02        		.byte	0x2
 11745 09be 0000 0000 		.long	.LM274
 11746 09c2 15        		.byte	0x15
 11747 09c3 00        		.byte	0x0
 11748 09c4 05        		.uleb128 0x5
 11749 09c5 02        		.byte	0x2
 11750 09c6 0000 0000 		.long	.LM275
 11751 09ca 15        		.byte	0x15
 11752 09cb 00        		.byte	0x0
 11753 09cc 05        		.uleb128 0x5
 11754 09cd 02        		.byte	0x2
GAS LISTING /tmp/cchdpaIW.s 			page 211


 11755 09ce 0000 0000 		.long	.LM276
 11756 09d2 15        		.byte	0x15
 11757 09d3 00        		.byte	0x0
 11758 09d4 05        		.uleb128 0x5
 11759 09d5 02        		.byte	0x2
 11760 09d6 0000 0000 		.long	.LM277
 11761 09da 15        		.byte	0x15
 11762 09db 00        		.byte	0x0
 11763 09dc 05        		.uleb128 0x5
 11764 09dd 02        		.byte	0x2
 11765 09de 0000 0000 		.long	.LM278
 11766 09e2 16        		.byte	0x16
 11767 09e3 00        		.byte	0x0
 11768 09e4 05        		.uleb128 0x5
 11769 09e5 02        		.byte	0x2
 11770 09e6 0000 0000 		.long	.LM279
 11771 09ea 17        		.byte	0x17
 11772 09eb 00        		.byte	0x0
 11773 09ec 05        		.uleb128 0x5
 11774 09ed 02        		.byte	0x2
 11775 09ee 0000 0000 		.long	.LM280
 11776 09f2 15        		.byte	0x15
 11777 09f3 00        		.byte	0x0
 11778 09f4 05        		.uleb128 0x5
 11779 09f5 02        		.byte	0x2
 11780 09f6 0000 0000 		.long	.LM281
 11781 09fa 15        		.byte	0x15
 11782 09fb 00        		.byte	0x0
 11783 09fc 05        		.uleb128 0x5
 11784 09fd 02        		.byte	0x2
 11785 09fe 0000 0000 		.long	.LM282
 11786 0a02 15        		.byte	0x15
 11787 0a03 00        		.byte	0x0
 11788 0a04 05        		.uleb128 0x5
 11789 0a05 02        		.byte	0x2
 11790 0a06 0000 0000 		.long	.LM283
 11791 0a0a 15        		.byte	0x15
 11792 0a0b 00        		.byte	0x0
 11793 0a0c 05        		.uleb128 0x5
 11794 0a0d 02        		.byte	0x2
 11795 0a0e 0000 0000 		.long	.LM284
 11796 0a12 15        		.byte	0x15
 11797 0a13 00        		.byte	0x0
 11798 0a14 05        		.uleb128 0x5
 11799 0a15 02        		.byte	0x2
 11800 0a16 0000 0000 		.long	.LM285
 11801 0a1a 0E        		.byte	0xe
 11802 0a1b 00        		.byte	0x0
 11803 0a1c 05        		.uleb128 0x5
 11804 0a1d 02        		.byte	0x2
 11805 0a1e 0000 0000 		.long	.LM286
 11806 0a22 12        		.byte	0x12
 11807 0a23 00        		.byte	0x0
 11808 0a24 05        		.uleb128 0x5
 11809 0a25 02        		.byte	0x2
 11810 0a26 0000 0000 		.long	.LM287
 11811 0a2a 20        		.byte	0x20
GAS LISTING /tmp/cchdpaIW.s 			page 212


 11812 0a2b 00        		.byte	0x0
 11813 0a2c 05        		.uleb128 0x5
 11814 0a2d 02        		.byte	0x2
 11815 0a2e 0000 0000 		.long	.LM288
 11816 0a32 17        		.byte	0x17
 11817 0a33 00        		.byte	0x0
 11818 0a34 05        		.uleb128 0x5
 11819 0a35 02        		.byte	0x2
 11820 0a36 0000 0000 		.long	.LM289
 11821 0a3a 15        		.byte	0x15
 11822 0a3b 00        		.byte	0x0
 11823 0a3c 05        		.uleb128 0x5
 11824 0a3d 02        		.byte	0x2
 11825 0a3e 0000 0000 		.long	.LM290
 11826 0a42 12        		.byte	0x12
 11827 0a43 00        		.byte	0x0
 11828 0a44 05        		.uleb128 0x5
 11829 0a45 02        		.byte	0x2
 11830 0a46 0000 0000 		.long	.LM291
 11831 0a4a 1C        		.byte	0x1c
 11832 0a4b 00        		.byte	0x0
 11833 0a4c 05        		.uleb128 0x5
 11834 0a4d 02        		.byte	0x2
 11835 0a4e 0000 0000 		.long	.LM292
 11836 0a52 03        		.byte	0x3
 11837 0a53 A77E      		.sleb128 -217
 11838 0a55 01        		.byte	0x1
 11839 0a56 00        		.byte	0x0
 11840 0a57 05        		.uleb128 0x5
 11841 0a58 02        		.byte	0x2
 11842 0a59 0000 0000 		.long	.LM293
 11843 0a5d ED        		.byte	0xed
 11844 0a5e 00        		.byte	0x0
 11845 0a5f 05        		.uleb128 0x5
 11846 0a60 02        		.byte	0x2
 11847 0a61 0000 0000 		.long	.LM294
 11848 0a65 03        		.byte	0x3
 11849 0a66 A77E      		.sleb128 -217
 11850 0a68 01        		.byte	0x1
 11851 0a69 00        		.byte	0x0
 11852 0a6a 05        		.uleb128 0x5
 11853 0a6b 02        		.byte	0x2
 11854 0a6c 0000 0000 		.long	.LM295
 11855 0a70 EE        		.byte	0xee
 11856 0a71 00        		.byte	0x0
 11857 0a72 05        		.uleb128 0x5
 11858 0a73 02        		.byte	0x2
 11859 0a74 0000 0000 		.long	.LM296
 11860 0a78 03        		.byte	0x3
 11861 0a79 A67E      		.sleb128 -218
 11862 0a7b 01        		.byte	0x1
 11863 0a7c 00        		.byte	0x0
 11864 0a7d 05        		.uleb128 0x5
 11865 0a7e 02        		.byte	0x2
 11866 0a7f 0000 0000 		.long	.LM297
 11867 0a83 EF        		.byte	0xef
 11868 0a84 00        		.byte	0x0
GAS LISTING /tmp/cchdpaIW.s 			page 213


 11869 0a85 05        		.uleb128 0x5
 11870 0a86 02        		.byte	0x2
 11871 0a87 0000 0000 		.long	.LM298
 11872 0a8b 03        		.byte	0x3
 11873 0a8c A57E      		.sleb128 -219
 11874 0a8e 01        		.byte	0x1
 11875 0a8f 00        		.byte	0x0
 11876 0a90 05        		.uleb128 0x5
 11877 0a91 02        		.byte	0x2
 11878 0a92 0000 0000 		.long	.LM299
 11879 0a96 F0        		.byte	0xf0
 11880 0a97 00        		.byte	0x0
 11881 0a98 05        		.uleb128 0x5
 11882 0a99 02        		.byte	0x2
 11883 0a9a 0000 0000 		.long	.LM300
 11884 0a9e 03        		.byte	0x3
 11885 0a9f A47E      		.sleb128 -220
 11886 0aa1 01        		.byte	0x1
 11887 0aa2 00        		.byte	0x0
 11888 0aa3 05        		.uleb128 0x5
 11889 0aa4 02        		.byte	0x2
 11890 0aa5 0000 0000 		.long	.LM301
 11891 0aa9 F1        		.byte	0xf1
 11892 0aaa 00        		.byte	0x0
 11893 0aab 05        		.uleb128 0x5
 11894 0aac 02        		.byte	0x2
 11895 0aad 0000 0000 		.long	.LM302
 11896 0ab1 03        		.byte	0x3
 11897 0ab2 A37E      		.sleb128 -221
 11898 0ab4 01        		.byte	0x1
 11899 0ab5 00        		.byte	0x0
 11900 0ab6 05        		.uleb128 0x5
 11901 0ab7 02        		.byte	0x2
 11902 0ab8 0000 0000 		.long	.LM303
 11903 0abc F2        		.byte	0xf2
 11904 0abd 00        		.byte	0x0
 11905 0abe 05        		.uleb128 0x5
 11906 0abf 02        		.byte	0x2
 11907 0ac0 0000 0000 		.long	.LM304
 11908 0ac4 03        		.byte	0x3
 11909 0ac5 A27E      		.sleb128 -222
 11910 0ac7 01        		.byte	0x1
 11911 0ac8 00        		.byte	0x0
 11912 0ac9 05        		.uleb128 0x5
 11913 0aca 02        		.byte	0x2
 11914 0acb 0000 0000 		.long	.LM305
 11915 0acf F8        		.byte	0xf8
 11916 0ad0 00        		.byte	0x0
 11917 0ad1 05        		.uleb128 0x5
 11918 0ad2 02        		.byte	0x2
 11919 0ad3 0000 0000 		.long	.LM306
 11920 0ad7 13        		.byte	0x13
 11921 0ad8 00        		.byte	0x0
 11922 0ad9 05        		.uleb128 0x5
 11923 0ada 02        		.byte	0x2
 11924 0adb 0000 0000 		.long	.LM307
 11925 0adf 03        		.byte	0x3
GAS LISTING /tmp/cchdpaIW.s 			page 214


 11926 0ae0 807C      		.sleb128 -512
 11927 0ae2 01        		.byte	0x1
 11928 0ae3 00        		.byte	0x0
 11929 0ae4 05        		.uleb128 0x5
 11930 0ae5 02        		.byte	0x2
 11931 0ae6 0000 0000 		.long	.LM308
 11932 0aea 03        		.byte	0x3
 11933 0aeb 8404      		.sleb128 516
 11934 0aed 01        		.byte	0x1
 11935 0aee 00        		.byte	0x0
 11936 0aef 05        		.uleb128 0x5
 11937 0af0 02        		.byte	0x2
 11938 0af1 0000 0000 		.long	.LM309
 11939 0af5 03        		.byte	0x3
 11940 0af6 FC7B      		.sleb128 -516
 11941 0af8 01        		.byte	0x1
 11942 0af9 00        		.byte	0x0
 11943 0afa 05        		.uleb128 0x5
 11944 0afb 02        		.byte	0x2
 11945 0afc 0000 0000 		.long	.LM310
 11946 0b00 03        		.byte	0x3
 11947 0b01 8504      		.sleb128 517
 11948 0b03 01        		.byte	0x1
 11949 0b04 00        		.byte	0x0
 11950 0b05 05        		.uleb128 0x5
 11951 0b06 02        		.byte	0x2
 11952 0b07 0000 0000 		.long	.LM311
 11953 0b0b 15        		.byte	0x15
 11954 0b0c 00        		.byte	0x0
 11955 0b0d 05        		.uleb128 0x5
 11956 0b0e 02        		.byte	0x2
 11957 0b0f 0000 0000 		.long	.LM312
 11958 0b13 03        		.byte	0x3
 11959 0b14 EA7B      		.sleb128 -534
 11960 0b16 01        		.byte	0x1
 11961 0b17 00        		.byte	0x0
 11962 0b18 05        		.uleb128 0x5
 11963 0b19 02        		.byte	0x2
 11964 0b1a 0000 0000 		.long	.LM313
 11965 0b1e 03        		.byte	0x3
 11966 0b1f 9604      		.sleb128 534
 11967 0b21 01        		.byte	0x1
 11968 0b22 00        		.byte	0x0
 11969 0b23 05        		.uleb128 0x5
 11970 0b24 02        		.byte	0x2
 11971 0b25 0000 0000 		.long	.LM314
 11972 0b29 03        		.byte	0x3
 11973 0b2a FA7B      		.sleb128 -518
 11974 0b2c 01        		.byte	0x1
 11975 0b2d 00        		.byte	0x0
 11976 0b2e 05        		.uleb128 0x5
 11977 0b2f 02        		.byte	0x2
 11978 0b30 0000 0000 		.long	.LM315
 11979 0b34 03        		.byte	0x3
 11980 0b35 8804      		.sleb128 520
 11981 0b37 01        		.byte	0x1
 11982 0b38 00        		.byte	0x0
GAS LISTING /tmp/cchdpaIW.s 			page 215


 11983 0b39 05        		.uleb128 0x5
 11984 0b3a 02        		.byte	0x2
 11985 0b3b 0000 0000 		.long	.LM316
 11986 0b3f 03        		.byte	0x3
 11987 0b40 F87B      		.sleb128 -520
 11988 0b42 01        		.byte	0x1
 11989 0b43 00        		.byte	0x0
 11990 0b44 05        		.uleb128 0x5
 11991 0b45 02        		.byte	0x2
 11992 0b46 0000 0000 		.long	.LM317
 11993 0b4a 03        		.byte	0x3
 11994 0b4b 8904      		.sleb128 521
 11995 0b4d 01        		.byte	0x1
 11996 0b4e 00        		.byte	0x0
 11997 0b4f 05        		.uleb128 0x5
 11998 0b50 02        		.byte	0x2
 11999 0b51 0000 0000 		.long	.LM318
 12000 0b55 15        		.byte	0x15
 12001 0b56 00        		.byte	0x0
 12002 0b57 05        		.uleb128 0x5
 12003 0b58 02        		.byte	0x2
 12004 0b59 0000 0000 		.long	.LM319
 12005 0b5d 03        		.byte	0x3
 12006 0b5e E67B      		.sleb128 -538
 12007 0b60 01        		.byte	0x1
 12008 0b61 00        		.byte	0x0
 12009 0b62 05        		.uleb128 0x5
 12010 0b63 02        		.byte	0x2
 12011 0b64 0000 0000 		.long	.LM320
 12012 0b68 03        		.byte	0x3
 12013 0b69 9A04      		.sleb128 538
 12014 0b6b 01        		.byte	0x1
 12015 0b6c 00        		.byte	0x0
 12016 0b6d 05        		.uleb128 0x5
 12017 0b6e 02        		.byte	0x2
 12018 0b6f 0000 0000 		.long	.LM321
 12019 0b73 03        		.byte	0x3
 12020 0b74 F67B      		.sleb128 -522
 12021 0b76 01        		.byte	0x1
 12022 0b77 00        		.byte	0x0
 12023 0b78 05        		.uleb128 0x5
 12024 0b79 02        		.byte	0x2
 12025 0b7a 0000 0000 		.long	.LM322
 12026 0b7e 03        		.byte	0x3
 12027 0b7f 8C04      		.sleb128 524
 12028 0b81 01        		.byte	0x1
 12029 0b82 00        		.byte	0x0
 12030 0b83 05        		.uleb128 0x5
 12031 0b84 02        		.byte	0x2
 12032 0b85 0000 0000 		.long	.LM323
 12033 0b89 03        		.byte	0x3
 12034 0b8a F47B      		.sleb128 -524
 12035 0b8c 01        		.byte	0x1
 12036 0b8d 00        		.byte	0x0
 12037 0b8e 05        		.uleb128 0x5
 12038 0b8f 02        		.byte	0x2
 12039 0b90 0000 0000 		.long	.LM324
GAS LISTING /tmp/cchdpaIW.s 			page 216


 12040 0b94 03        		.byte	0x3
 12041 0b95 8D04      		.sleb128 525
 12042 0b97 01        		.byte	0x1
 12043 0b98 00        		.byte	0x0
 12044 0b99 05        		.uleb128 0x5
 12045 0b9a 02        		.byte	0x2
 12046 0b9b 0000 0000 		.long	.LM325
 12047 0b9f 15        		.byte	0x15
 12048 0ba0 00        		.byte	0x0
 12049 0ba1 05        		.uleb128 0x5
 12050 0ba2 02        		.byte	0x2
 12051 0ba3 0000 0000 		.long	.LM326
 12052 0ba7 03        		.byte	0x3
 12053 0ba8 E27B      		.sleb128 -542
 12054 0baa 01        		.byte	0x1
 12055 0bab 00        		.byte	0x0
 12056 0bac 05        		.uleb128 0x5
 12057 0bad 02        		.byte	0x2
 12058 0bae 0000 0000 		.long	.LM327
 12059 0bb2 03        		.byte	0x3
 12060 0bb3 9E04      		.sleb128 542
 12061 0bb5 01        		.byte	0x1
 12062 0bb6 00        		.byte	0x0
 12063 0bb7 05        		.uleb128 0x5
 12064 0bb8 02        		.byte	0x2
 12065 0bb9 0000 0000 		.long	.LM328
 12066 0bbd 03        		.byte	0x3
 12067 0bbe F27B      		.sleb128 -526
 12068 0bc0 01        		.byte	0x1
 12069 0bc1 00        		.byte	0x0
 12070 0bc2 05        		.uleb128 0x5
 12071 0bc3 02        		.byte	0x2
 12072 0bc4 0000 0000 		.long	.LM329
 12073 0bc8 03        		.byte	0x3
 12074 0bc9 9004      		.sleb128 528
 12075 0bcb 01        		.byte	0x1
 12076 0bcc 00        		.byte	0x0
 12077 0bcd 05        		.uleb128 0x5
 12078 0bce 02        		.byte	0x2
 12079 0bcf 0000 0000 		.long	.LM330
 12080 0bd3 03        		.byte	0x3
 12081 0bd4 F07B      		.sleb128 -528
 12082 0bd6 01        		.byte	0x1
 12083 0bd7 00        		.byte	0x0
 12084 0bd8 05        		.uleb128 0x5
 12085 0bd9 02        		.byte	0x2
 12086 0bda 0000 0000 		.long	.LM331
 12087 0bde 03        		.byte	0x3
 12088 0bdf 9104      		.sleb128 529
 12089 0be1 01        		.byte	0x1
 12090 0be2 00        		.byte	0x0
 12091 0be3 05        		.uleb128 0x5
 12092 0be4 02        		.byte	0x2
 12093 0be5 0000 0000 		.long	.LM332
 12094 0be9 15        		.byte	0x15
 12095 0bea 00        		.byte	0x0
 12096 0beb 05        		.uleb128 0x5
GAS LISTING /tmp/cchdpaIW.s 			page 217


 12097 0bec 02        		.byte	0x2
 12098 0bed 0000 0000 		.long	.LM333
 12099 0bf1 03        		.byte	0x3
 12100 0bf2 DE7B      		.sleb128 -546
 12101 0bf4 01        		.byte	0x1
 12102 0bf5 00        		.byte	0x0
 12103 0bf6 05        		.uleb128 0x5
 12104 0bf7 02        		.byte	0x2
 12105 0bf8 0000 0000 		.long	.LM334
 12106 0bfc 03        		.byte	0x3
 12107 0bfd A204      		.sleb128 546
 12108 0bff 01        		.byte	0x1
 12109 0c00 00        		.byte	0x0
 12110 0c01 05        		.uleb128 0x5
 12111 0c02 02        		.byte	0x2
 12112 0c03 0000 0000 		.long	.LM335
 12113 0c07 03        		.byte	0x3
 12114 0c08 EE7B      		.sleb128 -530
 12115 0c0a 01        		.byte	0x1
 12116 0c0b 00        		.byte	0x0
 12117 0c0c 05        		.uleb128 0x5
 12118 0c0d 02        		.byte	0x2
 12119 0c0e 0000 0000 		.long	.LM336
 12120 0c12 03        		.byte	0x3
 12121 0c13 9404      		.sleb128 532
 12122 0c15 01        		.byte	0x1
 12123 0c16 00        		.byte	0x0
 12124 0c17 05        		.uleb128 0x5
 12125 0c18 02        		.byte	0x2
 12126 0c19 0000 0000 		.long	.LM337
 12127 0c1d 03        		.byte	0x3
 12128 0c1e EC7B      		.sleb128 -532
 12129 0c20 01        		.byte	0x1
 12130 0c21 00        		.byte	0x0
 12131 0c22 05        		.uleb128 0x5
 12132 0c23 02        		.byte	0x2
 12133 0c24 0000 0000 		.long	.LM338
 12134 0c28 03        		.byte	0x3
 12135 0c29 9504      		.sleb128 533
 12136 0c2b 01        		.byte	0x1
 12137 0c2c 00        		.byte	0x0
 12138 0c2d 05        		.uleb128 0x5
 12139 0c2e 02        		.byte	0x2
 12140 0c2f 0000 0000 		.long	.LM339
 12141 0c33 15        		.byte	0x15
 12142 0c34 00        		.byte	0x0
 12143 0c35 05        		.uleb128 0x5
 12144 0c36 02        		.byte	0x2
 12145 0c37 0000 0000 		.long	.LM340
 12146 0c3b 03        		.byte	0x3
 12147 0c3c DA7B      		.sleb128 -550
 12148 0c3e 01        		.byte	0x1
 12149 0c3f 00        		.byte	0x0
 12150 0c40 05        		.uleb128 0x5
 12151 0c41 02        		.byte	0x2
 12152 0c42 0000 0000 		.long	.LM341
 12153 0c46 03        		.byte	0x3
GAS LISTING /tmp/cchdpaIW.s 			page 218


 12154 0c47 A604      		.sleb128 550
 12155 0c49 01        		.byte	0x1
 12156 0c4a 00        		.byte	0x0
 12157 0c4b 05        		.uleb128 0x5
 12158 0c4c 02        		.byte	0x2
 12159 0c4d 0000 0000 		.long	.LM342
 12160 0c51 03        		.byte	0x3
 12161 0c52 EA7B      		.sleb128 -534
 12162 0c54 01        		.byte	0x1
 12163 0c55 00        		.byte	0x0
 12164 0c56 05        		.uleb128 0x5
 12165 0c57 02        		.byte	0x2
 12166 0c58 0000 0000 		.long	.LM343
 12167 0c5c 03        		.byte	0x3
 12168 0c5d 9804      		.sleb128 536
 12169 0c5f 01        		.byte	0x1
 12170 0c60 00        		.byte	0x0
 12171 0c61 05        		.uleb128 0x5
 12172 0c62 02        		.byte	0x2
 12173 0c63 0000 0000 		.long	.LM344
 12174 0c67 03        		.byte	0x3
 12175 0c68 E87B      		.sleb128 -536
 12176 0c6a 01        		.byte	0x1
 12177 0c6b 00        		.byte	0x0
 12178 0c6c 05        		.uleb128 0x5
 12179 0c6d 02        		.byte	0x2
 12180 0c6e 0000 0000 		.long	.LM345
 12181 0c72 03        		.byte	0x3
 12182 0c73 9904      		.sleb128 537
 12183 0c75 01        		.byte	0x1
 12184 0c76 00        		.byte	0x0
 12185 0c77 05        		.uleb128 0x5
 12186 0c78 02        		.byte	0x2
 12187 0c79 0000 0000 		.long	.LM346
 12188 0c7d 15        		.byte	0x15
 12189 0c7e 00        		.byte	0x0
 12190 0c7f 05        		.uleb128 0x5
 12191 0c80 02        		.byte	0x2
 12192 0c81 0000 0000 		.long	.LM347
 12193 0c85 03        		.byte	0x3
 12194 0c86 D67B      		.sleb128 -554
 12195 0c88 01        		.byte	0x1
 12196 0c89 00        		.byte	0x0
 12197 0c8a 05        		.uleb128 0x5
 12198 0c8b 02        		.byte	0x2
 12199 0c8c 0000 0000 		.long	.LM348
 12200 0c90 03        		.byte	0x3
 12201 0c91 AA04      		.sleb128 554
 12202 0c93 01        		.byte	0x1
 12203 0c94 00        		.byte	0x0
 12204 0c95 05        		.uleb128 0x5
 12205 0c96 02        		.byte	0x2
 12206 0c97 0000 0000 		.long	.LM349
 12207 0c9b 18        		.byte	0x18
 12208 0c9c 00        		.byte	0x0
 12209 0c9d 05        		.uleb128 0x5
 12210 0c9e 02        		.byte	0x2
GAS LISTING /tmp/cchdpaIW.s 			page 219


 12211 0c9f 0000 0000 		.long	.LM350
 12212 0ca3 28        		.byte	0x28
 12213 0ca4 00        		.byte	0x0
 12214 0ca5 05        		.uleb128 0x5
 12215 0ca6 02        		.byte	0x2
 12216 0ca7 0000 0000 		.long	.LM351
 12217 0cab 5C        		.byte	0x5c
 12218 0cac 00        		.byte	0x0
 12219 0cad 05        		.uleb128 0x5
 12220 0cae 02        		.byte	0x2
 12221 0caf 0000 0000 		.long	.LM352
 12222 0cb3 0B        		.byte	0xb
 12223 0cb4 00        		.byte	0x0
 12224 0cb5 05        		.uleb128 0x5
 12225 0cb6 02        		.byte	0x2
 12226 0cb7 0000 0000 		.long	.LM353
 12227 0cbb 03        		.byte	0x3
 12228 0cbc AC7D      		.sleb128 -340
 12229 0cbe 01        		.byte	0x1
 12230 0cbf 00        		.byte	0x0
 12231 0cc0 05        		.uleb128 0x5
 12232 0cc1 02        		.byte	0x2
 12233 0cc2 0000 0000 		.long	.LM354
 12234 0cc6 03        		.byte	0x3
 12235 0cc7 9702      		.sleb128 279
 12236 0cc9 01        		.byte	0x1
 12237 0cca 00        		.byte	0x0
 12238 0ccb 05        		.uleb128 0x5
 12239 0ccc 02        		.byte	0x2
 12240 0ccd 0000 0000 		.long	.LM355
 12241 0cd1 16        		.byte	0x16
 12242 0cd2 00        		.byte	0x0
 12243 0cd3 05        		.uleb128 0x5
 12244 0cd4 02        		.byte	0x2
 12245 0cd5 0000 0000 		.long	.LM356
 12246 0cd9 15        		.byte	0x15
 12247 0cda 00        		.byte	0x0
 12248 0cdb 05        		.uleb128 0x5
 12249 0cdc 02        		.byte	0x2
 12250 0cdd 0000 0000 		.long	.LM357
 12251 0ce1 03        		.byte	0x3
 12252 0ce2 E67D      		.sleb128 -282
 12253 0ce4 01        		.byte	0x1
 12254 0ce5 00        		.byte	0x0
 12255 0ce6 05        		.uleb128 0x5
 12256 0ce7 02        		.byte	0x2
 12257 0ce8 0000 0000 		.long	.LM358
 12258 0cec 03        		.byte	0x3
 12259 0ced A002      		.sleb128 288
 12260 0cef 01        		.byte	0x1
 12261 0cf0 00        		.byte	0x0
 12262 0cf1 05        		.uleb128 0x5
 12263 0cf2 02        		.byte	0x2
 12264 0cf3 0000 0000 		.long	.LM359
 12265 0cf7 17        		.byte	0x17
 12266 0cf8 00        		.byte	0x0
 12267 0cf9 05        		.uleb128 0x5
GAS LISTING /tmp/cchdpaIW.s 			page 220


 12268 0cfa 02        		.byte	0x2
 12269 0cfb 0000 0000 		.long	.LM360
 12270 0cff 15        		.byte	0x15
 12271 0d00 00        		.byte	0x0
 12272 0d01 05        		.uleb128 0x5
 12273 0d02 02        		.byte	0x2
 12274 0d03 0000 0000 		.long	.LM361
 12275 0d07 18        		.byte	0x18
 12276 0d08 00        		.byte	0x0
 12277 0d09 05        		.uleb128 0x5
 12278 0d0a 02        		.byte	0x2
 12279 0d0b 0000 0000 		.long	.LM362
 12280 0d0f 16        		.byte	0x16
 12281 0d10 00        		.byte	0x0
 12282 0d11 05        		.uleb128 0x5
 12283 0d12 02        		.byte	0x2
 12284 0d13 0000 0000 		.long	.LM363
 12285 0d17 17        		.byte	0x17
 12286 0d18 00        		.byte	0x0
 12287 0d19 05        		.uleb128 0x5
 12288 0d1a 02        		.byte	0x2
 12289 0d1b 0000 0000 		.long	.LM364
 12290 0d1f 03        		.byte	0x3
 12291 0d20 B67B      		.sleb128 -586
 12292 0d22 01        		.byte	0x1
 12293 0d23 00        		.byte	0x0
 12294 0d24 05        		.uleb128 0x5
 12295 0d25 02        		.byte	0x2
 12296 0d26 0000 0000 		.long	.LM365
 12297 0d2a 03        		.byte	0x3
 12298 0d2b CD04      		.sleb128 589
 12299 0d2d 01        		.byte	0x1
 12300 0d2e 00        		.byte	0x0
 12301 0d2f 05        		.uleb128 0x5
 12302 0d30 02        		.byte	0x2
 12303 0d31 0000 0000 		.long	.LM366
 12304 0d35 03        		.byte	0x3
 12305 0d36 B37B      		.sleb128 -589
 12306 0d38 01        		.byte	0x1
 12307 0d39 00        		.byte	0x0
 12308 0d3a 05        		.uleb128 0x5
 12309 0d3b 02        		.byte	0x2
 12310 0d3c 0000 0000 		.long	.LM367
 12311 0d40 03        		.byte	0x3
 12312 0d41 CE04      		.sleb128 590
 12313 0d43 01        		.byte	0x1
 12314 0d44 00        		.byte	0x0
 12315 0d45 05        		.uleb128 0x5
 12316 0d46 02        		.byte	0x2
 12317 0d47 0000 0000 		.long	.LM368
 12318 0d4b 15        		.byte	0x15
 12319 0d4c 00        		.byte	0x0
 12320 0d4d 05        		.uleb128 0x5
 12321 0d4e 02        		.byte	0x2
 12322 0d4f 0000 0000 		.long	.LM369
 12323 0d53 16        		.byte	0x16
 12324 0d54 00        		.byte	0x0
GAS LISTING /tmp/cchdpaIW.s 			page 221


 12325 0d55 05        		.uleb128 0x5
 12326 0d56 02        		.byte	0x2
 12327 0d57 0000 0000 		.long	.LM370
 12328 0d5b 01        		.byte	0x1
 12329 0d5c 00        		.byte	0x0
 12330 0d5d 05        		.uleb128 0x5
 12331 0d5e 02        		.byte	0x2
 12332 0d5f 0000 0000 		.long	.LM371
 12333 0d63 17        		.byte	0x17
 12334 0d64 00        		.byte	0x0
 12335 0d65 05        		.uleb128 0x5
 12336 0d66 02        		.byte	0x2
 12337 0d67 0000 0000 		.long	.LM372
 12338 0d6b 15        		.byte	0x15
 12339 0d6c 00        		.byte	0x0
 12340 0d6d 05        		.uleb128 0x5
 12341 0d6e 02        		.byte	0x2
 12342 0d6f 0000 0000 		.long	.LM373
 12343 0d73 12        		.byte	0x12
 12344 0d74 00        		.byte	0x0
 12345 0d75 05        		.uleb128 0x5
 12346 0d76 02        		.byte	0x2
 12347 0d77 0000 0000 		.long	.LM374
 12348 0d7b 1B        		.byte	0x1b
 12349 0d7c 00        		.byte	0x0
 12350 0d7d 05        		.uleb128 0x5
 12351 0d7e 02        		.byte	0x2
 12352 0d7f 0000 0000 		.long	.LM375
 12353 0d83 16        		.byte	0x16
 12354 0d84 00        		.byte	0x0
 12355 0d85 05        		.uleb128 0x5
 12356 0d86 02        		.byte	0x2
 12357 0d87 0000 0000 		.long	.LM376
 12358 0d8b 20        		.byte	0x20
 12359 0d8c 00        		.byte	0x0
 12360 0d8d 05        		.uleb128 0x5
 12361 0d8e 02        		.byte	0x2
 12362 0d8f 0000 0000 		.long	.LM377
 12363 0d93 15        		.byte	0x15
 12364 0d94 00        		.byte	0x0
 12365 0d95 05        		.uleb128 0x5
 12366 0d96 02        		.byte	0x2
 12367 0d97 0000 0000 		.long	.LM378
 12368 0d9b 16        		.byte	0x16
 12369 0d9c 00        		.byte	0x0
 12370 0d9d 05        		.uleb128 0x5
 12371 0d9e 02        		.byte	0x2
 12372 0d9f 0000 0000 		.long	.LM379
 12373 0da3 16        		.byte	0x16
 12374 0da4 00        		.byte	0x0
 12375 0da5 05        		.uleb128 0x5
 12376 0da6 02        		.byte	0x2
 12377 0da7 0000 0000 		.long	.LM380
 12378 0dab 16        		.byte	0x16
 12379 0dac 00        		.byte	0x0
 12380 0dad 05        		.uleb128 0x5
 12381 0dae 02        		.byte	0x2
GAS LISTING /tmp/cchdpaIW.s 			page 222


 12382 0daf 0000 0000 		.long	.LM381
 12383 0db3 15        		.byte	0x15
 12384 0db4 00        		.byte	0x0
 12385 0db5 05        		.uleb128 0x5
 12386 0db6 02        		.byte	0x2
 12387 0db7 0000 0000 		.long	.LM382
 12388 0dbb 15        		.byte	0x15
 12389 0dbc 00        		.byte	0x0
 12390 0dbd 05        		.uleb128 0x5
 12391 0dbe 02        		.byte	0x2
 12392 0dbf 0000 0000 		.long	.LM383
 12393 0dc3 15        		.byte	0x15
 12394 0dc4 00        		.byte	0x0
 12395 0dc5 05        		.uleb128 0x5
 12396 0dc6 02        		.byte	0x2
 12397 0dc7 0000 0000 		.long	.LM384
 12398 0dcb 16        		.byte	0x16
 12399 0dcc 00        		.byte	0x0
 12400 0dcd 05        		.uleb128 0x5
 12401 0dce 02        		.byte	0x2
 12402 0dcf 0000 0000 		.long	.LM385
 12403 0dd3 16        		.byte	0x16
 12404 0dd4 00        		.byte	0x0
 12405 0dd5 05        		.uleb128 0x5
 12406 0dd6 02        		.byte	0x2
 12407 0dd7 0000 0000 		.long	.LM386
 12408 0ddb 15        		.byte	0x15
 12409 0ddc 00        		.byte	0x0
 12410 0ddd 05        		.uleb128 0x5
 12411 0dde 02        		.byte	0x2
 12412 0ddf 0000 0000 		.long	.LM387
 12413 0de3 16        		.byte	0x16
 12414 0de4 00        		.byte	0x0
 12415 0de5 05        		.uleb128 0x5
 12416 0de6 02        		.byte	0x2
 12417 0de7 0000 0000 		.long	.LM388
 12418 0deb 15        		.byte	0x15
 12419 0dec 00        		.byte	0x0
 12420 0ded 05        		.uleb128 0x5
 12421 0dee 02        		.byte	0x2
 12422 0def 0000 0000 		.long	.LM389
 12423 0df3 38        		.byte	0x38
 12424 0df4 00        		.byte	0x0
 12425 0df5 05        		.uleb128 0x5
 12426 0df6 02        		.byte	0x2
 12427 0df7 0000 0000 		.long	.LM390
 12428 0dfb 16        		.byte	0x16
 12429 0dfc 00        		.byte	0x0
 12430 0dfd 05        		.uleb128 0x5
 12431 0dfe 02        		.byte	0x2
 12432 0dff 0000 0000 		.long	.LM391
 12433 0e03 19        		.byte	0x19
 12434 0e04 00        		.byte	0x0
 12435 0e05 05        		.uleb128 0x5
 12436 0e06 02        		.byte	0x2
 12437 0e07 0000 0000 		.long	.LM392
 12438 0e0b 15        		.byte	0x15
GAS LISTING /tmp/cchdpaIW.s 			page 223


 12439 0e0c 00        		.byte	0x0
 12440 0e0d 05        		.uleb128 0x5
 12441 0e0e 02        		.byte	0x2
 12442 0e0f 0000 0000 		.long	.LM393
 12443 0e13 15        		.byte	0x15
 12444 0e14 00        		.byte	0x0
 12445 0e15 05        		.uleb128 0x5
 12446 0e16 02        		.byte	0x2
 12447 0e17 0000 0000 		.long	.LM394
 12448 0e1b 16        		.byte	0x16
 12449 0e1c 00        		.byte	0x0
 12450 0e1d 05        		.uleb128 0x5
 12451 0e1e 02        		.byte	0x2
 12452 0e1f 0000 0000 		.long	.LM395
 12453 0e23 15        		.byte	0x15
 12454 0e24 00        		.byte	0x0
 12455 0e25 05        		.uleb128 0x5
 12456 0e26 02        		.byte	0x2
 12457 0e27 0000 0000 		.long	.LM396
 12458 0e2b 17        		.byte	0x17
 12459 0e2c 00        		.byte	0x0
 12460 0e2d 05        		.uleb128 0x5
 12461 0e2e 02        		.byte	0x2
 12462 0e2f 0000 0000 		.long	.LM397
 12463 0e33 15        		.byte	0x15
 12464 0e34 00        		.byte	0x0
 12465 0e35 05        		.uleb128 0x5
 12466 0e36 02        		.byte	0x2
 12467 0e37 0000 0000 		.long	.LM398
 12468 0e3b 15        		.byte	0x15
 12469 0e3c 00        		.byte	0x0
 12470 0e3d 05        		.uleb128 0x5
 12471 0e3e 02        		.byte	0x2
 12472 0e3f 0000 0000 		.long	.LM399
 12473 0e43 15        		.byte	0x15
 12474 0e44 00        		.byte	0x0
 12475 0e45 05        		.uleb128 0x5
 12476 0e46 02        		.byte	0x2
 12477 0e47 0000 0000 		.long	.LM400
 12478 0e4b 16        		.byte	0x16
 12479 0e4c 00        		.byte	0x0
 12480 0e4d 05        		.uleb128 0x5
 12481 0e4e 02        		.byte	0x2
 12482 0e4f 0000 0000 		.long	.LM401
 12483 0e53 15        		.byte	0x15
 12484 0e54 00        		.byte	0x0
 12485 0e55 05        		.uleb128 0x5
 12486 0e56 02        		.byte	0x2
 12487 0e57 0000 0000 		.long	.LM402
 12488 0e5b 16        		.byte	0x16
 12489 0e5c 00        		.byte	0x0
 12490 0e5d 05        		.uleb128 0x5
 12491 0e5e 02        		.byte	0x2
 12492 0e5f 0000 0000 		.long	.LM403
 12493 0e63 15        		.byte	0x15
 12494 0e64 00        		.byte	0x0
 12495 0e65 05        		.uleb128 0x5
GAS LISTING /tmp/cchdpaIW.s 			page 224


 12496 0e66 02        		.byte	0x2
 12497 0e67 0000 0000 		.long	.LM404
 12498 0e6b 15        		.byte	0x15
 12499 0e6c 00        		.byte	0x0
 12500 0e6d 05        		.uleb128 0x5
 12501 0e6e 02        		.byte	0x2
 12502 0e6f 0000 0000 		.long	.LM405
 12503 0e73 03        		.byte	0x3
 12504 0e74 937A      		.sleb128 -749
 12505 0e76 01        		.byte	0x1
 12506 0e77 00        		.byte	0x0
 12507 0e78 05        		.uleb128 0x5
 12508 0e79 02        		.byte	0x2
 12509 0e7a 0000 0000 		.long	.LM406
 12510 0e7e 17        		.byte	0x17
 12511 0e7f 00        		.byte	0x0
 12512 0e80 05        		.uleb128 0x5
 12513 0e81 02        		.byte	0x2
 12514 0e82 0000 0000 		.long	.LM407
 12515 0e86 18        		.byte	0x18
 12516 0e87 00        		.byte	0x0
 12517 0e88 05        		.uleb128 0x5
 12518 0e89 02        		.byte	0x2
 12519 0e8a 0000 0000 		.long	.LM408
 12520 0e8e 15        		.byte	0x15
 12521 0e8f 00        		.byte	0x0
 12522 0e90 05        		.uleb128 0x5
 12523 0e91 02        		.byte	0x2
 12524 0e92 0000 0000 		.long	.LM409
 12525 0e96 17        		.byte	0x17
 12526 0e97 00        		.byte	0x0
 12527 0e98 05        		.uleb128 0x5
 12528 0e99 02        		.byte	0x2
 12529 0e9a 0000 0000 		.long	.LM410
 12530 0e9e 15        		.byte	0x15
 12531 0e9f 00        		.byte	0x0
 12532 0ea0 05        		.uleb128 0x5
 12533 0ea1 02        		.byte	0x2
 12534 0ea2 0000 0000 		.long	.LM411
 12535 0ea6 17        		.byte	0x17
 12536 0ea7 00        		.byte	0x0
 12537 0ea8 05        		.uleb128 0x5
 12538 0ea9 02        		.byte	0x2
 12539 0eaa 0000 0000 		.long	.LM412
 12540 0eae 03        		.byte	0x3
 12541 0eaf E005      		.sleb128 736
 12542 0eb1 01        		.byte	0x1
 12543 0eb2 00        		.byte	0x0
 12544 0eb3 05        		.uleb128 0x5
 12545 0eb4 02        		.byte	0x2
 12546 0eb5 0000 0000 		.long	.LM413
 12547 0eb9 16        		.byte	0x16
 12548 0eba 00        		.byte	0x0
 12549 0ebb 05        		.uleb128 0x5
 12550 0ebc 02        		.byte	0x2
 12551 0ebd 0000 0000 		.long	.LM414
 12552 0ec1 15        		.byte	0x15
GAS LISTING /tmp/cchdpaIW.s 			page 225


 12553 0ec2 00        		.byte	0x0
 12554 0ec3 05        		.uleb128 0x5
 12555 0ec4 02        		.byte	0x2
 12556 0ec5 0000 0000 		.long	.LM415
 12557 0ec9 18        		.byte	0x18
 12558 0eca 00        		.byte	0x0
 12559 0ecb 05        		.uleb128 0x5
 12560 0ecc 02        		.byte	0x2
 12561 0ecd 0000 0000 		.long	.LM416
 12562 0ed1 15        		.byte	0x15
 12563 0ed2 00        		.byte	0x0
 12564 0ed3 05        		.uleb128 0x5
 12565 0ed4 02        		.byte	0x2
 12566 0ed5 0000 0000 		.long	.LM417
 12567 0ed9 16        		.byte	0x16
 12568 0eda 00        		.byte	0x0
 12569 0edb 05        		.uleb128 0x5
 12570 0edc 02        		.byte	0x2
 12571 0edd 0000 0000 		.long	.LM418
 12572 0ee1 16        		.byte	0x16
 12573 0ee2 00        		.byte	0x0
 12574 0ee3 05        		.uleb128 0x5
 12575 0ee4 02        		.byte	0x2
 12576 0ee5 0000 0000 		.long	.Letext0
 12577 0ee9 00        		.byte	0x0
 12578 0eea 01        		.uleb128 0x1
 12579 0eeb 01        		.byte	0x1
 12580               	.LELT0:
 12581 0eec 1600 0000 		.section	.debug_str,"MS",@progbits,1
 12581      0200 1000 
 12581      0000 0101 
 12581      FB0E 0A00 
 12581      0101 0101 
 12582               	.LASF224:
 12583 0000 6469 7265 		.string	"direction"
 12583      6374 696F 
 12583      6E00 
 12584               	.LASF127:
 12585 000a 5045 524C 		.string	"PERL"
 12585      00
 12586               	.LASF139:
 12587 000f 5045 5242 		.string	"PERBUF"
 12587      5546 00
 12588               	.LASF15:
 12589 0016 4343 505F 		.string	"CCP_IOREG_gc"
 12589      494F 5245 
 12589      475F 6763 
 12589      00
 12590               	.LASF196:
 12591 0023 5443 5F43 		.string	"TC_CLKSEL_DIV2_gc"
 12591      4C4B 5345 
 12591      4C5F 4449 
 12591      5632 5F67 
 12591      6300 
 12592               	.LASF239:
 12593 0035 6D6F 746F 		.string	"motor_pin_4"
 12593      725F 7069 
GAS LISTING /tmp/cchdpaIW.s 			page 226


 12593      6E5F 3400 
 12594               	.LASF328:
 12595 0041 6D61 696E 		.string	"main.c"
 12595      2E63 00
 12596               	.LASF85:
 12597 0048 434F 4D50 		.string	"COMP0"
 12597      3000 
 12598               	.LASF182:
 12599 004e 7265 7365 		.string	"reserved_0x22"
 12599      7276 6564 
 12599      5F30 7832 
 12599      3200 
 12600               	.LASF183:
 12601 005c 7265 7365 		.string	"reserved_0x23"
 12601      7276 6564 
 12601      5F30 7832 
 12601      3300 
 12602               	.LASF184:
 12603 006a 7265 7365 		.string	"reserved_0x24"
 12603      7276 6564 
 12603      5F30 7832 
 12603      3400 
 12604               	.LASF185:
 12605 0078 7265 7365 		.string	"reserved_0x25"
 12605      7276 6564 
 12605      5F30 7832 
 12605      3500 
 12606               	.LASF60:
 12607 0086 504C 4C43 		.string	"PLLCTRL"
 12607      5452 4C00 
 12608               	.LASF102:
 12609 008e 494E 5431 		.string	"INT1MASK"
 12609      4D41 534B 
 12609      00
 12610               	.LASF278:
 12611 0097 636C 6B43 		.string	"clkCtrl"
 12611      7472 6C00 
 12612               	.LASF142:
 12613 009f 4343 4142 		.string	"CCABUF"
 12613      5546 00
 12614               	.LASF158:
 12615 00a6 7265 7365 		.string	"reserved_0x05"
 12615      7276 6564 
 12615      5F30 7830 
 12615      3500 
 12616               	.LASF27:
 12617 00b4 434C 4B5F 		.string	"CLK_SCLKSEL_RC32K_gc"
 12617      5343 4C4B 
 12617      5345 4C5F 
 12617      5243 3332 
 12617      4B5F 6763 
 12618               	.LASF83:
 12619 00c9 4341 4C41 		.string	"CALA"
 12619      00
 12620               	.LASF84:
 12621 00ce 4341 4C42 		.string	"CALB"
 12621      00
GAS LISTING /tmp/cchdpaIW.s 			page 227


 12622               	.LASF52:
 12623 00d3 434C 4B5F 		.string	"CLK_RTCSRC_RCOSC_gc"
 12623      5254 4353 
 12623      5243 5F52 
 12623      434F 5343 
 12623      5F67 6300 
 12624               	.LASF33:
 12625 00e7 434C 4B5F 		.string	"CLK_PSADIV_2_gc"
 12625      5053 4144 
 12625      4956 5F32 
 12625      5F67 6300 
 12626               	.LASF30:
 12627 00f7 434C 4B5F 		.string	"CLK_SCLKSEL_t"
 12627      5343 4C4B 
 12627      5345 4C5F 
 12627      7400 
 12628               	.LASF159:
 12629 0105 494E 5443 		.string	"INTCTRLA"
 12629      5452 4C41 
 12629      00
 12630               	.LASF160:
 12631 010e 494E 5443 		.string	"INTCTRLB"
 12631      5452 4C42 
 12631      00
 12632               	.LASF113:
 12633 0117 5049 4E36 		.string	"PIN6CTRL"
 12633      4354 524C 
 12633      00
 12634               	.LASF329:
 12635 0120 2F68      		.ascii	"/h"
 12636 0122 6F6D 652F 		.string	"ome/dgonz/projects/gitHome/TinyArmTroller/tinyArmTrollerFirmware"
 12636      6467 6F6E 
 12636      7A2F 7072 
 12636      6F6A 6563 
 12636      7473 2F67 
 12637               	.LASF106:
 12638 0163 7265 7365 		.string	"reserved_0x0F"
 12638      7276 6564 
 12638      5F30 7830 
 12638      4600 
 12639               	.LASF291:
 12640 0171 626C 696E 		.string	"blink"
 12640      6B00 
 12641               	.LASF54:
 12642 0177 434C 4B5F 		.string	"CLK_RTCSRC_t"
 12642      5254 4353 
 12642      5243 5F74 
 12642      00
 12643               	.LASF243:
 12644 0184 5F5F 7469 		.string	"__ticks_dc"
 12644      636B 735F 
 12644      6463 00
 12645               	.LASF215:
 12646 018f 5553 4152 		.string	"USART_struct"
 12646      545F 7374 
 12646      7275 6374 
 12646      00
GAS LISTING /tmp/cchdpaIW.s 			page 228


 12647               	.LASF186:
 12648 019c 7265 7365 		.string	"reserved_0x30"
 12648      7276 6564 
 12648      5F30 7833 
 12648      3000 
 12649               	.LASF187:
 12650 01aa 7265 7365 		.string	"reserved_0x31"
 12650      7276 6564 
 12650      5F30 7833 
 12650      3100 
 12651               	.LASF188:
 12652 01b8 7265 7365 		.string	"reserved_0x32"
 12652      7276 6564 
 12652      5F30 7833 
 12652      3200 
 12653               	.LASF189:
 12654 01c6 7265 7365 		.string	"reserved_0x33"
 12654      7276 6564 
 12654      5F30 7833 
 12654      3300 
 12655               	.LASF286:
 12656 01d4 7570 6461 		.string	"update"
 12656      7465 00
 12657               	.LASF191:
 12658 01db 7265 7365 		.string	"reserved_0x35"
 12658      7276 6564 
 12658      5F30 7833 
 12658      3500 
 12659               	.LASF81:
 12660 01e9 4446 4C4C 		.string	"DFLL_struct"
 12660      5F73 7472 
 12660      7563 7400 
 12661               	.LASF116:
 12662 01f5 504F 5254 		.string	"PORT_OPC_enum"
 12662      5F4F 5043 
 12662      5F65 6E75 
 12662      6D00 
 12663               	.LASF37:
 12664 0203 434C 4B5F 		.string	"CLK_PSADIV_32_gc"
 12664      5053 4144 
 12664      4956 5F33 
 12664      325F 6763 
 12664      00
 12665               	.LASF36:
 12666 0214 434C 4B5F 		.string	"CLK_PSADIV_16_gc"
 12666      5053 4144 
 12666      4956 5F31 
 12666      365F 6763 
 12666      00
 12667               	.LASF225:
 12668 0225 7370 6565 		.string	"speed"
 12668      6400 
 12669               	.LASF24:
 12670 022b 434C 4B5F 		.string	"CLK_SCLKSEL_enum"
 12670      5343 4C4B 
 12670      5345 4C5F 
 12670      656E 756D 
GAS LISTING /tmp/cchdpaIW.s 			page 229


 12670      00
 12671               	.LASF9:
 12672 023c 756E 6765 		.string	"unget"
 12672      7400 
 12673               	.LASF240:
 12674 0242 6C61 7374 		.string	"last_step_time"
 12674      5F73 7465 
 12674      705F 7469 
 12674      6D65 00
 12675               	.LASF307:
 12676 0251 6D61 7845 		.string	"maxError"
 12676      7272 6F72 
 12676      00
 12677               	.LASF130:
 12678 025a 4343 4148 		.string	"CCAH"
 12678      00
 12679               	.LASF306:
 12680 025f 6572 726F 		.string	"error"
 12680      7200 
 12681               	.LASF74:
 12682 0265 4F53 435F 		.string	"OSC_XOSCSEL_XTAL_16KCLK_gc"
 12682      584F 5343 
 12682      5345 4C5F 
 12682      5854 414C 
 12682      5F31 364B 
 12683               	.LASF129:
 12684 0280 4343 414C 		.string	"CCAL"
 12684      00
 12685               	.LASF199:
 12686 0285 5443 5F43 		.string	"TC_CLKSEL_DIV64_gc"
 12686      4C4B 5345 
 12686      4C5F 4449 
 12686      5636 345F 
 12686      6763 00
 12687               	.LASF91:
 12688 0298 494E 5450 		.string	"INTPRI"
 12688      5249 00
 12689               	.LASF120:
 12690 029f 504F 5254 		.string	"PORT_OPC_PULLUP_gc"
 12690      5F4F 5043 
 12690      5F50 554C 
 12690      4C55 505F 
 12690      6763 00
 12691               	.LASF246:
 12692 02b2 7661 6C30 		.string	"val0"
 12692      00
 12693               	.LASF247:
 12694 02b7 7661 6C31 		.string	"val1"
 12694      00
 12695               	.LASF248:
 12696 02bc 7661 6C32 		.string	"val2"
 12696      00
 12697               	.LASF249:
 12698 02c1 7661 6C33 		.string	"val3"
 12698      00
 12699               	.LASF250:
 12700 02c6 7661 6C34 		.string	"val4"
GAS LISTING /tmp/cchdpaIW.s 			page 230


 12700      00
 12701               	.LASF251:
 12702 02cb 7661 6C35 		.string	"val5"
 12702      00
 12703               	.LASF23:
 12704 02d0 4343 505F 		.string	"CCP_enum"
 12704      656E 756D 
 12704      00
 12705               	.LASF216:
 12706 02d9 4441 5441 		.string	"DATA"
 12706      00
 12707               	.LASF55:
 12708 02de 4F53 435F 		.string	"OSC_struct"
 12708      7374 7275 
 12708      6374 00
 12709               	.LASF107:
 12710 02e9 5049 4E30 		.string	"PIN0CTRL"
 12710      4354 524C 
 12710      00
 12711               	.LASF79:
 12712 02f2 4F53 435F 		.string	"OSC_PLLSRC_XOSC_gc"
 12712      504C 4C53 
 12712      5243 5F58 
 12712      4F53 435F 
 12712      6763 00
 12713               	.LASF39:
 12714 0305 434C 4B5F 		.string	"CLK_PSADIV_128_gc"
 12714      5053 4144 
 12714      4956 5F31 
 12714      3238 5F67 
 12714      6300 
 12715               	.LASF42:
 12716 0317 434C 4B5F 		.string	"CLK_PSADIV_t"
 12716      5053 4144 
 12716      4956 5F74 
 12716      00
 12717               	.LASF48:
 12718 0324 434C 4B5F 		.string	"CLK_PSBCDIV_t"
 12718      5053 4243 
 12718      4449 565F 
 12718      7400 
 12719               	.LASF171:
 12720 0332 7265 7365 		.string	"reserved_0x15"
 12720      7276 6564 
 12720      5F30 7831 
 12720      3500 
 12721               	.LASF277:
 12722 0340 434C 4B53 		.string	"CLKSYS_Main_ClockSource_Select"
 12722      5953 5F4D 
 12722      6169 6E5F 
 12722      436C 6F63 
 12722      6B53 6F75 
 12723               	.LASF295:
 12724 035f 706F 7274 		.string	"portNum"
 12724      4E75 6D00 
 12725               	.LASF63:
 12726 0367 4F53 435F 		.string	"OSC_FRQRANGE_enum"
GAS LISTING /tmp/cchdpaIW.s 			page 231


 12726      4652 5152 
 12726      414E 4745 
 12726      5F65 6E75 
 12726      6D00 
 12727               	.LASF226:
 12728 0379 7374 6570 		.string	"step_delay"
 12728      5F64 656C 
 12728      6179 00
 12729               	.LASF285:
 12730 0384 5F5F 7665 		.string	"__vector_14"
 12730      6374 6F72 
 12730      5F31 3400 
 12731               	.LASF99:
 12732 0390 4F55 5454 		.string	"OUTTGL"
 12732      474C 00
 12733               	.LASF21:
 12734 0397 5254 4343 		.string	"RTCCTRL"
 12734      5452 4C00 
 12735               	.LASF51:
 12736 039f 434C 4B5F 		.string	"CLK_RTCSRC_TOSC_gc"
 12736      5254 4353 
 12736      5243 5F54 
 12736      4F53 435F 
 12736      6763 00
 12737               	.LASF5:
 12738 03b2 7569 6E74 		.string	"uint32_t"
 12738      3332 5F74 
 12738      00
 12739               	.LASF132:
 12740 03bb 4343 4248 		.string	"CCBH"
 12740      00
 12741               	.LASF281:
 12742 03c0 636C 6B53 		.string	"clkSource"
 12742      6F75 7263 
 12742      6500 
 12743               	.LASF180:
 12744 03ca 7265 7365 		.string	"reserved_0x1E"
 12744      7276 6564 
 12744      5F30 7831 
 12744      4500 
 12745               	.LASF131:
 12746 03d8 4343 424C 		.string	"CCBL"
 12746      00
 12747               	.LASF68:
 12748 03dd 4F53 435F 		.string	"OSC_FRQRANGE_t"
 12748      4652 5152 
 12748      414E 4745 
 12748      5F74 00
 12749               	.LASF95:
 12750 03ec 4449 5243 		.string	"DIRCLR"
 12750      4C52 00
 12751               	.LASF17:
 12752 03f3 434C 4B5F 		.string	"CLK_struct"
 12752      7374 7275 
 12752      6374 00
 12753               	.LASF287:
 12754 03fe 7661 6C73 		.string	"vals"
GAS LISTING /tmp/cchdpaIW.s 			page 232


 12754      00
 12755               	.LASF319:
 12756 0403 6D79 7374 		.string	"mystdout"
 12756      646F 7574 
 12756      00
 12757               	.LASF309:
 12758 040c 5F5F 6275 		.string	"__builtin_avr_delay_cycles"
 12758      696C 7469 
 12758      6E5F 6176 
 12758      725F 6465 
 12758      6C61 795F 
 12759               	.LASF20:
 12760 0427 4C4F 434B 		.string	"LOCK"
 12760      00
 12761               	.LASF253:
 12762 042c 7365 7453 		.string	"setSpeed"
 12762      7065 6564 
 12762      00
 12763               	.LASF38:
 12764 0435 434C 4B5F 		.string	"CLK_PSADIV_64_gc"
 12764      5053 4144 
 12764      4956 5F36 
 12764      345F 6763 
 12764      00
 12765               	.LASF259:
 12766 0446 7361 7665 		.string	"saved_sreg"
 12766      645F 7372 
 12766      6567 00
 12767               	.LASF105:
 12768 0451 7265 7365 		.string	"reserved_0x0E"
 12768      7276 6564 
 12768      5F30 7830 
 12768      4500 
 12769               	.LASF141:
 12770 045f 4343 4142 		.string	"CCABUFH"
 12770      5546 4800 
 12771               	.LASF28:
 12772 0467 434C 4B5F 		.string	"CLK_SCLKSEL_XOSC_gc"
 12772      5343 4C4B 
 12772      5345 4C5F 
 12772      584F 5343 
 12772      5F67 6300 
 12773               	.LASF140:
 12774 047b 4343 4142 		.string	"CCABUFL"
 12774      5546 4C00 
 12775               	.LASF203:
 12776 0483 5443 5F43 		.string	"TC_CLKSEL_EVCH1_gc"
 12776      4C4B 5345 
 12776      4C5F 4556 
 12776      4348 315F 
 12776      6763 00
 12777               	.LASF311:
 12778 0496 7561 7274 		.string	"uart_getchar"
 12778      5F67 6574 
 12778      6368 6172 
 12778      00
 12779               	.LASF280:
GAS LISTING /tmp/cchdpaIW.s 			page 233


 12780 04a3 434C 4B53 		.string	"CLKSYS_AutoCalibration_Enable"
 12780      5953 5F41 
 12780      7574 6F43 
 12780      616C 6962 
 12780      7261 7469 
 12781               	.LASF8:
 12782 04c1 6C6F 6E67 		.string	"long long unsigned int"
 12782      206C 6F6E 
 12782      6720 756E 
 12782      7369 676E 
 12782      6564 2069 
 12783               	.LASF323:
 12784 04d8 4C65 6674 		.string	"Left_Wrist"
 12784      5F57 7269 
 12784      7374 00
 12785               	.LASF45:
 12786 04e3 434C 4B5F 		.string	"CLK_PSBCDIV_1_2_gc"
 12786      5053 4243 
 12786      4449 565F 
 12786      315F 325F 
 12786      6763 00
 12787               	.LASF76:
 12788 04f6 4F53 435F 		.string	"OSC_PLLSRC_enum"
 12788      504C 4C53 
 12788      5243 5F65 
 12788      6E75 6D00 
 12789               	.LASF134:
 12790 0506 4343 4348 		.string	"CCCH"
 12790      00
 12791               	.LASF318:
 12792 050b 6D61 7853 		.string	"maxSpeed"
 12792      7065 6564 
 12792      00
 12793               	.LASF133:
 12794 0514 4343 434C 		.string	"CCCL"
 12794      00
 12795               	.LASF263:
 12796 0519 6672 6571 		.string	"freqRange"
 12796      5261 6E67 
 12796      6500 
 12797               	.LASF53:
 12798 0523 434C 4B5F 		.string	"CLK_RTCSRC_TOSC32_gc"
 12798      5254 4353 
 12798      5243 5F54 
 12798      4F53 4333 
 12798      325F 6763 
 12799               	.LASF229:
 12800 0538 7374 6570 		.string	"step_number"
 12800      5F6E 756D 
 12800      6265 7200 
 12801               	.LASF325:
 12802 0544 4772 6970 		.string	"Gripper"
 12802      7065 7200 
 12803               	.LASF92:
 12804 054c 504D 4943 		.string	"PMIC_t"
 12804      5F74 00
 12805               	.LASF258:
GAS LISTING /tmp/cchdpaIW.s 			page 234


 12806 0553 7661 6C75 		.string	"value"
 12806      6500 
 12807               	.LASF59:
 12808 0559 5243 3332 		.string	"RC32KCAL"
 12808      4B43 414C 
 12808      00
 12809               	.LASF282:
 12810 0562 6578 7452 		.string	"extReference"
 12810      6566 6572 
 12810      656E 6365 
 12810      00
 12811               	.LASF72:
 12812 056f 4F53 435F 		.string	"OSC_XOSCSEL_XTAL_256CLK_gc"
 12812      584F 5343 
 12812      5345 4C5F 
 12812      5854 414C 
 12812      5F32 3536 
 12813               	.LASF231:
 12814 058a 6D61 7853 		.string	"maxSteps"
 12814      7465 7073 
 12814      00
 12815               	.LASF313:
 12816 0593 5F5F 696F 		.string	"__iob"
 12816      6200 
 12817               	.LASF136:
 12818 0599 4343 4448 		.string	"CCDH"
 12818      00
 12819               	.LASF233:
 12820 059e 6D6F 746F 		.string	"motor_pin_1"
 12820      725F 7069 
 12820      6E5F 3100 
 12821               	.LASF235:
 12822 05aa 6D6F 746F 		.string	"motor_pin_2"
 12822      725F 7069 
 12822      6E5F 3200 
 12823               	.LASF237:
 12824 05b6 6D6F 746F 		.string	"motor_pin_3"
 12824      725F 7069 
 12824      6E5F 3300 
 12825               	.LASF135:
 12826 05c2 4343 444C 		.string	"CCDL"
 12826      00
 12827               	.LASF266:
 12828 05c7 5F42 6F6F 		.string	"_Bool"
 12828      6C00 
 12829               	.LASF267:
 12830 05cd 434C 4B53 		.string	"CLKSYS_PLL_Config"
 12830      5953 5F50 
 12830      4C4C 5F43 
 12830      6F6E 6669 
 12830      6700 
 12831               	.LASF164:
 12832 05df 4354 524C 		.string	"CTRLGSET"
 12832      4753 4554 
 12832      00
 12833               	.LASF94:
 12834 05e8 4449 5253 		.string	"DIRSET"
GAS LISTING /tmp/cchdpaIW.s 			page 235


 12834      4554 00
 12835               	.LASF292:
 12836 05ef 6D79 5661 		.string	"myVal"
 12836      6C00 
 12837               	.LASF103:
 12838 05f5 494E 5446 		.string	"INTFLAGS"
 12838      4C41 4753 
 12838      00
 12839               	.LASF10:
 12840 05fe 666C 6167 		.string	"flags"
 12840      7300 
 12841               	.LASF61:
 12842 0604 4446 4C4C 		.string	"DFLLCTRL"
 12842      4354 524C 
 12842      00
 12843               	.LASF254:
 12844 060d 7374 6570 		.string	"stepper"
 12844      7065 7200 
 12845               	.LASF332:
 12846 0615 7369 676E 		.string	"signum"
 12846      756D 00
 12847               	.LASF223:
 12848 061c 6D6F 746F 		.string	"motorNumber"
 12848      724E 756D 
 12848      6265 7200 
 12849               	.LASF321:
 12850 0628 5368 6F75 		.string	"Shoulder"
 12850      6C64 6572 
 12850      00
 12851               	.LASF150:
 12852 0631 4343 4442 		.string	"CCDBUFH"
 12852      5546 4800 
 12853               	.LASF288:
 12854 0639 6465 6C61 		.string	"delay_ms"
 12854      795F 6D73 
 12854      00
 12855               	.LASF118:
 12856 0642 504F 5254 		.string	"PORT_OPC_BUSKEEPER_gc"
 12856      5F4F 5043 
 12856      5F42 5553 
 12856      4B45 4550 
 12856      4552 5F67 
 12857               	.LASF101:
 12858 0658 494E 5430 		.string	"INT0MASK"
 12858      4D41 534B 
 12858      00
 12859               	.LASF115:
 12860 0661 504F 5254 		.string	"PORT_t"
 12860      5F74 00
 12861               	.LASF149:
 12862 0668 4343 4442 		.string	"CCDBUFL"
 12862      5546 4C00 
 12863               	.LASF261:
 12864 0670 4343 5057 		.string	"CCPWrite"
 12864      7269 7465 
 12864      00
 12865               	.LASF228:
GAS LISTING /tmp/cchdpaIW.s 			page 236


 12866 0679 7069 6E5F 		.string	"pin_count"
 12866      636F 756E 
 12866      7400 
 12867               	.LASF205:
 12868 0683 5443 5F43 		.string	"TC_CLKSEL_EVCH3_gc"
 12868      4C4B 5345 
 12868      4C5F 4556 
 12868      4348 335F 
 12868      6763 00
 12869               	.LASF58:
 12870 0696 584F 5343 		.string	"XOSCFAIL"
 12870      4641 494C 
 12870      00
 12871               	.LASF73:
 12872 069f 4F53 435F 		.string	"OSC_XOSCSEL_XTAL_1KCLK_gc"
 12872      584F 5343 
 12872      5345 4C5F 
 12872      5854 414C 
 12872      5F31 4B43 
 12873               	.LASF208:
 12874 06b9 5443 5F43 		.string	"TC_CLKSEL_EVCH6_gc"
 12874      4C4B 5345 
 12874      4C5F 4556 
 12874      4348 365F 
 12874      6763 00
 12875               	.LASF117:
 12876 06cc 504F 5254 		.string	"PORT_OPC_TOTEM_gc"
 12876      5F4F 5043 
 12876      5F54 4F54 
 12876      454D 5F67 
 12876      6300 
 12877               	.LASF13:
 12878 06de 6368 6172 		.string	"char"
 12878      00
 12879               	.LASF284:
 12880 06e3 434C 4B53 		.string	"CLKSYS_Configuration_Lock"
 12880      5953 5F43 
 12880      6F6E 6669 
 12880      6775 7261 
 12880      7469 6F6E 
 12881               	.LASF327:
 12882 06fd 474E 5520 		.string	"GNU C 4.5.3"
 12882      4320 342E 
 12882      352E 3300 
 12883               	.LASF112:
 12884 0709 5049 4E35 		.string	"PIN5CTRL"
 12884      4354 524C 
 12884      00
 12885               	.LASF34:
 12886 0712 434C 4B5F 		.string	"CLK_PSADIV_4_gc"
 12886      5053 4144 
 12886      4956 5F34 
 12886      5F67 6300 
 12887               	.LASF179:
 12888 0722 7265 7365 		.string	"reserved_0x1D"
 12888      7276 6564 
 12888      5F30 7831 
GAS LISTING /tmp/cchdpaIW.s 			page 237


 12888      4400 
 12889               	.LASF190:
 12890 0730 7265 7365 		.string	"reserved_0x34"
 12890      7276 6564 
 12890      5F30 7833 
 12890      3400 
 12891               	.LASF270:
 12892 073e 6F73 6353 		.string	"oscSel"
 12892      656C 00
 12893               	.LASF297:
 12894 0745 636C 6561 		.string	"clearPin"
 12894      7250 696E 
 12894      00
 12895               	.LASF273:
 12896 074e 5053 4166 		.string	"PSAfactor"
 12896      6163 746F 
 12896      7200 
 12897               	.LASF19:
 12898 0758 5053 4354 		.string	"PSCTRL"
 12898      524C 00
 12899               	.LASF7:
 12900 075f 6C6F 6E67 		.string	"long long int"
 12900      206C 6F6E 
 12900      6720 696E 
 12900      7400 
 12901               	.LASF93:
 12902 076d 504F 5254 		.string	"PORT_struct"
 12902      5F73 7472 
 12902      7563 7400 
 12903               	.LASF4:
 12904 0779 7569 6E74 		.string	"uint8_t"
 12904      385F 7400 
 12905               	.LASF163:
 12906 0781 4354 524C 		.string	"CTRLGCLR"
 12906      4743 4C52 
 12906      00
 12907               	.LASF293:
 12908 078a 626C 696E 		.string	"blinkN"
 12908      6B4E 00
 12909               	.LASF66:
 12910 0791 4F53 435F 		.string	"OSC_FRQRANGE_9TO12_gc"
 12910      4652 5152 
 12910      414E 4745 
 12910      5F39 544F 
 12910      3132 5F67 
 12911               	.LASF109:
 12912 07a7 5049 4E32 		.string	"PIN2CTRL"
 12912      4354 524C 
 12912      00
 12913               	.LASF276:
 12914 07b0 434C 4B53 		.string	"CLKSYS_Disable"
 12914      5953 5F44 
 12914      6973 6162 
 12914      6C65 00
 12915               	.LASF289:
 12916 07bf 636F 6D70 		.string	"compareArray"
 12916      6172 6541 
GAS LISTING /tmp/cchdpaIW.s 			page 238


 12916      7272 6179 
 12916      00
 12917               	.LASF41:
 12918 07cc 434C 4B5F 		.string	"CLK_PSADIV_512_gc"
 12918      5053 4144 
 12918      4956 5F35 
 12918      3132 5F67 
 12918      6300 
 12919               	.LASF194:
 12920 07de 5443 5F43 		.string	"TC_CLKSEL_OFF_gc"
 12920      4C4B 5345 
 12920      4C5F 4F46 
 12920      465F 6763 
 12920      00
 12921               	.LASF193:
 12922 07ef 5443 5F43 		.string	"TC_CLKSEL_enum"
 12922      4C4B 5345 
 12922      4C5F 656E 
 12922      756D 00
 12923               	.LASF241:
 12924 07fe 5F5F 7469 		.string	"__ticks"
 12924      636B 7300 
 12925               	.LASF220:
 12926 0806 5553 4152 		.string	"USART_t"
 12926      545F 7400 
 12927               	.LASF322:
 12928 080e 456C 626F 		.string	"Elbow"
 12928      7700 
 12929               	.LASF315:
 12930 0814 676F 616C 		.string	"goal"
 12930      00
 12931               	.LASF121:
 12932 0819 504F 5254 		.string	"PORT_OPC_WIREDOR_gc"
 12932      5F4F 5043 
 12932      5F57 4952 
 12932      4544 4F52 
 12932      5F67 6300 
 12933               	.LASF26:
 12934 082d 434C 4B5F 		.string	"CLK_SCLKSEL_RC32M_gc"
 12934      5343 4C4B 
 12934      5345 4C5F 
 12934      5243 3332 
 12934      4D5F 6763 
 12935               	.LASF80:
 12936 0842 4F53 435F 		.string	"OSC_PLLSRC_t"
 12936      504C 4C53 
 12936      5243 5F74 
 12936      00
 12937               	.LASF316:
 12938 084f 706F 7365 		.string	"pose"
 12938      00
 12939               	.LASF317:
 12940 0854 656C 6170 		.string	"elapsedMillis"
 12940      7365 644D 
 12940      696C 6C69 
 12940      7300 
 12941               	.LASF227:
GAS LISTING /tmp/cchdpaIW.s 			page 239


 12942 0862 6E75 6D62 		.string	"number_of_steps"
 12942      6572 5F6F 
 12942      665F 7374 
 12942      6570 7300 
 12943               	.LASF222:
 12944 0872 5374 6570 		.string	"Stepper"
 12944      7065 7200 
 12945               	.LASF47:
 12946 087a 434C 4B5F 		.string	"CLK_PSBCDIV_2_2_gc"
 12946      5053 4243 
 12946      4449 565F 
 12946      325F 325F 
 12946      6763 00
 12947               	.LASF165:
 12948 088d 5445 4D50 		.string	"TEMP"
 12948      00
 12949               	.LASF147:
 12950 0892 4343 4342 		.string	"CCCBUFH"
 12950      5546 4800 
 12951               	.LASF146:
 12952 089a 4343 4342 		.string	"CCCBUFL"
 12952      5546 4C00 
 12953               	.LASF128:
 12954 08a2 5045 5248 		.string	"PERH"
 12954      00
 12955               	.LASF86:
 12956 08a7 434F 4D50 		.string	"COMP1"
 12956      3100 
 12957               	.LASF87:
 12958 08ad 434F 4D50 		.string	"COMP2"
 12958      3200 
 12959               	.LASF207:
 12960 08b3 5443 5F43 		.string	"TC_CLKSEL_EVCH5_gc"
 12960      4C4B 5345 
 12960      4C5F 4556 
 12960      4348 355F 
 12960      6763 00
 12961               	.LASF22:
 12962 08c6 434C 4B5F 		.string	"CLK_t"
 12962      7400 
 12963               	.LASF283:
 12964 08cc 434C 4B53 		.string	"CLKSYS_XOSC_FailureDetection_Enable"
 12964      5953 5F58 
 12964      4F53 435F 
 12964      4661 696C 
 12964      7572 6544 
 12965               	.LASF300:
 12966 08f0 7374 6570 		.string	"step"
 12966      00
 12967               	.LASF16:
 12968 08f5 5F5F 6669 		.string	"__file"
 12968      6C65 00
 12969               	.LASF11:
 12970 08fc 7369 7A65 		.string	"size"
 12970      00
 12971               	.LASF308:
 12972 0901 6D61 696E 		.string	"mainLoop"
GAS LISTING /tmp/cchdpaIW.s 			page 240


 12972      4C6F 6F70 
 12972      00
 12973               	.LASF100:
 12974 090a 494E 5443 		.string	"INTCTRL"
 12974      5452 4C00 
 12975               	.LASF31:
 12976 0912 434C 4B5F 		.string	"CLK_PSADIV_enum"
 12976      5053 4144 
 12976      4956 5F65 
 12976      6E75 6D00 
 12977               	.LASF294:
 12978 0922 7365 7450 		.string	"setPin"
 12978      696E 00
 12979               	.LASF67:
 12980 0929 4F53 435F 		.string	"OSC_FRQRANGE_12TO16_gc"
 12980      4652 5152 
 12980      414E 4745 
 12980      5F31 3254 
 12980      4F31 365F 
 12981               	.LASF40:
 12982 0940 434C 4B5F 		.string	"CLK_PSADIV_256_gc"
 12982      5053 4144 
 12982      4956 5F32 
 12982      3536 5F67 
 12982      6300 
 12983               	.LASF6:
 12984 0952 6C6F 6E67 		.string	"long unsigned int"
 12984      2075 6E73 
 12984      6967 6E65 
 12984      6420 696E 
 12984      7400 
 12985               	.LASF201:
 12986 0964 5443 5F43 		.string	"TC_CLKSEL_DIV1024_gc"
 12986      4C4B 5345 
 12986      4C5F 4449 
 12986      5631 3032 
 12986      345F 6763 
 12987               	.LASF213:
 12988 0979 5443 5F4F 		.string	"TC_OVFINTLVL_MED_gc"
 12988      5646 494E 
 12988      544C 564C 
 12988      5F4D 4544 
 12988      5F67 6300 
 12989               	.LASF46:
 12990 098d 434C 4B5F 		.string	"CLK_PSBCDIV_4_1_gc"
 12990      5053 4243 
 12990      4449 565F 
 12990      345F 315F 
 12990      6763 00
 12991               	.LASF197:
 12992 09a0 5443 5F43 		.string	"TC_CLKSEL_DIV4_gc"
 12992      4C4B 5345 
 12992      4C5F 4449 
 12992      5634 5F67 
 12992      6300 
 12993               	.LASF145:
 12994 09b2 4343 4242 		.string	"CCBBUF"
GAS LISTING /tmp/cchdpaIW.s 			page 241


 12994      5546 00
 12995               	.LASF96:
 12996 09b9 4449 5254 		.string	"DIRTGL"
 12996      474C 00
 12997               	.LASF43:
 12998 09c0 434C 4B5F 		.string	"CLK_PSBCDIV_enum"
 12998      5053 4243 
 12998      4449 565F 
 12998      656E 756D 
 12998      00
 12999               	.LASF268:
 13000 09d1 636C 6F63 		.string	"clockSource"
 13000      6B53 6F75 
 13000      7263 6500 
 13001               	.LASF153:
 13002 09dd 4354 524C 		.string	"CTRLA"
 13002      4100 
 13003               	.LASF154:
 13004 09e3 4354 524C 		.string	"CTRLB"
 13004      4200 
 13005               	.LASF155:
 13006 09e9 4354 524C 		.string	"CTRLC"
 13006      4300 
 13007               	.LASF156:
 13008 09ef 4354 524C 		.string	"CTRLD"
 13008      4400 
 13009               	.LASF157:
 13010 09f5 4354 524C 		.string	"CTRLE"
 13010      4500 
 13011               	.LASF302:
 13012 09fb 7374 6570 		.string	"steps_left"
 13012      735F 6C65 
 13012      6674 00
 13013               	.LASF119:
 13014 0a06 504F 5254 		.string	"PORT_OPC_PULLDOWN_gc"
 13014      5F4F 5043 
 13014      5F50 554C 
 13014      4C44 4F57 
 13014      4E5F 6763 
 13015               	.LASF299:
 13016 0a1b 7468 6973 		.string	"thisStep"
 13016      5374 6570 
 13016      00
 13017               	.LASF29:
 13018 0a24 434C 4B5F 		.string	"CLK_SCLKSEL_PLL_gc"
 13018      5343 4C4B 
 13018      5345 4C5F 
 13018      504C 4C5F 
 13018      6763 00
 13019               	.LASF202:
 13020 0a37 5443 5F43 		.string	"TC_CLKSEL_EVCH0_gc"
 13020      4C4B 5345 
 13020      4C5F 4556 
 13020      4348 305F 
 13020      6763 00
 13021               	.LASF97:
 13022 0a4a 4F55 5453 		.string	"OUTSET"
GAS LISTING /tmp/cchdpaIW.s 			page 242


 13022      4554 00
 13023               	.LASF211:
 13024 0a51 5443 5F4F 		.string	"TC_OVFINTLVL_OFF_gc"
 13024      5646 494E 
 13024      544C 564C 
 13024      5F4F 4646 
 13024      5F67 6300 
 13025               	.LASF305:
 13026 0a65 6D6F 7665 		.string	"moveToGoal"
 13026      546F 476F 
 13026      616C 00
 13027               	.LASF90:
 13028 0a70 504D 4943 		.string	"PMIC_struct"
 13028      5F73 7472 
 13028      7563 7400 
 13029               	.LASF333:
 13030 0a7c 7561 7274 		.string	"uart_init"
 13030      5F69 6E69 
 13030      7400 
 13031               	.LASF44:
 13032 0a86 434C 4B5F 		.string	"CLK_PSBCDIV_1_1_gc"
 13032      5053 4243 
 13032      4449 565F 
 13032      315F 315F 
 13032      6763 00
 13033               	.LASF3:
 13034 0a99 6C6F 6E67 		.string	"long int"
 13034      2069 6E74 
 13034      00
 13035               	.LASF32:
 13036 0aa2 434C 4B5F 		.string	"CLK_PSADIV_1_gc"
 13036      5053 4144 
 13036      4956 5F31 
 13036      5F67 6300 
 13037               	.LASF236:
 13038 0ab2 6D6F 746F 		.string	"motor_port_3"
 13038      725F 706F 
 13038      7274 5F33 
 13038      00
 13039               	.LASF265:
 13040 0abf 786F 7363 		.string	"xoscModeSelection"
 13040      4D6F 6465 
 13040      5365 6C65 
 13040      6374 696F 
 13040      6E00 
 13041               	.LASF209:
 13042 0ad1 5443 5F43 		.string	"TC_CLKSEL_EVCH7_gc"
 13042      4C4B 5345 
 13042      4C5F 4556 
 13042      4348 375F 
 13042      6763 00
 13043               	.LASF89:
 13044 0ae4 4446 4C4C 		.string	"DFLL_t"
 13044      5F74 00
 13045               	.LASF326:
 13046 0aeb 6465 6275 		.string	"debugFlag"
 13046      6746 6C61 
GAS LISTING /tmp/cchdpaIW.s 			page 243


 13046      6700 
 13047               	.LASF269:
 13048 0af5 6661 6374 		.string	"factor"
 13048      6F72 00
 13049               	.LASF192:
 13050 0afc 5443 305F 		.string	"TC0_t"
 13050      7400 
 13051               	.LASF114:
 13052 0b02 5049 4E37 		.string	"PIN7CTRL"
 13052      4354 524C 
 13052      00
 13053               	.LASF200:
 13054 0b0b 5443 5F43 		.string	"TC_CLKSEL_DIV256_gc"
 13054      4C4B 5345 
 13054      4C5F 4449 
 13054      5632 3536 
 13054      5F67 6300 
 13055               	.LASF210:
 13056 0b1f 5443 5F4F 		.string	"TC_OVFINTLVL_enum"
 13056      5646 494E 
 13056      544C 564C 
 13056      5F65 6E75 
 13056      6D00 
 13057               	.LASF35:
 13058 0b31 434C 4B5F 		.string	"CLK_PSADIV_8_gc"
 13058      5053 4144 
 13058      4956 5F38 
 13058      5F67 6300 
 13059               	.LASF65:
 13060 0b41 4F53 435F 		.string	"OSC_FRQRANGE_2TO9_gc"
 13060      4652 5152 
 13060      414E 4745 
 13060      5F32 544F 
 13060      395F 6763 
 13061               	.LASF75:
 13062 0b56 4F53 435F 		.string	"OSC_XOSCSEL_t"
 13062      584F 5343 
 13062      5345 4C5F 
 13062      7400 
 13063               	.LASF330:
 13064 0b64 5F64 656C 		.string	"_delay_us"
 13064      6179 5F75 
 13064      7300 
 13065               	.LASF304:
 13066 0b6e 6D79 4469 		.string	"myDir"
 13066      7200 
 13067               	.LASF214:
 13068 0b74 5443 5F4F 		.string	"TC_OVFINTLVL_HI_gc"
 13068      5646 494E 
 13068      544C 564C 
 13068      5F48 495F 
 13068      6763 00
 13069               	.LASF125:
 13070 0b87 434E 544C 		.string	"CNTL"
 13070      00
 13071               	.LASF14:
 13072 0b8c 4343 505F 		.string	"CCP_SPM_gc"
GAS LISTING /tmp/cchdpaIW.s 			page 244


 13072      5350 4D5F 
 13072      6763 00
 13073               	.LASF230:
 13074 0b97 6D69 6E53 		.string	"minSteps"
 13074      7465 7073 
 13074      00
 13075               	.LASF2:
 13076 0ba0 756E 7369 		.string	"unsigned int"
 13076      676E 6564 
 13076      2069 6E74 
 13076      00
 13077               	.LASF320:
 13078 0bad 4261 7365 		.string	"Base"
 13078      00
 13079               	.LASF111:
 13080 0bb2 5049 4E34 		.string	"PIN4CTRL"
 13080      4354 524C 
 13080      00
 13081               	.LASF151:
 13082 0bbb 4343 4442 		.string	"CCDBUF"
 13082      5546 00
 13083               	.LASF255:
 13084 0bc2 7768 6174 		.string	"whatSpeed"
 13084      5370 6565 
 13084      6400 
 13085               	.LASF162:
 13086 0bcc 4354 524C 		.string	"CTRLFSET"
 13086      4653 4554 
 13086      00
 13087               	.LASF310:
 13088 0bd5 696E 6974 		.string	"init"
 13088      00
 13089               	.LASF98:
 13090 0bda 4F55 5443 		.string	"OUTCLR"
 13090      4C52 00
 13091               	.LASF122:
 13092 0be1 504F 5254 		.string	"PORT_OPC_WIREDAND_gc"
 13092      5F4F 5043 
 13092      5F57 4952 
 13092      4544 414E 
 13092      445F 6763 
 13093               	.LASF152:
 13094 0bf6 5443 305F 		.string	"TC0_struct"
 13094      7374 7275 
 13094      6374 00
 13095               	.LASF221:
 13096 0c01 5F5F 756E 		.string	"__unknown__"
 13096      6B6E 6F77 
 13096      6E5F 5F00 
 13097               	.LASF264:
 13098 0c0d 6C6F 7750 		.string	"lowPower32kHz"
 13098      6F77 6572 
 13098      3332 6B48 
 13098      7A00 
 13099               	.LASF257:
 13100 0c1b 6164 6472 		.string	"address"
 13100      6573 7300 
GAS LISTING /tmp/cchdpaIW.s 			page 245


 13101               	.LASF252:
 13102 0c23 6368 616E 		.string	"changeGoal"
 13102      6765 476F 
 13102      616C 00
 13103               	.LASF204:
 13104 0c2e 5443 5F43 		.string	"TC_CLKSEL_EVCH2_gc"
 13104      4C4B 5345 
 13104      4C5F 4556 
 13104      4348 325F 
 13104      6763 00
 13105               	.LASF57:
 13106 0c41 584F 5343 		.string	"XOSCCTRL"
 13106      4354 524C 
 13106      00
 13107               	.LASF69:
 13108 0c4a 4F53 435F 		.string	"OSC_XOSCSEL_enum"
 13108      584F 5343 
 13108      5345 4C5F 
 13108      656E 756D 
 13108      00
 13109               	.LASF324:
 13110 0c5b 5269 6768 		.string	"Right_Wrist"
 13110      745F 5772 
 13110      6973 7400 
 13111               	.LASF25:
 13112 0c67 434C 4B5F 		.string	"CLK_SCLKSEL_RC2M_gc"
 13112      5343 4C4B 
 13112      5345 4C5F 
 13112      5243 324D 
 13112      5F67 6300 
 13113               	.LASF279:
 13114 0c7b 434C 4B53 		.string	"CLKSYS_RTC_ClockSource_Enable"
 13114      5953 5F52 
 13114      5443 5F43 
 13114      6C6F 636B 
 13114      536F 7572 
 13115               	.LASF70:
 13116 0c99 4F53 435F 		.string	"OSC_XOSCSEL_EXTCLK_gc"
 13116      584F 5343 
 13116      5345 4C5F 
 13116      4558 5443 
 13116      4C4B 5F67 
 13117               	.LASF212:
 13118 0caf 5443 5F4F 		.string	"TC_OVFINTLVL_LO_gc"
 13118      5646 494E 
 13118      544C 564C 
 13118      5F4C 4F5F 
 13118      6763 00
 13119               	.LASF138:
 13120 0cc2 5045 5242 		.string	"PERBUFH"
 13120      5546 4800 
 13121               	.LASF262:
 13122 0cca 434C 4B53 		.string	"CLKSYS_XOSC_Config"
 13122      5953 5F58 
 13122      4F53 435F 
 13122      436F 6E66 
 13122      6967 00
GAS LISTING /tmp/cchdpaIW.s 			page 246


 13123               	.LASF137:
 13124 0cdd 5045 5242 		.string	"PERBUFL"
 13124      5546 4C00 
 13125               	.LASF110:
 13126 0ce5 5049 4E33 		.string	"PIN3CTRL"
 13126      4354 524C 
 13126      00
 13127               	.LASF1:
 13128 0cee 756E 7369 		.string	"unsigned char"
 13128      676E 6564 
 13128      2063 6861 
 13128      7200 
 13129               	.LASF62:
 13130 0cfc 4F53 435F 		.string	"OSC_t"
 13130      7400 
 13131               	.LASF71:
 13132 0d02 4F53 435F 		.string	"OSC_XOSCSEL_32KHz_gc"
 13132      584F 5343 
 13132      5345 4C5F 
 13132      3332 4B48 
 13132      7A5F 6763 
 13133               	.LASF290:
 13134 0d17 436F 6E66 		.string	"Config32MHzClock"
 13134      6967 3332 
 13134      4D48 7A43 
 13134      6C6F 636B 
 13134      00
 13135               	.LASF218:
 13136 0d28 4241 5544 		.string	"BAUDCTRLA"
 13136      4354 524C 
 13136      4100 
 13137               	.LASF219:
 13138 0d32 4241 5544 		.string	"BAUDCTRLB"
 13138      4354 524C 
 13138      4200 
 13139               	.LASF245:
 13140 0d3c 5F5F 7573 		.string	"__us"
 13140      00
 13141               	.LASF303:
 13142 0d41 7374 6570 		.string	"stepOne"
 13142      4F6E 6500 
 13143               	.LASF331:
 13144 0d49 6D69 6C6C 		.string	"millis"
 13144      6973 00
 13145               	.LASF298:
 13146 0d50 7374 6570 		.string	"stepMotor"
 13146      4D6F 746F 
 13146      7200 
 13147               	.LASF123:
 13148 0d5a 504F 5254 		.string	"PORT_OPC_WIREDORPULL_gc"
 13148      5F4F 5043 
 13148      5F57 4952 
 13148      4544 4F52 
 13148      5055 4C4C 
 13149               	.LASF314:
 13150 0d72 7374 6174 		.string	"state"
 13150      6500 
GAS LISTING /tmp/cchdpaIW.s 			page 247


 13151               	.LASF195:
 13152 0d78 5443 5F43 		.string	"TC_CLKSEL_DIV1_gc"
 13152      4C4B 5345 
 13152      4C5F 4449 
 13152      5631 5F67 
 13152      6300 
 13153               	.LASF77:
 13154 0d8a 4F53 435F 		.string	"OSC_PLLSRC_RC2M_gc"
 13154      504C 4C53 
 13154      5243 5F52 
 13154      4332 4D5F 
 13154      6763 00
 13155               	.LASF161:
 13156 0d9d 4354 524C 		.string	"CTRLFCLR"
 13156      4643 4C52 
 13156      00
 13157               	.LASF144:
 13158 0da6 4343 4242 		.string	"CCBBUFH"
 13158      5546 4800 
 13159               	.LASF232:
 13160 0dae 6D6F 746F 		.string	"motor_port_1"
 13160      725F 706F 
 13160      7274 5F31 
 13160      00
 13161               	.LASF143:
 13162 0dbb 4343 4242 		.string	"CCBBUFL"
 13162      5546 4C00 
 13163               	.LASF234:
 13164 0dc3 6D6F 746F 		.string	"motor_port_2"
 13164      725F 706F 
 13164      7274 5F32 
 13164      00
 13165               	.LASF82:
 13166 0dd0 7265 7365 		.string	"reserved_0x01"
 13166      7276 6564 
 13166      5F30 7830 
 13166      3100 
 13167               	.LASF217:
 13168 0dde 7265 7365 		.string	"reserved_0x02"
 13168      7276 6564 
 13168      5F30 7830 
 13168      3200 
 13169               	.LASF238:
 13170 0dec 6D6F 746F 		.string	"motor_port_4"
 13170      725F 706F 
 13170      7274 5F34 
 13170      00
 13171               	.LASF148:
 13172 0df9 4343 4342 		.string	"CCCBUF"
 13172      5546 00
 13173               	.LASF88:
 13174 0e00 7265 7365 		.string	"reserved_0x07"
 13174      7276 6564 
 13174      5F30 7830 
 13174      3700 
 13175               	.LASF334:
 13176 0e0e 7561 7274 		.string	"uart_putchar"
GAS LISTING /tmp/cchdpaIW.s 			page 248


 13176      5F70 7574 
 13176      6368 6172 
 13176      00
 13177               	.LASF296:
 13178 0e1b 7069 6E4E 		.string	"pinNum"
 13178      756D 00
 13179               	.LASF274:
 13180 0e22 5053 4243 		.string	"PSBCfactor"
 13180      6661 6374 
 13180      6F72 00
 13181               	.LASF104:
 13182 0e2d 7265 7365 		.string	"reserved_0x0D"
 13182      7276 6564 
 13182      5F30 7830 
 13182      4400 
 13183               	.LASF0:
 13184 0e3b 7369 676E 		.string	"signed char"
 13184      6564 2063 
 13184      6861 7200 
 13185               	.LASF198:
 13186 0e47 5443 5F43 		.string	"TC_CLKSEL_DIV8_gc"
 13186      4C4B 5345 
 13186      4C5F 4449 
 13186      5638 5F67 
 13186      6300 
 13187               	.LASF312:
 13188 0e59 6D61 696E 		.string	"main"
 13188      00
 13189               	.LASF242:
 13190 0e5e 5F5F 746D 		.string	"__tmp"
 13190      7000 
 13191               	.LASF50:
 13192 0e64 434C 4B5F 		.string	"CLK_RTCSRC_ULP_gc"
 13192      5254 4353 
 13192      5243 5F55 
 13192      4C50 5F67 
 13192      6300 
 13193               	.LASF272:
 13194 0e76 434C 4B53 		.string	"CLKSYS_Prescalers_Config"
 13194      5953 5F50 
 13194      7265 7363 
 13194      616C 6572 
 13194      735F 436F 
 13195               	.LASF206:
 13196 0e8f 5443 5F43 		.string	"TC_CLKSEL_EVCH4_gc"
 13196      4C4B 5345 
 13196      4C5F 4556 
 13196      4348 345F 
 13196      6763 00
 13197               	.LASF12:
 13198 0ea2 7564 6174 		.string	"udata"
 13198      6100 
 13199               	.LASF244:
 13200 0ea8 646F 7562 		.string	"double"
 13200      6C65 00
 13201               	.LASF78:
 13202 0eaf 4F53 435F 		.string	"OSC_PLLSRC_RC32M_gc"
GAS LISTING /tmp/cchdpaIW.s 			page 249


 13202      504C 4C53 
 13202      5243 5F52 
 13202      4333 324D 
 13202      5F67 6300 
 13203               	.LASF49:
 13204 0ec3 434C 4B5F 		.string	"CLK_RTCSRC_enum"
 13204      5254 4353 
 13204      5243 5F65 
 13204      6E75 6D00 
 13205               	.LASF56:
 13206 0ed3 5354 4154 		.string	"STATUS"
 13206      5553 00
 13207               	.LASF166:
 13208 0eda 7265 7365 		.string	"reserved_0x10"
 13208      7276 6564 
 13208      5F30 7831 
 13208      3000 
 13209               	.LASF167:
 13210 0ee8 7265 7365 		.string	"reserved_0x11"
 13210      7276 6564 
 13210      5F30 7831 
 13210      3100 
 13211               	.LASF168:
 13212 0ef6 7265 7365 		.string	"reserved_0x12"
 13212      7276 6564 
 13212      5F30 7831 
 13212      3200 
 13213               	.LASF169:
 13214 0f04 7265 7365 		.string	"reserved_0x13"
 13214      7276 6564 
 13214      5F30 7831 
 13214      3300 
 13215               	.LASF170:
 13216 0f12 7265 7365 		.string	"reserved_0x14"
 13216      7276 6564 
 13216      5F30 7831 
 13216      3400 
 13217               	.LASF271:
 13218 0f20 636C 6B45 		.string	"clkEnabled"
 13218      6E61 626C 
 13218      6564 00
 13219               	.LASF172:
 13220 0f2b 7265 7365 		.string	"reserved_0x16"
 13220      7276 6564 
 13220      5F30 7831 
 13220      3600 
 13221               	.LASF173:
 13222 0f39 7265 7365 		.string	"reserved_0x17"
 13222      7276 6564 
 13222      5F30 7831 
 13222      3700 
 13223               	.LASF174:
 13224 0f47 7265 7365 		.string	"reserved_0x18"
 13224      7276 6564 
 13224      5F30 7831 
 13224      3800 
 13225               	.LASF175:
GAS LISTING /tmp/cchdpaIW.s 			page 250


 13226 0f55 7265 7365 		.string	"reserved_0x19"
 13226      7276 6564 
 13226      5F30 7831 
 13226      3900 
 13227               	.LASF108:
 13228 0f63 5049 4E31 		.string	"PIN1CTRL"
 13228      4354 524C 
 13228      00
 13229               	.LASF126:
 13230 0f6c 434E 5448 		.string	"CNTH"
 13230      00
 13231               	.LASF176:
 13232 0f71 7265 7365 		.string	"reserved_0x1A"
 13232      7276 6564 
 13232      5F30 7831 
 13232      4100 
 13233               	.LASF177:
 13234 0f7f 7265 7365 		.string	"reserved_0x1B"
 13234      7276 6564 
 13234      5F30 7831 
 13234      4200 
 13235               	.LASF178:
 13236 0f8d 7265 7365 		.string	"reserved_0x1C"
 13236      7276 6564 
 13236      5F30 7831 
 13236      4300 
 13237               	.LASF124:
 13238 0f9b 504F 5254 		.string	"PORT_OPC_WIREDANDPULL_gc"
 13238      5F4F 5043 
 13238      5F57 4952 
 13238      4544 414E 
 13238      4450 554C 
 13239               	.LASF181:
 13240 0fb4 7265 7365 		.string	"reserved_0x1F"
 13240      7276 6564 
 13240      5F30 7831 
 13240      4600 
 13241               	.LASF64:
 13242 0fc2 4F53 435F 		.string	"OSC_FRQRANGE_04TO2_gc"
 13242      4652 5152 
 13242      414E 4745 
 13242      5F30 3454 
 13242      4F32 5F67 
 13243               	.LASF301:
 13244 0fd8 7374 6570 		.string	"steps_to_move"
 13244      735F 746F 
 13244      5F6D 6F76 
 13244      6500 
 13245               	.LASF275:
 13246 0fe6 5053 636F 		.string	"PSconfig"
 13246      6E66 6967 
 13246      00
 13247               	.LASF256:
 13248 0fef 7374 7265 		.string	"stream"
 13248      616D 00
 13249               	.LASF18:
 13250 0ff6 4354 524C 		.string	"CTRL"
GAS LISTING /tmp/cchdpaIW.s 			page 251


 13250      00
 13251               	.LASF260:
 13252 0ffb 746D 7041 		.string	"tmpAddr"
 13252      6464 7200 
 13253               	.global __do_copy_data
 13254               	.global __do_clear_bss
GAS LISTING /tmp/cchdpaIW.s 			page 252


DEFINED SYMBOLS
                            *ABS*:00000000 main.c
     /tmp/cchdpaIW.s:2      *ABS*:0000003f __SREG__
     /tmp/cchdpaIW.s:3      *ABS*:0000003e __SP_H__
     /tmp/cchdpaIW.s:4      *ABS*:0000003d __SP_L__
     /tmp/cchdpaIW.s:5      *ABS*:00000034 __CCP__
     /tmp/cchdpaIW.s:6      *ABS*:00000000 __tmp_reg__
     /tmp/cchdpaIW.s:7      *ABS*:00000001 __zero_reg__
     /tmp/cchdpaIW.s:17     .text:00000000 uart_putchar
     /tmp/cchdpaIW.s:53     .text:00000022 CCPWrite
     /tmp/cchdpaIW.s:104    .text:0000004c CLKSYS_XOSC_Config
     /tmp/cchdpaIW.s:134    .text:00000062 CLKSYS_PLL_Config
     /tmp/cchdpaIW.s:158    .text:0000006e CLKSYS_Disable
     /tmp/cchdpaIW.s:186    .text:00000082 CLKSYS_Prescalers_Config
     /tmp/cchdpaIW.s:210    .text:0000008e CLKSYS_Main_ClockSource_Select
     /tmp/cchdpaIW.s:253    .text:000000b4 CLKSYS_RTC_ClockSource_Enable
     /tmp/cchdpaIW.s:276    .text:000000c4 CLKSYS_AutoCalibration_Enable
     /tmp/cchdpaIW.s:326    .text:000000fe CLKSYS_XOSC_FailureDetection_Enable
     /tmp/cchdpaIW.s:345    .text:0000010a CLKSYS_Configuration_Lock
     /tmp/cchdpaIW.s:364    .text:00000116 __vector_14
     /tmp/cchdpaIW.s:3852   .bss:0000001a elapsedMillis
     /tmp/cchdpaIW.s:407    .text:00000160 uart_getchar
     /tmp/cchdpaIW.s:438    .text:00000178 update
     /tmp/cchdpaIW.s:3840   .bss:00000002 goal
     /tmp/cchdpaIW.s:616    .text:0000028c delay_ms
     /tmp/cchdpaIW.s:657    .text:000002a8 compareArray
     /tmp/cchdpaIW.s:742    .text:00000322 signum
     /tmp/cchdpaIW.s:776    .text:0000033e Config32MHzClock
     /tmp/cchdpaIW.s:807    .text:0000035c millis
     /tmp/cchdpaIW.s:828    .text:00000372 blink
     /tmp/cchdpaIW.s:871    .text:000003a4 blinkN
     /tmp/cchdpaIW.s:916    .text:000003ce setPin
     /tmp/cchdpaIW.s:1204   .text:0000051c clearPin
     /tmp/cchdpaIW.s:1492   .text:0000066a setSpeed
     /tmp/cchdpaIW.s:1543   .text:000006b6 stepMotor
     /tmp/cchdpaIW.s:1724   .text:000007d0 step
     /tmp/cchdpaIW.s:3846   .bss:0000000e pose
     /tmp/cchdpaIW.s:3988   .data:000000df Gripper
     /tmp/cchdpaIW.s:2038   .text:000009ec stepOne
     /tmp/cchdpaIW.s:2262   .text:00000b78 changeGoal
     /tmp/cchdpaIW.s:2305   .text:00000bba moveToGoal
     /tmp/cchdpaIW.s:3858   .data:00000029 maxSpeed
     /tmp/cchdpaIW.s:3863   .data:0000002b Base
     /tmp/cchdpaIW.s:3888   .data:0000004f Shoulder
     /tmp/cchdpaIW.s:3913   .data:00000073 Elbow
     /tmp/cchdpaIW.s:3938   .data:00000097 Right_Wrist
     /tmp/cchdpaIW.s:3963   .data:000000bb Left_Wrist
     /tmp/cchdpaIW.s:3318   .text:0000134e mainLoop
     /tmp/cchdpaIW.s:3827   .data:00000027 state
     /tmp/cchdpaIW.s:3684   .text:00001624 init
     /tmp/cchdpaIW.s:3796   .text:000016a8 main
     /tmp/cchdpaIW.s:4012   .data:00000103 mystdout
     /tmp/cchdpaIW.s:3834   .bss:00000000 debugFlag

UNDEFINED SYMBOLS
puts
__divmodsi4
GAS LISTING /tmp/cchdpaIW.s 			page 253


__divmodhi4
__floatsisf
__divsf3
__mulsf3
__fixsfsi
__iob
__do_copy_data
__do_clear_bss
