   1               		.file	"CDCClassDevice.c"
   2               	__SREG__ = 0x3f
   3               	__SP_H__ = 0x3e
   4               	__SP_L__ = 0x3d
   5               	__CCP__ = 0x34
   6               	__tmp_reg__ = 0
   7               	__zero_reg__ = 1
   8               		.global __do_copy_data
   9               		.global __do_clear_bss
  10               		.text
  11               	.Ltext0:
  12               		.cfi_sections	.debug_frame
  13               		.section	.text.Endpoint_SelectEndpoint,"ax",@progbits
  15               	Endpoint_SelectEndpoint:
  16               	.LFB22:
  17               		.file 1 "LUFA//Drivers/USB/Class/Device/../../Core/XMEGA/../XMEGA/Endpoint_XMEGA.h"
   1:LUFA//Drivers/USB/Class/Device/../../Core/XMEGA/../XMEGA/Endpoint_XMEGA.h **** /*
   2:LUFA//Drivers/USB/Class/Device/../../Core/XMEGA/../XMEGA/Endpoint_XMEGA.h ****              LUFA Library
   3:LUFA//Drivers/USB/Class/Device/../../Core/XMEGA/../XMEGA/Endpoint_XMEGA.h ****      Copyright (C) Dean Camera, 2012.
   4:LUFA//Drivers/USB/Class/Device/../../Core/XMEGA/../XMEGA/Endpoint_XMEGA.h **** 
   5:LUFA//Drivers/USB/Class/Device/../../Core/XMEGA/../XMEGA/Endpoint_XMEGA.h ****   dean [at] fourwalledcubicle [dot] com
   6:LUFA//Drivers/USB/Class/Device/../../Core/XMEGA/../XMEGA/Endpoint_XMEGA.h ****            www.lufa-lib.org
   7:LUFA//Drivers/USB/Class/Device/../../Core/XMEGA/../XMEGA/Endpoint_XMEGA.h **** */
   8:LUFA//Drivers/USB/Class/Device/../../Core/XMEGA/../XMEGA/Endpoint_XMEGA.h **** 
   9:LUFA//Drivers/USB/Class/Device/../../Core/XMEGA/../XMEGA/Endpoint_XMEGA.h **** /*
  10:LUFA//Drivers/USB/Class/Device/../../Core/XMEGA/../XMEGA/Endpoint_XMEGA.h ****   Copyright 2012  Dean Camera (dean [at] fourwalledcubicle [dot] com)
  11:LUFA//Drivers/USB/Class/Device/../../Core/XMEGA/../XMEGA/Endpoint_XMEGA.h **** 
  12:LUFA//Drivers/USB/Class/Device/../../Core/XMEGA/../XMEGA/Endpoint_XMEGA.h ****   Permission to use, copy, modify, distribute, and sell this
  13:LUFA//Drivers/USB/Class/Device/../../Core/XMEGA/../XMEGA/Endpoint_XMEGA.h ****   software and its documentation for any purpose is hereby granted
  14:LUFA//Drivers/USB/Class/Device/../../Core/XMEGA/../XMEGA/Endpoint_XMEGA.h ****   without fee, provided that the above copyright notice appear in
  15:LUFA//Drivers/USB/Class/Device/../../Core/XMEGA/../XMEGA/Endpoint_XMEGA.h ****   all copies and that both that the copyright notice and this
  16:LUFA//Drivers/USB/Class/Device/../../Core/XMEGA/../XMEGA/Endpoint_XMEGA.h ****   permission notice and warranty disclaimer appear in supporting
  17:LUFA//Drivers/USB/Class/Device/../../Core/XMEGA/../XMEGA/Endpoint_XMEGA.h ****   documentation, and that the name of the author not be used in
  18:LUFA//Drivers/USB/Class/Device/../../Core/XMEGA/../XMEGA/Endpoint_XMEGA.h ****   advertising or publicity pertaining to distribution of the
  19:LUFA//Drivers/USB/Class/Device/../../Core/XMEGA/../XMEGA/Endpoint_XMEGA.h ****   software without specific, written prior permission.
  20:LUFA//Drivers/USB/Class/Device/../../Core/XMEGA/../XMEGA/Endpoint_XMEGA.h **** 
  21:LUFA//Drivers/USB/Class/Device/../../Core/XMEGA/../XMEGA/Endpoint_XMEGA.h ****   The author disclaim all warranties with regard to this
  22:LUFA//Drivers/USB/Class/Device/../../Core/XMEGA/../XMEGA/Endpoint_XMEGA.h ****   software, including all implied warranties of merchantability
  23:LUFA//Drivers/USB/Class/Device/../../Core/XMEGA/../XMEGA/Endpoint_XMEGA.h ****   and fitness.  In no event shall the author be liable for any
  24:LUFA//Drivers/USB/Class/Device/../../Core/XMEGA/../XMEGA/Endpoint_XMEGA.h ****   special, indirect or consequential damages or any damages
  25:LUFA//Drivers/USB/Class/Device/../../Core/XMEGA/../XMEGA/Endpoint_XMEGA.h ****   whatsoever resulting from loss of use, data or profits, whether
  26:LUFA//Drivers/USB/Class/Device/../../Core/XMEGA/../XMEGA/Endpoint_XMEGA.h ****   in an action of contract, negligence or other tortious action,
  27:LUFA//Drivers/USB/Class/Device/../../Core/XMEGA/../XMEGA/Endpoint_XMEGA.h ****   arising out of or in connection with the use or performance of
  28:LUFA//Drivers/USB/Class/Device/../../Core/XMEGA/../XMEGA/Endpoint_XMEGA.h ****   this software.
  29:LUFA//Drivers/USB/Class/Device/../../Core/XMEGA/../XMEGA/Endpoint_XMEGA.h **** */
  30:LUFA//Drivers/USB/Class/Device/../../Core/XMEGA/../XMEGA/Endpoint_XMEGA.h **** 
  31:LUFA//Drivers/USB/Class/Device/../../Core/XMEGA/../XMEGA/Endpoint_XMEGA.h **** /** \file
  32:LUFA//Drivers/USB/Class/Device/../../Core/XMEGA/../XMEGA/Endpoint_XMEGA.h ****  *  \brief USB Endpoint definitions for the AVR XMEGA microcontrollers.
  33:LUFA//Drivers/USB/Class/Device/../../Core/XMEGA/../XMEGA/Endpoint_XMEGA.h ****  *  \copydetails Group_EndpointManagement_XMEGA
  34:LUFA//Drivers/USB/Class/Device/../../Core/XMEGA/../XMEGA/Endpoint_XMEGA.h ****  *
  35:LUFA//Drivers/USB/Class/Device/../../Core/XMEGA/../XMEGA/Endpoint_XMEGA.h ****  *  \note This file should not be included directly. It is automatically included as needed by the 
  36:LUFA//Drivers/USB/Class/Device/../../Core/XMEGA/../XMEGA/Endpoint_XMEGA.h ****  *        dispatch header located in LUFA/Drivers/USB/USB.h.
  37:LUFA//Drivers/USB/Class/Device/../../Core/XMEGA/../XMEGA/Endpoint_XMEGA.h ****  */
  38:LUFA//Drivers/USB/Class/Device/../../Core/XMEGA/../XMEGA/Endpoint_XMEGA.h **** 
  39:LUFA//Drivers/USB/Class/Device/../../Core/XMEGA/../XMEGA/Endpoint_XMEGA.h **** /** \ingroup Group_EndpointRW
  40:LUFA//Drivers/USB/Class/Device/../../Core/XMEGA/../XMEGA/Endpoint_XMEGA.h ****  *  \defgroup Group_EndpointRW_XMEGA Endpoint Data Reading and Writing (XMEGA)
  41:LUFA//Drivers/USB/Class/Device/../../Core/XMEGA/../XMEGA/Endpoint_XMEGA.h ****  *  \brief Endpoint data read/write definitions for the Atmel AVR XMEGA architecture.
  42:LUFA//Drivers/USB/Class/Device/../../Core/XMEGA/../XMEGA/Endpoint_XMEGA.h ****  *
  43:LUFA//Drivers/USB/Class/Device/../../Core/XMEGA/../XMEGA/Endpoint_XMEGA.h ****  *  Functions, macros, variables, enums and types related to data reading and writing from and to e
  44:LUFA//Drivers/USB/Class/Device/../../Core/XMEGA/../XMEGA/Endpoint_XMEGA.h ****  */
  45:LUFA//Drivers/USB/Class/Device/../../Core/XMEGA/../XMEGA/Endpoint_XMEGA.h **** 
  46:LUFA//Drivers/USB/Class/Device/../../Core/XMEGA/../XMEGA/Endpoint_XMEGA.h **** /** \ingroup Group_EndpointPrimitiveRW
  47:LUFA//Drivers/USB/Class/Device/../../Core/XMEGA/../XMEGA/Endpoint_XMEGA.h ****  *  \defgroup Group_EndpointPrimitiveRW_XMEGA Read/Write of Primitive Data Types (XMEGA)
  48:LUFA//Drivers/USB/Class/Device/../../Core/XMEGA/../XMEGA/Endpoint_XMEGA.h ****  *  \brief Endpoint primitive read/write definitions for the Atmel AVR XMEGA architecture.
  49:LUFA//Drivers/USB/Class/Device/../../Core/XMEGA/../XMEGA/Endpoint_XMEGA.h ****  *
  50:LUFA//Drivers/USB/Class/Device/../../Core/XMEGA/../XMEGA/Endpoint_XMEGA.h ****  *  Functions, macros, variables, enums and types related to data reading and writing of primitive 
  51:LUFA//Drivers/USB/Class/Device/../../Core/XMEGA/../XMEGA/Endpoint_XMEGA.h ****  *  from and to endpoints.
  52:LUFA//Drivers/USB/Class/Device/../../Core/XMEGA/../XMEGA/Endpoint_XMEGA.h ****  */
  53:LUFA//Drivers/USB/Class/Device/../../Core/XMEGA/../XMEGA/Endpoint_XMEGA.h **** 
  54:LUFA//Drivers/USB/Class/Device/../../Core/XMEGA/../XMEGA/Endpoint_XMEGA.h **** /** \ingroup Group_EndpointPacketManagement
  55:LUFA//Drivers/USB/Class/Device/../../Core/XMEGA/../XMEGA/Endpoint_XMEGA.h ****  *  \defgroup Group_EndpointPacketManagement_XMEGA Endpoint Packet Management (XMEGA)
  56:LUFA//Drivers/USB/Class/Device/../../Core/XMEGA/../XMEGA/Endpoint_XMEGA.h ****  *  \brief Endpoint packet management definitions for the Atmel AVR XMEGA architecture.
  57:LUFA//Drivers/USB/Class/Device/../../Core/XMEGA/../XMEGA/Endpoint_XMEGA.h ****  *
  58:LUFA//Drivers/USB/Class/Device/../../Core/XMEGA/../XMEGA/Endpoint_XMEGA.h ****  *  Functions, macros, variables, enums and types related to packet management of endpoints.
  59:LUFA//Drivers/USB/Class/Device/../../Core/XMEGA/../XMEGA/Endpoint_XMEGA.h ****  */
  60:LUFA//Drivers/USB/Class/Device/../../Core/XMEGA/../XMEGA/Endpoint_XMEGA.h **** 
  61:LUFA//Drivers/USB/Class/Device/../../Core/XMEGA/../XMEGA/Endpoint_XMEGA.h **** /** \ingroup Group_EndpointManagement
  62:LUFA//Drivers/USB/Class/Device/../../Core/XMEGA/../XMEGA/Endpoint_XMEGA.h ****  *  \defgroup Group_EndpointManagement_XMEGA Endpoint Management (XMEGA)
  63:LUFA//Drivers/USB/Class/Device/../../Core/XMEGA/../XMEGA/Endpoint_XMEGA.h ****  *  \brief Endpoint management definitions for the Atmel AVR XMEGA architecture.
  64:LUFA//Drivers/USB/Class/Device/../../Core/XMEGA/../XMEGA/Endpoint_XMEGA.h ****  *
  65:LUFA//Drivers/USB/Class/Device/../../Core/XMEGA/../XMEGA/Endpoint_XMEGA.h ****  *  Functions, macros and enums related to endpoint management when in USB Device mode. This
  66:LUFA//Drivers/USB/Class/Device/../../Core/XMEGA/../XMEGA/Endpoint_XMEGA.h ****  *  module contains the endpoint management macros, as well as endpoint interrupt and data
  67:LUFA//Drivers/USB/Class/Device/../../Core/XMEGA/../XMEGA/Endpoint_XMEGA.h ****  *  send/receive functions for various data types.
  68:LUFA//Drivers/USB/Class/Device/../../Core/XMEGA/../XMEGA/Endpoint_XMEGA.h ****  *
  69:LUFA//Drivers/USB/Class/Device/../../Core/XMEGA/../XMEGA/Endpoint_XMEGA.h ****  *  @{
  70:LUFA//Drivers/USB/Class/Device/../../Core/XMEGA/../XMEGA/Endpoint_XMEGA.h ****  */
  71:LUFA//Drivers/USB/Class/Device/../../Core/XMEGA/../XMEGA/Endpoint_XMEGA.h **** 
  72:LUFA//Drivers/USB/Class/Device/../../Core/XMEGA/../XMEGA/Endpoint_XMEGA.h **** #ifndef __ENDPOINT_XMEGA_H__
  73:LUFA//Drivers/USB/Class/Device/../../Core/XMEGA/../XMEGA/Endpoint_XMEGA.h **** #define __ENDPOINT_XMEGA_H__
  74:LUFA//Drivers/USB/Class/Device/../../Core/XMEGA/../XMEGA/Endpoint_XMEGA.h **** 
  75:LUFA//Drivers/USB/Class/Device/../../Core/XMEGA/../XMEGA/Endpoint_XMEGA.h **** 	/* Includes: */
  76:LUFA//Drivers/USB/Class/Device/../../Core/XMEGA/../XMEGA/Endpoint_XMEGA.h **** 		#include "../../../../Common/Common.h"
  77:LUFA//Drivers/USB/Class/Device/../../Core/XMEGA/../XMEGA/Endpoint_XMEGA.h **** 		#include "../USBTask.h"
  78:LUFA//Drivers/USB/Class/Device/../../Core/XMEGA/../XMEGA/Endpoint_XMEGA.h **** 		#include "../USBInterrupt.h"
  79:LUFA//Drivers/USB/Class/Device/../../Core/XMEGA/../XMEGA/Endpoint_XMEGA.h **** 		#include "../USBController.h"
  80:LUFA//Drivers/USB/Class/Device/../../Core/XMEGA/../XMEGA/Endpoint_XMEGA.h **** 
  81:LUFA//Drivers/USB/Class/Device/../../Core/XMEGA/../XMEGA/Endpoint_XMEGA.h **** 	/* Enable C linkage for C++ Compilers: */
  82:LUFA//Drivers/USB/Class/Device/../../Core/XMEGA/../XMEGA/Endpoint_XMEGA.h **** 		#if defined(__cplusplus)
  83:LUFA//Drivers/USB/Class/Device/../../Core/XMEGA/../XMEGA/Endpoint_XMEGA.h **** 			extern "C" {
  84:LUFA//Drivers/USB/Class/Device/../../Core/XMEGA/../XMEGA/Endpoint_XMEGA.h **** 		#endif
  85:LUFA//Drivers/USB/Class/Device/../../Core/XMEGA/../XMEGA/Endpoint_XMEGA.h **** 
  86:LUFA//Drivers/USB/Class/Device/../../Core/XMEGA/../XMEGA/Endpoint_XMEGA.h **** 	/* Preprocessor Checks: */
  87:LUFA//Drivers/USB/Class/Device/../../Core/XMEGA/../XMEGA/Endpoint_XMEGA.h **** 		#if !defined(__INCLUDE_FROM_USB_DRIVER)
  88:LUFA//Drivers/USB/Class/Device/../../Core/XMEGA/../XMEGA/Endpoint_XMEGA.h **** 			#error Do not include this file directly. Include LUFA/Drivers/USB/USB.h instead.
  89:LUFA//Drivers/USB/Class/Device/../../Core/XMEGA/../XMEGA/Endpoint_XMEGA.h **** 		#endif
  90:LUFA//Drivers/USB/Class/Device/../../Core/XMEGA/../XMEGA/Endpoint_XMEGA.h **** 
  91:LUFA//Drivers/USB/Class/Device/../../Core/XMEGA/../XMEGA/Endpoint_XMEGA.h **** 	/* Public Interface - May be used in end-application: */
  92:LUFA//Drivers/USB/Class/Device/../../Core/XMEGA/../XMEGA/Endpoint_XMEGA.h **** 		/* Macros: */
  93:LUFA//Drivers/USB/Class/Device/../../Core/XMEGA/../XMEGA/Endpoint_XMEGA.h **** 			#if (!defined(MAX_ENDPOINT_INDEX) && !defined(CONTROL_ONLY_DEVICE)) || defined(__DOXYGEN__)
  94:LUFA//Drivers/USB/Class/Device/../../Core/XMEGA/../XMEGA/Endpoint_XMEGA.h **** 				/** Total number of endpoints (including the default control endpoint at address 0) which may
  95:LUFA//Drivers/USB/Class/Device/../../Core/XMEGA/../XMEGA/Endpoint_XMEGA.h **** 				 *  be used in the device. Different USB AVR models support different amounts of endpoints,
  96:LUFA//Drivers/USB/Class/Device/../../Core/XMEGA/../XMEGA/Endpoint_XMEGA.h **** 				 *  this value reflects the maximum number of endpoints for the currently selected AVR model.
  97:LUFA//Drivers/USB/Class/Device/../../Core/XMEGA/../XMEGA/Endpoint_XMEGA.h **** 				 */
  98:LUFA//Drivers/USB/Class/Device/../../Core/XMEGA/../XMEGA/Endpoint_XMEGA.h **** 				#define ENDPOINT_TOTAL_ENDPOINTS            16
  99:LUFA//Drivers/USB/Class/Device/../../Core/XMEGA/../XMEGA/Endpoint_XMEGA.h **** 			#else
 100:LUFA//Drivers/USB/Class/Device/../../Core/XMEGA/../XMEGA/Endpoint_XMEGA.h **** 				#if defined(CONTROL_ONLY_DEVICE)
 101:LUFA//Drivers/USB/Class/Device/../../Core/XMEGA/../XMEGA/Endpoint_XMEGA.h **** 					#define ENDPOINT_TOTAL_ENDPOINTS        1
 102:LUFA//Drivers/USB/Class/Device/../../Core/XMEGA/../XMEGA/Endpoint_XMEGA.h **** 				#else
 103:LUFA//Drivers/USB/Class/Device/../../Core/XMEGA/../XMEGA/Endpoint_XMEGA.h **** 					#define ENDPOINT_TOTAL_ENDPOINTS        (MAX_ENDPOINT_INDEX + 1)
 104:LUFA//Drivers/USB/Class/Device/../../Core/XMEGA/../XMEGA/Endpoint_XMEGA.h **** 				#endif
 105:LUFA//Drivers/USB/Class/Device/../../Core/XMEGA/../XMEGA/Endpoint_XMEGA.h **** 			#endif
 106:LUFA//Drivers/USB/Class/Device/../../Core/XMEGA/../XMEGA/Endpoint_XMEGA.h **** 
 107:LUFA//Drivers/USB/Class/Device/../../Core/XMEGA/../XMEGA/Endpoint_XMEGA.h **** 	/* Private Interface - For use in library only: */
 108:LUFA//Drivers/USB/Class/Device/../../Core/XMEGA/../XMEGA/Endpoint_XMEGA.h **** 	#if !defined(__DOXYGEN__)
 109:LUFA//Drivers/USB/Class/Device/../../Core/XMEGA/../XMEGA/Endpoint_XMEGA.h **** 		/* Type Defines: */
 110:LUFA//Drivers/USB/Class/Device/../../Core/XMEGA/../XMEGA/Endpoint_XMEGA.h **** 			typedef struct
 111:LUFA//Drivers/USB/Class/Device/../../Core/XMEGA/../XMEGA/Endpoint_XMEGA.h **** 			{
 112:LUFA//Drivers/USB/Class/Device/../../Core/XMEGA/../XMEGA/Endpoint_XMEGA.h **** 				uint8_t Data[64];
 113:LUFA//Drivers/USB/Class/Device/../../Core/XMEGA/../XMEGA/Endpoint_XMEGA.h **** 
 114:LUFA//Drivers/USB/Class/Device/../../Core/XMEGA/../XMEGA/Endpoint_XMEGA.h **** 				uint8_t Length;
 115:LUFA//Drivers/USB/Class/Device/../../Core/XMEGA/../XMEGA/Endpoint_XMEGA.h **** 				uint8_t Position;
 116:LUFA//Drivers/USB/Class/Device/../../Core/XMEGA/../XMEGA/Endpoint_XMEGA.h **** 			} Endpoint_FIFO_t;
 117:LUFA//Drivers/USB/Class/Device/../../Core/XMEGA/../XMEGA/Endpoint_XMEGA.h **** 
 118:LUFA//Drivers/USB/Class/Device/../../Core/XMEGA/../XMEGA/Endpoint_XMEGA.h **** 			typedef struct
 119:LUFA//Drivers/USB/Class/Device/../../Core/XMEGA/../XMEGA/Endpoint_XMEGA.h **** 			{
 120:LUFA//Drivers/USB/Class/Device/../../Core/XMEGA/../XMEGA/Endpoint_XMEGA.h **** 				Endpoint_FIFO_t OUT;
 121:LUFA//Drivers/USB/Class/Device/../../Core/XMEGA/../XMEGA/Endpoint_XMEGA.h **** 				Endpoint_FIFO_t IN;
 122:LUFA//Drivers/USB/Class/Device/../../Core/XMEGA/../XMEGA/Endpoint_XMEGA.h **** 			} Endpoint_FIFOPair_t;
 123:LUFA//Drivers/USB/Class/Device/../../Core/XMEGA/../XMEGA/Endpoint_XMEGA.h **** 
 124:LUFA//Drivers/USB/Class/Device/../../Core/XMEGA/../XMEGA/Endpoint_XMEGA.h **** 		/* External Variables: */
 125:LUFA//Drivers/USB/Class/Device/../../Core/XMEGA/../XMEGA/Endpoint_XMEGA.h **** 			extern Endpoint_FIFOPair_t       USB_Endpoint_FIFOs[ENDPOINT_TOTAL_ENDPOINTS];
 126:LUFA//Drivers/USB/Class/Device/../../Core/XMEGA/../XMEGA/Endpoint_XMEGA.h **** 			extern volatile uint8_t          USB_Endpoint_SelectedEndpoint;
 127:LUFA//Drivers/USB/Class/Device/../../Core/XMEGA/../XMEGA/Endpoint_XMEGA.h **** 			extern volatile USB_EP_t*        USB_Endpoint_SelectedHandle;
 128:LUFA//Drivers/USB/Class/Device/../../Core/XMEGA/../XMEGA/Endpoint_XMEGA.h **** 			extern volatile Endpoint_FIFO_t* USB_Endpoint_SelectedFIFO;
 129:LUFA//Drivers/USB/Class/Device/../../Core/XMEGA/../XMEGA/Endpoint_XMEGA.h **** 
 130:LUFA//Drivers/USB/Class/Device/../../Core/XMEGA/../XMEGA/Endpoint_XMEGA.h **** 		/* Inline Functions: */
 131:LUFA//Drivers/USB/Class/Device/../../Core/XMEGA/../XMEGA/Endpoint_XMEGA.h **** 			static inline uint8_t Endpoint_BytesToEPSizeMask(const uint16_t Bytes) ATTR_WARN_UNUSED_RESULT A
 132:LUFA//Drivers/USB/Class/Device/../../Core/XMEGA/../XMEGA/Endpoint_XMEGA.h **** 			                                                                       ATTR_ALWAYS_INLINE;
 133:LUFA//Drivers/USB/Class/Device/../../Core/XMEGA/../XMEGA/Endpoint_XMEGA.h **** 			static inline uint8_t Endpoint_BytesToEPSizeMask(const uint16_t Bytes)
 134:LUFA//Drivers/USB/Class/Device/../../Core/XMEGA/../XMEGA/Endpoint_XMEGA.h **** 			{
 135:LUFA//Drivers/USB/Class/Device/../../Core/XMEGA/../XMEGA/Endpoint_XMEGA.h **** 				uint8_t  MaskVal    = 0;
 136:LUFA//Drivers/USB/Class/Device/../../Core/XMEGA/../XMEGA/Endpoint_XMEGA.h **** 				uint16_t CheckBytes = 8;
 137:LUFA//Drivers/USB/Class/Device/../../Core/XMEGA/../XMEGA/Endpoint_XMEGA.h **** 
 138:LUFA//Drivers/USB/Class/Device/../../Core/XMEGA/../XMEGA/Endpoint_XMEGA.h **** 				while (CheckBytes < Bytes)
 139:LUFA//Drivers/USB/Class/Device/../../Core/XMEGA/../XMEGA/Endpoint_XMEGA.h **** 				{
 140:LUFA//Drivers/USB/Class/Device/../../Core/XMEGA/../XMEGA/Endpoint_XMEGA.h **** 					MaskVal++;
 141:LUFA//Drivers/USB/Class/Device/../../Core/XMEGA/../XMEGA/Endpoint_XMEGA.h **** 					CheckBytes <<= 1;
 142:LUFA//Drivers/USB/Class/Device/../../Core/XMEGA/../XMEGA/Endpoint_XMEGA.h **** 				}
 143:LUFA//Drivers/USB/Class/Device/../../Core/XMEGA/../XMEGA/Endpoint_XMEGA.h **** 
 144:LUFA//Drivers/USB/Class/Device/../../Core/XMEGA/../XMEGA/Endpoint_XMEGA.h **** 				return (MaskVal << USB_EP_BUFSIZE_gp);
 145:LUFA//Drivers/USB/Class/Device/../../Core/XMEGA/../XMEGA/Endpoint_XMEGA.h **** 			}
 146:LUFA//Drivers/USB/Class/Device/../../Core/XMEGA/../XMEGA/Endpoint_XMEGA.h **** 
 147:LUFA//Drivers/USB/Class/Device/../../Core/XMEGA/../XMEGA/Endpoint_XMEGA.h **** 		/* Function Prototypes: */
 148:LUFA//Drivers/USB/Class/Device/../../Core/XMEGA/../XMEGA/Endpoint_XMEGA.h **** 			bool Endpoint_ConfigureEndpoint_PRV(const uint8_t Address,
 149:LUFA//Drivers/USB/Class/Device/../../Core/XMEGA/../XMEGA/Endpoint_XMEGA.h **** 			                                    const uint8_t Config,
 150:LUFA//Drivers/USB/Class/Device/../../Core/XMEGA/../XMEGA/Endpoint_XMEGA.h **** 			                                    const uint8_t Size);
 151:LUFA//Drivers/USB/Class/Device/../../Core/XMEGA/../XMEGA/Endpoint_XMEGA.h **** 			void Endpoint_ClearEndpoints(void);
 152:LUFA//Drivers/USB/Class/Device/../../Core/XMEGA/../XMEGA/Endpoint_XMEGA.h **** 	#endif
 153:LUFA//Drivers/USB/Class/Device/../../Core/XMEGA/../XMEGA/Endpoint_XMEGA.h **** 
 154:LUFA//Drivers/USB/Class/Device/../../Core/XMEGA/../XMEGA/Endpoint_XMEGA.h **** 	/* Public Interface - May be used in end-application: */
 155:LUFA//Drivers/USB/Class/Device/../../Core/XMEGA/../XMEGA/Endpoint_XMEGA.h **** 		/* Macros: */
 156:LUFA//Drivers/USB/Class/Device/../../Core/XMEGA/../XMEGA/Endpoint_XMEGA.h **** 			#if (!defined(FIXED_CONTROL_ENDPOINT_SIZE) || defined(__DOXYGEN__))
 157:LUFA//Drivers/USB/Class/Device/../../Core/XMEGA/../XMEGA/Endpoint_XMEGA.h **** 				/** Default size of the default control endpoint's bank, until altered by the control endpoint 
 158:LUFA//Drivers/USB/Class/Device/../../Core/XMEGA/../XMEGA/Endpoint_XMEGA.h **** 				 *  value in the device descriptor. Not available if the \c FIXED_CONTROL_ENDPOINT_SIZE token i
 159:LUFA//Drivers/USB/Class/Device/../../Core/XMEGA/../XMEGA/Endpoint_XMEGA.h **** 				 */
 160:LUFA//Drivers/USB/Class/Device/../../Core/XMEGA/../XMEGA/Endpoint_XMEGA.h **** 				#define ENDPOINT_CONTROLEP_DEFAULT_SIZE     8
 161:LUFA//Drivers/USB/Class/Device/../../Core/XMEGA/../XMEGA/Endpoint_XMEGA.h **** 			#endif
 162:LUFA//Drivers/USB/Class/Device/../../Core/XMEGA/../XMEGA/Endpoint_XMEGA.h **** 
 163:LUFA//Drivers/USB/Class/Device/../../Core/XMEGA/../XMEGA/Endpoint_XMEGA.h **** 		/* Enums: */
 164:LUFA//Drivers/USB/Class/Device/../../Core/XMEGA/../XMEGA/Endpoint_XMEGA.h **** 			/** Enum for the possible error return codes of the \ref Endpoint_WaitUntilReady() function.
 165:LUFA//Drivers/USB/Class/Device/../../Core/XMEGA/../XMEGA/Endpoint_XMEGA.h **** 			 *
 166:LUFA//Drivers/USB/Class/Device/../../Core/XMEGA/../XMEGA/Endpoint_XMEGA.h **** 			 *  \ingroup Group_EndpointRW_XMEGA
 167:LUFA//Drivers/USB/Class/Device/../../Core/XMEGA/../XMEGA/Endpoint_XMEGA.h **** 			 */
 168:LUFA//Drivers/USB/Class/Device/../../Core/XMEGA/../XMEGA/Endpoint_XMEGA.h **** 			enum Endpoint_WaitUntilReady_ErrorCodes_t
 169:LUFA//Drivers/USB/Class/Device/../../Core/XMEGA/../XMEGA/Endpoint_XMEGA.h **** 			{
 170:LUFA//Drivers/USB/Class/Device/../../Core/XMEGA/../XMEGA/Endpoint_XMEGA.h **** 				ENDPOINT_READYWAIT_NoError                 = 0, /**< Endpoint is ready for next packet, no erro
 171:LUFA//Drivers/USB/Class/Device/../../Core/XMEGA/../XMEGA/Endpoint_XMEGA.h **** 				ENDPOINT_READYWAIT_EndpointStalled         = 1, /**< The endpoint was stalled during the stream
 172:LUFA//Drivers/USB/Class/Device/../../Core/XMEGA/../XMEGA/Endpoint_XMEGA.h **** 				                                                 *   transfer by the host or device.
 173:LUFA//Drivers/USB/Class/Device/../../Core/XMEGA/../XMEGA/Endpoint_XMEGA.h **** 				                                                 */
 174:LUFA//Drivers/USB/Class/Device/../../Core/XMEGA/../XMEGA/Endpoint_XMEGA.h **** 				ENDPOINT_READYWAIT_DeviceDisconnected      = 2,	/**< Device was disconnected from the host whil
 175:LUFA//Drivers/USB/Class/Device/../../Core/XMEGA/../XMEGA/Endpoint_XMEGA.h **** 				                                                 *   waiting for the endpoint to become ready.
 176:LUFA//Drivers/USB/Class/Device/../../Core/XMEGA/../XMEGA/Endpoint_XMEGA.h **** 				                                                 */
 177:LUFA//Drivers/USB/Class/Device/../../Core/XMEGA/../XMEGA/Endpoint_XMEGA.h **** 				ENDPOINT_READYWAIT_BusSuspended            = 3, /**< The USB bus has been suspended by the host
 178:LUFA//Drivers/USB/Class/Device/../../Core/XMEGA/../XMEGA/Endpoint_XMEGA.h **** 				                                                 *   no USB endpoint traffic can occur until th
 179:LUFA//Drivers/USB/Class/Device/../../Core/XMEGA/../XMEGA/Endpoint_XMEGA.h **** 				                                                 *   has resumed.
 180:LUFA//Drivers/USB/Class/Device/../../Core/XMEGA/../XMEGA/Endpoint_XMEGA.h **** 				                                                 */
 181:LUFA//Drivers/USB/Class/Device/../../Core/XMEGA/../XMEGA/Endpoint_XMEGA.h **** 				ENDPOINT_READYWAIT_Timeout                 = 4, /**< The host failed to accept or send the next
 182:LUFA//Drivers/USB/Class/Device/../../Core/XMEGA/../XMEGA/Endpoint_XMEGA.h **** 				                                                 *   within the software timeout period set by 
 183:LUFA//Drivers/USB/Class/Device/../../Core/XMEGA/../XMEGA/Endpoint_XMEGA.h **** 				                                                 *   \ref USB_STREAM_TIMEOUT_MS macro.
 184:LUFA//Drivers/USB/Class/Device/../../Core/XMEGA/../XMEGA/Endpoint_XMEGA.h **** 				                                                 */
 185:LUFA//Drivers/USB/Class/Device/../../Core/XMEGA/../XMEGA/Endpoint_XMEGA.h **** 			};
 186:LUFA//Drivers/USB/Class/Device/../../Core/XMEGA/../XMEGA/Endpoint_XMEGA.h **** 
 187:LUFA//Drivers/USB/Class/Device/../../Core/XMEGA/../XMEGA/Endpoint_XMEGA.h **** 		/* Inline Functions: */
 188:LUFA//Drivers/USB/Class/Device/../../Core/XMEGA/../XMEGA/Endpoint_XMEGA.h **** 			/** Selects the given endpoint address.
 189:LUFA//Drivers/USB/Class/Device/../../Core/XMEGA/../XMEGA/Endpoint_XMEGA.h **** 			 *
 190:LUFA//Drivers/USB/Class/Device/../../Core/XMEGA/../XMEGA/Endpoint_XMEGA.h **** 			 *  Any endpoint operations which do not require the endpoint address to be indicated will opera
 191:LUFA//Drivers/USB/Class/Device/../../Core/XMEGA/../XMEGA/Endpoint_XMEGA.h **** 			 *  the currently selected endpoint.
 192:LUFA//Drivers/USB/Class/Device/../../Core/XMEGA/../XMEGA/Endpoint_XMEGA.h **** 			 *
 193:LUFA//Drivers/USB/Class/Device/../../Core/XMEGA/../XMEGA/Endpoint_XMEGA.h **** 			 *  \param[in] Address  Endpoint address to select.
 194:LUFA//Drivers/USB/Class/Device/../../Core/XMEGA/../XMEGA/Endpoint_XMEGA.h **** 			 */
 195:LUFA//Drivers/USB/Class/Device/../../Core/XMEGA/../XMEGA/Endpoint_XMEGA.h **** 			static inline void Endpoint_SelectEndpoint(const uint8_t Address);
 196:LUFA//Drivers/USB/Class/Device/../../Core/XMEGA/../XMEGA/Endpoint_XMEGA.h **** 			static inline void Endpoint_SelectEndpoint(const uint8_t Address)
 197:LUFA//Drivers/USB/Class/Device/../../Core/XMEGA/../XMEGA/Endpoint_XMEGA.h **** 			{
  18               		.loc 1 197 0
  19               		.cfi_startproc
  20               	.LVL0:
  21               	/* prologue: function */
  22               	/* frame size = 0 */
  23               	/* stack size = 0 */
  24               	.L__stack_usage = 0
 198:LUFA//Drivers/USB/Class/Device/../../Core/XMEGA/../XMEGA/Endpoint_XMEGA.h **** 				uint8_t EndpointNumber = (Address & ENDPOINT_EPNUM_MASK);
  25               		.loc 1 198 0
  26 0000 282F      		mov r18,r24
  27 0002 2F70      		andi r18,lo8(15)
  28               	.LVL1:
 199:LUFA//Drivers/USB/Class/Device/../../Core/XMEGA/../XMEGA/Endpoint_XMEGA.h **** 
 200:LUFA//Drivers/USB/Class/Device/../../Core/XMEGA/../XMEGA/Endpoint_XMEGA.h **** 				USB_Endpoint_SelectedEndpoint = Address;
  29               		.loc 1 200 0
  30 0004 8093 0000 		sts USB_Endpoint_SelectedEndpoint,r24
  31 0008 30E0      		ldi r19,lo8(0)
 201:LUFA//Drivers/USB/Class/Device/../../Core/XMEGA/../XMEGA/Endpoint_XMEGA.h **** 
 202:LUFA//Drivers/USB/Class/Device/../../Core/XMEGA/../XMEGA/Endpoint_XMEGA.h **** 				if (Address & ENDPOINT_DIR_IN)
 203:LUFA//Drivers/USB/Class/Device/../../Core/XMEGA/../XMEGA/Endpoint_XMEGA.h **** 				{
 204:LUFA//Drivers/USB/Class/Device/../../Core/XMEGA/../XMEGA/Endpoint_XMEGA.h **** 					USB_Endpoint_SelectedFIFO   = &USB_Endpoint_FIFOs[EndpointNumber].IN;
  32               		.loc 1 204 0
  33 000a 44E8      		ldi r20,lo8(132)
  34 000c 50E0      		ldi r21,hi8(132)
 202:LUFA//Drivers/USB/Class/Device/../../Core/XMEGA/../XMEGA/Endpoint_XMEGA.h **** 				if (Address & ENDPOINT_DIR_IN)
  35               		.loc 1 202 0
  36 000e 87FF      		sbrs r24,7
  37 0010 00C0      		rjmp .L2
  38               		.loc 1 204 0
  39 0012 249F      		mul r18,r20
  40 0014 C001      		movw r24,r0
  41 0016 259F      		mul r18,r21
  42 0018 900D      		add r25,r0
  43 001a 349F      		mul r19,r20
  44 001c 900D      		add r25,r0
  45 001e 1124      		clr r1
  46               	.LVL2:
  47 0020 8050      		subi r24,lo8(-(USB_Endpoint_FIFOs+66))
  48 0022 9040      		sbci r25,hi8(-(USB_Endpoint_FIFOs+66))
  49 0024 8093 0000 		sts USB_Endpoint_SelectedFIFO,r24
  50 0028 9093 0000 		sts USB_Endpoint_SelectedFIFO+1,r25
 205:LUFA//Drivers/USB/Class/Device/../../Core/XMEGA/../XMEGA/Endpoint_XMEGA.h **** 					USB_Endpoint_SelectedHandle = &((USB_EndpointTable_t*)USB.EPPTR)->Endpoints[EndpointNumber].IN
  51               		.loc 1 205 0
  52 002c 8091 C604 		lds r24,1222
  53 0030 9091 C704 		lds r25,1222+1
  54 0034 74E0      		ldi r23,4
  55 0036 220F      	1:	lsl r18
  56 0038 331F      		rol r19
  57 003a 7A95      		dec r23
  58 003c 01F4      		brne 1b
  59               	.LVL3:
  60 003e 285F      		subi r18,lo8(-(8))
  61 0040 3F4F      		sbci r19,hi8(-(8))
  62 0042 00C0      		rjmp .L4
  63               	.LVL4:
  64               	.L2:
 206:LUFA//Drivers/USB/Class/Device/../../Core/XMEGA/../XMEGA/Endpoint_XMEGA.h **** 				}
 207:LUFA//Drivers/USB/Class/Device/../../Core/XMEGA/../XMEGA/Endpoint_XMEGA.h **** 				else
 208:LUFA//Drivers/USB/Class/Device/../../Core/XMEGA/../XMEGA/Endpoint_XMEGA.h **** 				{
 209:LUFA//Drivers/USB/Class/Device/../../Core/XMEGA/../XMEGA/Endpoint_XMEGA.h **** 					USB_Endpoint_SelectedFIFO   = &USB_Endpoint_FIFOs[EndpointNumber].OUT;
  65               		.loc 1 209 0
  66 0044 249F      		mul r18,r20
  67 0046 C001      		movw r24,r0
  68 0048 259F      		mul r18,r21
  69 004a 900D      		add r25,r0
  70 004c 349F      		mul r19,r20
  71 004e 900D      		add r25,r0
  72 0050 1124      		clr r1
  73 0052 8050      		subi r24,lo8(-(USB_Endpoint_FIFOs))
  74 0054 9040      		sbci r25,hi8(-(USB_Endpoint_FIFOs))
  75 0056 8093 0000 		sts USB_Endpoint_SelectedFIFO,r24
  76 005a 9093 0000 		sts USB_Endpoint_SelectedFIFO+1,r25
 210:LUFA//Drivers/USB/Class/Device/../../Core/XMEGA/../XMEGA/Endpoint_XMEGA.h **** 					USB_Endpoint_SelectedHandle = &((USB_EndpointTable_t*)USB.EPPTR)->Endpoints[EndpointNumber].OU
  77               		.loc 1 210 0
  78 005e 8091 C604 		lds r24,1222
  79 0062 9091 C704 		lds r25,1222+1
  80 0066 64E0      		ldi r22,4
  81 0068 220F      	1:	lsl r18
  82 006a 331F      		rol r19
  83 006c 6A95      		dec r22
  84 006e 01F4      		brne 1b
  85               	.LVL5:
  86               	.L4:
  87 0070 820F      		add r24,r18
  88 0072 931F      		adc r25,r19
  89 0074 8093 0000 		sts USB_Endpoint_SelectedHandle,r24
  90 0078 9093 0000 		sts USB_Endpoint_SelectedHandle+1,r25
  91 007c 0895      		ret
  92               		.cfi_endproc
  93               	.LFE22:
  95               		.section	.text.CDC_Device_ProcessControlRequest,"ax",@progbits
  96               	.global	CDC_Device_ProcessControlRequest
  98               	CDC_Device_ProcessControlRequest:
  99               	.LFB83:
 100               		.file 2 "LUFA//Drivers/USB/Class/Device/CDCClassDevice.c"
   1:LUFA//Drivers/USB/Class/Device/CDCClassDevice.c **** /*
   2:LUFA//Drivers/USB/Class/Device/CDCClassDevice.c ****              LUFA Library
   3:LUFA//Drivers/USB/Class/Device/CDCClassDevice.c ****      Copyright (C) Dean Camera, 2012.
   4:LUFA//Drivers/USB/Class/Device/CDCClassDevice.c **** 
   5:LUFA//Drivers/USB/Class/Device/CDCClassDevice.c ****   dean [at] fourwalledcubicle [dot] com
   6:LUFA//Drivers/USB/Class/Device/CDCClassDevice.c ****            www.lufa-lib.org
   7:LUFA//Drivers/USB/Class/Device/CDCClassDevice.c **** */
   8:LUFA//Drivers/USB/Class/Device/CDCClassDevice.c **** 
   9:LUFA//Drivers/USB/Class/Device/CDCClassDevice.c **** /*
  10:LUFA//Drivers/USB/Class/Device/CDCClassDevice.c ****   Copyright 2012  Dean Camera (dean [at] fourwalledcubicle [dot] com)
  11:LUFA//Drivers/USB/Class/Device/CDCClassDevice.c **** 
  12:LUFA//Drivers/USB/Class/Device/CDCClassDevice.c ****   Permission to use, copy, modify, distribute, and sell this
  13:LUFA//Drivers/USB/Class/Device/CDCClassDevice.c ****   software and its documentation for any purpose is hereby granted
  14:LUFA//Drivers/USB/Class/Device/CDCClassDevice.c ****   without fee, provided that the above copyright notice appear in
  15:LUFA//Drivers/USB/Class/Device/CDCClassDevice.c ****   all copies and that both that the copyright notice and this
  16:LUFA//Drivers/USB/Class/Device/CDCClassDevice.c ****   permission notice and warranty disclaimer appear in supporting
  17:LUFA//Drivers/USB/Class/Device/CDCClassDevice.c ****   documentation, and that the name of the author not be used in
  18:LUFA//Drivers/USB/Class/Device/CDCClassDevice.c ****   advertising or publicity pertaining to distribution of the
  19:LUFA//Drivers/USB/Class/Device/CDCClassDevice.c ****   software without specific, written prior permission.
  20:LUFA//Drivers/USB/Class/Device/CDCClassDevice.c **** 
  21:LUFA//Drivers/USB/Class/Device/CDCClassDevice.c ****   The author disclaim all warranties with regard to this
  22:LUFA//Drivers/USB/Class/Device/CDCClassDevice.c ****   software, including all implied warranties of merchantability
  23:LUFA//Drivers/USB/Class/Device/CDCClassDevice.c ****   and fitness.  In no event shall the author be liable for any
  24:LUFA//Drivers/USB/Class/Device/CDCClassDevice.c ****   special, indirect or consequential damages or any damages
  25:LUFA//Drivers/USB/Class/Device/CDCClassDevice.c ****   whatsoever resulting from loss of use, data or profits, whether
  26:LUFA//Drivers/USB/Class/Device/CDCClassDevice.c ****   in an action of contract, negligence or other tortious action,
  27:LUFA//Drivers/USB/Class/Device/CDCClassDevice.c ****   arising out of or in connection with the use or performance of
  28:LUFA//Drivers/USB/Class/Device/CDCClassDevice.c ****   this software.
  29:LUFA//Drivers/USB/Class/Device/CDCClassDevice.c **** */
  30:LUFA//Drivers/USB/Class/Device/CDCClassDevice.c **** 
  31:LUFA//Drivers/USB/Class/Device/CDCClassDevice.c **** #define  __INCLUDE_FROM_USB_DRIVER
  32:LUFA//Drivers/USB/Class/Device/CDCClassDevice.c **** #include "../../Core/USBMode.h"
  33:LUFA//Drivers/USB/Class/Device/CDCClassDevice.c **** 
  34:LUFA//Drivers/USB/Class/Device/CDCClassDevice.c **** #if defined(USB_CAN_BE_DEVICE)
  35:LUFA//Drivers/USB/Class/Device/CDCClassDevice.c **** 
  36:LUFA//Drivers/USB/Class/Device/CDCClassDevice.c **** #define  __INCLUDE_FROM_CDC_DRIVER
  37:LUFA//Drivers/USB/Class/Device/CDCClassDevice.c **** #define  __INCLUDE_FROM_CDC_DEVICE_C
  38:LUFA//Drivers/USB/Class/Device/CDCClassDevice.c **** #include "CDCClassDevice.h"
  39:LUFA//Drivers/USB/Class/Device/CDCClassDevice.c **** 
  40:LUFA//Drivers/USB/Class/Device/CDCClassDevice.c **** void CDC_Device_ProcessControlRequest(USB_ClassInfo_CDC_Device_t* const CDCInterfaceInfo)
  41:LUFA//Drivers/USB/Class/Device/CDCClassDevice.c **** {
 101               		.loc 2 41 0
 102               		.cfi_startproc
 103               	.LVL6:
 104 0000 CF92      		push r12
 105               	.LCFI0:
 106               		.cfi_def_cfa_offset 3
 107               		.cfi_offset 12, -2
 108 0002 DF92      		push r13
 109               	.LCFI1:
 110               		.cfi_def_cfa_offset 4
 111               		.cfi_offset 13, -3
 112 0004 EF92      		push r14
 113               	.LCFI2:
 114               		.cfi_def_cfa_offset 5
 115               		.cfi_offset 14, -4
 116 0006 FF92      		push r15
 117               	.LCFI3:
 118               		.cfi_def_cfa_offset 6
 119               		.cfi_offset 15, -5
 120 0008 0F93      		push r16
 121               	.LCFI4:
 122               		.cfi_def_cfa_offset 7
 123               		.cfi_offset 16, -6
 124 000a 1F93      		push r17
 125               	.LCFI5:
 126               		.cfi_def_cfa_offset 8
 127               		.cfi_offset 17, -7
 128 000c CF93      		push r28
 129               	.LCFI6:
 130               		.cfi_def_cfa_offset 9
 131               		.cfi_offset 28, -8
 132 000e DF93      		push r29
 133               	.LCFI7:
 134               		.cfi_def_cfa_offset 10
 135               		.cfi_offset 29, -9
 136               	/* prologue: function */
 137               	/* frame size = 0 */
 138               	/* stack size = 8 */
 139               	.L__stack_usage = 8
 140 0010 7C01      		movw r14,r24
 141               	.LBB105:
 142               	.LBB106:
 211:LUFA//Drivers/USB/Class/Device/../../Core/XMEGA/../XMEGA/Endpoint_XMEGA.h **** 				}
 212:LUFA//Drivers/USB/Class/Device/../../Core/XMEGA/../XMEGA/Endpoint_XMEGA.h **** 			}
 213:LUFA//Drivers/USB/Class/Device/../../Core/XMEGA/../XMEGA/Endpoint_XMEGA.h **** 
 214:LUFA//Drivers/USB/Class/Device/../../Core/XMEGA/../XMEGA/Endpoint_XMEGA.h **** 			/** Configures the specified endpoint address with the given endpoint type, direction, bank size
 215:LUFA//Drivers/USB/Class/Device/../../Core/XMEGA/../XMEGA/Endpoint_XMEGA.h **** 			 *  and banking mode. Once configured, the endpoint may be read from or written to, depending
 216:LUFA//Drivers/USB/Class/Device/../../Core/XMEGA/../XMEGA/Endpoint_XMEGA.h **** 			 *  on its direction.
 217:LUFA//Drivers/USB/Class/Device/../../Core/XMEGA/../XMEGA/Endpoint_XMEGA.h **** 			 *
 218:LUFA//Drivers/USB/Class/Device/../../Core/XMEGA/../XMEGA/Endpoint_XMEGA.h **** 			 *  \param[in] Address    Endpoint address to configure.
 219:LUFA//Drivers/USB/Class/Device/../../Core/XMEGA/../XMEGA/Endpoint_XMEGA.h **** 			 *
 220:LUFA//Drivers/USB/Class/Device/../../Core/XMEGA/../XMEGA/Endpoint_XMEGA.h **** 			 *  \param[in] Type       Type of endpoint to configure, a \c EP_TYPE_* mask. Not all endpoint t
 221:LUFA//Drivers/USB/Class/Device/../../Core/XMEGA/../XMEGA/Endpoint_XMEGA.h **** 			 *                        are available on Low Speed USB devices - refer to the USB 2.0 specific
 222:LUFA//Drivers/USB/Class/Device/../../Core/XMEGA/../XMEGA/Endpoint_XMEGA.h **** 			 *
 223:LUFA//Drivers/USB/Class/Device/../../Core/XMEGA/../XMEGA/Endpoint_XMEGA.h **** 			 *  \param[in] Size       Size of the endpoint's bank, where packets are stored before they are 
 224:LUFA//Drivers/USB/Class/Device/../../Core/XMEGA/../XMEGA/Endpoint_XMEGA.h **** 			 *                        to the USB host, or after they have been received from the USB host (d
 225:LUFA//Drivers/USB/Class/Device/../../Core/XMEGA/../XMEGA/Endpoint_XMEGA.h **** 			 *                        the endpoint's data direction). The bank size must indicate the maximu
 226:LUFA//Drivers/USB/Class/Device/../../Core/XMEGA/../XMEGA/Endpoint_XMEGA.h **** 			 *                        that the endpoint can handle.
 227:LUFA//Drivers/USB/Class/Device/../../Core/XMEGA/../XMEGA/Endpoint_XMEGA.h **** 			 *
 228:LUFA//Drivers/USB/Class/Device/../../Core/XMEGA/../XMEGA/Endpoint_XMEGA.h **** 			 *  \param[in] Banks      Number of hardware banks to use for the endpoint being configured.
 229:LUFA//Drivers/USB/Class/Device/../../Core/XMEGA/../XMEGA/Endpoint_XMEGA.h **** 			 *
 230:LUFA//Drivers/USB/Class/Device/../../Core/XMEGA/../XMEGA/Endpoint_XMEGA.h **** 			 *  \note The default control endpoint should not be manually configured by the user application
 231:LUFA//Drivers/USB/Class/Device/../../Core/XMEGA/../XMEGA/Endpoint_XMEGA.h **** 			 *        it is automatically configured by the library internally.
 232:LUFA//Drivers/USB/Class/Device/../../Core/XMEGA/../XMEGA/Endpoint_XMEGA.h **** 			 *        \n\n
 233:LUFA//Drivers/USB/Class/Device/../../Core/XMEGA/../XMEGA/Endpoint_XMEGA.h **** 			 *
 234:LUFA//Drivers/USB/Class/Device/../../Core/XMEGA/../XMEGA/Endpoint_XMEGA.h **** 			 *  \note This routine will automatically select the specified endpoint.
 235:LUFA//Drivers/USB/Class/Device/../../Core/XMEGA/../XMEGA/Endpoint_XMEGA.h **** 			 *
 236:LUFA//Drivers/USB/Class/Device/../../Core/XMEGA/../XMEGA/Endpoint_XMEGA.h **** 			 *  \return Boolean \c true if the configuration succeeded, \c false otherwise.
 237:LUFA//Drivers/USB/Class/Device/../../Core/XMEGA/../XMEGA/Endpoint_XMEGA.h **** 			 */
 238:LUFA//Drivers/USB/Class/Device/../../Core/XMEGA/../XMEGA/Endpoint_XMEGA.h **** 			static inline bool Endpoint_ConfigureEndpoint(const uint8_t Address,
 239:LUFA//Drivers/USB/Class/Device/../../Core/XMEGA/../XMEGA/Endpoint_XMEGA.h **** 			                                              const uint8_t Type,
 240:LUFA//Drivers/USB/Class/Device/../../Core/XMEGA/../XMEGA/Endpoint_XMEGA.h **** 			                                              const uint16_t Size,
 241:LUFA//Drivers/USB/Class/Device/../../Core/XMEGA/../XMEGA/Endpoint_XMEGA.h **** 			                                              const uint8_t Banks) ATTR_ALWAYS_INLINE;
 242:LUFA//Drivers/USB/Class/Device/../../Core/XMEGA/../XMEGA/Endpoint_XMEGA.h **** 			static inline bool Endpoint_ConfigureEndpoint(const uint8_t Address,
 243:LUFA//Drivers/USB/Class/Device/../../Core/XMEGA/../XMEGA/Endpoint_XMEGA.h **** 			                                              const uint8_t Type,
 244:LUFA//Drivers/USB/Class/Device/../../Core/XMEGA/../XMEGA/Endpoint_XMEGA.h **** 			                                              const uint16_t Size,
 245:LUFA//Drivers/USB/Class/Device/../../Core/XMEGA/../XMEGA/Endpoint_XMEGA.h **** 			                                              const uint8_t Banks)
 246:LUFA//Drivers/USB/Class/Device/../../Core/XMEGA/../XMEGA/Endpoint_XMEGA.h **** 			{
 247:LUFA//Drivers/USB/Class/Device/../../Core/XMEGA/../XMEGA/Endpoint_XMEGA.h **** 				uint8_t EPConfigMask = (USB_EP_INTDSBL_bm | ((Banks > 1) ? USB_EP_PINGPONG_bm : 0) | Endpoint_B
 248:LUFA//Drivers/USB/Class/Device/../../Core/XMEGA/../XMEGA/Endpoint_XMEGA.h **** 
 249:LUFA//Drivers/USB/Class/Device/../../Core/XMEGA/../XMEGA/Endpoint_XMEGA.h **** 				if ((Address & ENDPOINT_EPNUM_MASK) >= ENDPOINT_TOTAL_ENDPOINTS)
 250:LUFA//Drivers/USB/Class/Device/../../Core/XMEGA/../XMEGA/Endpoint_XMEGA.h **** 				  return false;
 251:LUFA//Drivers/USB/Class/Device/../../Core/XMEGA/../XMEGA/Endpoint_XMEGA.h **** 
 252:LUFA//Drivers/USB/Class/Device/../../Core/XMEGA/../XMEGA/Endpoint_XMEGA.h **** 				// TODO - Fix once limitations are lifted
 253:LUFA//Drivers/USB/Class/Device/../../Core/XMEGA/../XMEGA/Endpoint_XMEGA.h **** 				EPConfigMask &= ~USB_EP_PINGPONG_bm;
 254:LUFA//Drivers/USB/Class/Device/../../Core/XMEGA/../XMEGA/Endpoint_XMEGA.h **** 				if (Size > 64)
 255:LUFA//Drivers/USB/Class/Device/../../Core/XMEGA/../XMEGA/Endpoint_XMEGA.h **** 				  return false;
 256:LUFA//Drivers/USB/Class/Device/../../Core/XMEGA/../XMEGA/Endpoint_XMEGA.h **** 
 257:LUFA//Drivers/USB/Class/Device/../../Core/XMEGA/../XMEGA/Endpoint_XMEGA.h **** 				switch (Type)
 258:LUFA//Drivers/USB/Class/Device/../../Core/XMEGA/../XMEGA/Endpoint_XMEGA.h **** 				{
 259:LUFA//Drivers/USB/Class/Device/../../Core/XMEGA/../XMEGA/Endpoint_XMEGA.h **** 					case EP_TYPE_CONTROL:
 260:LUFA//Drivers/USB/Class/Device/../../Core/XMEGA/../XMEGA/Endpoint_XMEGA.h **** 						EPConfigMask |= USB_EP_TYPE_CONTROL_gc;
 261:LUFA//Drivers/USB/Class/Device/../../Core/XMEGA/../XMEGA/Endpoint_XMEGA.h **** 						break;
 262:LUFA//Drivers/USB/Class/Device/../../Core/XMEGA/../XMEGA/Endpoint_XMEGA.h **** 					case EP_TYPE_ISOCHRONOUS:
 263:LUFA//Drivers/USB/Class/Device/../../Core/XMEGA/../XMEGA/Endpoint_XMEGA.h **** 						EPConfigMask |= USB_EP_TYPE_ISOCHRONOUS_gc;
 264:LUFA//Drivers/USB/Class/Device/../../Core/XMEGA/../XMEGA/Endpoint_XMEGA.h **** 						break;
 265:LUFA//Drivers/USB/Class/Device/../../Core/XMEGA/../XMEGA/Endpoint_XMEGA.h **** 					default:
 266:LUFA//Drivers/USB/Class/Device/../../Core/XMEGA/../XMEGA/Endpoint_XMEGA.h **** 						EPConfigMask |= USB_EP_TYPE_BULK_gc;
 267:LUFA//Drivers/USB/Class/Device/../../Core/XMEGA/../XMEGA/Endpoint_XMEGA.h **** 						break;
 268:LUFA//Drivers/USB/Class/Device/../../Core/XMEGA/../XMEGA/Endpoint_XMEGA.h **** 				}
 269:LUFA//Drivers/USB/Class/Device/../../Core/XMEGA/../XMEGA/Endpoint_XMEGA.h **** 
 270:LUFA//Drivers/USB/Class/Device/../../Core/XMEGA/../XMEGA/Endpoint_XMEGA.h **** 				if (Type == EP_TYPE_CONTROL)
 271:LUFA//Drivers/USB/Class/Device/../../Core/XMEGA/../XMEGA/Endpoint_XMEGA.h **** 				  Endpoint_ConfigureEndpoint_PRV(Address ^ ENDPOINT_DIR_IN, EPConfigMask, Size);
 272:LUFA//Drivers/USB/Class/Device/../../Core/XMEGA/../XMEGA/Endpoint_XMEGA.h **** 
 273:LUFA//Drivers/USB/Class/Device/../../Core/XMEGA/../XMEGA/Endpoint_XMEGA.h **** 				return Endpoint_ConfigureEndpoint_PRV(Address, EPConfigMask, Size);
 274:LUFA//Drivers/USB/Class/Device/../../Core/XMEGA/../XMEGA/Endpoint_XMEGA.h **** 			}
 275:LUFA//Drivers/USB/Class/Device/../../Core/XMEGA/../XMEGA/Endpoint_XMEGA.h **** 
 276:LUFA//Drivers/USB/Class/Device/../../Core/XMEGA/../XMEGA/Endpoint_XMEGA.h **** 			/** Indicates the number of bytes currently stored in the current endpoint's selected bank.
 277:LUFA//Drivers/USB/Class/Device/../../Core/XMEGA/../XMEGA/Endpoint_XMEGA.h **** 			 *
 278:LUFA//Drivers/USB/Class/Device/../../Core/XMEGA/../XMEGA/Endpoint_XMEGA.h **** 			 *  \ingroup Group_EndpointRW_XMEGA
 279:LUFA//Drivers/USB/Class/Device/../../Core/XMEGA/../XMEGA/Endpoint_XMEGA.h **** 			 *
 280:LUFA//Drivers/USB/Class/Device/../../Core/XMEGA/../XMEGA/Endpoint_XMEGA.h **** 			 *  \return Total number of bytes in the currently selected Endpoint's FIFO buffer.
 281:LUFA//Drivers/USB/Class/Device/../../Core/XMEGA/../XMEGA/Endpoint_XMEGA.h **** 			 */
 282:LUFA//Drivers/USB/Class/Device/../../Core/XMEGA/../XMEGA/Endpoint_XMEGA.h **** 			static inline uint16_t Endpoint_BytesInEndpoint(void) ATTR_WARN_UNUSED_RESULT ATTR_ALWAYS_INLINE
 283:LUFA//Drivers/USB/Class/Device/../../Core/XMEGA/../XMEGA/Endpoint_XMEGA.h **** 			static inline uint16_t Endpoint_BytesInEndpoint(void)
 284:LUFA//Drivers/USB/Class/Device/../../Core/XMEGA/../XMEGA/Endpoint_XMEGA.h **** 			{
 285:LUFA//Drivers/USB/Class/Device/../../Core/XMEGA/../XMEGA/Endpoint_XMEGA.h **** 				if (USB_Endpoint_SelectedEndpoint & ENDPOINT_DIR_IN)
 286:LUFA//Drivers/USB/Class/Device/../../Core/XMEGA/../XMEGA/Endpoint_XMEGA.h **** 				  return USB_Endpoint_SelectedFIFO->Position;
 287:LUFA//Drivers/USB/Class/Device/../../Core/XMEGA/../XMEGA/Endpoint_XMEGA.h **** 				else
 288:LUFA//Drivers/USB/Class/Device/../../Core/XMEGA/../XMEGA/Endpoint_XMEGA.h **** 				  return (USB_Endpoint_SelectedFIFO->Length - USB_Endpoint_SelectedFIFO->Position);
 289:LUFA//Drivers/USB/Class/Device/../../Core/XMEGA/../XMEGA/Endpoint_XMEGA.h **** 			}
 290:LUFA//Drivers/USB/Class/Device/../../Core/XMEGA/../XMEGA/Endpoint_XMEGA.h **** 
 291:LUFA//Drivers/USB/Class/Device/../../Core/XMEGA/../XMEGA/Endpoint_XMEGA.h **** 			/** Get the endpoint address of the currently selected endpoint. This is typically used to save
 292:LUFA//Drivers/USB/Class/Device/../../Core/XMEGA/../XMEGA/Endpoint_XMEGA.h **** 			 *  the currently selected endpoint so that it can be restored after another endpoint has been
 293:LUFA//Drivers/USB/Class/Device/../../Core/XMEGA/../XMEGA/Endpoint_XMEGA.h **** 			 *  manipulated.
 294:LUFA//Drivers/USB/Class/Device/../../Core/XMEGA/../XMEGA/Endpoint_XMEGA.h **** 			 *
 295:LUFA//Drivers/USB/Class/Device/../../Core/XMEGA/../XMEGA/Endpoint_XMEGA.h **** 			 *  \return Index of the currently selected endpoint.
 296:LUFA//Drivers/USB/Class/Device/../../Core/XMEGA/../XMEGA/Endpoint_XMEGA.h **** 			 */
 297:LUFA//Drivers/USB/Class/Device/../../Core/XMEGA/../XMEGA/Endpoint_XMEGA.h **** 			static inline uint8_t Endpoint_GetCurrentEndpoint(void) ATTR_WARN_UNUSED_RESULT ATTR_ALWAYS_INLI
 298:LUFA//Drivers/USB/Class/Device/../../Core/XMEGA/../XMEGA/Endpoint_XMEGA.h **** 			static inline uint8_t Endpoint_GetCurrentEndpoint(void)
 299:LUFA//Drivers/USB/Class/Device/../../Core/XMEGA/../XMEGA/Endpoint_XMEGA.h **** 			{
 300:LUFA//Drivers/USB/Class/Device/../../Core/XMEGA/../XMEGA/Endpoint_XMEGA.h **** 				return USB_Endpoint_SelectedEndpoint;
 301:LUFA//Drivers/USB/Class/Device/../../Core/XMEGA/../XMEGA/Endpoint_XMEGA.h **** 			}
 302:LUFA//Drivers/USB/Class/Device/../../Core/XMEGA/../XMEGA/Endpoint_XMEGA.h **** 
 303:LUFA//Drivers/USB/Class/Device/../../Core/XMEGA/../XMEGA/Endpoint_XMEGA.h **** 			/** Resets the endpoint bank FIFO. This clears all the endpoint banks and resets the USB control
 304:LUFA//Drivers/USB/Class/Device/../../Core/XMEGA/../XMEGA/Endpoint_XMEGA.h **** 			 *  data In and Out pointers to the bank's contents.
 305:LUFA//Drivers/USB/Class/Device/../../Core/XMEGA/../XMEGA/Endpoint_XMEGA.h **** 			 *
 306:LUFA//Drivers/USB/Class/Device/../../Core/XMEGA/../XMEGA/Endpoint_XMEGA.h **** 			 *  \param[in] Address  Endpoint address whose FIFO buffers are to be reset.
 307:LUFA//Drivers/USB/Class/Device/../../Core/XMEGA/../XMEGA/Endpoint_XMEGA.h **** 			 */
 308:LUFA//Drivers/USB/Class/Device/../../Core/XMEGA/../XMEGA/Endpoint_XMEGA.h **** 			static inline void Endpoint_ResetEndpoint(const uint8_t Address) ATTR_ALWAYS_INLINE;
 309:LUFA//Drivers/USB/Class/Device/../../Core/XMEGA/../XMEGA/Endpoint_XMEGA.h **** 			static inline void Endpoint_ResetEndpoint(const uint8_t Address)
 310:LUFA//Drivers/USB/Class/Device/../../Core/XMEGA/../XMEGA/Endpoint_XMEGA.h **** 			{
 311:LUFA//Drivers/USB/Class/Device/../../Core/XMEGA/../XMEGA/Endpoint_XMEGA.h **** 				if (Address & ENDPOINT_DIR_IN)
 312:LUFA//Drivers/USB/Class/Device/../../Core/XMEGA/../XMEGA/Endpoint_XMEGA.h **** 				  USB_Endpoint_FIFOs[Address & ENDPOINT_EPNUM_MASK].IN.Position  = 0;
 313:LUFA//Drivers/USB/Class/Device/../../Core/XMEGA/../XMEGA/Endpoint_XMEGA.h **** 				else
 314:LUFA//Drivers/USB/Class/Device/../../Core/XMEGA/../XMEGA/Endpoint_XMEGA.h **** 				  USB_Endpoint_FIFOs[Address & ENDPOINT_EPNUM_MASK].OUT.Position = 0;
 315:LUFA//Drivers/USB/Class/Device/../../Core/XMEGA/../XMEGA/Endpoint_XMEGA.h **** 			}
 316:LUFA//Drivers/USB/Class/Device/../../Core/XMEGA/../XMEGA/Endpoint_XMEGA.h **** 
 317:LUFA//Drivers/USB/Class/Device/../../Core/XMEGA/../XMEGA/Endpoint_XMEGA.h **** 			/** Determines if the currently selected endpoint is enabled, but not necessarily configured.
 318:LUFA//Drivers/USB/Class/Device/../../Core/XMEGA/../XMEGA/Endpoint_XMEGA.h **** 			 *
 319:LUFA//Drivers/USB/Class/Device/../../Core/XMEGA/../XMEGA/Endpoint_XMEGA.h **** 			 * \return Boolean \c true if the currently selected endpoint is enabled, \c false otherwise.
 320:LUFA//Drivers/USB/Class/Device/../../Core/XMEGA/../XMEGA/Endpoint_XMEGA.h **** 			 */
 321:LUFA//Drivers/USB/Class/Device/../../Core/XMEGA/../XMEGA/Endpoint_XMEGA.h **** 			static inline bool Endpoint_IsEnabled(void) ATTR_WARN_UNUSED_RESULT ATTR_ALWAYS_INLINE;
 322:LUFA//Drivers/USB/Class/Device/../../Core/XMEGA/../XMEGA/Endpoint_XMEGA.h **** 			static inline bool Endpoint_IsEnabled(void)
 323:LUFA//Drivers/USB/Class/Device/../../Core/XMEGA/../XMEGA/Endpoint_XMEGA.h **** 			{
 324:LUFA//Drivers/USB/Class/Device/../../Core/XMEGA/../XMEGA/Endpoint_XMEGA.h **** 				return true;
 325:LUFA//Drivers/USB/Class/Device/../../Core/XMEGA/../XMEGA/Endpoint_XMEGA.h **** 			}
 326:LUFA//Drivers/USB/Class/Device/../../Core/XMEGA/../XMEGA/Endpoint_XMEGA.h **** 
 327:LUFA//Drivers/USB/Class/Device/../../Core/XMEGA/../XMEGA/Endpoint_XMEGA.h **** 			/** Aborts all pending IN transactions on the currently selected endpoint, once the bank
 328:LUFA//Drivers/USB/Class/Device/../../Core/XMEGA/../XMEGA/Endpoint_XMEGA.h **** 			 *  has been queued for transmission to the host via \ref Endpoint_ClearIN(). This function
 329:LUFA//Drivers/USB/Class/Device/../../Core/XMEGA/../XMEGA/Endpoint_XMEGA.h **** 			 *  will terminate all queued transactions, resetting the endpoint banks ready for a new
 330:LUFA//Drivers/USB/Class/Device/../../Core/XMEGA/../XMEGA/Endpoint_XMEGA.h **** 			 *  packet.
 331:LUFA//Drivers/USB/Class/Device/../../Core/XMEGA/../XMEGA/Endpoint_XMEGA.h **** 			 *
 332:LUFA//Drivers/USB/Class/Device/../../Core/XMEGA/../XMEGA/Endpoint_XMEGA.h **** 			 *  \ingroup Group_EndpointPacketManagement_XMEGA
 333:LUFA//Drivers/USB/Class/Device/../../Core/XMEGA/../XMEGA/Endpoint_XMEGA.h **** 			 */
 334:LUFA//Drivers/USB/Class/Device/../../Core/XMEGA/../XMEGA/Endpoint_XMEGA.h **** 			static inline void Endpoint_AbortPendingIN(void)
 335:LUFA//Drivers/USB/Class/Device/../../Core/XMEGA/../XMEGA/Endpoint_XMEGA.h **** 			{
 336:LUFA//Drivers/USB/Class/Device/../../Core/XMEGA/../XMEGA/Endpoint_XMEGA.h **** 				USB_Endpoint_SelectedHandle->STATUS |= USB_EP_BUSNACK0_bm;
 337:LUFA//Drivers/USB/Class/Device/../../Core/XMEGA/../XMEGA/Endpoint_XMEGA.h **** 			}
 338:LUFA//Drivers/USB/Class/Device/../../Core/XMEGA/../XMEGA/Endpoint_XMEGA.h **** 
 339:LUFA//Drivers/USB/Class/Device/../../Core/XMEGA/../XMEGA/Endpoint_XMEGA.h **** 			/** Determines if the currently selected endpoint may be read from (if data is waiting in the en
 340:LUFA//Drivers/USB/Class/Device/../../Core/XMEGA/../XMEGA/Endpoint_XMEGA.h **** 			 *  bank and the endpoint is an OUT direction, or if the bank is not yet full if the endpoint is
 341:LUFA//Drivers/USB/Class/Device/../../Core/XMEGA/../XMEGA/Endpoint_XMEGA.h **** 			 *  direction). This function will return false if an error has occurred in the endpoint, if the
 342:LUFA//Drivers/USB/Class/Device/../../Core/XMEGA/../XMEGA/Endpoint_XMEGA.h **** 			 *  is an OUT direction and no packet (or an empty packet) has been received, or if the endpoint
 343:LUFA//Drivers/USB/Class/Device/../../Core/XMEGA/../XMEGA/Endpoint_XMEGA.h **** 			 *  direction and the endpoint bank is full.
 344:LUFA//Drivers/USB/Class/Device/../../Core/XMEGA/../XMEGA/Endpoint_XMEGA.h **** 			 *
 345:LUFA//Drivers/USB/Class/Device/../../Core/XMEGA/../XMEGA/Endpoint_XMEGA.h **** 			 *  \ingroup Group_EndpointPacketManagement_XMEGA
 346:LUFA//Drivers/USB/Class/Device/../../Core/XMEGA/../XMEGA/Endpoint_XMEGA.h **** 			 *
 347:LUFA//Drivers/USB/Class/Device/../../Core/XMEGA/../XMEGA/Endpoint_XMEGA.h **** 			 *  \return Boolean \c true if the currently selected endpoint may be read from or written to, d
 348:LUFA//Drivers/USB/Class/Device/../../Core/XMEGA/../XMEGA/Endpoint_XMEGA.h **** 			 *          on its direction.
 349:LUFA//Drivers/USB/Class/Device/../../Core/XMEGA/../XMEGA/Endpoint_XMEGA.h **** 			 */
 350:LUFA//Drivers/USB/Class/Device/../../Core/XMEGA/../XMEGA/Endpoint_XMEGA.h **** 			static inline bool Endpoint_IsReadWriteAllowed(void) ATTR_WARN_UNUSED_RESULT ATTR_ALWAYS_INLINE;
 351:LUFA//Drivers/USB/Class/Device/../../Core/XMEGA/../XMEGA/Endpoint_XMEGA.h **** 			static inline bool Endpoint_IsReadWriteAllowed(void)
 352:LUFA//Drivers/USB/Class/Device/../../Core/XMEGA/../XMEGA/Endpoint_XMEGA.h **** 			{
 353:LUFA//Drivers/USB/Class/Device/../../Core/XMEGA/../XMEGA/Endpoint_XMEGA.h **** 				return (USB_Endpoint_SelectedFIFO->Position < USB_Endpoint_SelectedFIFO->Length);
 354:LUFA//Drivers/USB/Class/Device/../../Core/XMEGA/../XMEGA/Endpoint_XMEGA.h **** 			}
 355:LUFA//Drivers/USB/Class/Device/../../Core/XMEGA/../XMEGA/Endpoint_XMEGA.h **** 
 356:LUFA//Drivers/USB/Class/Device/../../Core/XMEGA/../XMEGA/Endpoint_XMEGA.h **** 			/** Determines if the currently selected endpoint is configured.
 357:LUFA//Drivers/USB/Class/Device/../../Core/XMEGA/../XMEGA/Endpoint_XMEGA.h **** 			 *
 358:LUFA//Drivers/USB/Class/Device/../../Core/XMEGA/../XMEGA/Endpoint_XMEGA.h **** 			 *  \return Boolean \c true if the currently selected endpoint has been configured, \c false oth
 359:LUFA//Drivers/USB/Class/Device/../../Core/XMEGA/../XMEGA/Endpoint_XMEGA.h **** 			 */
 360:LUFA//Drivers/USB/Class/Device/../../Core/XMEGA/../XMEGA/Endpoint_XMEGA.h **** 			static inline bool Endpoint_IsConfigured(void) ATTR_WARN_UNUSED_RESULT ATTR_ALWAYS_INLINE;
 361:LUFA//Drivers/USB/Class/Device/../../Core/XMEGA/../XMEGA/Endpoint_XMEGA.h **** 			static inline bool Endpoint_IsConfigured(void)
 362:LUFA//Drivers/USB/Class/Device/../../Core/XMEGA/../XMEGA/Endpoint_XMEGA.h **** 			{
 363:LUFA//Drivers/USB/Class/Device/../../Core/XMEGA/../XMEGA/Endpoint_XMEGA.h **** 				return ((USB_Endpoint_SelectedHandle->CTRL & USB_EP_TYPE_gm) ? true : false);
 364:LUFA//Drivers/USB/Class/Device/../../Core/XMEGA/../XMEGA/Endpoint_XMEGA.h **** 			}
 365:LUFA//Drivers/USB/Class/Device/../../Core/XMEGA/../XMEGA/Endpoint_XMEGA.h **** 
 366:LUFA//Drivers/USB/Class/Device/../../Core/XMEGA/../XMEGA/Endpoint_XMEGA.h **** 			/** Determines if the selected IN endpoint is ready for a new packet to be sent to the host.
 367:LUFA//Drivers/USB/Class/Device/../../Core/XMEGA/../XMEGA/Endpoint_XMEGA.h **** 			 *
 368:LUFA//Drivers/USB/Class/Device/../../Core/XMEGA/../XMEGA/Endpoint_XMEGA.h **** 			 *  \ingroup Group_EndpointPacketManagement_XMEGA
 369:LUFA//Drivers/USB/Class/Device/../../Core/XMEGA/../XMEGA/Endpoint_XMEGA.h **** 			 *
 370:LUFA//Drivers/USB/Class/Device/../../Core/XMEGA/../XMEGA/Endpoint_XMEGA.h **** 			 *  \return Boolean \c true if the current endpoint is ready for an IN packet, \c false otherwis
 371:LUFA//Drivers/USB/Class/Device/../../Core/XMEGA/../XMEGA/Endpoint_XMEGA.h **** 			 */
 372:LUFA//Drivers/USB/Class/Device/../../Core/XMEGA/../XMEGA/Endpoint_XMEGA.h **** 			static inline bool Endpoint_IsINReady(void) ATTR_WARN_UNUSED_RESULT ATTR_ALWAYS_INLINE;
 373:LUFA//Drivers/USB/Class/Device/../../Core/XMEGA/../XMEGA/Endpoint_XMEGA.h **** 			static inline bool Endpoint_IsINReady(void)
 374:LUFA//Drivers/USB/Class/Device/../../Core/XMEGA/../XMEGA/Endpoint_XMEGA.h **** 			{
 375:LUFA//Drivers/USB/Class/Device/../../Core/XMEGA/../XMEGA/Endpoint_XMEGA.h **** 				Endpoint_SelectEndpoint(USB_Endpoint_SelectedEndpoint | ENDPOINT_DIR_IN);
 376:LUFA//Drivers/USB/Class/Device/../../Core/XMEGA/../XMEGA/Endpoint_XMEGA.h **** 
 377:LUFA//Drivers/USB/Class/Device/../../Core/XMEGA/../XMEGA/Endpoint_XMEGA.h **** 				return ((USB_Endpoint_SelectedHandle->STATUS & USB_EP_BUSNACK0_bm) ? true : false);
 378:LUFA//Drivers/USB/Class/Device/../../Core/XMEGA/../XMEGA/Endpoint_XMEGA.h **** 			}
 379:LUFA//Drivers/USB/Class/Device/../../Core/XMEGA/../XMEGA/Endpoint_XMEGA.h **** 
 380:LUFA//Drivers/USB/Class/Device/../../Core/XMEGA/../XMEGA/Endpoint_XMEGA.h **** 			/** Determines if the selected OUT endpoint has received new packet from the host.
 381:LUFA//Drivers/USB/Class/Device/../../Core/XMEGA/../XMEGA/Endpoint_XMEGA.h **** 			 *
 382:LUFA//Drivers/USB/Class/Device/../../Core/XMEGA/../XMEGA/Endpoint_XMEGA.h **** 			 *  \ingroup Group_EndpointPacketManagement_XMEGA
 383:LUFA//Drivers/USB/Class/Device/../../Core/XMEGA/../XMEGA/Endpoint_XMEGA.h **** 			 *
 384:LUFA//Drivers/USB/Class/Device/../../Core/XMEGA/../XMEGA/Endpoint_XMEGA.h **** 			 *  \return Boolean \c true if current endpoint is has received an OUT packet, \c false otherwis
 385:LUFA//Drivers/USB/Class/Device/../../Core/XMEGA/../XMEGA/Endpoint_XMEGA.h **** 			 */
 386:LUFA//Drivers/USB/Class/Device/../../Core/XMEGA/../XMEGA/Endpoint_XMEGA.h **** 			static inline bool Endpoint_IsOUTReceived(void) ATTR_WARN_UNUSED_RESULT ATTR_ALWAYS_INLINE;
 387:LUFA//Drivers/USB/Class/Device/../../Core/XMEGA/../XMEGA/Endpoint_XMEGA.h **** 			static inline bool Endpoint_IsOUTReceived(void)
 388:LUFA//Drivers/USB/Class/Device/../../Core/XMEGA/../XMEGA/Endpoint_XMEGA.h **** 			{
 389:LUFA//Drivers/USB/Class/Device/../../Core/XMEGA/../XMEGA/Endpoint_XMEGA.h **** 				Endpoint_SelectEndpoint(USB_Endpoint_SelectedEndpoint & ~ENDPOINT_DIR_IN);
 390:LUFA//Drivers/USB/Class/Device/../../Core/XMEGA/../XMEGA/Endpoint_XMEGA.h **** 
 391:LUFA//Drivers/USB/Class/Device/../../Core/XMEGA/../XMEGA/Endpoint_XMEGA.h **** 				if (USB_Endpoint_SelectedHandle->STATUS & USB_EP_TRNCOMPL0_bm)
 392:LUFA//Drivers/USB/Class/Device/../../Core/XMEGA/../XMEGA/Endpoint_XMEGA.h **** 				{
 393:LUFA//Drivers/USB/Class/Device/../../Core/XMEGA/../XMEGA/Endpoint_XMEGA.h **** 					USB_Endpoint_SelectedFIFO->Length = USB_Endpoint_SelectedHandle->CNT;
 394:LUFA//Drivers/USB/Class/Device/../../Core/XMEGA/../XMEGA/Endpoint_XMEGA.h **** 					return true;
 395:LUFA//Drivers/USB/Class/Device/../../Core/XMEGA/../XMEGA/Endpoint_XMEGA.h **** 				}
 396:LUFA//Drivers/USB/Class/Device/../../Core/XMEGA/../XMEGA/Endpoint_XMEGA.h **** 
 397:LUFA//Drivers/USB/Class/Device/../../Core/XMEGA/../XMEGA/Endpoint_XMEGA.h **** 				return false;
 398:LUFA//Drivers/USB/Class/Device/../../Core/XMEGA/../XMEGA/Endpoint_XMEGA.h **** 			}
 399:LUFA//Drivers/USB/Class/Device/../../Core/XMEGA/../XMEGA/Endpoint_XMEGA.h **** 
 400:LUFA//Drivers/USB/Class/Device/../../Core/XMEGA/../XMEGA/Endpoint_XMEGA.h **** 			/** Determines if the current CONTROL type endpoint has received a SETUP packet.
 401:LUFA//Drivers/USB/Class/Device/../../Core/XMEGA/../XMEGA/Endpoint_XMEGA.h **** 			 *
 402:LUFA//Drivers/USB/Class/Device/../../Core/XMEGA/../XMEGA/Endpoint_XMEGA.h **** 			 *  \ingroup Group_EndpointPacketManagement_XMEGA
 403:LUFA//Drivers/USB/Class/Device/../../Core/XMEGA/../XMEGA/Endpoint_XMEGA.h **** 			 *
 404:LUFA//Drivers/USB/Class/Device/../../Core/XMEGA/../XMEGA/Endpoint_XMEGA.h **** 			 *  \return Boolean \c true if the selected endpoint has received a SETUP packet, \c false other
 405:LUFA//Drivers/USB/Class/Device/../../Core/XMEGA/../XMEGA/Endpoint_XMEGA.h **** 			 */
 406:LUFA//Drivers/USB/Class/Device/../../Core/XMEGA/../XMEGA/Endpoint_XMEGA.h **** 			static inline bool Endpoint_IsSETUPReceived(void) ATTR_WARN_UNUSED_RESULT ATTR_ALWAYS_INLINE;
 407:LUFA//Drivers/USB/Class/Device/../../Core/XMEGA/../XMEGA/Endpoint_XMEGA.h **** 			static inline bool Endpoint_IsSETUPReceived(void)
 408:LUFA//Drivers/USB/Class/Device/../../Core/XMEGA/../XMEGA/Endpoint_XMEGA.h **** 			{
 409:LUFA//Drivers/USB/Class/Device/../../Core/XMEGA/../XMEGA/Endpoint_XMEGA.h **** 				Endpoint_SelectEndpoint(USB_Endpoint_SelectedEndpoint & ~ENDPOINT_DIR_IN);
 143               		.loc 1 409 0
 144 0012 8091 0000 		lds r24,USB_Endpoint_SelectedEndpoint
 145               	.LVL7:
 146 0016 8F77      		andi r24,lo8(127)
 147 0018 0E94 0000 		call Endpoint_SelectEndpoint
 410:LUFA//Drivers/USB/Class/Device/../../Core/XMEGA/../XMEGA/Endpoint_XMEGA.h **** 
 411:LUFA//Drivers/USB/Class/Device/../../Core/XMEGA/../XMEGA/Endpoint_XMEGA.h **** 				if (USB_Endpoint_SelectedHandle->STATUS & USB_EP_SETUP_bm)
 148               		.loc 1 411 0
 149 001c A091 0000 		lds r26,USB_Endpoint_SelectedHandle
 150 0020 B091 0000 		lds r27,USB_Endpoint_SelectedHandle+1
 151 0024 8C91      		ld r24,X
 152 0026 84FF      		sbrs r24,4
 153 0028 00C0      		rjmp .L5
 412:LUFA//Drivers/USB/Class/Device/../../Core/XMEGA/../XMEGA/Endpoint_XMEGA.h **** 				{
 413:LUFA//Drivers/USB/Class/Device/../../Core/XMEGA/../XMEGA/Endpoint_XMEGA.h **** 					USB_Endpoint_SelectedFIFO->Length = USB_Endpoint_SelectedHandle->CNT;
 154               		.loc 1 413 0
 155 002a E091 0000 		lds r30,USB_Endpoint_SelectedFIFO
 156 002e F091 0000 		lds r31,USB_Endpoint_SelectedFIFO+1
 157 0032 1296      		adiw r26,2
 158 0034 8D91      		ld r24,X+
 159 0036 9C91      		ld r25,X
 160 0038 1397      		sbiw r26,2+1
 161 003a E05C      		subi r30,lo8(-(64))
 162 003c FF4F      		sbci r31,hi8(-(64))
 163 003e 8083      		st Z,r24
 164               	.LBE106:
 165               	.LBE105:
  42:LUFA//Drivers/USB/Class/Device/CDCClassDevice.c **** 	if (!(Endpoint_IsSETUPReceived()))
  43:LUFA//Drivers/USB/Class/Device/CDCClassDevice.c **** 	  return;
  44:LUFA//Drivers/USB/Class/Device/CDCClassDevice.c **** 
  45:LUFA//Drivers/USB/Class/Device/CDCClassDevice.c **** 	if (USB_ControlRequest.wIndex != CDCInterfaceInfo->Config.ControlInterfaceNumber)
 166               		.loc 2 45 0
 167 0040 D701      		movw r26,r14
 168 0042 8C91      		ld r24,X
 169 0044 90E0      		ldi r25,lo8(0)
 170 0046 2091 0000 		lds r18,USB_ControlRequest+4
 171 004a 3091 0000 		lds r19,USB_ControlRequest+4+1
 172 004e 2817      		cp r18,r24
 173 0050 3907      		cpc r19,r25
 174 0052 01F0      		breq .+2
 175 0054 00C0      		rjmp .L5
  46:LUFA//Drivers/USB/Class/Device/CDCClassDevice.c **** 	  return;
  47:LUFA//Drivers/USB/Class/Device/CDCClassDevice.c **** 
  48:LUFA//Drivers/USB/Class/Device/CDCClassDevice.c **** 	switch (USB_ControlRequest.bRequest)
 176               		.loc 2 48 0
 177 0056 8091 0000 		lds r24,USB_ControlRequest+1
 178 005a 8132      		cpi r24,lo8(33)
 179 005c 01F0      		breq .L8
 180 005e 8232      		cpi r24,lo8(34)
 181 0060 00F4      		brsh .L11
 182 0062 8032      		cpi r24,lo8(32)
 183 0064 01F0      		breq .+2
 184 0066 00C0      		rjmp .L5
 185 0068 00C0      		rjmp .L16
 186               	.L11:
 187 006a 8232      		cpi r24,lo8(34)
 188 006c 01F4      		brne .+2
 189 006e 00C0      		rjmp .L9
 190 0070 8332      		cpi r24,lo8(35)
 191 0072 01F0      		breq .+2
 192 0074 00C0      		rjmp .L5
 193 0076 00C0      		rjmp .L17
 194               	.L8:
  49:LUFA//Drivers/USB/Class/Device/CDCClassDevice.c **** 	{
  50:LUFA//Drivers/USB/Class/Device/CDCClassDevice.c **** 		case CDC_REQ_GetLineEncoding:
  51:LUFA//Drivers/USB/Class/Device/CDCClassDevice.c **** 			if (USB_ControlRequest.bmRequestType == (REQDIR_DEVICETOHOST | REQTYPE_CLASS | REQREC_INTERFACE)
 195               		.loc 2 51 0
 196 0078 8091 0000 		lds r24,USB_ControlRequest
 197 007c 813A      		cpi r24,lo8(-95)
 198 007e 01F0      		breq .+2
 199 0080 00C0      		rjmp .L5
 200               	.LBB107:
 201               	.LBB108:
 414:LUFA//Drivers/USB/Class/Device/../../Core/XMEGA/../XMEGA/Endpoint_XMEGA.h **** 					return true;
 415:LUFA//Drivers/USB/Class/Device/../../Core/XMEGA/../XMEGA/Endpoint_XMEGA.h **** 				}
 416:LUFA//Drivers/USB/Class/Device/../../Core/XMEGA/../XMEGA/Endpoint_XMEGA.h **** 
 417:LUFA//Drivers/USB/Class/Device/../../Core/XMEGA/../XMEGA/Endpoint_XMEGA.h **** 				return false;
 418:LUFA//Drivers/USB/Class/Device/../../Core/XMEGA/../XMEGA/Endpoint_XMEGA.h **** 			}
 419:LUFA//Drivers/USB/Class/Device/../../Core/XMEGA/../XMEGA/Endpoint_XMEGA.h **** 
 420:LUFA//Drivers/USB/Class/Device/../../Core/XMEGA/../XMEGA/Endpoint_XMEGA.h **** 			/** Clears a received SETUP packet on the currently selected CONTROL type endpoint, freeing up t
 421:LUFA//Drivers/USB/Class/Device/../../Core/XMEGA/../XMEGA/Endpoint_XMEGA.h **** 			 *  endpoint for the next packet.
 422:LUFA//Drivers/USB/Class/Device/../../Core/XMEGA/../XMEGA/Endpoint_XMEGA.h **** 			 *
 423:LUFA//Drivers/USB/Class/Device/../../Core/XMEGA/../XMEGA/Endpoint_XMEGA.h **** 			 *  \ingroup Group_EndpointPacketManagement_XMEGA
 424:LUFA//Drivers/USB/Class/Device/../../Core/XMEGA/../XMEGA/Endpoint_XMEGA.h **** 			 *
 425:LUFA//Drivers/USB/Class/Device/../../Core/XMEGA/../XMEGA/Endpoint_XMEGA.h **** 			 *  \note This is not applicable for non CONTROL type endpoints.
 426:LUFA//Drivers/USB/Class/Device/../../Core/XMEGA/../XMEGA/Endpoint_XMEGA.h **** 			 */
 427:LUFA//Drivers/USB/Class/Device/../../Core/XMEGA/../XMEGA/Endpoint_XMEGA.h **** 			static inline void Endpoint_ClearSETUP(void) ATTR_ALWAYS_INLINE;
 428:LUFA//Drivers/USB/Class/Device/../../Core/XMEGA/../XMEGA/Endpoint_XMEGA.h **** 			static inline void Endpoint_ClearSETUP(void)
 429:LUFA//Drivers/USB/Class/Device/../../Core/XMEGA/../XMEGA/Endpoint_XMEGA.h **** 			{
 430:LUFA//Drivers/USB/Class/Device/../../Core/XMEGA/../XMEGA/Endpoint_XMEGA.h **** 				Endpoint_SelectEndpoint(USB_Endpoint_SelectedEndpoint & ~ENDPOINT_DIR_IN);
 202               		.loc 1 430 0
 203 0082 8091 0000 		lds r24,USB_Endpoint_SelectedEndpoint
 204 0086 8F77      		andi r24,lo8(127)
 205 0088 0E94 0000 		call Endpoint_SelectEndpoint
 431:LUFA//Drivers/USB/Class/Device/../../Core/XMEGA/../XMEGA/Endpoint_XMEGA.h **** 				USB_Endpoint_SelectedHandle->STATUS &= ~(USB_EP_SETUP_bm | USB_EP_TRNCOMPL0_bm | USB_EP_BUSNACK
 206               		.loc 1 431 0
 207 008c E091 0000 		lds r30,USB_Endpoint_SelectedHandle
 208 0090 F091 0000 		lds r31,USB_Endpoint_SelectedHandle+1
 209 0094 8081      		ld r24,Z
 210 0096 8D78      		andi r24,lo8(-115)
 211 0098 8083      		st Z,r24
 432:LUFA//Drivers/USB/Class/Device/../../Core/XMEGA/../XMEGA/Endpoint_XMEGA.h **** 				USB_Endpoint_SelectedHandle->STATUS |= USB_EP_TOGGLE_bm;
 212               		.loc 1 432 0
 213 009a E091 0000 		lds r30,USB_Endpoint_SelectedHandle
 214 009e F091 0000 		lds r31,USB_Endpoint_SelectedHandle+1
 215 00a2 8081      		ld r24,Z
 216 00a4 8160      		ori r24,lo8(1)
 217 00a6 8083      		st Z,r24
 433:LUFA//Drivers/USB/Class/Device/../../Core/XMEGA/../XMEGA/Endpoint_XMEGA.h **** 				USB_Endpoint_SelectedFIFO->Position  = 0;
 218               		.loc 1 433 0
 219 00a8 E091 0000 		lds r30,USB_Endpoint_SelectedFIFO
 220 00ac F091 0000 		lds r31,USB_Endpoint_SelectedFIFO+1
 221 00b0 EF5B      		subi r30,lo8(-(65))
 222 00b2 FF4F      		sbci r31,hi8(-(65))
 223 00b4 1082      		st Z,__zero_reg__
 434:LUFA//Drivers/USB/Class/Device/../../Core/XMEGA/../XMEGA/Endpoint_XMEGA.h **** 
 435:LUFA//Drivers/USB/Class/Device/../../Core/XMEGA/../XMEGA/Endpoint_XMEGA.h **** 				Endpoint_SelectEndpoint(USB_Endpoint_SelectedEndpoint | ENDPOINT_DIR_IN);
 224               		.loc 1 435 0
 225 00b6 8091 0000 		lds r24,USB_Endpoint_SelectedEndpoint
 226 00ba 8068      		ori r24,lo8(-128)
 227 00bc 0E94 0000 		call Endpoint_SelectEndpoint
 436:LUFA//Drivers/USB/Class/Device/../../Core/XMEGA/../XMEGA/Endpoint_XMEGA.h **** 				USB_Endpoint_SelectedHandle->STATUS |= USB_EP_TOGGLE_bm;
 228               		.loc 1 436 0
 229 00c0 E091 0000 		lds r30,USB_Endpoint_SelectedHandle
 230 00c4 F091 0000 		lds r31,USB_Endpoint_SelectedHandle+1
 231 00c8 8081      		ld r24,Z
 232 00ca 8160      		ori r24,lo8(1)
 233 00cc 8083      		st Z,r24
 437:LUFA//Drivers/USB/Class/Device/../../Core/XMEGA/../XMEGA/Endpoint_XMEGA.h **** 				USB_Endpoint_SelectedFIFO->Position  = 0;
 234               		.loc 1 437 0
 235 00ce E091 0000 		lds r30,USB_Endpoint_SelectedFIFO
 236 00d2 F091 0000 		lds r31,USB_Endpoint_SelectedFIFO+1
 237 00d6 EF5B      		subi r30,lo8(-(65))
 238 00d8 FF4F      		sbci r31,hi8(-(65))
 239 00da 1082      		st Z,__zero_reg__
 240               	.L12:
 241               	.LBE108:
 242               	.LBE107:
 243               	.LBB109:
 244               	.LBB110:
 375:LUFA//Drivers/USB/Class/Device/../../Core/XMEGA/../XMEGA/Endpoint_XMEGA.h **** 				Endpoint_SelectEndpoint(USB_Endpoint_SelectedEndpoint | ENDPOINT_DIR_IN);
 245               		.loc 1 375 0 discriminator 1
 246 00dc 8091 0000 		lds r24,USB_Endpoint_SelectedEndpoint
 247 00e0 8068      		ori r24,lo8(-128)
 248 00e2 0E94 0000 		call Endpoint_SelectEndpoint
 377:LUFA//Drivers/USB/Class/Device/../../Core/XMEGA/../XMEGA/Endpoint_XMEGA.h **** 				return ((USB_Endpoint_SelectedHandle->STATUS & USB_EP_BUSNACK0_bm) ? true : false);
 249               		.loc 1 377 0 discriminator 1
 250 00e6 E091 0000 		lds r30,USB_Endpoint_SelectedHandle
 251 00ea F091 0000 		lds r31,USB_Endpoint_SelectedHandle+1
 252 00ee 8081      		ld r24,Z
 253               	.LBE110:
 254               	.LBE109:
  52:LUFA//Drivers/USB/Class/Device/CDCClassDevice.c **** 			{
  53:LUFA//Drivers/USB/Class/Device/CDCClassDevice.c **** 				Endpoint_ClearSETUP();
  54:LUFA//Drivers/USB/Class/Device/CDCClassDevice.c **** 
  55:LUFA//Drivers/USB/Class/Device/CDCClassDevice.c **** 				while (!(Endpoint_IsINReady()));
 255               		.loc 2 55 0 discriminator 1
 256 00f0 81FF      		sbrs r24,1
 257 00f2 00C0      		rjmp .L12
  56:LUFA//Drivers/USB/Class/Device/CDCClassDevice.c **** 
  57:LUFA//Drivers/USB/Class/Device/CDCClassDevice.c **** 				Endpoint_Write_32_LE(CDCInterfaceInfo->State.LineEncoding.BaudRateBPS);
 258               		.loc 2 57 0
 259 00f4 E701      		movw r28,r14
 260 00f6 4C89      		ldd r20,Y+20
 261 00f8 5D89      		ldd r21,Y+21
 262 00fa 6E89      		ldd r22,Y+22
 263 00fc 7F89      		ldd r23,Y+23
 264               	.LVL8:
 265               	.LBB111:
 266               	.LBB112:
 267               	.LBB113:
 268               	.LBB114:
 438:LUFA//Drivers/USB/Class/Device/../../Core/XMEGA/../XMEGA/Endpoint_XMEGA.h **** 			}
 439:LUFA//Drivers/USB/Class/Device/../../Core/XMEGA/../XMEGA/Endpoint_XMEGA.h **** 
 440:LUFA//Drivers/USB/Class/Device/../../Core/XMEGA/../XMEGA/Endpoint_XMEGA.h **** 			/** Sends an IN packet to the host on the currently selected endpoint, freeing up the endpoint f
 441:LUFA//Drivers/USB/Class/Device/../../Core/XMEGA/../XMEGA/Endpoint_XMEGA.h **** 			 *  next packet and switching to the alternative endpoint bank if double banked.
 442:LUFA//Drivers/USB/Class/Device/../../Core/XMEGA/../XMEGA/Endpoint_XMEGA.h **** 			 *
 443:LUFA//Drivers/USB/Class/Device/../../Core/XMEGA/../XMEGA/Endpoint_XMEGA.h **** 			 *  \ingroup Group_EndpointPacketManagement_XMEGA
 444:LUFA//Drivers/USB/Class/Device/../../Core/XMEGA/../XMEGA/Endpoint_XMEGA.h **** 			 */
 445:LUFA//Drivers/USB/Class/Device/../../Core/XMEGA/../XMEGA/Endpoint_XMEGA.h **** 			static inline void Endpoint_ClearIN(void) ATTR_ALWAYS_INLINE;
 446:LUFA//Drivers/USB/Class/Device/../../Core/XMEGA/../XMEGA/Endpoint_XMEGA.h **** 			static inline void Endpoint_ClearIN(void)
 447:LUFA//Drivers/USB/Class/Device/../../Core/XMEGA/../XMEGA/Endpoint_XMEGA.h **** 			{
 448:LUFA//Drivers/USB/Class/Device/../../Core/XMEGA/../XMEGA/Endpoint_XMEGA.h **** 				USB_Endpoint_SelectedHandle->CNT     = USB_Endpoint_SelectedFIFO->Position;
 449:LUFA//Drivers/USB/Class/Device/../../Core/XMEGA/../XMEGA/Endpoint_XMEGA.h **** 				USB_Endpoint_SelectedHandle->STATUS &= ~(USB_EP_TRNCOMPL0_bm | USB_EP_BUSNACK0_bm | USB_EP_OVF_
 450:LUFA//Drivers/USB/Class/Device/../../Core/XMEGA/../XMEGA/Endpoint_XMEGA.h **** 				USB_Endpoint_SelectedFIFO->Position  = 0;
 451:LUFA//Drivers/USB/Class/Device/../../Core/XMEGA/../XMEGA/Endpoint_XMEGA.h **** 			}
 452:LUFA//Drivers/USB/Class/Device/../../Core/XMEGA/../XMEGA/Endpoint_XMEGA.h **** 
 453:LUFA//Drivers/USB/Class/Device/../../Core/XMEGA/../XMEGA/Endpoint_XMEGA.h **** 			/** Acknowledges an OUT packet to the host on the currently selected endpoint, freeing up the en
 454:LUFA//Drivers/USB/Class/Device/../../Core/XMEGA/../XMEGA/Endpoint_XMEGA.h **** 			 *  for the next packet and switching to the alternative endpoint bank if double banked.
 455:LUFA//Drivers/USB/Class/Device/../../Core/XMEGA/../XMEGA/Endpoint_XMEGA.h **** 			 *
 456:LUFA//Drivers/USB/Class/Device/../../Core/XMEGA/../XMEGA/Endpoint_XMEGA.h **** 			 *  \ingroup Group_EndpointPacketManagement_XMEGA
 457:LUFA//Drivers/USB/Class/Device/../../Core/XMEGA/../XMEGA/Endpoint_XMEGA.h **** 			 */
 458:LUFA//Drivers/USB/Class/Device/../../Core/XMEGA/../XMEGA/Endpoint_XMEGA.h **** 			static inline void Endpoint_ClearOUT(void) ATTR_ALWAYS_INLINE;
 459:LUFA//Drivers/USB/Class/Device/../../Core/XMEGA/../XMEGA/Endpoint_XMEGA.h **** 			static inline void Endpoint_ClearOUT(void)
 460:LUFA//Drivers/USB/Class/Device/../../Core/XMEGA/../XMEGA/Endpoint_XMEGA.h **** 			{
 461:LUFA//Drivers/USB/Class/Device/../../Core/XMEGA/../XMEGA/Endpoint_XMEGA.h **** 				USB_Endpoint_SelectedHandle->STATUS &= ~(USB_EP_TRNCOMPL0_bm | USB_EP_BUSNACK0_bm | USB_EP_OVF_
 462:LUFA//Drivers/USB/Class/Device/../../Core/XMEGA/../XMEGA/Endpoint_XMEGA.h **** 				USB_Endpoint_SelectedFIFO->Position  = 0;
 463:LUFA//Drivers/USB/Class/Device/../../Core/XMEGA/../XMEGA/Endpoint_XMEGA.h **** 			}
 464:LUFA//Drivers/USB/Class/Device/../../Core/XMEGA/../XMEGA/Endpoint_XMEGA.h **** 
 465:LUFA//Drivers/USB/Class/Device/../../Core/XMEGA/../XMEGA/Endpoint_XMEGA.h **** 			/** Stalls the current endpoint, indicating to the host that a logical problem occurred with the
 466:LUFA//Drivers/USB/Class/Device/../../Core/XMEGA/../XMEGA/Endpoint_XMEGA.h **** 			 *  indicated endpoint and that the current transfer sequence should be aborted. This provides a
 467:LUFA//Drivers/USB/Class/Device/../../Core/XMEGA/../XMEGA/Endpoint_XMEGA.h **** 			 *  way for devices to indicate invalid commands to the host so that the current transfer can be
 468:LUFA//Drivers/USB/Class/Device/../../Core/XMEGA/../XMEGA/Endpoint_XMEGA.h **** 			 *  aborted and the host can begin its own recovery sequence.
 469:LUFA//Drivers/USB/Class/Device/../../Core/XMEGA/../XMEGA/Endpoint_XMEGA.h **** 			 *
 470:LUFA//Drivers/USB/Class/Device/../../Core/XMEGA/../XMEGA/Endpoint_XMEGA.h **** 			 *  The currently selected endpoint remains stalled until either the \ref Endpoint_ClearStall() 
 471:LUFA//Drivers/USB/Class/Device/../../Core/XMEGA/../XMEGA/Endpoint_XMEGA.h **** 			 *  is called, or the host issues a CLEAR FEATURE request to the device for the currently select
 472:LUFA//Drivers/USB/Class/Device/../../Core/XMEGA/../XMEGA/Endpoint_XMEGA.h **** 			 *  endpoint.
 473:LUFA//Drivers/USB/Class/Device/../../Core/XMEGA/../XMEGA/Endpoint_XMEGA.h **** 			 *
 474:LUFA//Drivers/USB/Class/Device/../../Core/XMEGA/../XMEGA/Endpoint_XMEGA.h **** 			 *  \ingroup Group_EndpointPacketManagement_XMEGA
 475:LUFA//Drivers/USB/Class/Device/../../Core/XMEGA/../XMEGA/Endpoint_XMEGA.h **** 			 */
 476:LUFA//Drivers/USB/Class/Device/../../Core/XMEGA/../XMEGA/Endpoint_XMEGA.h **** 			static inline void Endpoint_StallTransaction(void) ATTR_ALWAYS_INLINE;
 477:LUFA//Drivers/USB/Class/Device/../../Core/XMEGA/../XMEGA/Endpoint_XMEGA.h **** 			static inline void Endpoint_StallTransaction(void)
 478:LUFA//Drivers/USB/Class/Device/../../Core/XMEGA/../XMEGA/Endpoint_XMEGA.h **** 			{
 479:LUFA//Drivers/USB/Class/Device/../../Core/XMEGA/../XMEGA/Endpoint_XMEGA.h **** 				USB_Endpoint_SelectedHandle->CTRL |= USB_EP_STALL_bm;
 480:LUFA//Drivers/USB/Class/Device/../../Core/XMEGA/../XMEGA/Endpoint_XMEGA.h **** 
 481:LUFA//Drivers/USB/Class/Device/../../Core/XMEGA/../XMEGA/Endpoint_XMEGA.h **** 				if ((USB_Endpoint_SelectedHandle->CTRL & USB_EP_TYPE_gm) == USB_EP_TYPE_CONTROL_gc)
 482:LUFA//Drivers/USB/Class/Device/../../Core/XMEGA/../XMEGA/Endpoint_XMEGA.h **** 				{
 483:LUFA//Drivers/USB/Class/Device/../../Core/XMEGA/../XMEGA/Endpoint_XMEGA.h **** 					Endpoint_SelectEndpoint(USB_Endpoint_SelectedEndpoint ^ ENDPOINT_DIR_IN);
 484:LUFA//Drivers/USB/Class/Device/../../Core/XMEGA/../XMEGA/Endpoint_XMEGA.h **** 					USB_Endpoint_SelectedHandle->CTRL |= USB_EP_STALL_bm;
 485:LUFA//Drivers/USB/Class/Device/../../Core/XMEGA/../XMEGA/Endpoint_XMEGA.h **** 				}
 486:LUFA//Drivers/USB/Class/Device/../../Core/XMEGA/../XMEGA/Endpoint_XMEGA.h **** 			}
 487:LUFA//Drivers/USB/Class/Device/../../Core/XMEGA/../XMEGA/Endpoint_XMEGA.h **** 
 488:LUFA//Drivers/USB/Class/Device/../../Core/XMEGA/../XMEGA/Endpoint_XMEGA.h **** 			/** Clears the STALL condition on the currently selected endpoint.
 489:LUFA//Drivers/USB/Class/Device/../../Core/XMEGA/../XMEGA/Endpoint_XMEGA.h **** 			 *
 490:LUFA//Drivers/USB/Class/Device/../../Core/XMEGA/../XMEGA/Endpoint_XMEGA.h **** 			 *  \ingroup Group_EndpointPacketManagement_XMEGA
 491:LUFA//Drivers/USB/Class/Device/../../Core/XMEGA/../XMEGA/Endpoint_XMEGA.h **** 			 */
 492:LUFA//Drivers/USB/Class/Device/../../Core/XMEGA/../XMEGA/Endpoint_XMEGA.h **** 			static inline void Endpoint_ClearStall(void) ATTR_ALWAYS_INLINE;
 493:LUFA//Drivers/USB/Class/Device/../../Core/XMEGA/../XMEGA/Endpoint_XMEGA.h **** 			static inline void Endpoint_ClearStall(void)
 494:LUFA//Drivers/USB/Class/Device/../../Core/XMEGA/../XMEGA/Endpoint_XMEGA.h **** 			{
 495:LUFA//Drivers/USB/Class/Device/../../Core/XMEGA/../XMEGA/Endpoint_XMEGA.h **** 				USB_Endpoint_SelectedHandle->CTRL &= ~USB_EP_STALL_bm;
 496:LUFA//Drivers/USB/Class/Device/../../Core/XMEGA/../XMEGA/Endpoint_XMEGA.h **** 			}
 497:LUFA//Drivers/USB/Class/Device/../../Core/XMEGA/../XMEGA/Endpoint_XMEGA.h **** 
 498:LUFA//Drivers/USB/Class/Device/../../Core/XMEGA/../XMEGA/Endpoint_XMEGA.h **** 			/** Determines if the currently selected endpoint is stalled, false otherwise.
 499:LUFA//Drivers/USB/Class/Device/../../Core/XMEGA/../XMEGA/Endpoint_XMEGA.h **** 			 *
 500:LUFA//Drivers/USB/Class/Device/../../Core/XMEGA/../XMEGA/Endpoint_XMEGA.h **** 			 *  \ingroup Group_EndpointPacketManagement_XMEGA
 501:LUFA//Drivers/USB/Class/Device/../../Core/XMEGA/../XMEGA/Endpoint_XMEGA.h **** 			 *
 502:LUFA//Drivers/USB/Class/Device/../../Core/XMEGA/../XMEGA/Endpoint_XMEGA.h **** 			 *  \return Boolean \c true if the currently selected endpoint is stalled, \c false otherwise.
 503:LUFA//Drivers/USB/Class/Device/../../Core/XMEGA/../XMEGA/Endpoint_XMEGA.h **** 			 */
 504:LUFA//Drivers/USB/Class/Device/../../Core/XMEGA/../XMEGA/Endpoint_XMEGA.h **** 			static inline bool Endpoint_IsStalled(void) ATTR_WARN_UNUSED_RESULT ATTR_ALWAYS_INLINE;
 505:LUFA//Drivers/USB/Class/Device/../../Core/XMEGA/../XMEGA/Endpoint_XMEGA.h **** 			static inline bool Endpoint_IsStalled(void)
 506:LUFA//Drivers/USB/Class/Device/../../Core/XMEGA/../XMEGA/Endpoint_XMEGA.h **** 			{
 507:LUFA//Drivers/USB/Class/Device/../../Core/XMEGA/../XMEGA/Endpoint_XMEGA.h **** 				return ((USB_Endpoint_SelectedHandle->CTRL & USB_EP_STALL_bm) ? true : false);
 508:LUFA//Drivers/USB/Class/Device/../../Core/XMEGA/../XMEGA/Endpoint_XMEGA.h **** 			}
 509:LUFA//Drivers/USB/Class/Device/../../Core/XMEGA/../XMEGA/Endpoint_XMEGA.h **** 
 510:LUFA//Drivers/USB/Class/Device/../../Core/XMEGA/../XMEGA/Endpoint_XMEGA.h **** 			/** Resets the data toggle of the currently selected endpoint. */
 511:LUFA//Drivers/USB/Class/Device/../../Core/XMEGA/../XMEGA/Endpoint_XMEGA.h **** 			static inline void Endpoint_ResetDataToggle(void) ATTR_ALWAYS_INLINE;
 512:LUFA//Drivers/USB/Class/Device/../../Core/XMEGA/../XMEGA/Endpoint_XMEGA.h **** 			static inline void Endpoint_ResetDataToggle(void)
 513:LUFA//Drivers/USB/Class/Device/../../Core/XMEGA/../XMEGA/Endpoint_XMEGA.h **** 			{
 514:LUFA//Drivers/USB/Class/Device/../../Core/XMEGA/../XMEGA/Endpoint_XMEGA.h **** 				USB_Endpoint_SelectedHandle->STATUS &= ~USB_EP_TOGGLE_bm;
 515:LUFA//Drivers/USB/Class/Device/../../Core/XMEGA/../XMEGA/Endpoint_XMEGA.h **** 			}
 516:LUFA//Drivers/USB/Class/Device/../../Core/XMEGA/../XMEGA/Endpoint_XMEGA.h **** 
 517:LUFA//Drivers/USB/Class/Device/../../Core/XMEGA/../XMEGA/Endpoint_XMEGA.h **** 			/** Determines the currently selected endpoint's direction.
 518:LUFA//Drivers/USB/Class/Device/../../Core/XMEGA/../XMEGA/Endpoint_XMEGA.h **** 			 *
 519:LUFA//Drivers/USB/Class/Device/../../Core/XMEGA/../XMEGA/Endpoint_XMEGA.h **** 			 *  \return The currently selected endpoint's direction, as a \c ENDPOINT_DIR_* mask.
 520:LUFA//Drivers/USB/Class/Device/../../Core/XMEGA/../XMEGA/Endpoint_XMEGA.h **** 			 */
 521:LUFA//Drivers/USB/Class/Device/../../Core/XMEGA/../XMEGA/Endpoint_XMEGA.h **** 			static inline uint8_t Endpoint_GetEndpointDirection(void) ATTR_WARN_UNUSED_RESULT ATTR_ALWAYS_IN
 522:LUFA//Drivers/USB/Class/Device/../../Core/XMEGA/../XMEGA/Endpoint_XMEGA.h **** 			static inline uint8_t Endpoint_GetEndpointDirection(void)
 523:LUFA//Drivers/USB/Class/Device/../../Core/XMEGA/../XMEGA/Endpoint_XMEGA.h **** 			{
 524:LUFA//Drivers/USB/Class/Device/../../Core/XMEGA/../XMEGA/Endpoint_XMEGA.h **** 				return (USB_Endpoint_SelectedEndpoint & ENDPOINT_DIR_IN);
 525:LUFA//Drivers/USB/Class/Device/../../Core/XMEGA/../XMEGA/Endpoint_XMEGA.h **** 			}
 526:LUFA//Drivers/USB/Class/Device/../../Core/XMEGA/../XMEGA/Endpoint_XMEGA.h **** 
 527:LUFA//Drivers/USB/Class/Device/../../Core/XMEGA/../XMEGA/Endpoint_XMEGA.h **** 			/** Reads one byte from the currently selected endpoint's bank, for OUT direction endpoints.
 528:LUFA//Drivers/USB/Class/Device/../../Core/XMEGA/../XMEGA/Endpoint_XMEGA.h **** 			 *
 529:LUFA//Drivers/USB/Class/Device/../../Core/XMEGA/../XMEGA/Endpoint_XMEGA.h **** 			 *  \ingroup Group_EndpointPrimitiveRW_XMEGA
 530:LUFA//Drivers/USB/Class/Device/../../Core/XMEGA/../XMEGA/Endpoint_XMEGA.h **** 			 *
 531:LUFA//Drivers/USB/Class/Device/../../Core/XMEGA/../XMEGA/Endpoint_XMEGA.h **** 			 *  \return Next byte in the currently selected endpoint's FIFO buffer.
 532:LUFA//Drivers/USB/Class/Device/../../Core/XMEGA/../XMEGA/Endpoint_XMEGA.h **** 			 */
 533:LUFA//Drivers/USB/Class/Device/../../Core/XMEGA/../XMEGA/Endpoint_XMEGA.h **** 			static inline uint8_t Endpoint_Read_8(void) ATTR_WARN_UNUSED_RESULT ATTR_ALWAYS_INLINE;
 534:LUFA//Drivers/USB/Class/Device/../../Core/XMEGA/../XMEGA/Endpoint_XMEGA.h **** 			static inline uint8_t Endpoint_Read_8(void)
 535:LUFA//Drivers/USB/Class/Device/../../Core/XMEGA/../XMEGA/Endpoint_XMEGA.h **** 			{
 536:LUFA//Drivers/USB/Class/Device/../../Core/XMEGA/../XMEGA/Endpoint_XMEGA.h **** 				return USB_Endpoint_SelectedFIFO->Data[USB_Endpoint_SelectedFIFO->Position++];
 537:LUFA//Drivers/USB/Class/Device/../../Core/XMEGA/../XMEGA/Endpoint_XMEGA.h **** 			}
 538:LUFA//Drivers/USB/Class/Device/../../Core/XMEGA/../XMEGA/Endpoint_XMEGA.h **** 
 539:LUFA//Drivers/USB/Class/Device/../../Core/XMEGA/../XMEGA/Endpoint_XMEGA.h **** 			/** Writes one byte to the currently selected endpoint's bank, for IN direction endpoints.
 540:LUFA//Drivers/USB/Class/Device/../../Core/XMEGA/../XMEGA/Endpoint_XMEGA.h **** 			 *
 541:LUFA//Drivers/USB/Class/Device/../../Core/XMEGA/../XMEGA/Endpoint_XMEGA.h **** 			 *  \ingroup Group_EndpointPrimitiveRW_XMEGA
 542:LUFA//Drivers/USB/Class/Device/../../Core/XMEGA/../XMEGA/Endpoint_XMEGA.h **** 			 *
 543:LUFA//Drivers/USB/Class/Device/../../Core/XMEGA/../XMEGA/Endpoint_XMEGA.h **** 			 *  \param[in] Data  Data to write into the the currently selected endpoint's FIFO buffer.
 544:LUFA//Drivers/USB/Class/Device/../../Core/XMEGA/../XMEGA/Endpoint_XMEGA.h **** 			 */
 545:LUFA//Drivers/USB/Class/Device/../../Core/XMEGA/../XMEGA/Endpoint_XMEGA.h **** 			static inline void Endpoint_Write_8(const uint8_t Data) ATTR_ALWAYS_INLINE;
 546:LUFA//Drivers/USB/Class/Device/../../Core/XMEGA/../XMEGA/Endpoint_XMEGA.h **** 			static inline void Endpoint_Write_8(const uint8_t Data)
 547:LUFA//Drivers/USB/Class/Device/../../Core/XMEGA/../XMEGA/Endpoint_XMEGA.h **** 			{
 548:LUFA//Drivers/USB/Class/Device/../../Core/XMEGA/../XMEGA/Endpoint_XMEGA.h **** 				USB_Endpoint_SelectedFIFO->Data[USB_Endpoint_SelectedFIFO->Position++] = Data;
 269               		.loc 1 548 0
 270 00fe 8091 0000 		lds r24,USB_Endpoint_SelectedFIFO
 271 0102 9091 0000 		lds r25,USB_Endpoint_SelectedFIFO+1
 272 0106 FC01      		movw r30,r24
 273 0108 EF5B      		subi r30,lo8(-(65))
 274 010a FF4F      		sbci r31,hi8(-(65))
 275 010c 2081      		ld r18,Z
 276 010e 820F      		add r24,r18
 277 0110 911D      		adc r25,__zero_reg__
 278 0112 DC01      		movw r26,r24
 279 0114 4C93      		st X,r20
 280 0116 2F5F      		subi r18,lo8(-(1))
 281 0118 2083      		st Z,r18
 282               	.LBE114:
 283               	.LBE113:
 549:LUFA//Drivers/USB/Class/Device/../../Core/XMEGA/../XMEGA/Endpoint_XMEGA.h **** 			}
 550:LUFA//Drivers/USB/Class/Device/../../Core/XMEGA/../XMEGA/Endpoint_XMEGA.h **** 
 551:LUFA//Drivers/USB/Class/Device/../../Core/XMEGA/../XMEGA/Endpoint_XMEGA.h **** 			/** Discards one byte from the currently selected endpoint's bank, for OUT direction endpoints.
 552:LUFA//Drivers/USB/Class/Device/../../Core/XMEGA/../XMEGA/Endpoint_XMEGA.h **** 			 *
 553:LUFA//Drivers/USB/Class/Device/../../Core/XMEGA/../XMEGA/Endpoint_XMEGA.h **** 			 *  \ingroup Group_EndpointPrimitiveRW_XMEGA
 554:LUFA//Drivers/USB/Class/Device/../../Core/XMEGA/../XMEGA/Endpoint_XMEGA.h **** 			 */
 555:LUFA//Drivers/USB/Class/Device/../../Core/XMEGA/../XMEGA/Endpoint_XMEGA.h **** 			static inline void Endpoint_Discard_8(void) ATTR_ALWAYS_INLINE;
 556:LUFA//Drivers/USB/Class/Device/../../Core/XMEGA/../XMEGA/Endpoint_XMEGA.h **** 			static inline void Endpoint_Discard_8(void)
 557:LUFA//Drivers/USB/Class/Device/../../Core/XMEGA/../XMEGA/Endpoint_XMEGA.h **** 			{
 558:LUFA//Drivers/USB/Class/Device/../../Core/XMEGA/../XMEGA/Endpoint_XMEGA.h **** 				USB_Endpoint_SelectedFIFO->Position++;
 559:LUFA//Drivers/USB/Class/Device/../../Core/XMEGA/../XMEGA/Endpoint_XMEGA.h **** 			}
 560:LUFA//Drivers/USB/Class/Device/../../Core/XMEGA/../XMEGA/Endpoint_XMEGA.h **** 
 561:LUFA//Drivers/USB/Class/Device/../../Core/XMEGA/../XMEGA/Endpoint_XMEGA.h **** 			/** Reads two bytes from the currently selected endpoint's bank in little endian format, for OUT
 562:LUFA//Drivers/USB/Class/Device/../../Core/XMEGA/../XMEGA/Endpoint_XMEGA.h **** 			 *  direction endpoints.
 563:LUFA//Drivers/USB/Class/Device/../../Core/XMEGA/../XMEGA/Endpoint_XMEGA.h **** 			 *
 564:LUFA//Drivers/USB/Class/Device/../../Core/XMEGA/../XMEGA/Endpoint_XMEGA.h **** 			 *  \ingroup Group_EndpointPrimitiveRW_XMEGA
 565:LUFA//Drivers/USB/Class/Device/../../Core/XMEGA/../XMEGA/Endpoint_XMEGA.h **** 			 *
 566:LUFA//Drivers/USB/Class/Device/../../Core/XMEGA/../XMEGA/Endpoint_XMEGA.h **** 			 *  \return Next two bytes in the currently selected endpoint's FIFO buffer.
 567:LUFA//Drivers/USB/Class/Device/../../Core/XMEGA/../XMEGA/Endpoint_XMEGA.h **** 			 */
 568:LUFA//Drivers/USB/Class/Device/../../Core/XMEGA/../XMEGA/Endpoint_XMEGA.h **** 			static inline uint16_t Endpoint_Read_16_LE(void) ATTR_WARN_UNUSED_RESULT ATTR_ALWAYS_INLINE;
 569:LUFA//Drivers/USB/Class/Device/../../Core/XMEGA/../XMEGA/Endpoint_XMEGA.h **** 			static inline uint16_t Endpoint_Read_16_LE(void)
 570:LUFA//Drivers/USB/Class/Device/../../Core/XMEGA/../XMEGA/Endpoint_XMEGA.h **** 			{
 571:LUFA//Drivers/USB/Class/Device/../../Core/XMEGA/../XMEGA/Endpoint_XMEGA.h **** 				uint16_t Byte0 = Endpoint_Read_8();
 572:LUFA//Drivers/USB/Class/Device/../../Core/XMEGA/../XMEGA/Endpoint_XMEGA.h **** 				uint16_t Byte1 = Endpoint_Read_8();
 573:LUFA//Drivers/USB/Class/Device/../../Core/XMEGA/../XMEGA/Endpoint_XMEGA.h **** 
 574:LUFA//Drivers/USB/Class/Device/../../Core/XMEGA/../XMEGA/Endpoint_XMEGA.h **** 				return ((Byte1 << 8) | Byte0);
 575:LUFA//Drivers/USB/Class/Device/../../Core/XMEGA/../XMEGA/Endpoint_XMEGA.h **** 			}
 576:LUFA//Drivers/USB/Class/Device/../../Core/XMEGA/../XMEGA/Endpoint_XMEGA.h **** 
 577:LUFA//Drivers/USB/Class/Device/../../Core/XMEGA/../XMEGA/Endpoint_XMEGA.h **** 			/** Reads two bytes from the currently selected endpoint's bank in big endian format, for OUT
 578:LUFA//Drivers/USB/Class/Device/../../Core/XMEGA/../XMEGA/Endpoint_XMEGA.h **** 			 *  direction endpoints.
 579:LUFA//Drivers/USB/Class/Device/../../Core/XMEGA/../XMEGA/Endpoint_XMEGA.h **** 			 *
 580:LUFA//Drivers/USB/Class/Device/../../Core/XMEGA/../XMEGA/Endpoint_XMEGA.h **** 			 *  \ingroup Group_EndpointPrimitiveRW_XMEGA
 581:LUFA//Drivers/USB/Class/Device/../../Core/XMEGA/../XMEGA/Endpoint_XMEGA.h **** 			 *
 582:LUFA//Drivers/USB/Class/Device/../../Core/XMEGA/../XMEGA/Endpoint_XMEGA.h **** 			 *  \return Next two bytes in the currently selected endpoint's FIFO buffer.
 583:LUFA//Drivers/USB/Class/Device/../../Core/XMEGA/../XMEGA/Endpoint_XMEGA.h **** 			 */
 584:LUFA//Drivers/USB/Class/Device/../../Core/XMEGA/../XMEGA/Endpoint_XMEGA.h **** 			static inline uint16_t Endpoint_Read_16_BE(void) ATTR_WARN_UNUSED_RESULT ATTR_ALWAYS_INLINE;
 585:LUFA//Drivers/USB/Class/Device/../../Core/XMEGA/../XMEGA/Endpoint_XMEGA.h **** 			static inline uint16_t Endpoint_Read_16_BE(void)
 586:LUFA//Drivers/USB/Class/Device/../../Core/XMEGA/../XMEGA/Endpoint_XMEGA.h **** 			{
 587:LUFA//Drivers/USB/Class/Device/../../Core/XMEGA/../XMEGA/Endpoint_XMEGA.h **** 				uint16_t Byte0 = Endpoint_Read_8();
 588:LUFA//Drivers/USB/Class/Device/../../Core/XMEGA/../XMEGA/Endpoint_XMEGA.h **** 				uint16_t Byte1 = Endpoint_Read_8();
 589:LUFA//Drivers/USB/Class/Device/../../Core/XMEGA/../XMEGA/Endpoint_XMEGA.h **** 
 590:LUFA//Drivers/USB/Class/Device/../../Core/XMEGA/../XMEGA/Endpoint_XMEGA.h **** 				return ((Byte0 << 8) | Byte1);
 591:LUFA//Drivers/USB/Class/Device/../../Core/XMEGA/../XMEGA/Endpoint_XMEGA.h **** 			}
 592:LUFA//Drivers/USB/Class/Device/../../Core/XMEGA/../XMEGA/Endpoint_XMEGA.h **** 
 593:LUFA//Drivers/USB/Class/Device/../../Core/XMEGA/../XMEGA/Endpoint_XMEGA.h **** 			/** Writes two bytes to the currently selected endpoint's bank in little endian format, for IN
 594:LUFA//Drivers/USB/Class/Device/../../Core/XMEGA/../XMEGA/Endpoint_XMEGA.h **** 			 *  direction endpoints.
 595:LUFA//Drivers/USB/Class/Device/../../Core/XMEGA/../XMEGA/Endpoint_XMEGA.h **** 			 *
 596:LUFA//Drivers/USB/Class/Device/../../Core/XMEGA/../XMEGA/Endpoint_XMEGA.h **** 			 *  \ingroup Group_EndpointPrimitiveRW_XMEGA
 597:LUFA//Drivers/USB/Class/Device/../../Core/XMEGA/../XMEGA/Endpoint_XMEGA.h **** 			 *
 598:LUFA//Drivers/USB/Class/Device/../../Core/XMEGA/../XMEGA/Endpoint_XMEGA.h **** 			 *  \param[in] Data  Data to write to the currently selected endpoint's FIFO buffer.
 599:LUFA//Drivers/USB/Class/Device/../../Core/XMEGA/../XMEGA/Endpoint_XMEGA.h **** 			 */
 600:LUFA//Drivers/USB/Class/Device/../../Core/XMEGA/../XMEGA/Endpoint_XMEGA.h **** 			static inline void Endpoint_Write_16_LE(const uint16_t Data) ATTR_ALWAYS_INLINE;
 601:LUFA//Drivers/USB/Class/Device/../../Core/XMEGA/../XMEGA/Endpoint_XMEGA.h **** 			static inline void Endpoint_Write_16_LE(const uint16_t Data)
 602:LUFA//Drivers/USB/Class/Device/../../Core/XMEGA/../XMEGA/Endpoint_XMEGA.h **** 			{
 603:LUFA//Drivers/USB/Class/Device/../../Core/XMEGA/../XMEGA/Endpoint_XMEGA.h **** 				Endpoint_Write_8(Data & 0xFF);
 604:LUFA//Drivers/USB/Class/Device/../../Core/XMEGA/../XMEGA/Endpoint_XMEGA.h **** 				Endpoint_Write_8(Data >> 8);
 605:LUFA//Drivers/USB/Class/Device/../../Core/XMEGA/../XMEGA/Endpoint_XMEGA.h **** 			}
 606:LUFA//Drivers/USB/Class/Device/../../Core/XMEGA/../XMEGA/Endpoint_XMEGA.h **** 
 607:LUFA//Drivers/USB/Class/Device/../../Core/XMEGA/../XMEGA/Endpoint_XMEGA.h **** 			/** Writes two bytes to the currently selected endpoint's bank in big endian format, for IN
 608:LUFA//Drivers/USB/Class/Device/../../Core/XMEGA/../XMEGA/Endpoint_XMEGA.h **** 			 *  direction endpoints.
 609:LUFA//Drivers/USB/Class/Device/../../Core/XMEGA/../XMEGA/Endpoint_XMEGA.h **** 			 *
 610:LUFA//Drivers/USB/Class/Device/../../Core/XMEGA/../XMEGA/Endpoint_XMEGA.h **** 			 *  \ingroup Group_EndpointPrimitiveRW_XMEGA
 611:LUFA//Drivers/USB/Class/Device/../../Core/XMEGA/../XMEGA/Endpoint_XMEGA.h **** 			 *
 612:LUFA//Drivers/USB/Class/Device/../../Core/XMEGA/../XMEGA/Endpoint_XMEGA.h **** 			 *  \param[in] Data  Data to write to the currently selected endpoint's FIFO buffer.
 613:LUFA//Drivers/USB/Class/Device/../../Core/XMEGA/../XMEGA/Endpoint_XMEGA.h **** 			 */
 614:LUFA//Drivers/USB/Class/Device/../../Core/XMEGA/../XMEGA/Endpoint_XMEGA.h **** 			static inline void Endpoint_Write_16_BE(const uint16_t Data) ATTR_ALWAYS_INLINE;
 615:LUFA//Drivers/USB/Class/Device/../../Core/XMEGA/../XMEGA/Endpoint_XMEGA.h **** 			static inline void Endpoint_Write_16_BE(const uint16_t Data)
 616:LUFA//Drivers/USB/Class/Device/../../Core/XMEGA/../XMEGA/Endpoint_XMEGA.h **** 			{
 617:LUFA//Drivers/USB/Class/Device/../../Core/XMEGA/../XMEGA/Endpoint_XMEGA.h **** 				Endpoint_Write_8(Data >> 8);
 618:LUFA//Drivers/USB/Class/Device/../../Core/XMEGA/../XMEGA/Endpoint_XMEGA.h **** 				Endpoint_Write_8(Data & 0xFF);
 619:LUFA//Drivers/USB/Class/Device/../../Core/XMEGA/../XMEGA/Endpoint_XMEGA.h **** 			}
 620:LUFA//Drivers/USB/Class/Device/../../Core/XMEGA/../XMEGA/Endpoint_XMEGA.h **** 
 621:LUFA//Drivers/USB/Class/Device/../../Core/XMEGA/../XMEGA/Endpoint_XMEGA.h **** 			/** Discards two bytes from the currently selected endpoint's bank, for OUT direction endpoints.
 622:LUFA//Drivers/USB/Class/Device/../../Core/XMEGA/../XMEGA/Endpoint_XMEGA.h **** 			 *
 623:LUFA//Drivers/USB/Class/Device/../../Core/XMEGA/../XMEGA/Endpoint_XMEGA.h **** 			 *  \ingroup Group_EndpointPrimitiveRW_XMEGA
 624:LUFA//Drivers/USB/Class/Device/../../Core/XMEGA/../XMEGA/Endpoint_XMEGA.h **** 			 */
 625:LUFA//Drivers/USB/Class/Device/../../Core/XMEGA/../XMEGA/Endpoint_XMEGA.h **** 			static inline void Endpoint_Discard_16(void) ATTR_ALWAYS_INLINE;
 626:LUFA//Drivers/USB/Class/Device/../../Core/XMEGA/../XMEGA/Endpoint_XMEGA.h **** 			static inline void Endpoint_Discard_16(void)
 627:LUFA//Drivers/USB/Class/Device/../../Core/XMEGA/../XMEGA/Endpoint_XMEGA.h **** 			{
 628:LUFA//Drivers/USB/Class/Device/../../Core/XMEGA/../XMEGA/Endpoint_XMEGA.h **** 				Endpoint_Discard_8();
 629:LUFA//Drivers/USB/Class/Device/../../Core/XMEGA/../XMEGA/Endpoint_XMEGA.h **** 				Endpoint_Discard_8();
 630:LUFA//Drivers/USB/Class/Device/../../Core/XMEGA/../XMEGA/Endpoint_XMEGA.h **** 			}
 631:LUFA//Drivers/USB/Class/Device/../../Core/XMEGA/../XMEGA/Endpoint_XMEGA.h **** 
 632:LUFA//Drivers/USB/Class/Device/../../Core/XMEGA/../XMEGA/Endpoint_XMEGA.h **** 			/** Reads four bytes from the currently selected endpoint's bank in little endian format, for OU
 633:LUFA//Drivers/USB/Class/Device/../../Core/XMEGA/../XMEGA/Endpoint_XMEGA.h **** 			 *  direction endpoints.
 634:LUFA//Drivers/USB/Class/Device/../../Core/XMEGA/../XMEGA/Endpoint_XMEGA.h **** 			 *
 635:LUFA//Drivers/USB/Class/Device/../../Core/XMEGA/../XMEGA/Endpoint_XMEGA.h **** 			 *  \ingroup Group_EndpointPrimitiveRW_XMEGA
 636:LUFA//Drivers/USB/Class/Device/../../Core/XMEGA/../XMEGA/Endpoint_XMEGA.h **** 			 *
 637:LUFA//Drivers/USB/Class/Device/../../Core/XMEGA/../XMEGA/Endpoint_XMEGA.h **** 			 *  \return Next four bytes in the currently selected endpoint's FIFO buffer.
 638:LUFA//Drivers/USB/Class/Device/../../Core/XMEGA/../XMEGA/Endpoint_XMEGA.h **** 			 */
 639:LUFA//Drivers/USB/Class/Device/../../Core/XMEGA/../XMEGA/Endpoint_XMEGA.h **** 			static inline uint32_t Endpoint_Read_32_LE(void) ATTR_WARN_UNUSED_RESULT ATTR_ALWAYS_INLINE;
 640:LUFA//Drivers/USB/Class/Device/../../Core/XMEGA/../XMEGA/Endpoint_XMEGA.h **** 			static inline uint32_t Endpoint_Read_32_LE(void)
 641:LUFA//Drivers/USB/Class/Device/../../Core/XMEGA/../XMEGA/Endpoint_XMEGA.h **** 			{
 642:LUFA//Drivers/USB/Class/Device/../../Core/XMEGA/../XMEGA/Endpoint_XMEGA.h **** 				uint32_t Byte0 = Endpoint_Read_8();
 643:LUFA//Drivers/USB/Class/Device/../../Core/XMEGA/../XMEGA/Endpoint_XMEGA.h **** 				uint32_t Byte1 = Endpoint_Read_8();
 644:LUFA//Drivers/USB/Class/Device/../../Core/XMEGA/../XMEGA/Endpoint_XMEGA.h **** 				uint32_t Byte2 = Endpoint_Read_8();
 645:LUFA//Drivers/USB/Class/Device/../../Core/XMEGA/../XMEGA/Endpoint_XMEGA.h **** 				uint32_t Byte3 = Endpoint_Read_8();
 646:LUFA//Drivers/USB/Class/Device/../../Core/XMEGA/../XMEGA/Endpoint_XMEGA.h **** 
 647:LUFA//Drivers/USB/Class/Device/../../Core/XMEGA/../XMEGA/Endpoint_XMEGA.h **** 				return ((Byte3 << 24) | (Byte2 << 16) | (Byte1 << 8) | Byte0);
 648:LUFA//Drivers/USB/Class/Device/../../Core/XMEGA/../XMEGA/Endpoint_XMEGA.h **** 			}
 649:LUFA//Drivers/USB/Class/Device/../../Core/XMEGA/../XMEGA/Endpoint_XMEGA.h **** 
 650:LUFA//Drivers/USB/Class/Device/../../Core/XMEGA/../XMEGA/Endpoint_XMEGA.h **** 			/** Reads four bytes from the currently selected endpoint's bank in big endian format, for OUT
 651:LUFA//Drivers/USB/Class/Device/../../Core/XMEGA/../XMEGA/Endpoint_XMEGA.h **** 			 *  direction endpoints.
 652:LUFA//Drivers/USB/Class/Device/../../Core/XMEGA/../XMEGA/Endpoint_XMEGA.h **** 			 *
 653:LUFA//Drivers/USB/Class/Device/../../Core/XMEGA/../XMEGA/Endpoint_XMEGA.h **** 			 *  \ingroup Group_EndpointPrimitiveRW_XMEGA
 654:LUFA//Drivers/USB/Class/Device/../../Core/XMEGA/../XMEGA/Endpoint_XMEGA.h **** 			 *
 655:LUFA//Drivers/USB/Class/Device/../../Core/XMEGA/../XMEGA/Endpoint_XMEGA.h **** 			 *  \return Next four bytes in the currently selected endpoint's FIFO buffer.
 656:LUFA//Drivers/USB/Class/Device/../../Core/XMEGA/../XMEGA/Endpoint_XMEGA.h **** 			 */
 657:LUFA//Drivers/USB/Class/Device/../../Core/XMEGA/../XMEGA/Endpoint_XMEGA.h **** 			static inline uint32_t Endpoint_Read_32_BE(void) ATTR_WARN_UNUSED_RESULT ATTR_ALWAYS_INLINE;
 658:LUFA//Drivers/USB/Class/Device/../../Core/XMEGA/../XMEGA/Endpoint_XMEGA.h **** 			static inline uint32_t Endpoint_Read_32_BE(void)
 659:LUFA//Drivers/USB/Class/Device/../../Core/XMEGA/../XMEGA/Endpoint_XMEGA.h **** 			{
 660:LUFA//Drivers/USB/Class/Device/../../Core/XMEGA/../XMEGA/Endpoint_XMEGA.h **** 				uint32_t Byte0 = Endpoint_Read_8();
 661:LUFA//Drivers/USB/Class/Device/../../Core/XMEGA/../XMEGA/Endpoint_XMEGA.h **** 				uint32_t Byte1 = Endpoint_Read_8();
 662:LUFA//Drivers/USB/Class/Device/../../Core/XMEGA/../XMEGA/Endpoint_XMEGA.h **** 				uint32_t Byte2 = Endpoint_Read_8();
 663:LUFA//Drivers/USB/Class/Device/../../Core/XMEGA/../XMEGA/Endpoint_XMEGA.h **** 				uint32_t Byte3 = Endpoint_Read_8();
 664:LUFA//Drivers/USB/Class/Device/../../Core/XMEGA/../XMEGA/Endpoint_XMEGA.h **** 
 665:LUFA//Drivers/USB/Class/Device/../../Core/XMEGA/../XMEGA/Endpoint_XMEGA.h **** 				return ((Byte0 << 24) | (Byte1 << 16) | (Byte2 << 8) | Byte3);
 666:LUFA//Drivers/USB/Class/Device/../../Core/XMEGA/../XMEGA/Endpoint_XMEGA.h **** 			}
 667:LUFA//Drivers/USB/Class/Device/../../Core/XMEGA/../XMEGA/Endpoint_XMEGA.h **** 
 668:LUFA//Drivers/USB/Class/Device/../../Core/XMEGA/../XMEGA/Endpoint_XMEGA.h **** 			/** Writes four bytes to the currently selected endpoint's bank in little endian format, for IN
 669:LUFA//Drivers/USB/Class/Device/../../Core/XMEGA/../XMEGA/Endpoint_XMEGA.h **** 			 *  direction endpoints.
 670:LUFA//Drivers/USB/Class/Device/../../Core/XMEGA/../XMEGA/Endpoint_XMEGA.h **** 			 *
 671:LUFA//Drivers/USB/Class/Device/../../Core/XMEGA/../XMEGA/Endpoint_XMEGA.h **** 			 *  \ingroup Group_EndpointPrimitiveRW_XMEGA
 672:LUFA//Drivers/USB/Class/Device/../../Core/XMEGA/../XMEGA/Endpoint_XMEGA.h **** 			 *
 673:LUFA//Drivers/USB/Class/Device/../../Core/XMEGA/../XMEGA/Endpoint_XMEGA.h **** 			 *  \param[in] Data  Data to write to the currently selected endpoint's FIFO buffer.
 674:LUFA//Drivers/USB/Class/Device/../../Core/XMEGA/../XMEGA/Endpoint_XMEGA.h **** 			 */
 675:LUFA//Drivers/USB/Class/Device/../../Core/XMEGA/../XMEGA/Endpoint_XMEGA.h **** 			static inline void Endpoint_Write_32_LE(const uint32_t Data) ATTR_ALWAYS_INLINE;
 676:LUFA//Drivers/USB/Class/Device/../../Core/XMEGA/../XMEGA/Endpoint_XMEGA.h **** 			static inline void Endpoint_Write_32_LE(const uint32_t Data)
 677:LUFA//Drivers/USB/Class/Device/../../Core/XMEGA/../XMEGA/Endpoint_XMEGA.h **** 			{
 678:LUFA//Drivers/USB/Class/Device/../../Core/XMEGA/../XMEGA/Endpoint_XMEGA.h **** 				Endpoint_Write_8(Data & 0xFF);
 679:LUFA//Drivers/USB/Class/Device/../../Core/XMEGA/../XMEGA/Endpoint_XMEGA.h **** 				Endpoint_Write_8(Data >> 8);
 284               		.loc 1 679 0
 285 011a 052F      		mov r16,r21
 286 011c 162F      		mov r17,r22
 287 011e 272F      		mov r18,r23
 288 0120 3327      		clr r19
 289               	.LBB115:
 290               	.LBB116:
 548:LUFA//Drivers/USB/Class/Device/../../Core/XMEGA/../XMEGA/Endpoint_XMEGA.h **** 				USB_Endpoint_SelectedFIFO->Data[USB_Endpoint_SelectedFIFO->Position++] = Data;
 291               		.loc 1 548 0
 292 0122 8091 0000 		lds r24,USB_Endpoint_SelectedFIFO
 293 0126 9091 0000 		lds r25,USB_Endpoint_SelectedFIFO+1
 294 012a FC01      		movw r30,r24
 295 012c EF5B      		subi r30,lo8(-(65))
 296 012e FF4F      		sbci r31,hi8(-(65))
 297 0130 A081      		ld r26,Z
 298 0132 8A0F      		add r24,r26
 299 0134 911D      		adc r25,__zero_reg__
 300 0136 EC01      		movw r28,r24
 301 0138 0883      		st Y,r16
 302 013a AF5F      		subi r26,lo8(-(1))
 303 013c A083      		st Z,r26
 304               	.LBE116:
 305               	.LBE115:
 680:LUFA//Drivers/USB/Class/Device/../../Core/XMEGA/../XMEGA/Endpoint_XMEGA.h **** 				Endpoint_Write_8(Data >> 16);
 306               		.loc 1 680 0
 307 013e 8B01      		movw r16,r22
 308 0140 2227      		clr r18
 309 0142 3327      		clr r19
 310               	.LBB117:
 311               	.LBB118:
 548:LUFA//Drivers/USB/Class/Device/../../Core/XMEGA/../XMEGA/Endpoint_XMEGA.h **** 				USB_Endpoint_SelectedFIFO->Data[USB_Endpoint_SelectedFIFO->Position++] = Data;
 312               		.loc 1 548 0
 313 0144 8091 0000 		lds r24,USB_Endpoint_SelectedFIFO
 314 0148 9091 0000 		lds r25,USB_Endpoint_SelectedFIFO+1
 315 014c FC01      		movw r30,r24
 316 014e EF5B      		subi r30,lo8(-(65))
 317 0150 FF4F      		sbci r31,hi8(-(65))
 318 0152 A081      		ld r26,Z
 319 0154 8A0F      		add r24,r26
 320 0156 911D      		adc r25,__zero_reg__
 321 0158 EC01      		movw r28,r24
 322 015a 0883      		st Y,r16
 323 015c AF5F      		subi r26,lo8(-(1))
 324 015e A083      		st Z,r26
 325               	.LBE118:
 326               	.LBE117:
 681:LUFA//Drivers/USB/Class/Device/../../Core/XMEGA/../XMEGA/Endpoint_XMEGA.h **** 				Endpoint_Write_8(Data >> 24);
 327               		.loc 1 681 0
 328 0160 472F      		mov r20,r23
 329 0162 5527      		clr r21
 330 0164 6627      		clr r22
 331 0166 7727      		clr r23
 332               	.LBB119:
 333               	.LBB120:
 548:LUFA//Drivers/USB/Class/Device/../../Core/XMEGA/../XMEGA/Endpoint_XMEGA.h **** 				USB_Endpoint_SelectedFIFO->Data[USB_Endpoint_SelectedFIFO->Position++] = Data;
 334               		.loc 1 548 0
 335 0168 8091 0000 		lds r24,USB_Endpoint_SelectedFIFO
 336 016c 9091 0000 		lds r25,USB_Endpoint_SelectedFIFO+1
 337 0170 FC01      		movw r30,r24
 338 0172 EF5B      		subi r30,lo8(-(65))
 339 0174 FF4F      		sbci r31,hi8(-(65))
 340 0176 2081      		ld r18,Z
 341 0178 820F      		add r24,r18
 342 017a 911D      		adc r25,__zero_reg__
 343 017c DC01      		movw r26,r24
 344 017e 4C93      		st X,r20
 345 0180 2F5F      		subi r18,lo8(-(1))
 346 0182 2083      		st Z,r18
 347               	.LBE120:
 348               	.LBE119:
 349               	.LBE112:
 350               	.LBE111:
  58:LUFA//Drivers/USB/Class/Device/CDCClassDevice.c **** 				Endpoint_Write_8(CDCInterfaceInfo->State.LineEncoding.CharFormat);
 351               		.loc 2 58 0
 352 0184 E701      		movw r28,r14
 353 0186 388D      		ldd r19,Y+24
 354               	.LVL9:
 355               	.LBB121:
 356               	.LBB122:
 548:LUFA//Drivers/USB/Class/Device/../../Core/XMEGA/../XMEGA/Endpoint_XMEGA.h **** 				USB_Endpoint_SelectedFIFO->Data[USB_Endpoint_SelectedFIFO->Position++] = Data;
 357               		.loc 1 548 0
 358 0188 8091 0000 		lds r24,USB_Endpoint_SelectedFIFO
 359 018c 9091 0000 		lds r25,USB_Endpoint_SelectedFIFO+1
 360 0190 FC01      		movw r30,r24
 361 0192 EF5B      		subi r30,lo8(-(65))
 362 0194 FF4F      		sbci r31,hi8(-(65))
 363 0196 2081      		ld r18,Z
 364 0198 820F      		add r24,r18
 365 019a 911D      		adc r25,__zero_reg__
 366 019c DC01      		movw r26,r24
 367 019e 3C93      		st X,r19
 368 01a0 2F5F      		subi r18,lo8(-(1))
 369 01a2 2083      		st Z,r18
 370               	.LBE122:
 371               	.LBE121:
  59:LUFA//Drivers/USB/Class/Device/CDCClassDevice.c **** 				Endpoint_Write_8(CDCInterfaceInfo->State.LineEncoding.ParityType);
 372               		.loc 2 59 0
 373 01a4 398D      		ldd r19,Y+25
 374               	.LVL10:
 375               	.LBB123:
 376               	.LBB124:
 548:LUFA//Drivers/USB/Class/Device/../../Core/XMEGA/../XMEGA/Endpoint_XMEGA.h **** 				USB_Endpoint_SelectedFIFO->Data[USB_Endpoint_SelectedFIFO->Position++] = Data;
 377               		.loc 1 548 0
 378 01a6 8091 0000 		lds r24,USB_Endpoint_SelectedFIFO
 379 01aa 9091 0000 		lds r25,USB_Endpoint_SelectedFIFO+1
 380 01ae FC01      		movw r30,r24
 381 01b0 EF5B      		subi r30,lo8(-(65))
 382 01b2 FF4F      		sbci r31,hi8(-(65))
 383 01b4 2081      		ld r18,Z
 384 01b6 820F      		add r24,r18
 385 01b8 911D      		adc r25,__zero_reg__
 386 01ba EC01      		movw r28,r24
 387 01bc 3883      		st Y,r19
 388 01be 2F5F      		subi r18,lo8(-(1))
 389 01c0 2083      		st Z,r18
 390               	.LBE124:
 391               	.LBE123:
  60:LUFA//Drivers/USB/Class/Device/CDCClassDevice.c **** 				Endpoint_Write_8(CDCInterfaceInfo->State.LineEncoding.DataBits);
 392               		.loc 2 60 0
 393 01c2 F701      		movw r30,r14
 394 01c4 328D      		ldd r19,Z+26
 395               	.LVL11:
 396               	.LBB125:
 397               	.LBB126:
 548:LUFA//Drivers/USB/Class/Device/../../Core/XMEGA/../XMEGA/Endpoint_XMEGA.h **** 				USB_Endpoint_SelectedFIFO->Data[USB_Endpoint_SelectedFIFO->Position++] = Data;
 398               		.loc 1 548 0
 399 01c6 8091 0000 		lds r24,USB_Endpoint_SelectedFIFO
 400 01ca 9091 0000 		lds r25,USB_Endpoint_SelectedFIFO+1
 401 01ce FC01      		movw r30,r24
 402 01d0 EF5B      		subi r30,lo8(-(65))
 403 01d2 FF4F      		sbci r31,hi8(-(65))
 404 01d4 2081      		ld r18,Z
 405 01d6 820F      		add r24,r18
 406 01d8 911D      		adc r25,__zero_reg__
 407 01da DC01      		movw r26,r24
 408 01dc 3C93      		st X,r19
 409 01de 2F5F      		subi r18,lo8(-(1))
 410 01e0 2083      		st Z,r18
 411               	.LBE126:
 412               	.LBE125:
 413               	.LBB127:
 414               	.LBB128:
 448:LUFA//Drivers/USB/Class/Device/../../Core/XMEGA/../XMEGA/Endpoint_XMEGA.h **** 				USB_Endpoint_SelectedHandle->CNT     = USB_Endpoint_SelectedFIFO->Position;
 415               		.loc 1 448 0
 416 01e2 E091 0000 		lds r30,USB_Endpoint_SelectedHandle
 417 01e6 F091 0000 		lds r31,USB_Endpoint_SelectedHandle+1
 418 01ea A091 0000 		lds r26,USB_Endpoint_SelectedFIFO
 419 01ee B091 0000 		lds r27,USB_Endpoint_SelectedFIFO+1
 420 01f2 AF5B      		subi r26,lo8(-(65))
 421 01f4 BF4F      		sbci r27,hi8(-(65))
 422 01f6 8C91      		ld r24,X
 423 01f8 90E0      		ldi r25,lo8(0)
 424 01fa 8283      		std Z+2,r24
 425 01fc 9383      		std Z+3,r25
 449:LUFA//Drivers/USB/Class/Device/../../Core/XMEGA/../XMEGA/Endpoint_XMEGA.h **** 				USB_Endpoint_SelectedHandle->STATUS &= ~(USB_EP_TRNCOMPL0_bm | USB_EP_BUSNACK0_bm | USB_EP_OVF_
 426               		.loc 1 449 0
 427 01fe 8081      		ld r24,Z
 428 0200 8D79      		andi r24,lo8(-99)
 429 0202 8083      		st Z,r24
 450:LUFA//Drivers/USB/Class/Device/../../Core/XMEGA/../XMEGA/Endpoint_XMEGA.h **** 				USB_Endpoint_SelectedFIFO->Position  = 0;
 430               		.loc 1 450 0
 431 0204 E091 0000 		lds r30,USB_Endpoint_SelectedFIFO
 432 0208 F091 0000 		lds r31,USB_Endpoint_SelectedFIFO+1
 433 020c EF5B      		subi r30,lo8(-(65))
 434 020e FF4F      		sbci r31,hi8(-(65))
 435 0210 1082      		st Z,__zero_reg__
 436               	.LBE128:
 437               	.LBE127:
  61:LUFA//Drivers/USB/Class/Device/CDCClassDevice.c **** 
  62:LUFA//Drivers/USB/Class/Device/CDCClassDevice.c **** 				Endpoint_ClearIN();
  63:LUFA//Drivers/USB/Class/Device/CDCClassDevice.c **** 				Endpoint_ClearStatusStage();
 438               		.loc 2 63 0
 439 0212 0E94 0000 		call Endpoint_ClearStatusStage
 440               	.LVL12:
 441 0216 00C0      		rjmp .L5
 442               	.L16:
  64:LUFA//Drivers/USB/Class/Device/CDCClassDevice.c **** 			}
  65:LUFA//Drivers/USB/Class/Device/CDCClassDevice.c **** 
  66:LUFA//Drivers/USB/Class/Device/CDCClassDevice.c **** 			break;
  67:LUFA//Drivers/USB/Class/Device/CDCClassDevice.c **** 		case CDC_REQ_SetLineEncoding:
  68:LUFA//Drivers/USB/Class/Device/CDCClassDevice.c **** 			if (USB_ControlRequest.bmRequestType == (REQDIR_HOSTTODEVICE | REQTYPE_CLASS | REQREC_INTERFACE)
 443               		.loc 2 68 0
 444 0218 8091 0000 		lds r24,USB_ControlRequest
 445 021c 8132      		cpi r24,lo8(33)
 446 021e 01F0      		breq .+2
 447 0220 00C0      		rjmp .L5
 448               	.LBB129:
 449               	.LBB130:
 430:LUFA//Drivers/USB/Class/Device/../../Core/XMEGA/../XMEGA/Endpoint_XMEGA.h **** 				Endpoint_SelectEndpoint(USB_Endpoint_SelectedEndpoint & ~ENDPOINT_DIR_IN);
 450               		.loc 1 430 0
 451 0222 8091 0000 		lds r24,USB_Endpoint_SelectedEndpoint
 452 0226 8F77      		andi r24,lo8(127)
 453 0228 0E94 0000 		call Endpoint_SelectEndpoint
 431:LUFA//Drivers/USB/Class/Device/../../Core/XMEGA/../XMEGA/Endpoint_XMEGA.h **** 				USB_Endpoint_SelectedHandle->STATUS &= ~(USB_EP_SETUP_bm | USB_EP_TRNCOMPL0_bm | USB_EP_BUSNACK
 454               		.loc 1 431 0
 455 022c E091 0000 		lds r30,USB_Endpoint_SelectedHandle
 456 0230 F091 0000 		lds r31,USB_Endpoint_SelectedHandle+1
 457 0234 8081      		ld r24,Z
 458 0236 8D78      		andi r24,lo8(-115)
 459 0238 8083      		st Z,r24
 432:LUFA//Drivers/USB/Class/Device/../../Core/XMEGA/../XMEGA/Endpoint_XMEGA.h **** 				USB_Endpoint_SelectedHandle->STATUS |= USB_EP_TOGGLE_bm;
 460               		.loc 1 432 0
 461 023a E091 0000 		lds r30,USB_Endpoint_SelectedHandle
 462 023e F091 0000 		lds r31,USB_Endpoint_SelectedHandle+1
 463 0242 8081      		ld r24,Z
 464 0244 8160      		ori r24,lo8(1)
 465 0246 8083      		st Z,r24
 433:LUFA//Drivers/USB/Class/Device/../../Core/XMEGA/../XMEGA/Endpoint_XMEGA.h **** 				USB_Endpoint_SelectedFIFO->Position  = 0;
 466               		.loc 1 433 0
 467 0248 E091 0000 		lds r30,USB_Endpoint_SelectedFIFO
 468 024c F091 0000 		lds r31,USB_Endpoint_SelectedFIFO+1
 469 0250 EF5B      		subi r30,lo8(-(65))
 470 0252 FF4F      		sbci r31,hi8(-(65))
 471 0254 1082      		st Z,__zero_reg__
 435:LUFA//Drivers/USB/Class/Device/../../Core/XMEGA/../XMEGA/Endpoint_XMEGA.h **** 				Endpoint_SelectEndpoint(USB_Endpoint_SelectedEndpoint | ENDPOINT_DIR_IN);
 472               		.loc 1 435 0
 473 0256 8091 0000 		lds r24,USB_Endpoint_SelectedEndpoint
 474 025a 8068      		ori r24,lo8(-128)
 475 025c 0E94 0000 		call Endpoint_SelectEndpoint
 436:LUFA//Drivers/USB/Class/Device/../../Core/XMEGA/../XMEGA/Endpoint_XMEGA.h **** 				USB_Endpoint_SelectedHandle->STATUS |= USB_EP_TOGGLE_bm;
 476               		.loc 1 436 0
 477 0260 E091 0000 		lds r30,USB_Endpoint_SelectedHandle
 478 0264 F091 0000 		lds r31,USB_Endpoint_SelectedHandle+1
 479 0268 8081      		ld r24,Z
 480 026a 8160      		ori r24,lo8(1)
 481 026c 8083      		st Z,r24
 437:LUFA//Drivers/USB/Class/Device/../../Core/XMEGA/../XMEGA/Endpoint_XMEGA.h **** 				USB_Endpoint_SelectedFIFO->Position  = 0;
 482               		.loc 1 437 0
 483 026e E091 0000 		lds r30,USB_Endpoint_SelectedFIFO
 484 0272 F091 0000 		lds r31,USB_Endpoint_SelectedFIFO+1
 485 0276 EF5B      		subi r30,lo8(-(65))
 486 0278 FF4F      		sbci r31,hi8(-(65))
 487 027a 1082      		st Z,__zero_reg__
 488               	.L14:
 489               	.LBE130:
 490               	.LBE129:
 491               	.LBB131:
 492               	.LBB132:
 389:LUFA//Drivers/USB/Class/Device/../../Core/XMEGA/../XMEGA/Endpoint_XMEGA.h **** 				Endpoint_SelectEndpoint(USB_Endpoint_SelectedEndpoint & ~ENDPOINT_DIR_IN);
 493               		.loc 1 389 0 discriminator 1
 494 027c 8091 0000 		lds r24,USB_Endpoint_SelectedEndpoint
 495 0280 8F77      		andi r24,lo8(127)
 496 0282 0E94 0000 		call Endpoint_SelectEndpoint
 391:LUFA//Drivers/USB/Class/Device/../../Core/XMEGA/../XMEGA/Endpoint_XMEGA.h **** 				if (USB_Endpoint_SelectedHandle->STATUS & USB_EP_TRNCOMPL0_bm)
 497               		.loc 1 391 0 discriminator 1
 498 0286 C090 0000 		lds r12,USB_Endpoint_SelectedHandle
 499 028a D090 0000 		lds r13,USB_Endpoint_SelectedHandle+1
 500 028e E601      		movw r28,r12
 501 0290 8881      		ld r24,Y
 502 0292 85FF      		sbrs r24,5
 503 0294 00C0      		rjmp .L13
 393:LUFA//Drivers/USB/Class/Device/../../Core/XMEGA/../XMEGA/Endpoint_XMEGA.h **** 					USB_Endpoint_SelectedFIFO->Length = USB_Endpoint_SelectedHandle->CNT;
 504               		.loc 1 393 0
 505 0296 2091 0000 		lds r18,USB_Endpoint_SelectedFIFO
 506 029a 3091 0000 		lds r19,USB_Endpoint_SelectedFIFO+1
 507 029e 8A81      		ldd r24,Y+2
 508 02a0 9B81      		ldd r25,Y+3
 509 02a2 F901      		movw r30,r18
 510 02a4 E05C      		subi r30,lo8(-(64))
 511 02a6 FF4F      		sbci r31,hi8(-(64))
 512 02a8 8083      		st Z,r24
 513               	.LBE132:
 514               	.LBE131:
 515               	.LBB133:
 516               	.LBB134:
 517               	.LBB135:
 518               	.LBB136:
 536:LUFA//Drivers/USB/Class/Device/../../Core/XMEGA/../XMEGA/Endpoint_XMEGA.h **** 				return USB_Endpoint_SelectedFIFO->Data[USB_Endpoint_SelectedFIFO->Position++];
 519               		.loc 1 536 0
 520 02aa E901      		movw r28,r18
 521 02ac CF5B      		subi r28,lo8(-(65))
 522 02ae DF4F      		sbci r29,hi8(-(65))
 523 02b0 8881      		ld r24,Y
 524 02b2 F901      		movw r30,r18
 525 02b4 E80F      		add r30,r24
 526 02b6 F11D      		adc r31,__zero_reg__
 527 02b8 0081      		ld r16,Z
 528 02ba 8F5F      		subi r24,lo8(-(1))
 529 02bc 8883      		st Y,r24
 530               	.LVL13:
 531               	.LBE136:
 532               	.LBE135:
 533               	.LBB137:
 534               	.LBB138:
 535 02be 8881      		ld r24,Y
 536 02c0 F901      		movw r30,r18
 537 02c2 E80F      		add r30,r24
 538 02c4 F11D      		adc r31,__zero_reg__
 539 02c6 1081      		ld r17,Z
 540 02c8 8F5F      		subi r24,lo8(-(1))
 541 02ca 8883      		st Y,r24
 542               	.LVL14:
 543               	.LBE138:
 544               	.LBE137:
 545               	.LBB139:
 546               	.LBB140:
 547 02cc 9881      		ld r25,Y
 548 02ce F901      		movw r30,r18
 549 02d0 E90F      		add r30,r25
 550 02d2 F11D      		adc r31,__zero_reg__
 551 02d4 8081      		ld r24,Z
 552 02d6 9F5F      		subi r25,lo8(-(1))
 553 02d8 9883      		st Y,r25
 554               	.LVL15:
 555               	.LBE140:
 556               	.LBE139:
 557               	.LBB141:
 558               	.LBB142:
 559 02da 9881      		ld r25,Y
 560 02dc F901      		movw r30,r18
 561 02de E90F      		add r30,r25
 562 02e0 F11D      		adc r31,__zero_reg__
 563 02e2 4081      		ld r20,Z
 564 02e4 9F5F      		subi r25,lo8(-(1))
 565 02e6 9883      		st Y,r25
 566               	.LVL16:
 567               	.LBE142:
 568               	.LBE141:
 645:LUFA//Drivers/USB/Class/Device/../../Core/XMEGA/../XMEGA/Endpoint_XMEGA.h **** 				uint32_t Byte3 = Endpoint_Read_8();
 569               		.loc 1 645 0
 570 02e8 50E0      		ldi r21,lo8(0)
 571 02ea 60E0      		ldi r22,lo8(0)
 572 02ec 70E0      		ldi r23,hi8(0)
 647:LUFA//Drivers/USB/Class/Device/../../Core/XMEGA/../XMEGA/Endpoint_XMEGA.h **** 				return ((Byte3 << 24) | (Byte2 << 16) | (Byte1 << 8) | Byte0);
 573               		.loc 1 647 0
 574 02ee 742F      		mov r23,r20
 575 02f0 6627      		clr r22
 576 02f2 5527      		clr r21
 577 02f4 4427      		clr r20
 578               	.LVL17:
 644:LUFA//Drivers/USB/Class/Device/../../Core/XMEGA/../XMEGA/Endpoint_XMEGA.h **** 				uint32_t Byte2 = Endpoint_Read_8();
 579               		.loc 1 644 0
 580 02f6 90E0      		ldi r25,lo8(0)
 581 02f8 A0E0      		ldi r26,lo8(0)
 582 02fa B0E0      		ldi r27,hi8(0)
 647:LUFA//Drivers/USB/Class/Device/../../Core/XMEGA/../XMEGA/Endpoint_XMEGA.h **** 				return ((Byte3 << 24) | (Byte2 << 16) | (Byte1 << 8) | Byte0);
 583               		.loc 1 647 0
 584 02fc DC01      		movw r26,r24
 585 02fe 9927      		clr r25
 586 0300 8827      		clr r24
 587               	.LVL18:
 588 0302 482B      		or r20,r24
 589 0304 592B      		or r21,r25
 590 0306 6A2B      		or r22,r26
 591 0308 7B2B      		or r23,r27
 642:LUFA//Drivers/USB/Class/Device/../../Core/XMEGA/../XMEGA/Endpoint_XMEGA.h **** 				uint32_t Byte0 = Endpoint_Read_8();
 592               		.loc 1 642 0
 593 030a 802F      		mov r24,r16
 594 030c 90E0      		ldi r25,lo8(0)
 595 030e A0E0      		ldi r26,lo8(0)
 596 0310 B0E0      		ldi r27,hi8(0)
 647:LUFA//Drivers/USB/Class/Device/../../Core/XMEGA/../XMEGA/Endpoint_XMEGA.h **** 				return ((Byte3 << 24) | (Byte2 << 16) | (Byte1 << 8) | Byte0);
 597               		.loc 1 647 0
 598 0312 482B      		or r20,r24
 599 0314 592B      		or r21,r25
 600 0316 6A2B      		or r22,r26
 601 0318 7B2B      		or r23,r27
 643:LUFA//Drivers/USB/Class/Device/../../Core/XMEGA/../XMEGA/Endpoint_XMEGA.h **** 				uint32_t Byte1 = Endpoint_Read_8();
 602               		.loc 1 643 0
 603 031a 812F      		mov r24,r17
 604 031c 90E0      		ldi r25,lo8(0)
 605 031e A0E0      		ldi r26,lo8(0)
 606 0320 B0E0      		ldi r27,hi8(0)
 647:LUFA//Drivers/USB/Class/Device/../../Core/XMEGA/../XMEGA/Endpoint_XMEGA.h **** 				return ((Byte3 << 24) | (Byte2 << 16) | (Byte1 << 8) | Byte0);
 607               		.loc 1 647 0
 608 0322 BA2F      		mov r27,r26
 609 0324 A92F      		mov r26,r25
 610 0326 982F      		mov r25,r24
 611 0328 8827      		clr r24
 612               	.LVL19:
 613 032a 482B      		or r20,r24
 614 032c 592B      		or r21,r25
 615 032e 6A2B      		or r22,r26
 616 0330 7B2B      		or r23,r27
 617               	.LBE134:
 618               	.LBE133:
  69:LUFA//Drivers/USB/Class/Device/CDCClassDevice.c **** 			{
  70:LUFA//Drivers/USB/Class/Device/CDCClassDevice.c **** 				Endpoint_ClearSETUP();
  71:LUFA//Drivers/USB/Class/Device/CDCClassDevice.c **** 
  72:LUFA//Drivers/USB/Class/Device/CDCClassDevice.c **** 				while (!(Endpoint_IsOUTReceived()))
  73:LUFA//Drivers/USB/Class/Device/CDCClassDevice.c **** 				{
  74:LUFA//Drivers/USB/Class/Device/CDCClassDevice.c **** 					if (USB_DeviceState == DEVICE_STATE_Unattached)
  75:LUFA//Drivers/USB/Class/Device/CDCClassDevice.c **** 					  return;
  76:LUFA//Drivers/USB/Class/Device/CDCClassDevice.c **** 				}
  77:LUFA//Drivers/USB/Class/Device/CDCClassDevice.c **** 				
  78:LUFA//Drivers/USB/Class/Device/CDCClassDevice.c **** 				CDCInterfaceInfo->State.LineEncoding.BaudRateBPS = Endpoint_Read_32_LE();
 619               		.loc 2 78 0
 620 0332 F701      		movw r30,r14
 621 0334 448B      		std Z+20,r20
 622 0336 558B      		std Z+21,r21
 623 0338 668B      		std Z+22,r22
 624 033a 778B      		std Z+23,r23
 625               	.LBB143:
 626               	.LBB144:
 536:LUFA//Drivers/USB/Class/Device/../../Core/XMEGA/../XMEGA/Endpoint_XMEGA.h **** 				return USB_Endpoint_SelectedFIFO->Data[USB_Endpoint_SelectedFIFO->Position++];
 627               		.loc 1 536 0
 628 033c 8881      		ld r24,Y
 629 033e F901      		movw r30,r18
 630 0340 E80F      		add r30,r24
 631 0342 F11D      		adc r31,__zero_reg__
 632 0344 9081      		ld r25,Z
 633 0346 8F5F      		subi r24,lo8(-(1))
 634 0348 8883      		st Y,r24
 635               	.LBE144:
 636               	.LBE143:
  79:LUFA//Drivers/USB/Class/Device/CDCClassDevice.c **** 				CDCInterfaceInfo->State.LineEncoding.CharFormat  = Endpoint_Read_8();
 637               		.loc 2 79 0
 638 034a D701      		movw r26,r14
 639 034c 5896      		adiw r26,24
 640 034e 9C93      		st X,r25
 641 0350 5897      		sbiw r26,24
 642               	.LBB145:
 643               	.LBB146:
 536:LUFA//Drivers/USB/Class/Device/../../Core/XMEGA/../XMEGA/Endpoint_XMEGA.h **** 				return USB_Endpoint_SelectedFIFO->Data[USB_Endpoint_SelectedFIFO->Position++];
 644               		.loc 1 536 0
 645 0352 8881      		ld r24,Y
 646 0354 F901      		movw r30,r18
 647 0356 E80F      		add r30,r24
 648 0358 F11D      		adc r31,__zero_reg__
 649 035a 9081      		ld r25,Z
 650 035c 8F5F      		subi r24,lo8(-(1))
 651 035e 8883      		st Y,r24
 652               	.LBE146:
 653               	.LBE145:
  80:LUFA//Drivers/USB/Class/Device/CDCClassDevice.c **** 				CDCInterfaceInfo->State.LineEncoding.ParityType  = Endpoint_Read_8();
 654               		.loc 2 80 0
 655 0360 5996      		adiw r26,25
 656 0362 9C93      		st X,r25
 657 0364 5997      		sbiw r26,25
 658               	.LBB147:
 659               	.LBB148:
 536:LUFA//Drivers/USB/Class/Device/../../Core/XMEGA/../XMEGA/Endpoint_XMEGA.h **** 				return USB_Endpoint_SelectedFIFO->Data[USB_Endpoint_SelectedFIFO->Position++];
 660               		.loc 1 536 0
 661 0366 8881      		ld r24,Y
 662 0368 280F      		add r18,r24
 663 036a 311D      		adc r19,__zero_reg__
 664 036c F901      		movw r30,r18
 665 036e 9081      		ld r25,Z
 666 0370 8F5F      		subi r24,lo8(-(1))
 667 0372 8883      		st Y,r24
 668               	.LBE148:
 669               	.LBE147:
  81:LUFA//Drivers/USB/Class/Device/CDCClassDevice.c **** 				CDCInterfaceInfo->State.LineEncoding.DataBits    = Endpoint_Read_8();
 670               		.loc 2 81 0
 671 0374 5A96      		adiw r26,26
 672 0376 9C93      		st X,r25
 673               	.LBB149:
 674               	.LBB150:
 461:LUFA//Drivers/USB/Class/Device/../../Core/XMEGA/../XMEGA/Endpoint_XMEGA.h **** 				USB_Endpoint_SelectedHandle->STATUS &= ~(USB_EP_TRNCOMPL0_bm | USB_EP_BUSNACK0_bm | USB_EP_OVF_
 675               		.loc 1 461 0
 676 0378 D601      		movw r26,r12
 677 037a 8C91      		ld r24,X
 678 037c 8D79      		andi r24,lo8(-99)
 679 037e 8C93      		st X,r24
 462:LUFA//Drivers/USB/Class/Device/../../Core/XMEGA/../XMEGA/Endpoint_XMEGA.h **** 				USB_Endpoint_SelectedFIFO->Position  = 0;
 680               		.loc 1 462 0
 681 0380 E091 0000 		lds r30,USB_Endpoint_SelectedFIFO
 682 0384 F091 0000 		lds r31,USB_Endpoint_SelectedFIFO+1
 683 0388 EF5B      		subi r30,lo8(-(65))
 684 038a FF4F      		sbci r31,hi8(-(65))
 685 038c 1082      		st Z,__zero_reg__
 686               	.LBE150:
 687               	.LBE149:
  82:LUFA//Drivers/USB/Class/Device/CDCClassDevice.c **** 
  83:LUFA//Drivers/USB/Class/Device/CDCClassDevice.c **** 				Endpoint_ClearOUT();
  84:LUFA//Drivers/USB/Class/Device/CDCClassDevice.c **** 				Endpoint_ClearStatusStage();
 688               		.loc 2 84 0
 689 038e 0E94 0000 		call Endpoint_ClearStatusStage
  85:LUFA//Drivers/USB/Class/Device/CDCClassDevice.c **** 
  86:LUFA//Drivers/USB/Class/Device/CDCClassDevice.c **** 				EVENT_CDC_Device_LineEncodingChanged(CDCInterfaceInfo);
 690               		.loc 2 86 0
 691 0392 C701      		movw r24,r14
 692 0394 0E94 0000 		call EVENT_CDC_Device_LineEncodingChanged
 693 0398 00C0      		rjmp .L5
 694               	.LVL20:
 695               	.L13:
  74:LUFA//Drivers/USB/Class/Device/CDCClassDevice.c **** 					if (USB_DeviceState == DEVICE_STATE_Unattached)
 696               		.loc 2 74 0
 697 039a 8091 0000 		lds r24,USB_DeviceState
 698 039e 8823      		tst r24
 699 03a0 01F0      		breq .+2
 700 03a2 00C0      		rjmp .L14
 701 03a4 00C0      		rjmp .L5
 702               	.L9:
  87:LUFA//Drivers/USB/Class/Device/CDCClassDevice.c **** 			}
  88:LUFA//Drivers/USB/Class/Device/CDCClassDevice.c **** 
  89:LUFA//Drivers/USB/Class/Device/CDCClassDevice.c **** 			break;
  90:LUFA//Drivers/USB/Class/Device/CDCClassDevice.c **** 		case CDC_REQ_SetControlLineState:
  91:LUFA//Drivers/USB/Class/Device/CDCClassDevice.c **** 			if (USB_ControlRequest.bmRequestType == (REQDIR_HOSTTODEVICE | REQTYPE_CLASS | REQREC_INTERFACE)
 703               		.loc 2 91 0
 704 03a6 8091 0000 		lds r24,USB_ControlRequest
 705 03aa 8132      		cpi r24,lo8(33)
 706 03ac 01F0      		breq .+2
 707 03ae 00C0      		rjmp .L5
 708               	.LBB151:
 709               	.LBB152:
 430:LUFA//Drivers/USB/Class/Device/../../Core/XMEGA/../XMEGA/Endpoint_XMEGA.h **** 				Endpoint_SelectEndpoint(USB_Endpoint_SelectedEndpoint & ~ENDPOINT_DIR_IN);
 710               		.loc 1 430 0
 711 03b0 8091 0000 		lds r24,USB_Endpoint_SelectedEndpoint
 712 03b4 8F77      		andi r24,lo8(127)
 713 03b6 0E94 0000 		call Endpoint_SelectEndpoint
 431:LUFA//Drivers/USB/Class/Device/../../Core/XMEGA/../XMEGA/Endpoint_XMEGA.h **** 				USB_Endpoint_SelectedHandle->STATUS &= ~(USB_EP_SETUP_bm | USB_EP_TRNCOMPL0_bm | USB_EP_BUSNACK
 714               		.loc 1 431 0
 715 03ba E091 0000 		lds r30,USB_Endpoint_SelectedHandle
 716 03be F091 0000 		lds r31,USB_Endpoint_SelectedHandle+1
 717 03c2 8081      		ld r24,Z
 718 03c4 8D78      		andi r24,lo8(-115)
 719 03c6 8083      		st Z,r24
 432:LUFA//Drivers/USB/Class/Device/../../Core/XMEGA/../XMEGA/Endpoint_XMEGA.h **** 				USB_Endpoint_SelectedHandle->STATUS |= USB_EP_TOGGLE_bm;
 720               		.loc 1 432 0
 721 03c8 E091 0000 		lds r30,USB_Endpoint_SelectedHandle
 722 03cc F091 0000 		lds r31,USB_Endpoint_SelectedHandle+1
 723 03d0 8081      		ld r24,Z
 724 03d2 8160      		ori r24,lo8(1)
 725 03d4 8083      		st Z,r24
 433:LUFA//Drivers/USB/Class/Device/../../Core/XMEGA/../XMEGA/Endpoint_XMEGA.h **** 				USB_Endpoint_SelectedFIFO->Position  = 0;
 726               		.loc 1 433 0
 727 03d6 E091 0000 		lds r30,USB_Endpoint_SelectedFIFO
 728 03da F091 0000 		lds r31,USB_Endpoint_SelectedFIFO+1
 729 03de EF5B      		subi r30,lo8(-(65))
 730 03e0 FF4F      		sbci r31,hi8(-(65))
 731 03e2 1082      		st Z,__zero_reg__
 435:LUFA//Drivers/USB/Class/Device/../../Core/XMEGA/../XMEGA/Endpoint_XMEGA.h **** 				Endpoint_SelectEndpoint(USB_Endpoint_SelectedEndpoint | ENDPOINT_DIR_IN);
 732               		.loc 1 435 0
 733 03e4 8091 0000 		lds r24,USB_Endpoint_SelectedEndpoint
 734 03e8 8068      		ori r24,lo8(-128)
 735 03ea 0E94 0000 		call Endpoint_SelectEndpoint
 436:LUFA//Drivers/USB/Class/Device/../../Core/XMEGA/../XMEGA/Endpoint_XMEGA.h **** 				USB_Endpoint_SelectedHandle->STATUS |= USB_EP_TOGGLE_bm;
 736               		.loc 1 436 0
 737 03ee E091 0000 		lds r30,USB_Endpoint_SelectedHandle
 738 03f2 F091 0000 		lds r31,USB_Endpoint_SelectedHandle+1
 739 03f6 8081      		ld r24,Z
 740 03f8 8160      		ori r24,lo8(1)
 741 03fa 8083      		st Z,r24
 437:LUFA//Drivers/USB/Class/Device/../../Core/XMEGA/../XMEGA/Endpoint_XMEGA.h **** 				USB_Endpoint_SelectedFIFO->Position  = 0;
 742               		.loc 1 437 0
 743 03fc E091 0000 		lds r30,USB_Endpoint_SelectedFIFO
 744 0400 F091 0000 		lds r31,USB_Endpoint_SelectedFIFO+1
 745 0404 EF5B      		subi r30,lo8(-(65))
 746 0406 FF4F      		sbci r31,hi8(-(65))
 747 0408 1082      		st Z,__zero_reg__
 748               	.LBE152:
 749               	.LBE151:
  92:LUFA//Drivers/USB/Class/Device/CDCClassDevice.c **** 			{
  93:LUFA//Drivers/USB/Class/Device/CDCClassDevice.c **** 				Endpoint_ClearSETUP();
  94:LUFA//Drivers/USB/Class/Device/CDCClassDevice.c **** 				Endpoint_ClearStatusStage();
 750               		.loc 2 94 0
 751 040a 0E94 0000 		call Endpoint_ClearStatusStage
  95:LUFA//Drivers/USB/Class/Device/CDCClassDevice.c **** 
  96:LUFA//Drivers/USB/Class/Device/CDCClassDevice.c **** 				CDCInterfaceInfo->State.ControlLineStates.HostToDevice = USB_ControlRequest.wValue;
 752               		.loc 2 96 0
 753 040e 8091 0000 		lds r24,USB_ControlRequest+2
 754 0412 9091 0000 		lds r25,USB_ControlRequest+2+1
 755 0416 E701      		movw r28,r14
 756 0418 888B      		std Y+16,r24
 757 041a 998B      		std Y+17,r25
  97:LUFA//Drivers/USB/Class/Device/CDCClassDevice.c **** 
  98:LUFA//Drivers/USB/Class/Device/CDCClassDevice.c **** 				EVENT_CDC_Device_ControLineStateChanged(CDCInterfaceInfo);
 758               		.loc 2 98 0
 759 041c C701      		movw r24,r14
 760 041e 0E94 0000 		call EVENT_CDC_Device_ControLineStateChanged
 761 0422 00C0      		rjmp .L5
 762               	.L17:
  99:LUFA//Drivers/USB/Class/Device/CDCClassDevice.c **** 			}
 100:LUFA//Drivers/USB/Class/Device/CDCClassDevice.c **** 
 101:LUFA//Drivers/USB/Class/Device/CDCClassDevice.c **** 			break;
 102:LUFA//Drivers/USB/Class/Device/CDCClassDevice.c **** 		case CDC_REQ_SendBreak:
 103:LUFA//Drivers/USB/Class/Device/CDCClassDevice.c **** 			if (USB_ControlRequest.bmRequestType == (REQDIR_HOSTTODEVICE | REQTYPE_CLASS | REQREC_INTERFACE)
 763               		.loc 2 103 0
 764 0424 8091 0000 		lds r24,USB_ControlRequest
 765 0428 8132      		cpi r24,lo8(33)
 766 042a 01F4      		brne .L5
 767               	.LBB153:
 768               	.LBB154:
 430:LUFA//Drivers/USB/Class/Device/../../Core/XMEGA/../XMEGA/Endpoint_XMEGA.h **** 				Endpoint_SelectEndpoint(USB_Endpoint_SelectedEndpoint & ~ENDPOINT_DIR_IN);
 769               		.loc 1 430 0
 770 042c 8091 0000 		lds r24,USB_Endpoint_SelectedEndpoint
 771 0430 8F77      		andi r24,lo8(127)
 772 0432 0E94 0000 		call Endpoint_SelectEndpoint
 431:LUFA//Drivers/USB/Class/Device/../../Core/XMEGA/../XMEGA/Endpoint_XMEGA.h **** 				USB_Endpoint_SelectedHandle->STATUS &= ~(USB_EP_SETUP_bm | USB_EP_TRNCOMPL0_bm | USB_EP_BUSNACK
 773               		.loc 1 431 0
 774 0436 E091 0000 		lds r30,USB_Endpoint_SelectedHandle
 775 043a F091 0000 		lds r31,USB_Endpoint_SelectedHandle+1
 776 043e 8081      		ld r24,Z
 777 0440 8D78      		andi r24,lo8(-115)
 778 0442 8083      		st Z,r24
 432:LUFA//Drivers/USB/Class/Device/../../Core/XMEGA/../XMEGA/Endpoint_XMEGA.h **** 				USB_Endpoint_SelectedHandle->STATUS |= USB_EP_TOGGLE_bm;
 779               		.loc 1 432 0
 780 0444 E091 0000 		lds r30,USB_Endpoint_SelectedHandle
 781 0448 F091 0000 		lds r31,USB_Endpoint_SelectedHandle+1
 782 044c 8081      		ld r24,Z
 783 044e 8160      		ori r24,lo8(1)
 784 0450 8083      		st Z,r24
 433:LUFA//Drivers/USB/Class/Device/../../Core/XMEGA/../XMEGA/Endpoint_XMEGA.h **** 				USB_Endpoint_SelectedFIFO->Position  = 0;
 785               		.loc 1 433 0
 786 0452 E091 0000 		lds r30,USB_Endpoint_SelectedFIFO
 787 0456 F091 0000 		lds r31,USB_Endpoint_SelectedFIFO+1
 788 045a EF5B      		subi r30,lo8(-(65))
 789 045c FF4F      		sbci r31,hi8(-(65))
 790 045e 1082      		st Z,__zero_reg__
 435:LUFA//Drivers/USB/Class/Device/../../Core/XMEGA/../XMEGA/Endpoint_XMEGA.h **** 				Endpoint_SelectEndpoint(USB_Endpoint_SelectedEndpoint | ENDPOINT_DIR_IN);
 791               		.loc 1 435 0
 792 0460 8091 0000 		lds r24,USB_Endpoint_SelectedEndpoint
 793 0464 8068      		ori r24,lo8(-128)
 794 0466 0E94 0000 		call Endpoint_SelectEndpoint
 436:LUFA//Drivers/USB/Class/Device/../../Core/XMEGA/../XMEGA/Endpoint_XMEGA.h **** 				USB_Endpoint_SelectedHandle->STATUS |= USB_EP_TOGGLE_bm;
 795               		.loc 1 436 0
 796 046a E091 0000 		lds r30,USB_Endpoint_SelectedHandle
 797 046e F091 0000 		lds r31,USB_Endpoint_SelectedHandle+1
 798 0472 8081      		ld r24,Z
 799 0474 8160      		ori r24,lo8(1)
 800 0476 8083      		st Z,r24
 437:LUFA//Drivers/USB/Class/Device/../../Core/XMEGA/../XMEGA/Endpoint_XMEGA.h **** 				USB_Endpoint_SelectedFIFO->Position  = 0;
 801               		.loc 1 437 0
 802 0478 E091 0000 		lds r30,USB_Endpoint_SelectedFIFO
 803 047c F091 0000 		lds r31,USB_Endpoint_SelectedFIFO+1
 804 0480 EF5B      		subi r30,lo8(-(65))
 805 0482 FF4F      		sbci r31,hi8(-(65))
 806 0484 1082      		st Z,__zero_reg__
 807               	.LBE154:
 808               	.LBE153:
 104:LUFA//Drivers/USB/Class/Device/CDCClassDevice.c **** 			{
 105:LUFA//Drivers/USB/Class/Device/CDCClassDevice.c **** 				Endpoint_ClearSETUP();
 106:LUFA//Drivers/USB/Class/Device/CDCClassDevice.c **** 				Endpoint_ClearStatusStage();
 809               		.loc 2 106 0
 810 0486 0E94 0000 		call Endpoint_ClearStatusStage
 107:LUFA//Drivers/USB/Class/Device/CDCClassDevice.c **** 
 108:LUFA//Drivers/USB/Class/Device/CDCClassDevice.c **** 				EVENT_CDC_Device_BreakSent(CDCInterfaceInfo, (uint8_t)USB_ControlRequest.wValue);
 811               		.loc 2 108 0
 812 048a C701      		movw r24,r14
 813 048c 6091 0000 		lds r22,USB_ControlRequest+2
 814 0490 0E94 0000 		call EVENT_CDC_Device_BreakSent
 815               	.L5:
 816               	/* epilogue start */
 109:LUFA//Drivers/USB/Class/Device/CDCClassDevice.c **** 			}
 110:LUFA//Drivers/USB/Class/Device/CDCClassDevice.c **** 
 111:LUFA//Drivers/USB/Class/Device/CDCClassDevice.c **** 			break;
 112:LUFA//Drivers/USB/Class/Device/CDCClassDevice.c **** 	}
 113:LUFA//Drivers/USB/Class/Device/CDCClassDevice.c **** }
 817               		.loc 2 113 0
 818 0494 DF91      		pop r29
 819 0496 CF91      		pop r28
 820 0498 1F91      		pop r17
 821 049a 0F91      		pop r16
 822 049c FF90      		pop r15
 823 049e EF90      		pop r14
 824               	.LVL21:
 825 04a0 DF90      		pop r13
 826 04a2 CF90      		pop r12
 827 04a4 0895      		ret
 828               		.cfi_endproc
 829               	.LFE83:
 831               		.section	.text.CDC_Device_ConfigureEndpoints,"ax",@progbits
 832               	.global	CDC_Device_ConfigureEndpoints
 834               	CDC_Device_ConfigureEndpoints:
 835               	.LFB84:
 114:LUFA//Drivers/USB/Class/Device/CDCClassDevice.c **** 
 115:LUFA//Drivers/USB/Class/Device/CDCClassDevice.c **** bool CDC_Device_ConfigureEndpoints(USB_ClassInfo_CDC_Device_t* const CDCInterfaceInfo)
 116:LUFA//Drivers/USB/Class/Device/CDCClassDevice.c **** {
 836               		.loc 2 116 0
 837               		.cfi_startproc
 838               	.LVL22:
 839 0000 CF93      		push r28
 840               	.LCFI8:
 841               		.cfi_def_cfa_offset 3
 842               		.cfi_offset 28, -2
 843 0002 DF93      		push r29
 844               	.LCFI9:
 845               		.cfi_def_cfa_offset 4
 846               		.cfi_offset 29, -3
 847               	/* prologue: function */
 848               	/* frame size = 0 */
 849               	/* stack size = 2 */
 850               	.L__stack_usage = 2
 851 0004 EC01      		movw r28,r24
 117:LUFA//Drivers/USB/Class/Device/CDCClassDevice.c **** 	memset(&CDCInterfaceInfo->State, 0x00, sizeof(CDCInterfaceInfo->State));
 852               		.loc 2 117 0
 853 0006 4096      		adiw r24,16
 854               	.LVL23:
 855 0008 FC01      		movw r30,r24
 856 000a 8BE0      		ldi r24,lo8(11)
 857 000c DF01      		movw r26,r30
 858 000e 1D92      		st X+,__zero_reg__
 859 0010 8A95      	        dec r24
 860 0012 01F4      		brne .-6
 118:LUFA//Drivers/USB/Class/Device/CDCClassDevice.c **** 
 119:LUFA//Drivers/USB/Class/Device/CDCClassDevice.c **** 	CDCInterfaceInfo->Config.DataINEndpoint.Type       = EP_TYPE_BULK;
 861               		.loc 2 119 0
 862 0014 82E0      		ldi r24,lo8(2)
 863 0016 8C83      		std Y+4,r24
 120:LUFA//Drivers/USB/Class/Device/CDCClassDevice.c **** 	CDCInterfaceInfo->Config.DataOUTEndpoint.Type      = EP_TYPE_BULK;
 864               		.loc 2 120 0
 865 0018 8987      		std Y+9,r24
 121:LUFA//Drivers/USB/Class/Device/CDCClassDevice.c **** 	CDCInterfaceInfo->Config.NotificationEndpoint.Type = EP_TYPE_INTERRUPT;
 866               		.loc 2 121 0
 867 001a 83E0      		ldi r24,lo8(3)
 868 001c 8E87      		std Y+14,r24
 122:LUFA//Drivers/USB/Class/Device/CDCClassDevice.c **** 
 123:LUFA//Drivers/USB/Class/Device/CDCClassDevice.c **** 	if (!(Endpoint_ConfigureEndpointTable(&CDCInterfaceInfo->Config.DataINEndpoint, 1)))
 869               		.loc 2 123 0
 870 001e CE01      		movw r24,r28
 871 0020 0196      		adiw r24,1
 872 0022 61E0      		ldi r22,lo8(1)
 873 0024 0E94 0000 		call Endpoint_ConfigureEndpointTable
 874 0028 8823      		tst r24
 875 002a 01F0      		breq .L21
 124:LUFA//Drivers/USB/Class/Device/CDCClassDevice.c **** 	  return false;
 125:LUFA//Drivers/USB/Class/Device/CDCClassDevice.c **** 
 126:LUFA//Drivers/USB/Class/Device/CDCClassDevice.c **** 	if (!(Endpoint_ConfigureEndpointTable(&CDCInterfaceInfo->Config.DataOUTEndpoint, 1)))
 876               		.loc 2 126 0
 877 002c CE01      		movw r24,r28
 878 002e 0696      		adiw r24,6
 879 0030 61E0      		ldi r22,lo8(1)
 880 0032 0E94 0000 		call Endpoint_ConfigureEndpointTable
 881 0036 8823      		tst r24
 882 0038 01F0      		breq .L21
 127:LUFA//Drivers/USB/Class/Device/CDCClassDevice.c **** 	  return false;
 128:LUFA//Drivers/USB/Class/Device/CDCClassDevice.c **** 
 129:LUFA//Drivers/USB/Class/Device/CDCClassDevice.c **** 	if (!(Endpoint_ConfigureEndpointTable(&CDCInterfaceInfo->Config.NotificationEndpoint, 1)))
 883               		.loc 2 129 0
 884 003a CE01      		movw r24,r28
 885 003c 0B96      		adiw r24,11
 886 003e 61E0      		ldi r22,lo8(1)
 887 0040 0E94 0000 		call Endpoint_ConfigureEndpointTable
 888 0044 00C0      		rjmp .L19
 889               	.L21:
 127:LUFA//Drivers/USB/Class/Device/CDCClassDevice.c **** 	  return false;
 890               		.loc 2 127 0
 891 0046 80E0      		ldi r24,lo8(0)
 892               	.L19:
 893               	/* epilogue start */
 130:LUFA//Drivers/USB/Class/Device/CDCClassDevice.c **** 	  return false;
 131:LUFA//Drivers/USB/Class/Device/CDCClassDevice.c **** 
 132:LUFA//Drivers/USB/Class/Device/CDCClassDevice.c **** 	return true;
 133:LUFA//Drivers/USB/Class/Device/CDCClassDevice.c **** }
 894               		.loc 2 133 0
 895 0048 DF91      		pop r29
 896 004a CF91      		pop r28
 897               	.LVL24:
 898 004c 0895      		ret
 899               		.cfi_endproc
 900               	.LFE84:
 902               		.section	.text.CDC_Device_SendString,"ax",@progbits
 903               	.global	CDC_Device_SendString
 905               	CDC_Device_SendString:
 906               	.LFB86:
 134:LUFA//Drivers/USB/Class/Device/CDCClassDevice.c **** 
 135:LUFA//Drivers/USB/Class/Device/CDCClassDevice.c **** void CDC_Device_USBTask(USB_ClassInfo_CDC_Device_t* const CDCInterfaceInfo)
 136:LUFA//Drivers/USB/Class/Device/CDCClassDevice.c **** {
 137:LUFA//Drivers/USB/Class/Device/CDCClassDevice.c **** 	if ((USB_DeviceState != DEVICE_STATE_Configured) || !(CDCInterfaceInfo->State.LineEncoding.BaudRat
 138:LUFA//Drivers/USB/Class/Device/CDCClassDevice.c **** 	  return;
 139:LUFA//Drivers/USB/Class/Device/CDCClassDevice.c **** 
 140:LUFA//Drivers/USB/Class/Device/CDCClassDevice.c **** 	#if !defined(NO_CLASS_DRIVER_AUTOFLUSH)
 141:LUFA//Drivers/USB/Class/Device/CDCClassDevice.c **** 	Endpoint_SelectEndpoint(CDCInterfaceInfo->Config.DataINEndpoint.Address);
 142:LUFA//Drivers/USB/Class/Device/CDCClassDevice.c **** 	
 143:LUFA//Drivers/USB/Class/Device/CDCClassDevice.c **** 	if (Endpoint_IsINReady())
 144:LUFA//Drivers/USB/Class/Device/CDCClassDevice.c **** 	  CDC_Device_Flush(CDCInterfaceInfo);
 145:LUFA//Drivers/USB/Class/Device/CDCClassDevice.c **** 	#endif
 146:LUFA//Drivers/USB/Class/Device/CDCClassDevice.c **** }
 147:LUFA//Drivers/USB/Class/Device/CDCClassDevice.c **** 
 148:LUFA//Drivers/USB/Class/Device/CDCClassDevice.c **** uint8_t CDC_Device_SendString(USB_ClassInfo_CDC_Device_t* const CDCInterfaceInfo,
 149:LUFA//Drivers/USB/Class/Device/CDCClassDevice.c ****                               const char* const String)
 150:LUFA//Drivers/USB/Class/Device/CDCClassDevice.c **** {
 907               		.loc 2 150 0
 908               		.cfi_startproc
 909               	.LVL25:
 910 0000 1F93      		push r17
 911               	.LCFI10:
 912               		.cfi_def_cfa_offset 3
 913               		.cfi_offset 17, -2
 914 0002 CF93      		push r28
 915               	.LCFI11:
 916               		.cfi_def_cfa_offset 4
 917               		.cfi_offset 28, -3
 918 0004 DF93      		push r29
 919               	.LCFI12:
 920               		.cfi_def_cfa_offset 5
 921               		.cfi_offset 29, -4
 922 0006 0F92      		push __tmp_reg__
 923               	.LCFI13:
 924               		.cfi_def_cfa_offset 6
 925 0008 CDB7      		in r28,__SP_L__
 926 000a DEB7      		in r29,__SP_H__
 927               	.LCFI14:
 928               		.cfi_def_cfa_register 28
 929               	/* prologue: function */
 930               	/* frame size = 1 */
 931               	/* stack size = 4 */
 932               	.L__stack_usage = 4
 933 000c FC01      		movw r30,r24
 934 000e 162F      		mov r17,r22
 935 0010 972F      		mov r25,r23
 151:LUFA//Drivers/USB/Class/Device/CDCClassDevice.c **** 	if ((USB_DeviceState != DEVICE_STATE_Configured) || !(CDCInterfaceInfo->State.LineEncoding.BaudRat
 936               		.loc 2 151 0
 937 0012 8091 0000 		lds r24,USB_DeviceState
 938               	.LVL26:
 939 0016 8430      		cpi r24,lo8(4)
 940 0018 01F4      		brne .L25
 941               		.loc 2 151 0 is_stmt 0 discriminator 1
 942 001a 4489      		ldd r20,Z+20
 943 001c 5589      		ldd r21,Z+21
 944 001e 6689      		ldd r22,Z+22
 945 0020 7789      		ldd r23,Z+23
 946 0022 4115      		cp r20,__zero_reg__
 947 0024 5105      		cpc r21,__zero_reg__
 948 0026 6105      		cpc r22,__zero_reg__
 949 0028 7105      		cpc r23,__zero_reg__
 950 002a 01F0      		breq .L25
 152:LUFA//Drivers/USB/Class/Device/CDCClassDevice.c **** 	  return ENDPOINT_RWSTREAM_DeviceDisconnected;
 153:LUFA//Drivers/USB/Class/Device/CDCClassDevice.c **** 
 154:LUFA//Drivers/USB/Class/Device/CDCClassDevice.c **** 	Endpoint_SelectEndpoint(CDCInterfaceInfo->Config.DataINEndpoint.Address);
 951               		.loc 2 154 0 is_stmt 1
 952 002c 8181      		ldd r24,Z+1
 953 002e 9983      		std Y+1,r25
 954 0030 0E94 0000 		call Endpoint_SelectEndpoint
 955               	.LVL27:
 155:LUFA//Drivers/USB/Class/Device/CDCClassDevice.c **** 	return Endpoint_Write_Stream_LE(String, strlen(String), NULL);
 956               		.loc 2 155 0
 957 0034 A12F      		mov r26,r17
 958 0036 9981      		ldd r25,Y+1
 959 0038 B92F      		mov r27,r25
 960 003a FD01      		movw r30,r26
 961 003c 0190      		ld __tmp_reg__,Z+
 962 003e 0020      		tst __tmp_reg__
 963 0040 01F4      		brne .-6
 964 0042 3197      		sbiw r30,1
 965 0044 EA1B      		sub r30,r26
 966 0046 FB0B      		sbc r31,r27
 967 0048 812F      		mov r24,r17
 968 004a BF01      		movw r22,r30
 969 004c 40E0      		ldi r20,lo8(0)
 970 004e 50E0      		ldi r21,hi8(0)
 971 0050 0E94 0000 		call Endpoint_Write_Stream_LE
 972 0054 00C0      		rjmp .L23
 973               	.LVL28:
 974               	.L25:
 152:LUFA//Drivers/USB/Class/Device/CDCClassDevice.c **** 	  return ENDPOINT_RWSTREAM_DeviceDisconnected;
 975               		.loc 2 152 0
 976 0056 82E0      		ldi r24,lo8(2)
 977               	.LVL29:
 978               	.L23:
 979               	/* epilogue start */
 156:LUFA//Drivers/USB/Class/Device/CDCClassDevice.c **** }
 980               		.loc 2 156 0
 981 0058 0F90      		pop __tmp_reg__
 982 005a DF91      		pop r29
 983 005c CF91      		pop r28
 984 005e 1F91      		pop r17
 985 0060 0895      		ret
 986               		.cfi_endproc
 987               	.LFE86:
 989               		.section	.text.CDC_Device_SendData,"ax",@progbits
 990               	.global	CDC_Device_SendData
 992               	CDC_Device_SendData:
 993               	.LFB87:
 157:LUFA//Drivers/USB/Class/Device/CDCClassDevice.c **** 
 158:LUFA//Drivers/USB/Class/Device/CDCClassDevice.c **** uint8_t CDC_Device_SendData(USB_ClassInfo_CDC_Device_t* const CDCInterfaceInfo,
 159:LUFA//Drivers/USB/Class/Device/CDCClassDevice.c ****                             const char* const Buffer,
 160:LUFA//Drivers/USB/Class/Device/CDCClassDevice.c ****                             const uint16_t Length)
 161:LUFA//Drivers/USB/Class/Device/CDCClassDevice.c **** {
 994               		.loc 2 161 0
 995               		.cfi_startproc
 996               	.LVL30:
 997 0000 0F93      		push r16
 998               	.LCFI15:
 999               		.cfi_def_cfa_offset 3
 1000               		.cfi_offset 16, -2
 1001 0002 1F93      		push r17
 1002               	.LCFI16:
 1003               		.cfi_def_cfa_offset 4
 1004               		.cfi_offset 17, -3
 1005 0004 CF93      		push r28
 1006               	.LCFI17:
 1007               		.cfi_def_cfa_offset 5
 1008               		.cfi_offset 28, -4
 1009 0006 DF93      		push r29
 1010               	.LCFI18:
 1011               		.cfi_def_cfa_offset 6
 1012               		.cfi_offset 29, -5
 1013               	/* prologue: function */
 1014               	/* frame size = 0 */
 1015               	/* stack size = 4 */
 1016               	.L__stack_usage = 4
 1017 0008 FC01      		movw r30,r24
 1018 000a 8B01      		movw r16,r22
 1019 000c EA01      		movw r28,r20
 162:LUFA//Drivers/USB/Class/Device/CDCClassDevice.c **** 	if ((USB_DeviceState != DEVICE_STATE_Configured) || !(CDCInterfaceInfo->State.LineEncoding.BaudRat
 1020               		.loc 2 162 0
 1021 000e 8091 0000 		lds r24,USB_DeviceState
 1022               	.LVL31:
 1023 0012 8430      		cpi r24,lo8(4)
 1024 0014 01F4      		brne .L29
 1025               	.LVL32:
 1026               		.loc 2 162 0 is_stmt 0 discriminator 1
 1027 0016 8489      		ldd r24,Z+20
 1028 0018 9589      		ldd r25,Z+21
 1029 001a A689      		ldd r26,Z+22
 1030 001c B789      		ldd r27,Z+23
 1031 001e 0097      		sbiw r24,0
 1032 0020 A105      		cpc r26,__zero_reg__
 1033 0022 B105      		cpc r27,__zero_reg__
 1034 0024 01F0      		breq .L29
 163:LUFA//Drivers/USB/Class/Device/CDCClassDevice.c **** 	  return ENDPOINT_RWSTREAM_DeviceDisconnected;
 164:LUFA//Drivers/USB/Class/Device/CDCClassDevice.c **** 
 165:LUFA//Drivers/USB/Class/Device/CDCClassDevice.c **** 	Endpoint_SelectEndpoint(CDCInterfaceInfo->Config.DataINEndpoint.Address);
 1035               		.loc 2 165 0 is_stmt 1
 1036 0026 8181      		ldd r24,Z+1
 1037 0028 0E94 0000 		call Endpoint_SelectEndpoint
 1038               	.LVL33:
 166:LUFA//Drivers/USB/Class/Device/CDCClassDevice.c **** 	return Endpoint_Write_Stream_LE(Buffer, Length, NULL);
 1039               		.loc 2 166 0
 1040 002c C801      		movw r24,r16
 1041 002e BE01      		movw r22,r28
 1042 0030 40E0      		ldi r20,lo8(0)
 1043 0032 50E0      		ldi r21,hi8(0)
 1044 0034 0E94 0000 		call Endpoint_Write_Stream_LE
 1045 0038 00C0      		rjmp .L27
 1046               	.LVL34:
 1047               	.L29:
 163:LUFA//Drivers/USB/Class/Device/CDCClassDevice.c **** 	  return ENDPOINT_RWSTREAM_DeviceDisconnected;
 1048               		.loc 2 163 0
 1049 003a 82E0      		ldi r24,lo8(2)
 1050               	.LVL35:
 1051               	.L27:
 1052               	/* epilogue start */
 167:LUFA//Drivers/USB/Class/Device/CDCClassDevice.c **** }
 1053               		.loc 2 167 0
 1054 003c DF91      		pop r29
 1055 003e CF91      		pop r28
 1056               	.LVL36:
 1057 0040 1F91      		pop r17
 1058 0042 0F91      		pop r16
 1059               	.LVL37:
 1060 0044 0895      		ret
 1061               		.cfi_endproc
 1062               	.LFE87:
 1064               		.section	.text.CDC_Device_SendByte,"ax",@progbits
 1065               	.global	CDC_Device_SendByte
 1067               	CDC_Device_SendByte:
 1068               	.LFB88:
 168:LUFA//Drivers/USB/Class/Device/CDCClassDevice.c **** 
 169:LUFA//Drivers/USB/Class/Device/CDCClassDevice.c **** uint8_t CDC_Device_SendByte(USB_ClassInfo_CDC_Device_t* const CDCInterfaceInfo,
 170:LUFA//Drivers/USB/Class/Device/CDCClassDevice.c ****                             const uint8_t Data)
 171:LUFA//Drivers/USB/Class/Device/CDCClassDevice.c **** {
 1069               		.loc 2 171 0
 1070               		.cfi_startproc
 1071               	.LVL38:
 1072 0000 CF93      		push r28
 1073               	.LCFI19:
 1074               		.cfi_def_cfa_offset 3
 1075               		.cfi_offset 28, -2
 1076               	/* prologue: function */
 1077               	/* frame size = 0 */
 1078               	/* stack size = 1 */
 1079               	.L__stack_usage = 1
 1080 0002 FC01      		movw r30,r24
 1081 0004 C62F      		mov r28,r22
 172:LUFA//Drivers/USB/Class/Device/CDCClassDevice.c **** 	if ((USB_DeviceState != DEVICE_STATE_Configured) || !(CDCInterfaceInfo->State.LineEncoding.BaudRat
 1082               		.loc 2 172 0
 1083 0006 8091 0000 		lds r24,USB_DeviceState
 1084               	.LVL39:
 1085 000a 8430      		cpi r24,lo8(4)
 1086 000c 01F0      		breq .+2
 1087 000e 00C0      		rjmp .L34
 1088               		.loc 2 172 0 is_stmt 0 discriminator 1
 1089 0010 4489      		ldd r20,Z+20
 1090 0012 5589      		ldd r21,Z+21
 1091 0014 6689      		ldd r22,Z+22
 1092 0016 7789      		ldd r23,Z+23
 1093 0018 4115      		cp r20,__zero_reg__
 1094 001a 5105      		cpc r21,__zero_reg__
 1095 001c 6105      		cpc r22,__zero_reg__
 1096 001e 7105      		cpc r23,__zero_reg__
 1097 0020 01F0      		breq .L34
 173:LUFA//Drivers/USB/Class/Device/CDCClassDevice.c **** 	  return ENDPOINT_RWSTREAM_DeviceDisconnected;
 174:LUFA//Drivers/USB/Class/Device/CDCClassDevice.c **** 
 175:LUFA//Drivers/USB/Class/Device/CDCClassDevice.c **** 	Endpoint_SelectEndpoint(CDCInterfaceInfo->Config.DataINEndpoint.Address);
 1098               		.loc 2 175 0 is_stmt 1
 1099 0022 8181      		ldd r24,Z+1
 1100 0024 0E94 0000 		call Endpoint_SelectEndpoint
 1101               	.LVL40:
 1102               	.LBB155:
 1103               	.LBB156:
 353:LUFA//Drivers/USB/Class/Device/../../Core/XMEGA/../XMEGA/Endpoint_XMEGA.h **** 				return (USB_Endpoint_SelectedFIFO->Position < USB_Endpoint_SelectedFIFO->Length);
 1104               		.loc 1 353 0
 1105 0028 8091 0000 		lds r24,USB_Endpoint_SelectedFIFO
 1106 002c 9091 0000 		lds r25,USB_Endpoint_SelectedFIFO+1
 1107 0030 FC01      		movw r30,r24
 1108 0032 EF5B      		subi r30,lo8(-(65))
 1109 0034 FF4F      		sbci r31,hi8(-(65))
 1110 0036 2081      		ld r18,Z
 1111 0038 805C      		subi r24,lo8(-(64))
 1112 003a 9F4F      		sbci r25,hi8(-(64))
 1113 003c DC01      		movw r26,r24
 1114 003e 8C91      		ld r24,X
 1115               	.LBE156:
 1116               	.LBE155:
 176:LUFA//Drivers/USB/Class/Device/CDCClassDevice.c **** 
 177:LUFA//Drivers/USB/Class/Device/CDCClassDevice.c **** 	if (!(Endpoint_IsReadWriteAllowed()))
 1117               		.loc 2 177 0
 1118 0040 2817      		cp r18,r24
 1119 0042 00F0      		brlo .L32
 1120               	.LBB157:
 1121               	.LBB158:
 1122               	.LBB159:
 448:LUFA//Drivers/USB/Class/Device/../../Core/XMEGA/../XMEGA/Endpoint_XMEGA.h **** 				USB_Endpoint_SelectedHandle->CNT     = USB_Endpoint_SelectedFIFO->Position;
 1123               		.loc 1 448 0
 1124 0044 A091 0000 		lds r26,USB_Endpoint_SelectedHandle
 1125 0048 B091 0000 		lds r27,USB_Endpoint_SelectedHandle+1
 1126 004c 8081      		ld r24,Z
 1127 004e 90E0      		ldi r25,lo8(0)
 1128 0050 1296      		adiw r26,2
 1129 0052 8D93      		st X+,r24
 1130 0054 9C93      		st X,r25
 1131 0056 1397      		sbiw r26,2+1
 449:LUFA//Drivers/USB/Class/Device/../../Core/XMEGA/../XMEGA/Endpoint_XMEGA.h **** 				USB_Endpoint_SelectedHandle->STATUS &= ~(USB_EP_TRNCOMPL0_bm | USB_EP_BUSNACK0_bm | USB_EP_OVF_
 1132               		.loc 1 449 0
 1133 0058 8C91      		ld r24,X
 1134 005a 8D79      		andi r24,lo8(-99)
 1135 005c 8C93      		st X,r24
 450:LUFA//Drivers/USB/Class/Device/../../Core/XMEGA/../XMEGA/Endpoint_XMEGA.h **** 				USB_Endpoint_SelectedFIFO->Position  = 0;
 1136               		.loc 1 450 0
 1137 005e E091 0000 		lds r30,USB_Endpoint_SelectedFIFO
 1138 0062 F091 0000 		lds r31,USB_Endpoint_SelectedFIFO+1
 1139 0066 EF5B      		subi r30,lo8(-(65))
 1140 0068 FF4F      		sbci r31,hi8(-(65))
 1141 006a 1082      		st Z,__zero_reg__
 1142               	.LBE159:
 1143               	.LBE158:
 178:LUFA//Drivers/USB/Class/Device/CDCClassDevice.c **** 	{
 179:LUFA//Drivers/USB/Class/Device/CDCClassDevice.c **** 		Endpoint_ClearIN();
 180:LUFA//Drivers/USB/Class/Device/CDCClassDevice.c **** 
 181:LUFA//Drivers/USB/Class/Device/CDCClassDevice.c **** 		uint8_t ErrorCode;
 182:LUFA//Drivers/USB/Class/Device/CDCClassDevice.c **** 
 183:LUFA//Drivers/USB/Class/Device/CDCClassDevice.c **** 		if ((ErrorCode = Endpoint_WaitUntilReady()) != ENDPOINT_READYWAIT_NoError)
 1144               		.loc 2 183 0
 1145 006c 0E94 0000 		call Endpoint_WaitUntilReady
 1146               	.LVL41:
 1147 0070 8823      		tst r24
 1148 0072 01F4      		brne .L31
 1149               	.LVL42:
 1150               	.L32:
 1151               	.LBE157:
 1152               	.LBB160:
 1153               	.LBB161:
 548:LUFA//Drivers/USB/Class/Device/../../Core/XMEGA/../XMEGA/Endpoint_XMEGA.h **** 				USB_Endpoint_SelectedFIFO->Data[USB_Endpoint_SelectedFIFO->Position++] = Data;
 1154               		.loc 1 548 0
 1155 0074 8091 0000 		lds r24,USB_Endpoint_SelectedFIFO
 1156 0078 9091 0000 		lds r25,USB_Endpoint_SelectedFIFO+1
 1157 007c FC01      		movw r30,r24
 1158 007e EF5B      		subi r30,lo8(-(65))
 1159 0080 FF4F      		sbci r31,hi8(-(65))
 1160 0082 2081      		ld r18,Z
 1161 0084 820F      		add r24,r18
 1162 0086 911D      		adc r25,__zero_reg__
 1163 0088 DC01      		movw r26,r24
 1164 008a CC93      		st X,r28
 1165 008c 2F5F      		subi r18,lo8(-(1))
 1166 008e 2083      		st Z,r18
 1167               	.LBE161:
 1168               	.LBE160:
 184:LUFA//Drivers/USB/Class/Device/CDCClassDevice.c **** 		  return ErrorCode;
 185:LUFA//Drivers/USB/Class/Device/CDCClassDevice.c **** 	}
 186:LUFA//Drivers/USB/Class/Device/CDCClassDevice.c **** 
 187:LUFA//Drivers/USB/Class/Device/CDCClassDevice.c **** 	Endpoint_Write_8(Data);
 188:LUFA//Drivers/USB/Class/Device/CDCClassDevice.c **** 	return ENDPOINT_READYWAIT_NoError;
 1169               		.loc 2 188 0
 1170 0090 80E0      		ldi r24,lo8(0)
 1171 0092 00C0      		rjmp .L31
 1172               	.LVL43:
 1173               	.L34:
 173:LUFA//Drivers/USB/Class/Device/CDCClassDevice.c **** 	  return ENDPOINT_RWSTREAM_DeviceDisconnected;
 1174               		.loc 2 173 0
 1175 0094 82E0      		ldi r24,lo8(2)
 1176               	.LVL44:
 1177               	.L31:
 1178               	/* epilogue start */
 189:LUFA//Drivers/USB/Class/Device/CDCClassDevice.c **** }
 1179               		.loc 2 189 0
 1180 0096 CF91      		pop r28
 1181               	.LVL45:
 1182 0098 0895      		ret
 1183               		.cfi_endproc
 1184               	.LFE88:
 1186               		.section	.text.CDC_Device_putchar,"ax",@progbits
 1188               	CDC_Device_putchar:
 1189               	.LFB95:
 190:LUFA//Drivers/USB/Class/Device/CDCClassDevice.c **** 
 191:LUFA//Drivers/USB/Class/Device/CDCClassDevice.c **** uint8_t CDC_Device_Flush(USB_ClassInfo_CDC_Device_t* const CDCInterfaceInfo)
 192:LUFA//Drivers/USB/Class/Device/CDCClassDevice.c **** {
 193:LUFA//Drivers/USB/Class/Device/CDCClassDevice.c **** 	if ((USB_DeviceState != DEVICE_STATE_Configured) || !(CDCInterfaceInfo->State.LineEncoding.BaudRat
 194:LUFA//Drivers/USB/Class/Device/CDCClassDevice.c **** 	  return ENDPOINT_RWSTREAM_DeviceDisconnected;
 195:LUFA//Drivers/USB/Class/Device/CDCClassDevice.c **** 
 196:LUFA//Drivers/USB/Class/Device/CDCClassDevice.c **** 	uint8_t ErrorCode;
 197:LUFA//Drivers/USB/Class/Device/CDCClassDevice.c **** 
 198:LUFA//Drivers/USB/Class/Device/CDCClassDevice.c **** 	Endpoint_SelectEndpoint(CDCInterfaceInfo->Config.DataINEndpoint.Address);
 199:LUFA//Drivers/USB/Class/Device/CDCClassDevice.c **** 
 200:LUFA//Drivers/USB/Class/Device/CDCClassDevice.c **** 	if (!(Endpoint_BytesInEndpoint()))
 201:LUFA//Drivers/USB/Class/Device/CDCClassDevice.c **** 	  return ENDPOINT_READYWAIT_NoError;
 202:LUFA//Drivers/USB/Class/Device/CDCClassDevice.c **** 
 203:LUFA//Drivers/USB/Class/Device/CDCClassDevice.c **** 	bool BankFull = !(Endpoint_IsReadWriteAllowed());
 204:LUFA//Drivers/USB/Class/Device/CDCClassDevice.c **** 
 205:LUFA//Drivers/USB/Class/Device/CDCClassDevice.c **** 	Endpoint_ClearIN();
 206:LUFA//Drivers/USB/Class/Device/CDCClassDevice.c **** 
 207:LUFA//Drivers/USB/Class/Device/CDCClassDevice.c **** 	if (BankFull)
 208:LUFA//Drivers/USB/Class/Device/CDCClassDevice.c **** 	{
 209:LUFA//Drivers/USB/Class/Device/CDCClassDevice.c **** 		if ((ErrorCode = Endpoint_WaitUntilReady()) != ENDPOINT_READYWAIT_NoError)
 210:LUFA//Drivers/USB/Class/Device/CDCClassDevice.c **** 		  return ErrorCode;
 211:LUFA//Drivers/USB/Class/Device/CDCClassDevice.c **** 
 212:LUFA//Drivers/USB/Class/Device/CDCClassDevice.c **** 		Endpoint_ClearIN();
 213:LUFA//Drivers/USB/Class/Device/CDCClassDevice.c **** 	}
 214:LUFA//Drivers/USB/Class/Device/CDCClassDevice.c **** 
 215:LUFA//Drivers/USB/Class/Device/CDCClassDevice.c **** 	return ENDPOINT_READYWAIT_NoError;
 216:LUFA//Drivers/USB/Class/Device/CDCClassDevice.c **** }
 217:LUFA//Drivers/USB/Class/Device/CDCClassDevice.c **** 
 218:LUFA//Drivers/USB/Class/Device/CDCClassDevice.c **** uint16_t CDC_Device_BytesReceived(USB_ClassInfo_CDC_Device_t* const CDCInterfaceInfo)
 219:LUFA//Drivers/USB/Class/Device/CDCClassDevice.c **** {
 220:LUFA//Drivers/USB/Class/Device/CDCClassDevice.c **** 	if ((USB_DeviceState != DEVICE_STATE_Configured) || !(CDCInterfaceInfo->State.LineEncoding.BaudRat
 221:LUFA//Drivers/USB/Class/Device/CDCClassDevice.c **** 	  return 0;
 222:LUFA//Drivers/USB/Class/Device/CDCClassDevice.c **** 
 223:LUFA//Drivers/USB/Class/Device/CDCClassDevice.c **** 	Endpoint_SelectEndpoint(CDCInterfaceInfo->Config.DataOUTEndpoint.Address);
 224:LUFA//Drivers/USB/Class/Device/CDCClassDevice.c **** 
 225:LUFA//Drivers/USB/Class/Device/CDCClassDevice.c **** 	if (Endpoint_IsOUTReceived())
 226:LUFA//Drivers/USB/Class/Device/CDCClassDevice.c **** 	{
 227:LUFA//Drivers/USB/Class/Device/CDCClassDevice.c **** 		if (!(Endpoint_BytesInEndpoint()))
 228:LUFA//Drivers/USB/Class/Device/CDCClassDevice.c **** 		{
 229:LUFA//Drivers/USB/Class/Device/CDCClassDevice.c **** 			Endpoint_ClearOUT();
 230:LUFA//Drivers/USB/Class/Device/CDCClassDevice.c **** 			return 0;
 231:LUFA//Drivers/USB/Class/Device/CDCClassDevice.c **** 		}
 232:LUFA//Drivers/USB/Class/Device/CDCClassDevice.c **** 		else
 233:LUFA//Drivers/USB/Class/Device/CDCClassDevice.c **** 		{
 234:LUFA//Drivers/USB/Class/Device/CDCClassDevice.c **** 			return Endpoint_BytesInEndpoint();
 235:LUFA//Drivers/USB/Class/Device/CDCClassDevice.c **** 		}
 236:LUFA//Drivers/USB/Class/Device/CDCClassDevice.c **** 	}
 237:LUFA//Drivers/USB/Class/Device/CDCClassDevice.c **** 	else
 238:LUFA//Drivers/USB/Class/Device/CDCClassDevice.c **** 	{
 239:LUFA//Drivers/USB/Class/Device/CDCClassDevice.c **** 		return 0;
 240:LUFA//Drivers/USB/Class/Device/CDCClassDevice.c **** 	}
 241:LUFA//Drivers/USB/Class/Device/CDCClassDevice.c **** }
 242:LUFA//Drivers/USB/Class/Device/CDCClassDevice.c **** 
 243:LUFA//Drivers/USB/Class/Device/CDCClassDevice.c **** int16_t CDC_Device_ReceiveByte(USB_ClassInfo_CDC_Device_t* const CDCInterfaceInfo)
 244:LUFA//Drivers/USB/Class/Device/CDCClassDevice.c **** {
 245:LUFA//Drivers/USB/Class/Device/CDCClassDevice.c **** 	if ((USB_DeviceState != DEVICE_STATE_Configured) || !(CDCInterfaceInfo->State.LineEncoding.BaudRat
 246:LUFA//Drivers/USB/Class/Device/CDCClassDevice.c **** 	  return -1;
 247:LUFA//Drivers/USB/Class/Device/CDCClassDevice.c **** 
 248:LUFA//Drivers/USB/Class/Device/CDCClassDevice.c **** 	int16_t ReceivedByte = -1;
 249:LUFA//Drivers/USB/Class/Device/CDCClassDevice.c **** 
 250:LUFA//Drivers/USB/Class/Device/CDCClassDevice.c **** 	Endpoint_SelectEndpoint(CDCInterfaceInfo->Config.DataOUTEndpoint.Address);
 251:LUFA//Drivers/USB/Class/Device/CDCClassDevice.c **** 
 252:LUFA//Drivers/USB/Class/Device/CDCClassDevice.c **** 	if (Endpoint_IsOUTReceived())
 253:LUFA//Drivers/USB/Class/Device/CDCClassDevice.c **** 	{
 254:LUFA//Drivers/USB/Class/Device/CDCClassDevice.c **** 		if (Endpoint_BytesInEndpoint())
 255:LUFA//Drivers/USB/Class/Device/CDCClassDevice.c **** 		  ReceivedByte = Endpoint_Read_8();
 256:LUFA//Drivers/USB/Class/Device/CDCClassDevice.c **** 
 257:LUFA//Drivers/USB/Class/Device/CDCClassDevice.c **** 		if (!(Endpoint_BytesInEndpoint()))
 258:LUFA//Drivers/USB/Class/Device/CDCClassDevice.c **** 		  Endpoint_ClearOUT();
 259:LUFA//Drivers/USB/Class/Device/CDCClassDevice.c **** 	}
 260:LUFA//Drivers/USB/Class/Device/CDCClassDevice.c **** 
 261:LUFA//Drivers/USB/Class/Device/CDCClassDevice.c **** 	return ReceivedByte;
 262:LUFA//Drivers/USB/Class/Device/CDCClassDevice.c **** }
 263:LUFA//Drivers/USB/Class/Device/CDCClassDevice.c **** 
 264:LUFA//Drivers/USB/Class/Device/CDCClassDevice.c **** void CDC_Device_SendControlLineStateChange(USB_ClassInfo_CDC_Device_t* const CDCInterfaceInfo)
 265:LUFA//Drivers/USB/Class/Device/CDCClassDevice.c **** {
 266:LUFA//Drivers/USB/Class/Device/CDCClassDevice.c **** 	if ((USB_DeviceState != DEVICE_STATE_Configured) || !(CDCInterfaceInfo->State.LineEncoding.BaudRat
 267:LUFA//Drivers/USB/Class/Device/CDCClassDevice.c **** 	  return;
 268:LUFA//Drivers/USB/Class/Device/CDCClassDevice.c **** 
 269:LUFA//Drivers/USB/Class/Device/CDCClassDevice.c **** 	Endpoint_SelectEndpoint(CDCInterfaceInfo->Config.NotificationEndpoint.Address);
 270:LUFA//Drivers/USB/Class/Device/CDCClassDevice.c **** 
 271:LUFA//Drivers/USB/Class/Device/CDCClassDevice.c **** 	USB_Request_Header_t Notification = (USB_Request_Header_t)
 272:LUFA//Drivers/USB/Class/Device/CDCClassDevice.c **** 		{
 273:LUFA//Drivers/USB/Class/Device/CDCClassDevice.c **** 			.bmRequestType = (REQDIR_DEVICETOHOST | REQTYPE_CLASS | REQREC_INTERFACE),
 274:LUFA//Drivers/USB/Class/Device/CDCClassDevice.c **** 			.bRequest      = CDC_NOTIF_SerialState,
 275:LUFA//Drivers/USB/Class/Device/CDCClassDevice.c **** 			.wValue        = CPU_TO_LE16(0),
 276:LUFA//Drivers/USB/Class/Device/CDCClassDevice.c **** 			.wIndex        = CPU_TO_LE16(0),
 277:LUFA//Drivers/USB/Class/Device/CDCClassDevice.c **** 			.wLength       = CPU_TO_LE16(sizeof(CDCInterfaceInfo->State.ControlLineStates.DeviceToHost)),
 278:LUFA//Drivers/USB/Class/Device/CDCClassDevice.c **** 		};
 279:LUFA//Drivers/USB/Class/Device/CDCClassDevice.c **** 
 280:LUFA//Drivers/USB/Class/Device/CDCClassDevice.c **** 	Endpoint_Write_Stream_LE(&Notification, sizeof(USB_Request_Header_t), NULL);
 281:LUFA//Drivers/USB/Class/Device/CDCClassDevice.c **** 	Endpoint_Write_Stream_LE(&CDCInterfaceInfo->State.ControlLineStates.DeviceToHost,
 282:LUFA//Drivers/USB/Class/Device/CDCClassDevice.c **** 	                         sizeof(CDCInterfaceInfo->State.ControlLineStates.DeviceToHost),
 283:LUFA//Drivers/USB/Class/Device/CDCClassDevice.c **** 	                         NULL);
 284:LUFA//Drivers/USB/Class/Device/CDCClassDevice.c **** 	Endpoint_ClearIN();
 285:LUFA//Drivers/USB/Class/Device/CDCClassDevice.c **** }
 286:LUFA//Drivers/USB/Class/Device/CDCClassDevice.c **** 
 287:LUFA//Drivers/USB/Class/Device/CDCClassDevice.c **** #if defined(FDEV_SETUP_STREAM)
 288:LUFA//Drivers/USB/Class/Device/CDCClassDevice.c **** void CDC_Device_CreateStream(USB_ClassInfo_CDC_Device_t* const CDCInterfaceInfo,
 289:LUFA//Drivers/USB/Class/Device/CDCClassDevice.c ****                              FILE* const Stream)
 290:LUFA//Drivers/USB/Class/Device/CDCClassDevice.c **** {
 291:LUFA//Drivers/USB/Class/Device/CDCClassDevice.c **** 	*Stream = (FILE)FDEV_SETUP_STREAM(CDC_Device_putchar, CDC_Device_getchar, _FDEV_SETUP_RW);
 292:LUFA//Drivers/USB/Class/Device/CDCClassDevice.c **** 	fdev_set_udata(Stream, CDCInterfaceInfo);
 293:LUFA//Drivers/USB/Class/Device/CDCClassDevice.c **** }
 294:LUFA//Drivers/USB/Class/Device/CDCClassDevice.c **** 
 295:LUFA//Drivers/USB/Class/Device/CDCClassDevice.c **** void CDC_Device_CreateBlockingStream(USB_ClassInfo_CDC_Device_t* const CDCInterfaceInfo,
 296:LUFA//Drivers/USB/Class/Device/CDCClassDevice.c ****                                      FILE* const Stream)
 297:LUFA//Drivers/USB/Class/Device/CDCClassDevice.c **** {
 298:LUFA//Drivers/USB/Class/Device/CDCClassDevice.c **** 	*Stream = (FILE)FDEV_SETUP_STREAM(CDC_Device_putchar, CDC_Device_getchar_Blocking, _FDEV_SETUP_RW)
 299:LUFA//Drivers/USB/Class/Device/CDCClassDevice.c **** 	fdev_set_udata(Stream, CDCInterfaceInfo);
 300:LUFA//Drivers/USB/Class/Device/CDCClassDevice.c **** }
 301:LUFA//Drivers/USB/Class/Device/CDCClassDevice.c **** 
 302:LUFA//Drivers/USB/Class/Device/CDCClassDevice.c **** static int CDC_Device_putchar(char c,
 303:LUFA//Drivers/USB/Class/Device/CDCClassDevice.c ****                               FILE* Stream)
 304:LUFA//Drivers/USB/Class/Device/CDCClassDevice.c **** {
 1190               		.loc 2 304 0
 1191               		.cfi_startproc
 1192               	.LVL46:
 1193               	/* prologue: function */
 1194               	/* frame size = 0 */
 1195               	/* stack size = 0 */
 1196               	.L__stack_usage = 0
 1197 0000 282F      		mov r18,r24
 1198 0002 FB01      		movw r30,r22
 305:LUFA//Drivers/USB/Class/Device/CDCClassDevice.c **** 	return CDC_Device_SendByte((USB_ClassInfo_CDC_Device_t*)fdev_get_udata(Stream), c) ? _FDEV_ERR : 0
 1199               		.loc 2 305 0
 1200 0004 8485      		ldd r24,Z+12
 1201 0006 9585      		ldd r25,Z+13
 1202               	.LVL47:
 1203 0008 622F      		mov r22,r18
 1204               	.LVL48:
 1205 000a 0E94 0000 		call CDC_Device_SendByte
 1206               	.LVL49:
 1207 000e 8823      		tst r24
 1208 0010 01F0      		breq .L37
 1209 0012 8FEF      		ldi r24,lo8(-1)
 1210 0014 9FEF      		ldi r25,hi8(-1)
 1211 0016 0895      		ret
 1212               	.L37:
 1213 0018 80E0      		ldi r24,lo8(0)
 1214 001a 90E0      		ldi r25,hi8(0)
 306:LUFA//Drivers/USB/Class/Device/CDCClassDevice.c **** }
 1215               		.loc 2 306 0
 1216 001c 0895      		ret
 1217               		.cfi_endproc
 1218               	.LFE95:
 1220               		.section	.text.CDC_Device_Flush,"ax",@progbits
 1221               	.global	CDC_Device_Flush
 1223               	CDC_Device_Flush:
 1224               	.LFB89:
 192:LUFA//Drivers/USB/Class/Device/CDCClassDevice.c **** {
 1225               		.loc 2 192 0
 1226               		.cfi_startproc
 1227               	.LVL50:
 1228               	/* prologue: function */
 1229               	/* frame size = 0 */
 1230               	/* stack size = 0 */
 1231               	.L__stack_usage = 0
 1232 0000 FC01      		movw r30,r24
 193:LUFA//Drivers/USB/Class/Device/CDCClassDevice.c **** 	if ((USB_DeviceState != DEVICE_STATE_Configured) || !(CDCInterfaceInfo->State.LineEncoding.BaudRat
 1233               		.loc 2 193 0
 1234 0002 8091 0000 		lds r24,USB_DeviceState
 1235               	.LVL51:
 1236 0006 8430      		cpi r24,lo8(4)
 1237 0008 01F0      		breq .+2
 1238 000a 00C0      		rjmp .L43
 193:LUFA//Drivers/USB/Class/Device/CDCClassDevice.c **** 	if ((USB_DeviceState != DEVICE_STATE_Configured) || !(CDCInterfaceInfo->State.LineEncoding.BaudRat
 1239               		.loc 2 193 0 is_stmt 0 discriminator 1
 1240 000c 4489      		ldd r20,Z+20
 1241 000e 5589      		ldd r21,Z+21
 1242 0010 6689      		ldd r22,Z+22
 1243 0012 7789      		ldd r23,Z+23
 1244 0014 4115      		cp r20,__zero_reg__
 1245 0016 5105      		cpc r21,__zero_reg__
 1246 0018 6105      		cpc r22,__zero_reg__
 1247 001a 7105      		cpc r23,__zero_reg__
 1248 001c 01F4      		brne .+2
 1249 001e 00C0      		rjmp .L43
 198:LUFA//Drivers/USB/Class/Device/CDCClassDevice.c **** 	Endpoint_SelectEndpoint(CDCInterfaceInfo->Config.DataINEndpoint.Address);
 1250               		.loc 2 198 0 is_stmt 1
 1251 0020 8181      		ldd r24,Z+1
 1252 0022 0E94 0000 		call Endpoint_SelectEndpoint
 1253               	.LVL52:
 1254               	.LBB162:
 1255               	.LBB163:
 285:LUFA//Drivers/USB/Class/Device/../../Core/XMEGA/../XMEGA/Endpoint_XMEGA.h **** 				if (USB_Endpoint_SelectedEndpoint & ENDPOINT_DIR_IN)
 1256               		.loc 1 285 0
 1257 0026 8091 0000 		lds r24,USB_Endpoint_SelectedEndpoint
 1258 002a 2091 0000 		lds r18,USB_Endpoint_SelectedFIFO
 1259 002e 3091 0000 		lds r19,USB_Endpoint_SelectedFIFO+1
 1260 0032 87FF      		sbrs r24,7
 1261 0034 00C0      		rjmp .L40
 286:LUFA//Drivers/USB/Class/Device/../../Core/XMEGA/../XMEGA/Endpoint_XMEGA.h **** 				  return USB_Endpoint_SelectedFIFO->Position;
 1262               		.loc 1 286 0
 1263 0036 2F5B      		subi r18,lo8(-(65))
 1264 0038 3F4F      		sbci r19,hi8(-(65))
 1265 003a F901      		movw r30,r18
 1266 003c 8081      		ld r24,Z
 1267 003e 90E0      		ldi r25,lo8(0)
 1268 0040 00C0      		rjmp .L41
 1269               	.L40:
 288:LUFA//Drivers/USB/Class/Device/../../Core/XMEGA/../XMEGA/Endpoint_XMEGA.h **** 				  return (USB_Endpoint_SelectedFIFO->Length - USB_Endpoint_SelectedFIFO->Position);
 1270               		.loc 1 288 0
 1271 0042 F901      		movw r30,r18
 1272 0044 E05C      		subi r30,lo8(-(64))
 1273 0046 FF4F      		sbci r31,hi8(-(64))
 1274 0048 8081      		ld r24,Z
 1275 004a 2F5B      		subi r18,lo8(-(65))
 1276 004c 3F4F      		sbci r19,hi8(-(65))
 1277 004e F901      		movw r30,r18
 1278 0050 2081      		ld r18,Z
 1279 0052 90E0      		ldi r25,lo8(0)
 1280 0054 821B      		sub r24,r18
 1281 0056 9109      		sbc r25,__zero_reg__
 1282               	.L41:
 1283               	.LBE163:
 1284               	.LBE162:
 200:LUFA//Drivers/USB/Class/Device/CDCClassDevice.c **** 	if (!(Endpoint_BytesInEndpoint()))
 1285               		.loc 2 200 0
 1286 0058 0097      		sbiw r24,0
 1287 005a 01F4      		brne .+2
 1288 005c 00C0      		rjmp .L44
 1289               	.LBB164:
 1290               	.LBB165:
 353:LUFA//Drivers/USB/Class/Device/../../Core/XMEGA/../XMEGA/Endpoint_XMEGA.h **** 				return (USB_Endpoint_SelectedFIFO->Position < USB_Endpoint_SelectedFIFO->Length);
 1291               		.loc 1 353 0
 1292 005e 8091 0000 		lds r24,USB_Endpoint_SelectedFIFO
 1293 0062 9091 0000 		lds r25,USB_Endpoint_SelectedFIFO+1
 1294 0066 DC01      		movw r26,r24
 1295 0068 AF5B      		subi r26,lo8(-(65))
 1296 006a BF4F      		sbci r27,hi8(-(65))
 1297 006c 3C91      		ld r19,X
 1298 006e 805C      		subi r24,lo8(-(64))
 1299 0070 9F4F      		sbci r25,hi8(-(64))
 1300 0072 FC01      		movw r30,r24
 1301 0074 2081      		ld r18,Z
 1302               	.LVL53:
 1303               	.LBE165:
 1304               	.LBE164:
 1305               	.LBB166:
 1306               	.LBB167:
 448:LUFA//Drivers/USB/Class/Device/../../Core/XMEGA/../XMEGA/Endpoint_XMEGA.h **** 				USB_Endpoint_SelectedHandle->CNT     = USB_Endpoint_SelectedFIFO->Position;
 1307               		.loc 1 448 0
 1308 0076 E091 0000 		lds r30,USB_Endpoint_SelectedHandle
 1309 007a F091 0000 		lds r31,USB_Endpoint_SelectedHandle+1
 1310 007e 8C91      		ld r24,X
 1311 0080 90E0      		ldi r25,lo8(0)
 1312 0082 8283      		std Z+2,r24
 1313 0084 9383      		std Z+3,r25
 449:LUFA//Drivers/USB/Class/Device/../../Core/XMEGA/../XMEGA/Endpoint_XMEGA.h **** 				USB_Endpoint_SelectedHandle->STATUS &= ~(USB_EP_TRNCOMPL0_bm | USB_EP_BUSNACK0_bm | USB_EP_OVF_
 1314               		.loc 1 449 0
 1315 0086 8081      		ld r24,Z
 1316 0088 8D79      		andi r24,lo8(-99)
 1317 008a 8083      		st Z,r24
 450:LUFA//Drivers/USB/Class/Device/../../Core/XMEGA/../XMEGA/Endpoint_XMEGA.h **** 				USB_Endpoint_SelectedFIFO->Position  = 0;
 1318               		.loc 1 450 0
 1319 008c E091 0000 		lds r30,USB_Endpoint_SelectedFIFO
 1320 0090 F091 0000 		lds r31,USB_Endpoint_SelectedFIFO+1
 1321 0094 EF5B      		subi r30,lo8(-(65))
 1322 0096 FF4F      		sbci r31,hi8(-(65))
 1323 0098 1082      		st Z,__zero_reg__
 1324               	.LBE167:
 1325               	.LBE166:
 207:LUFA//Drivers/USB/Class/Device/CDCClassDevice.c **** 	if (BankFull)
 1326               		.loc 2 207 0
 1327 009a 3217      		cp r19,r18
 1328 009c 00F0      		brlo .L45
 209:LUFA//Drivers/USB/Class/Device/CDCClassDevice.c **** 		if ((ErrorCode = Endpoint_WaitUntilReady()) != ENDPOINT_READYWAIT_NoError)
 1329               		.loc 2 209 0
 1330 009e 0E94 0000 		call Endpoint_WaitUntilReady
 1331               	.LVL54:
 1332 00a2 8823      		tst r24
 1333 00a4 01F4      		brne .L39
 1334               	.LBB168:
 1335               	.LBB169:
 448:LUFA//Drivers/USB/Class/Device/../../Core/XMEGA/../XMEGA/Endpoint_XMEGA.h **** 				USB_Endpoint_SelectedHandle->CNT     = USB_Endpoint_SelectedFIFO->Position;
 1336               		.loc 1 448 0
 1337 00a6 E091 0000 		lds r30,USB_Endpoint_SelectedHandle
 1338 00aa F091 0000 		lds r31,USB_Endpoint_SelectedHandle+1
 1339 00ae A091 0000 		lds r26,USB_Endpoint_SelectedFIFO
 1340 00b2 B091 0000 		lds r27,USB_Endpoint_SelectedFIFO+1
 1341 00b6 AF5B      		subi r26,lo8(-(65))
 1342 00b8 BF4F      		sbci r27,hi8(-(65))
 1343 00ba 2C91      		ld r18,X
 1344 00bc 30E0      		ldi r19,lo8(0)
 1345 00be 2283      		std Z+2,r18
 1346 00c0 3383      		std Z+3,r19
 449:LUFA//Drivers/USB/Class/Device/../../Core/XMEGA/../XMEGA/Endpoint_XMEGA.h **** 				USB_Endpoint_SelectedHandle->STATUS &= ~(USB_EP_TRNCOMPL0_bm | USB_EP_BUSNACK0_bm | USB_EP_OVF_
 1347               		.loc 1 449 0
 1348 00c2 9081      		ld r25,Z
 1349 00c4 9D79      		andi r25,lo8(-99)
 1350 00c6 9083      		st Z,r25
 450:LUFA//Drivers/USB/Class/Device/../../Core/XMEGA/../XMEGA/Endpoint_XMEGA.h **** 				USB_Endpoint_SelectedFIFO->Position  = 0;
 1351               		.loc 1 450 0
 1352 00c8 E091 0000 		lds r30,USB_Endpoint_SelectedFIFO
 1353 00cc F091 0000 		lds r31,USB_Endpoint_SelectedFIFO+1
 1354 00d0 EF5B      		subi r30,lo8(-(65))
 1355 00d2 FF4F      		sbci r31,hi8(-(65))
 1356 00d4 1082      		st Z,__zero_reg__
 1357 00d6 0895      		ret
 1358               	.LVL55:
 1359               	.L43:
 1360               	.LBE169:
 1361               	.LBE168:
 194:LUFA//Drivers/USB/Class/Device/CDCClassDevice.c **** 	  return ENDPOINT_RWSTREAM_DeviceDisconnected;
 1362               		.loc 2 194 0
 1363 00d8 82E0      		ldi r24,lo8(2)
 1364 00da 0895      		ret
 1365               	.LVL56:
 1366               	.L44:
 201:LUFA//Drivers/USB/Class/Device/CDCClassDevice.c **** 	  return ENDPOINT_READYWAIT_NoError;
 1367               		.loc 2 201 0
 1368 00dc 80E0      		ldi r24,lo8(0)
 1369 00de 0895      		ret
 1370               	.LVL57:
 1371               	.L45:
 215:LUFA//Drivers/USB/Class/Device/CDCClassDevice.c **** 	return ENDPOINT_READYWAIT_NoError;
 1372               		.loc 2 215 0
 1373 00e0 80E0      		ldi r24,lo8(0)
 1374               	.LVL58:
 1375               	.L39:
 216:LUFA//Drivers/USB/Class/Device/CDCClassDevice.c **** }
 1376               		.loc 2 216 0
 1377 00e2 0895      		ret
 1378               		.cfi_endproc
 1379               	.LFE89:
 1381               		.section	.text.CDC_Device_USBTask,"ax",@progbits
 1382               	.global	CDC_Device_USBTask
 1384               	CDC_Device_USBTask:
 1385               	.LFB85:
 136:LUFA//Drivers/USB/Class/Device/CDCClassDevice.c **** {
 1386               		.loc 2 136 0
 1387               		.cfi_startproc
 1388               	.LVL59:
 1389 0000 CF93      		push r28
 1390               	.LCFI20:
 1391               		.cfi_def_cfa_offset 3
 1392               		.cfi_offset 28, -2
 1393 0002 DF93      		push r29
 1394               	.LCFI21:
 1395               		.cfi_def_cfa_offset 4
 1396               		.cfi_offset 29, -3
 1397               	/* prologue: function */
 1398               	/* frame size = 0 */
 1399               	/* stack size = 2 */
 1400               	.L__stack_usage = 2
 1401 0004 EC01      		movw r28,r24
 137:LUFA//Drivers/USB/Class/Device/CDCClassDevice.c **** 	if ((USB_DeviceState != DEVICE_STATE_Configured) || !(CDCInterfaceInfo->State.LineEncoding.BaudRat
 1402               		.loc 2 137 0
 1403 0006 8091 0000 		lds r24,USB_DeviceState
 1404               	.LVL60:
 1405 000a 8430      		cpi r24,lo8(4)
 1406 000c 01F4      		brne .L46
 137:LUFA//Drivers/USB/Class/Device/CDCClassDevice.c **** 	if ((USB_DeviceState != DEVICE_STATE_Configured) || !(CDCInterfaceInfo->State.LineEncoding.BaudRat
 1407               		.loc 2 137 0 is_stmt 0 discriminator 1
 1408 000e 8C89      		ldd r24,Y+20
 1409 0010 9D89      		ldd r25,Y+21
 1410 0012 AE89      		ldd r26,Y+22
 1411 0014 BF89      		ldd r27,Y+23
 1412 0016 0097      		sbiw r24,0
 1413 0018 A105      		cpc r26,__zero_reg__
 1414 001a B105      		cpc r27,__zero_reg__
 1415 001c 01F0      		breq .L46
 141:LUFA//Drivers/USB/Class/Device/CDCClassDevice.c **** 	Endpoint_SelectEndpoint(CDCInterfaceInfo->Config.DataINEndpoint.Address);
 1416               		.loc 2 141 0 is_stmt 1
 1417 001e 8981      		ldd r24,Y+1
 1418 0020 0E94 0000 		call Endpoint_SelectEndpoint
 1419               	.LBB170:
 1420               	.LBB171:
 375:LUFA//Drivers/USB/Class/Device/../../Core/XMEGA/../XMEGA/Endpoint_XMEGA.h **** 				Endpoint_SelectEndpoint(USB_Endpoint_SelectedEndpoint | ENDPOINT_DIR_IN);
 1421               		.loc 1 375 0
 1422 0024 8091 0000 		lds r24,USB_Endpoint_SelectedEndpoint
 1423 0028 8068      		ori r24,lo8(-128)
 1424 002a 0E94 0000 		call Endpoint_SelectEndpoint
 377:LUFA//Drivers/USB/Class/Device/../../Core/XMEGA/../XMEGA/Endpoint_XMEGA.h **** 				return ((USB_Endpoint_SelectedHandle->STATUS & USB_EP_BUSNACK0_bm) ? true : false);
 1425               		.loc 1 377 0
 1426 002e E091 0000 		lds r30,USB_Endpoint_SelectedHandle
 1427 0032 F091 0000 		lds r31,USB_Endpoint_SelectedHandle+1
 1428 0036 8081      		ld r24,Z
 1429               	.LBE171:
 1430               	.LBE170:
 143:LUFA//Drivers/USB/Class/Device/CDCClassDevice.c **** 	if (Endpoint_IsINReady())
 1431               		.loc 2 143 0
 1432 0038 81FF      		sbrs r24,1
 1433 003a 00C0      		rjmp .L46
 144:LUFA//Drivers/USB/Class/Device/CDCClassDevice.c **** 	  CDC_Device_Flush(CDCInterfaceInfo);
 1434               		.loc 2 144 0
 1435 003c CE01      		movw r24,r28
 1436 003e 0E94 0000 		call CDC_Device_Flush
 1437               	.L46:
 1438               	/* epilogue start */
 146:LUFA//Drivers/USB/Class/Device/CDCClassDevice.c **** }
 1439               		.loc 2 146 0
 1440 0042 DF91      		pop r29
 1441 0044 CF91      		pop r28
 1442               	.LVL61:
 1443 0046 0895      		ret
 1444               		.cfi_endproc
 1445               	.LFE85:
 1447               		.section	.text.CDC_Device_BytesReceived,"ax",@progbits
 1448               	.global	CDC_Device_BytesReceived
 1450               	CDC_Device_BytesReceived:
 1451               	.LFB90:
 219:LUFA//Drivers/USB/Class/Device/CDCClassDevice.c **** {
 1452               		.loc 2 219 0
 1453               		.cfi_startproc
 1454               	.LVL62:
 1455 0000 CF93      		push r28
 1456               	.LCFI22:
 1457               		.cfi_def_cfa_offset 3
 1458               		.cfi_offset 28, -2
 1459 0002 DF93      		push r29
 1460               	.LCFI23:
 1461               		.cfi_def_cfa_offset 4
 1462               		.cfi_offset 29, -3
 1463               	/* prologue: function */
 1464               	/* frame size = 0 */
 1465               	/* stack size = 2 */
 1466               	.L__stack_usage = 2
 1467 0004 FC01      		movw r30,r24
 220:LUFA//Drivers/USB/Class/Device/CDCClassDevice.c **** 	if ((USB_DeviceState != DEVICE_STATE_Configured) || !(CDCInterfaceInfo->State.LineEncoding.BaudRat
 1468               		.loc 2 220 0
 1469 0006 8091 0000 		lds r24,USB_DeviceState
 1470               	.LVL63:
 1471 000a 8430      		cpi r24,lo8(4)
 1472 000c 01F0      		breq .+2
 1473 000e 00C0      		rjmp .L56
 220:LUFA//Drivers/USB/Class/Device/CDCClassDevice.c **** 	if ((USB_DeviceState != DEVICE_STATE_Configured) || !(CDCInterfaceInfo->State.LineEncoding.BaudRat
 1474               		.loc 2 220 0 is_stmt 0 discriminator 1
 1475 0010 4489      		ldd r20,Z+20
 1476 0012 5589      		ldd r21,Z+21
 1477 0014 6689      		ldd r22,Z+22
 1478 0016 7789      		ldd r23,Z+23
 1479 0018 4115      		cp r20,__zero_reg__
 1480 001a 5105      		cpc r21,__zero_reg__
 1481 001c 6105      		cpc r22,__zero_reg__
 1482 001e 7105      		cpc r23,__zero_reg__
 1483 0020 01F4      		brne .+2
 1484 0022 00C0      		rjmp .L56
 223:LUFA//Drivers/USB/Class/Device/CDCClassDevice.c **** 	Endpoint_SelectEndpoint(CDCInterfaceInfo->Config.DataOUTEndpoint.Address);
 1485               		.loc 2 223 0 is_stmt 1
 1486 0024 8681      		ldd r24,Z+6
 1487 0026 0E94 0000 		call Endpoint_SelectEndpoint
 1488               	.LVL64:
 1489               	.LBB172:
 1490               	.LBB173:
 389:LUFA//Drivers/USB/Class/Device/../../Core/XMEGA/../XMEGA/Endpoint_XMEGA.h **** 				Endpoint_SelectEndpoint(USB_Endpoint_SelectedEndpoint & ~ENDPOINT_DIR_IN);
 1491               		.loc 1 389 0
 1492 002a 8091 0000 		lds r24,USB_Endpoint_SelectedEndpoint
 1493 002e 8F77      		andi r24,lo8(127)
 1494 0030 0E94 0000 		call Endpoint_SelectEndpoint
 391:LUFA//Drivers/USB/Class/Device/../../Core/XMEGA/../XMEGA/Endpoint_XMEGA.h **** 				if (USB_Endpoint_SelectedHandle->STATUS & USB_EP_TRNCOMPL0_bm)
 1495               		.loc 1 391 0
 1496 0034 E091 0000 		lds r30,USB_Endpoint_SelectedHandle
 1497 0038 F091 0000 		lds r31,USB_Endpoint_SelectedHandle+1
 1498 003c 8081      		ld r24,Z
 1499 003e 85FF      		sbrs r24,5
 1500 0040 00C0      		rjmp .L56
 393:LUFA//Drivers/USB/Class/Device/../../Core/XMEGA/../XMEGA/Endpoint_XMEGA.h **** 					USB_Endpoint_SelectedFIFO->Length = USB_Endpoint_SelectedHandle->CNT;
 1501               		.loc 1 393 0
 1502 0042 8091 0000 		lds r24,USB_Endpoint_SelectedFIFO
 1503 0046 9091 0000 		lds r25,USB_Endpoint_SelectedFIFO+1
 1504 004a 2281      		ldd r18,Z+2
 1505 004c 3381      		ldd r19,Z+3
 1506 004e EC01      		movw r28,r24
 1507 0050 C05C      		subi r28,lo8(-(64))
 1508 0052 DF4F      		sbci r29,hi8(-(64))
 1509 0054 2883      		st Y,r18
 1510               	.LBE173:
 1511               	.LBE172:
 1512               	.LBB175:
 1513               	.LBB176:
 285:LUFA//Drivers/USB/Class/Device/../../Core/XMEGA/../XMEGA/Endpoint_XMEGA.h **** 				if (USB_Endpoint_SelectedEndpoint & ENDPOINT_DIR_IN)
 1514               		.loc 1 285 0
 1515 0056 2091 0000 		lds r18,USB_Endpoint_SelectedEndpoint
 1516 005a DC01      		movw r26,r24
 1517 005c AF5B      		subi r26,lo8(-(65))
 1518 005e BF4F      		sbci r27,hi8(-(65))
 1519 0060 27FF      		sbrs r18,7
 1520 0062 00C0      		rjmp .L50
 286:LUFA//Drivers/USB/Class/Device/../../Core/XMEGA/../XMEGA/Endpoint_XMEGA.h **** 				  return USB_Endpoint_SelectedFIFO->Position;
 1521               		.loc 1 286 0
 1522 0064 2C91      		ld r18,X
 1523 0066 30E0      		ldi r19,lo8(0)
 1524 0068 00C0      		rjmp .L51
 1525               	.L50:
 288:LUFA//Drivers/USB/Class/Device/../../Core/XMEGA/../XMEGA/Endpoint_XMEGA.h **** 				  return (USB_Endpoint_SelectedFIFO->Length - USB_Endpoint_SelectedFIFO->Position);
 1526               		.loc 1 288 0
 1527 006a 2881      		ld r18,Y
 1528 006c 4C91      		ld r20,X
 1529 006e 30E0      		ldi r19,lo8(0)
 1530 0070 241B      		sub r18,r20
 1531 0072 3109      		sbc r19,__zero_reg__
 1532               	.L51:
 1533               	.LBE176:
 1534               	.LBE175:
 227:LUFA//Drivers/USB/Class/Device/CDCClassDevice.c **** 		if (!(Endpoint_BytesInEndpoint()))
 1535               		.loc 2 227 0
 1536 0074 2115      		cp r18,__zero_reg__
 1537 0076 3105      		cpc r19,__zero_reg__
 1538 0078 01F4      		brne .L52
 1539               	.LBB177:
 1540               	.LBB178:
 461:LUFA//Drivers/USB/Class/Device/../../Core/XMEGA/../XMEGA/Endpoint_XMEGA.h **** 				USB_Endpoint_SelectedHandle->STATUS &= ~(USB_EP_TRNCOMPL0_bm | USB_EP_BUSNACK0_bm | USB_EP_OVF_
 1541               		.loc 1 461 0
 1542 007a 8081      		ld r24,Z
 1543 007c 8D79      		andi r24,lo8(-99)
 1544 007e 8083      		st Z,r24
 462:LUFA//Drivers/USB/Class/Device/../../Core/XMEGA/../XMEGA/Endpoint_XMEGA.h **** 				USB_Endpoint_SelectedFIFO->Position  = 0;
 1545               		.loc 1 462 0
 1546 0080 E091 0000 		lds r30,USB_Endpoint_SelectedFIFO
 1547 0084 F091 0000 		lds r31,USB_Endpoint_SelectedFIFO+1
 1548 0088 EF5B      		subi r30,lo8(-(65))
 1549 008a FF4F      		sbci r31,hi8(-(65))
 1550 008c 1082      		st Z,__zero_reg__
 1551 008e 00C0      		rjmp .L56
 1552               	.L52:
 1553               	.LBE178:
 1554               	.LBE177:
 1555               	.LBB179:
 1556               	.LBB180:
 285:LUFA//Drivers/USB/Class/Device/../../Core/XMEGA/../XMEGA/Endpoint_XMEGA.h **** 				if (USB_Endpoint_SelectedEndpoint & ENDPOINT_DIR_IN)
 1557               		.loc 1 285 0
 1558 0090 2091 0000 		lds r18,USB_Endpoint_SelectedEndpoint
 1559 0094 FC01      		movw r30,r24
 1560 0096 EF5B      		subi r30,lo8(-(65))
 1561 0098 FF4F      		sbci r31,hi8(-(65))
 1562 009a 27FF      		sbrs r18,7
 1563 009c 00C0      		rjmp .L53
 286:LUFA//Drivers/USB/Class/Device/../../Core/XMEGA/../XMEGA/Endpoint_XMEGA.h **** 				  return USB_Endpoint_SelectedFIFO->Position;
 1564               		.loc 1 286 0
 1565 009e 8081      		ld r24,Z
 1566 00a0 90E0      		ldi r25,lo8(0)
 1567 00a2 00C0      		rjmp .L49
 1568               	.L53:
 288:LUFA//Drivers/USB/Class/Device/../../Core/XMEGA/../XMEGA/Endpoint_XMEGA.h **** 				  return (USB_Endpoint_SelectedFIFO->Length - USB_Endpoint_SelectedFIFO->Position);
 1569               		.loc 1 288 0
 1570 00a4 805C      		subi r24,lo8(-(64))
 1571 00a6 9F4F      		sbci r25,hi8(-(64))
 1572 00a8 DC01      		movw r26,r24
 1573 00aa 8C91      		ld r24,X
 1574 00ac 2081      		ld r18,Z
 1575 00ae 90E0      		ldi r25,lo8(0)
 1576 00b0 821B      		sub r24,r18
 1577 00b2 9109      		sbc r25,__zero_reg__
 1578 00b4 00C0      		rjmp .L49
 1579               	.L56:
 1580               	.LBE180:
 1581               	.LBE179:
 1582               	.LBB181:
 1583               	.LBB174:
 239:LUFA//Drivers/USB/Class/Device/CDCClassDevice.c **** 		return 0;
 1584               		.loc 2 239 0
 1585 00b6 80E0      		ldi r24,lo8(0)
 1586 00b8 90E0      		ldi r25,hi8(0)
 1587               	.L49:
 1588               	/* epilogue start */
 1589               	.LBE174:
 1590               	.LBE181:
 241:LUFA//Drivers/USB/Class/Device/CDCClassDevice.c **** }
 1591               		.loc 2 241 0
 1592 00ba DF91      		pop r29
 1593 00bc CF91      		pop r28
 1594 00be 0895      		ret
 1595               		.cfi_endproc
 1596               	.LFE90:
 1598               		.section	.text.CDC_Device_ReceiveByte,"ax",@progbits
 1599               	.global	CDC_Device_ReceiveByte
 1601               	CDC_Device_ReceiveByte:
 1602               	.LFB91:
 244:LUFA//Drivers/USB/Class/Device/CDCClassDevice.c **** {
 1603               		.loc 2 244 0
 1604               		.cfi_startproc
 1605               	.LVL65:
 1606 0000 CF93      		push r28
 1607               	.LCFI24:
 1608               		.cfi_def_cfa_offset 3
 1609               		.cfi_offset 28, -2
 1610 0002 DF93      		push r29
 1611               	.LCFI25:
 1612               		.cfi_def_cfa_offset 4
 1613               		.cfi_offset 29, -3
 1614               	/* prologue: function */
 1615               	/* frame size = 0 */
 1616               	/* stack size = 2 */
 1617               	.L__stack_usage = 2
 1618 0004 FC01      		movw r30,r24
 245:LUFA//Drivers/USB/Class/Device/CDCClassDevice.c **** 	if ((USB_DeviceState != DEVICE_STATE_Configured) || !(CDCInterfaceInfo->State.LineEncoding.BaudRat
 1619               		.loc 2 245 0
 1620 0006 8091 0000 		lds r24,USB_DeviceState
 1621               	.LVL66:
 1622 000a 8430      		cpi r24,lo8(4)
 1623 000c 01F0      		breq .+2
 1624 000e 00C0      		rjmp .L66
 245:LUFA//Drivers/USB/Class/Device/CDCClassDevice.c **** 	if ((USB_DeviceState != DEVICE_STATE_Configured) || !(CDCInterfaceInfo->State.LineEncoding.BaudRat
 1625               		.loc 2 245 0 is_stmt 0 discriminator 1
 1626 0010 4489      		ldd r20,Z+20
 1627 0012 5589      		ldd r21,Z+21
 1628 0014 6689      		ldd r22,Z+22
 1629 0016 7789      		ldd r23,Z+23
 1630 0018 4115      		cp r20,__zero_reg__
 1631 001a 5105      		cpc r21,__zero_reg__
 1632 001c 6105      		cpc r22,__zero_reg__
 1633 001e 7105      		cpc r23,__zero_reg__
 1634 0020 01F4      		brne .+2
 1635 0022 00C0      		rjmp .L66
 1636               	.LVL67:
 250:LUFA//Drivers/USB/Class/Device/CDCClassDevice.c **** 	Endpoint_SelectEndpoint(CDCInterfaceInfo->Config.DataOUTEndpoint.Address);
 1637               		.loc 2 250 0 is_stmt 1
 1638 0024 8681      		ldd r24,Z+6
 1639 0026 0E94 0000 		call Endpoint_SelectEndpoint
 1640               	.LVL68:
 1641               	.LBB182:
 1642               	.LBB183:
 389:LUFA//Drivers/USB/Class/Device/../../Core/XMEGA/../XMEGA/Endpoint_XMEGA.h **** 				Endpoint_SelectEndpoint(USB_Endpoint_SelectedEndpoint & ~ENDPOINT_DIR_IN);
 1643               		.loc 1 389 0
 1644 002a 8091 0000 		lds r24,USB_Endpoint_SelectedEndpoint
 1645 002e 8F77      		andi r24,lo8(127)
 1646 0030 0E94 0000 		call Endpoint_SelectEndpoint
 391:LUFA//Drivers/USB/Class/Device/../../Core/XMEGA/../XMEGA/Endpoint_XMEGA.h **** 				if (USB_Endpoint_SelectedHandle->STATUS & USB_EP_TRNCOMPL0_bm)
 1647               		.loc 1 391 0
 1648 0034 C091 0000 		lds r28,USB_Endpoint_SelectedHandle
 1649 0038 D091 0000 		lds r29,USB_Endpoint_SelectedHandle+1
 1650 003c 8881      		ld r24,Y
 1651 003e 85FF      		sbrs r24,5
 1652 0040 00C0      		rjmp .L66
 393:LUFA//Drivers/USB/Class/Device/../../Core/XMEGA/../XMEGA/Endpoint_XMEGA.h **** 					USB_Endpoint_SelectedFIFO->Length = USB_Endpoint_SelectedHandle->CNT;
 1653               		.loc 1 393 0
 1654 0042 2091 0000 		lds r18,USB_Endpoint_SelectedFIFO
 1655 0046 3091 0000 		lds r19,USB_Endpoint_SelectedFIFO+1
 1656 004a 8A81      		ldd r24,Y+2
 1657 004c 9B81      		ldd r25,Y+3
 1658 004e F901      		movw r30,r18
 1659 0050 E05C      		subi r30,lo8(-(64))
 1660 0052 FF4F      		sbci r31,hi8(-(64))
 1661 0054 8083      		st Z,r24
 1662               	.LBE183:
 1663               	.LBE182:
 1664               	.LBB185:
 1665               	.LBB186:
 285:LUFA//Drivers/USB/Class/Device/../../Core/XMEGA/../XMEGA/Endpoint_XMEGA.h **** 				if (USB_Endpoint_SelectedEndpoint & ENDPOINT_DIR_IN)
 1666               		.loc 1 285 0
 1667 0056 8091 0000 		lds r24,USB_Endpoint_SelectedEndpoint
 1668 005a D901      		movw r26,r18
 1669 005c AF5B      		subi r26,lo8(-(65))
 1670 005e BF4F      		sbci r27,hi8(-(65))
 1671 0060 87FF      		sbrs r24,7
 1672 0062 00C0      		rjmp .L59
 286:LUFA//Drivers/USB/Class/Device/../../Core/XMEGA/../XMEGA/Endpoint_XMEGA.h **** 				  return USB_Endpoint_SelectedFIFO->Position;
 1673               		.loc 1 286 0
 1674 0064 8C91      		ld r24,X
 1675 0066 90E0      		ldi r25,lo8(0)
 1676 0068 00C0      		rjmp .L60
 1677               	.L59:
 288:LUFA//Drivers/USB/Class/Device/../../Core/XMEGA/../XMEGA/Endpoint_XMEGA.h **** 				  return (USB_Endpoint_SelectedFIFO->Length - USB_Endpoint_SelectedFIFO->Position);
 1678               		.loc 1 288 0
 1679 006a 8081      		ld r24,Z
 1680 006c 4C91      		ld r20,X
 1681 006e 90E0      		ldi r25,lo8(0)
 1682 0070 841B      		sub r24,r20
 1683 0072 9109      		sbc r25,__zero_reg__
 1684               	.L60:
 1685               	.LBE186:
 1686               	.LBE185:
 254:LUFA//Drivers/USB/Class/Device/CDCClassDevice.c **** 		if (Endpoint_BytesInEndpoint())
 1687               		.loc 2 254 0
 1688 0074 0097      		sbiw r24,0
 1689 0076 01F0      		breq .L67
 1690               	.LBB187:
 1691               	.LBB188:
 536:LUFA//Drivers/USB/Class/Device/../../Core/XMEGA/../XMEGA/Endpoint_XMEGA.h **** 				return USB_Endpoint_SelectedFIFO->Data[USB_Endpoint_SelectedFIFO->Position++];
 1692               		.loc 1 536 0
 1693 0078 F901      		movw r30,r18
 1694 007a EF5B      		subi r30,lo8(-(65))
 1695 007c FF4F      		sbci r31,hi8(-(65))
 1696 007e 9081      		ld r25,Z
 1697 0080 D901      		movw r26,r18
 1698 0082 A90F      		add r26,r25
 1699 0084 B11D      		adc r27,__zero_reg__
 1700 0086 8C91      		ld r24,X
 1701 0088 9F5F      		subi r25,lo8(-(1))
 1702 008a 9083      		st Z,r25
 1703               	.LBE188:
 1704               	.LBE187:
 255:LUFA//Drivers/USB/Class/Device/CDCClassDevice.c **** 		  ReceivedByte = Endpoint_Read_8();
 1705               		.loc 2 255 0
 1706 008c 90E0      		ldi r25,lo8(0)
 1707               	.LVL69:
 1708 008e 00C0      		rjmp .L61
 1709               	.LVL70:
 1710               	.L67:
 248:LUFA//Drivers/USB/Class/Device/CDCClassDevice.c **** 	int16_t ReceivedByte = -1;
 1711               		.loc 2 248 0
 1712 0090 8FEF      		ldi r24,lo8(-1)
 1713 0092 9FEF      		ldi r25,hi8(-1)
 1714               	.LVL71:
 1715               	.L61:
 1716               	.LBB189:
 1717               	.LBB190:
 285:LUFA//Drivers/USB/Class/Device/../../Core/XMEGA/../XMEGA/Endpoint_XMEGA.h **** 				if (USB_Endpoint_SelectedEndpoint & ENDPOINT_DIR_IN)
 1718               		.loc 1 285 0
 1719 0094 4091 0000 		lds r20,USB_Endpoint_SelectedEndpoint
 1720 0098 F901      		movw r30,r18
 1721 009a EF5B      		subi r30,lo8(-(65))
 1722 009c FF4F      		sbci r31,hi8(-(65))
 1723 009e 47FF      		sbrs r20,7
 1724 00a0 00C0      		rjmp .L62
 286:LUFA//Drivers/USB/Class/Device/../../Core/XMEGA/../XMEGA/Endpoint_XMEGA.h **** 				  return USB_Endpoint_SelectedFIFO->Position;
 1725               		.loc 1 286 0
 1726 00a2 2081      		ld r18,Z
 1727 00a4 30E0      		ldi r19,lo8(0)
 1728 00a6 00C0      		rjmp .L63
 1729               	.L62:
 288:LUFA//Drivers/USB/Class/Device/../../Core/XMEGA/../XMEGA/Endpoint_XMEGA.h **** 				  return (USB_Endpoint_SelectedFIFO->Length - USB_Endpoint_SelectedFIFO->Position);
 1730               		.loc 1 288 0
 1731 00a8 205C      		subi r18,lo8(-(64))
 1732 00aa 3F4F      		sbci r19,hi8(-(64))
 1733 00ac D901      		movw r26,r18
 1734 00ae 2C91      		ld r18,X
 1735 00b0 4081      		ld r20,Z
 1736 00b2 30E0      		ldi r19,lo8(0)
 1737 00b4 241B      		sub r18,r20
 1738 00b6 3109      		sbc r19,__zero_reg__
 1739               	.L63:
 1740               	.LBE190:
 1741               	.LBE189:
 257:LUFA//Drivers/USB/Class/Device/CDCClassDevice.c **** 		if (!(Endpoint_BytesInEndpoint()))
 1742               		.loc 2 257 0
 1743 00b8 2115      		cp r18,__zero_reg__
 1744 00ba 3105      		cpc r19,__zero_reg__
 1745 00bc 01F4      		brne .L58
 1746               	.LBB191:
 1747               	.LBB192:
 461:LUFA//Drivers/USB/Class/Device/../../Core/XMEGA/../XMEGA/Endpoint_XMEGA.h **** 				USB_Endpoint_SelectedHandle->STATUS &= ~(USB_EP_TRNCOMPL0_bm | USB_EP_BUSNACK0_bm | USB_EP_OVF_
 1748               		.loc 1 461 0
 1749 00be 2881      		ld r18,Y
 1750 00c0 2D79      		andi r18,lo8(-99)
 1751 00c2 2883      		st Y,r18
 462:LUFA//Drivers/USB/Class/Device/../../Core/XMEGA/../XMEGA/Endpoint_XMEGA.h **** 				USB_Endpoint_SelectedFIFO->Position  = 0;
 1752               		.loc 1 462 0
 1753 00c4 E091 0000 		lds r30,USB_Endpoint_SelectedFIFO
 1754 00c8 F091 0000 		lds r31,USB_Endpoint_SelectedFIFO+1
 1755 00cc EF5B      		subi r30,lo8(-(65))
 1756 00ce FF4F      		sbci r31,hi8(-(65))
 1757 00d0 1082      		st Z,__zero_reg__
 1758 00d2 00C0      		rjmp .L58
 1759               	.LVL72:
 1760               	.L66:
 1761               	.LBE192:
 1762               	.LBE191:
 1763               	.LBB193:
 1764               	.LBB184:
 248:LUFA//Drivers/USB/Class/Device/CDCClassDevice.c **** 	int16_t ReceivedByte = -1;
 1765               		.loc 2 248 0
 1766 00d4 8FEF      		ldi r24,lo8(-1)
 1767 00d6 9FEF      		ldi r25,hi8(-1)
 1768               	.L58:
 1769               	/* epilogue start */
 1770               	.LBE184:
 1771               	.LBE193:
 262:LUFA//Drivers/USB/Class/Device/CDCClassDevice.c **** }
 1772               		.loc 2 262 0
 1773 00d8 DF91      		pop r29
 1774 00da CF91      		pop r28
 1775 00dc 0895      		ret
 1776               		.cfi_endproc
 1777               	.LFE91:
 1779               		.section	.text.CDC_Device_getchar_Blocking,"ax",@progbits
 1781               	CDC_Device_getchar_Blocking:
 1782               	.LFB97:
 307:LUFA//Drivers/USB/Class/Device/CDCClassDevice.c **** 
 308:LUFA//Drivers/USB/Class/Device/CDCClassDevice.c **** static int CDC_Device_getchar(FILE* Stream)
 309:LUFA//Drivers/USB/Class/Device/CDCClassDevice.c **** {
 310:LUFA//Drivers/USB/Class/Device/CDCClassDevice.c **** 	int16_t ReceivedByte = CDC_Device_ReceiveByte((USB_ClassInfo_CDC_Device_t*)fdev_get_udata(Stream))
 311:LUFA//Drivers/USB/Class/Device/CDCClassDevice.c **** 
 312:LUFA//Drivers/USB/Class/Device/CDCClassDevice.c **** 	if (ReceivedByte < 0)
 313:LUFA//Drivers/USB/Class/Device/CDCClassDevice.c **** 	  return _FDEV_EOF;
 314:LUFA//Drivers/USB/Class/Device/CDCClassDevice.c **** 
 315:LUFA//Drivers/USB/Class/Device/CDCClassDevice.c **** 	return ReceivedByte;
 316:LUFA//Drivers/USB/Class/Device/CDCClassDevice.c **** }
 317:LUFA//Drivers/USB/Class/Device/CDCClassDevice.c **** 
 318:LUFA//Drivers/USB/Class/Device/CDCClassDevice.c **** static int CDC_Device_getchar_Blocking(FILE* Stream)
 319:LUFA//Drivers/USB/Class/Device/CDCClassDevice.c **** {
 1783               		.loc 2 319 0
 1784               		.cfi_startproc
 1785               	.LVL73:
 1786 0000 CF93      		push r28
 1787               	.LCFI26:
 1788               		.cfi_def_cfa_offset 3
 1789               		.cfi_offset 28, -2
 1790 0002 DF93      		push r29
 1791               	.LCFI27:
 1792               		.cfi_def_cfa_offset 4
 1793               		.cfi_offset 29, -3
 1794               	/* prologue: function */
 1795               	/* frame size = 0 */
 1796               	/* stack size = 2 */
 1797               	.L__stack_usage = 2
 1798 0004 EC01      		movw r28,r24
 320:LUFA//Drivers/USB/Class/Device/CDCClassDevice.c **** 	int16_t ReceivedByte;
 321:LUFA//Drivers/USB/Class/Device/CDCClassDevice.c **** 
 322:LUFA//Drivers/USB/Class/Device/CDCClassDevice.c **** 	while ((ReceivedByte = CDC_Device_ReceiveByte((USB_ClassInfo_CDC_Device_t*)fdev_get_udata(Stream))
 1799               		.loc 2 322 0
 1800 0006 00C0      		rjmp .L69
 1801               	.LVL74:
 1802               	.L71:
 323:LUFA//Drivers/USB/Class/Device/CDCClassDevice.c **** 	{
 324:LUFA//Drivers/USB/Class/Device/CDCClassDevice.c **** 		if (USB_DeviceState == DEVICE_STATE_Unattached)
 1803               		.loc 2 324 0
 1804 0008 8091 0000 		lds r24,USB_DeviceState
 1805               	.LVL75:
 1806 000c 8823      		tst r24
 1807 000e 01F0      		breq .L72
 325:LUFA//Drivers/USB/Class/Device/CDCClassDevice.c **** 		  return _FDEV_EOF;
 326:LUFA//Drivers/USB/Class/Device/CDCClassDevice.c **** 
 327:LUFA//Drivers/USB/Class/Device/CDCClassDevice.c **** 		CDC_Device_USBTask((USB_ClassInfo_CDC_Device_t*)fdev_get_udata(Stream));
 1808               		.loc 2 327 0
 1809 0010 8C85      		ldd r24,Y+12
 1810 0012 9D85      		ldd r25,Y+13
 1811 0014 0E94 0000 		call CDC_Device_USBTask
 328:LUFA//Drivers/USB/Class/Device/CDCClassDevice.c **** 		USB_USBTask();
 1812               		.loc 2 328 0
 1813 0018 0E94 0000 		call USB_USBTask
 1814               	.L69:
 322:LUFA//Drivers/USB/Class/Device/CDCClassDevice.c **** 	while ((ReceivedByte = CDC_Device_ReceiveByte((USB_ClassInfo_CDC_Device_t*)fdev_get_udata(Stream))
 1815               		.loc 2 322 0 discriminator 1
 1816 001c 8C85      		ldd r24,Y+12
 1817 001e 9D85      		ldd r25,Y+13
 1818 0020 0E94 0000 		call CDC_Device_ReceiveByte
 1819               	.LVL76:
 1820 0024 97FD      		sbrc r25,7
 1821 0026 00C0      		rjmp .L71
 1822 0028 00C0      		rjmp .L70
 1823               	.LVL77:
 1824               	.L72:
 325:LUFA//Drivers/USB/Class/Device/CDCClassDevice.c **** 		  return _FDEV_EOF;
 1825               		.loc 2 325 0
 1826 002a 8EEF      		ldi r24,lo8(-2)
 1827 002c 9FEF      		ldi r25,hi8(-2)
 1828               	.L70:
 1829               	/* epilogue start */
 329:LUFA//Drivers/USB/Class/Device/CDCClassDevice.c **** 	}
 330:LUFA//Drivers/USB/Class/Device/CDCClassDevice.c **** 
 331:LUFA//Drivers/USB/Class/Device/CDCClassDevice.c **** 	return ReceivedByte;
 332:LUFA//Drivers/USB/Class/Device/CDCClassDevice.c **** }
 1830               		.loc 2 332 0
 1831 002e DF91      		pop r29
 1832 0030 CF91      		pop r28
 1833               	.LVL78:
 1834 0032 0895      		ret
 1835               		.cfi_endproc
 1836               	.LFE97:
 1838               		.section	.text.CDC_Device_getchar,"ax",@progbits
 1840               	CDC_Device_getchar:
 1841               	.LFB96:
 309:LUFA//Drivers/USB/Class/Device/CDCClassDevice.c **** {
 1842               		.loc 2 309 0
 1843               		.cfi_startproc
 1844               	.LVL79:
 1845               	/* prologue: function */
 1846               	/* frame size = 0 */
 1847               	/* stack size = 0 */
 1848               	.L__stack_usage = 0
 310:LUFA//Drivers/USB/Class/Device/CDCClassDevice.c **** 	int16_t ReceivedByte = CDC_Device_ReceiveByte((USB_ClassInfo_CDC_Device_t*)fdev_get_udata(Stream))
 1849               		.loc 2 310 0
 1850 0000 FC01      		movw r30,r24
 1851 0002 8485      		ldd r24,Z+12
 1852 0004 9585      		ldd r25,Z+13
 1853               	.LVL80:
 1854 0006 0E94 0000 		call CDC_Device_ReceiveByte
 1855               	.LVL81:
 312:LUFA//Drivers/USB/Class/Device/CDCClassDevice.c **** 	if (ReceivedByte < 0)
 1856               		.loc 2 312 0
 1857 000a 97FF      		sbrs r25,7
 1858 000c 00C0      		rjmp .L74
 313:LUFA//Drivers/USB/Class/Device/CDCClassDevice.c **** 	  return _FDEV_EOF;
 1859               		.loc 2 313 0
 1860 000e 8EEF      		ldi r24,lo8(-2)
 1861 0010 9FEF      		ldi r25,hi8(-2)
 1862               	.LVL82:
 1863               	.L74:
 316:LUFA//Drivers/USB/Class/Device/CDCClassDevice.c **** }
 1864               		.loc 2 316 0
 1865 0012 0895      		ret
 1866               		.cfi_endproc
 1867               	.LFE96:
 1869               		.data
 1870               	.LC0:
 1871 0000 A1        		.byte	-95
 1872 0001 20        		.byte	32
 1873 0002 0000      		.word	0
 1874 0004 0000      		.word	0
 1875 0006 0200      		.word	2
 1876               		.section	.text.CDC_Device_SendControlLineStateChange,"ax",@progbits
 1877               	.global	CDC_Device_SendControlLineStateChange
 1879               	CDC_Device_SendControlLineStateChange:
 1880               	.LFB92:
 265:LUFA//Drivers/USB/Class/Device/CDCClassDevice.c **** {
 1881               		.loc 2 265 0
 1882               		.cfi_startproc
 1883               	.LVL83:
 1884 0000 0F93      		push r16
 1885               	.LCFI28:
 1886               		.cfi_def_cfa_offset 3
 1887               		.cfi_offset 16, -2
 1888 0002 1F93      		push r17
 1889               	.LCFI29:
 1890               		.cfi_def_cfa_offset 4
 1891               		.cfi_offset 17, -3
 1892 0004 CF93      		push r28
 1893               	.LCFI30:
 1894               		.cfi_def_cfa_offset 5
 1895               		.cfi_offset 28, -4
 1896 0006 DF93      		push r29
 1897               	.LCFI31:
 1898               		.cfi_def_cfa_offset 6
 1899               		.cfi_offset 29, -5
 1900 0008 CDB7      		in r28,__SP_L__
 1901 000a DEB7      		in r29,__SP_H__
 1902 000c 2897      		sbiw r28,8
 1903               	.LCFI32:
 1904               		.cfi_def_cfa 28, 14
 1905 000e CDBF      		out __SP_L__,r28
 1906 0010 DEBF      		out __SP_H__,r29
 1907               	/* prologue: function */
 1908               	/* frame size = 8 */
 1909               	/* stack size = 12 */
 1910               	.L__stack_usage = 12
 1911 0012 8C01      		movw r16,r24
 266:LUFA//Drivers/USB/Class/Device/CDCClassDevice.c **** 	if ((USB_DeviceState != DEVICE_STATE_Configured) || !(CDCInterfaceInfo->State.LineEncoding.BaudRat
 1912               		.loc 2 266 0
 1913 0014 8091 0000 		lds r24,USB_DeviceState
 1914               	.LVL84:
 1915 0018 8430      		cpi r24,lo8(4)
 1916 001a 01F0      		breq .+2
 1917 001c 00C0      		rjmp .L75
 266:LUFA//Drivers/USB/Class/Device/CDCClassDevice.c **** 	if ((USB_DeviceState != DEVICE_STATE_Configured) || !(CDCInterfaceInfo->State.LineEncoding.BaudRat
 1918               		.loc 2 266 0 is_stmt 0 discriminator 1
 1919 001e F801      		movw r30,r16
 1920 0020 8489      		ldd r24,Z+20
 1921 0022 9589      		ldd r25,Z+21
 1922 0024 A689      		ldd r26,Z+22
 1923 0026 B789      		ldd r27,Z+23
 1924 0028 0097      		sbiw r24,0
 1925 002a A105      		cpc r26,__zero_reg__
 1926 002c B105      		cpc r27,__zero_reg__
 1927 002e 01F0      		breq .L75
 269:LUFA//Drivers/USB/Class/Device/CDCClassDevice.c **** 	Endpoint_SelectEndpoint(CDCInterfaceInfo->Config.NotificationEndpoint.Address);
 1928               		.loc 2 269 0 is_stmt 1
 1929 0030 8385      		ldd r24,Z+11
 1930 0032 0E94 0000 		call Endpoint_SelectEndpoint
 271:LUFA//Drivers/USB/Class/Device/CDCClassDevice.c **** 	USB_Request_Header_t Notification = (USB_Request_Header_t)
 1931               		.loc 2 271 0
 1932 0036 DE01      		movw r26,r28
 1933 0038 1196      		adiw r26,1
 1934 003a E0E0      		ldi r30,lo8(.LC0)
 1935 003c F0E0      		ldi r31,hi8(.LC0)
 1936 003e 88E0      		ldi r24,lo8(8)
 1937               	.L77:
 1938 0040 0190      		ld r0,Z+
 1939 0042 0D92      		st X+,r0
 1940 0044 8150      		subi r24,lo8(-(-1))
 1941 0046 01F4      		brne .L77
 280:LUFA//Drivers/USB/Class/Device/CDCClassDevice.c **** 	Endpoint_Write_Stream_LE(&Notification, sizeof(USB_Request_Header_t), NULL);
 1942               		.loc 2 280 0
 1943 0048 CE01      		movw r24,r28
 1944 004a 0196      		adiw r24,1
 1945 004c 68E0      		ldi r22,lo8(8)
 1946 004e 70E0      		ldi r23,hi8(8)
 1947 0050 40E0      		ldi r20,lo8(0)
 1948 0052 50E0      		ldi r21,hi8(0)
 1949 0054 0E94 0000 		call Endpoint_Write_Stream_LE
 281:LUFA//Drivers/USB/Class/Device/CDCClassDevice.c **** 	Endpoint_Write_Stream_LE(&CDCInterfaceInfo->State.ControlLineStates.DeviceToHost,
 1950               		.loc 2 281 0
 1951 0058 C801      		movw r24,r16
 1952 005a 4296      		adiw r24,18
 1953 005c 62E0      		ldi r22,lo8(2)
 1954 005e 70E0      		ldi r23,hi8(2)
 1955 0060 40E0      		ldi r20,lo8(0)
 1956 0062 50E0      		ldi r21,hi8(0)
 1957 0064 0E94 0000 		call Endpoint_Write_Stream_LE
 1958               	.LBB194:
 1959               	.LBB195:
 448:LUFA//Drivers/USB/Class/Device/../../Core/XMEGA/../XMEGA/Endpoint_XMEGA.h **** 				USB_Endpoint_SelectedHandle->CNT     = USB_Endpoint_SelectedFIFO->Position;
 1960               		.loc 1 448 0
 1961 0068 E091 0000 		lds r30,USB_Endpoint_SelectedHandle
 1962 006c F091 0000 		lds r31,USB_Endpoint_SelectedHandle+1
 1963 0070 A091 0000 		lds r26,USB_Endpoint_SelectedFIFO
 1964 0074 B091 0000 		lds r27,USB_Endpoint_SelectedFIFO+1
 1965 0078 AF5B      		subi r26,lo8(-(65))
 1966 007a BF4F      		sbci r27,hi8(-(65))
 1967 007c 8C91      		ld r24,X
 1968 007e 90E0      		ldi r25,lo8(0)
 1969 0080 8283      		std Z+2,r24
 1970 0082 9383      		std Z+3,r25
 449:LUFA//Drivers/USB/Class/Device/../../Core/XMEGA/../XMEGA/Endpoint_XMEGA.h **** 				USB_Endpoint_SelectedHandle->STATUS &= ~(USB_EP_TRNCOMPL0_bm | USB_EP_BUSNACK0_bm | USB_EP_OVF_
 1971               		.loc 1 449 0
 1972 0084 8081      		ld r24,Z
 1973 0086 8D79      		andi r24,lo8(-99)
 1974 0088 8083      		st Z,r24
 450:LUFA//Drivers/USB/Class/Device/../../Core/XMEGA/../XMEGA/Endpoint_XMEGA.h **** 				USB_Endpoint_SelectedFIFO->Position  = 0;
 1975               		.loc 1 450 0
 1976 008a E091 0000 		lds r30,USB_Endpoint_SelectedFIFO
 1977 008e F091 0000 		lds r31,USB_Endpoint_SelectedFIFO+1
 1978 0092 EF5B      		subi r30,lo8(-(65))
 1979 0094 FF4F      		sbci r31,hi8(-(65))
 1980 0096 1082      		st Z,__zero_reg__
 1981               	.L75:
 1982               	/* epilogue start */
 1983               	.LBE195:
 1984               	.LBE194:
 285:LUFA//Drivers/USB/Class/Device/CDCClassDevice.c **** }
 1985               		.loc 2 285 0
 1986 0098 2896      		adiw r28,8
 1987 009a CDBF      		out __SP_L__,r28
 1988 009c DEBF      		out __SP_H__,r29
 1989 009e DF91      		pop r29
 1990 00a0 CF91      		pop r28
 1991 00a2 1F91      		pop r17
 1992 00a4 0F91      		pop r16
 1993               	.LVL85:
 1994 00a6 0895      		ret
 1995               		.cfi_endproc
 1996               	.LFE92:
 1998               		.section	.text.CDC_Device_CreateStream,"ax",@progbits
 1999               	.global	CDC_Device_CreateStream
 2001               	CDC_Device_CreateStream:
 2002               	.LFB93:
 290:LUFA//Drivers/USB/Class/Device/CDCClassDevice.c **** {
 2003               		.loc 2 290 0
 2004               		.cfi_startproc
 2005               	.LVL86:
 2006               	/* prologue: function */
 2007               	/* frame size = 0 */
 2008               	/* stack size = 0 */
 2009               	.L__stack_usage = 0
 2010 0000 FB01      		movw r30,r22
 291:LUFA//Drivers/USB/Class/Device/CDCClassDevice.c **** 	*Stream = (FILE)FDEV_SETUP_STREAM(CDC_Device_putchar, CDC_Device_getchar, _FDEV_SETUP_RW);
 2011               		.loc 2 291 0
 2012 0002 2EE0      		ldi r18,lo8(14)
 2013 0004 DB01      		movw r26,r22
 2014 0006 1D92      		st X+,__zero_reg__
 2015 0008 2A95      	        dec r18
 2016 000a 01F4      		brne .-6
 2017 000c 23E0      		ldi r18,lo8(3)
 2018 000e 2383      		std Z+3,r18
 2019 0010 20E0      		ldi r18,lo8(gs(CDC_Device_putchar))
 2020 0012 30E0      		ldi r19,hi8(gs(CDC_Device_putchar))
 2021 0014 2087      		std Z+8,r18
 2022 0016 3187      		std Z+9,r19
 2023 0018 20E0      		ldi r18,lo8(gs(CDC_Device_getchar))
 2024 001a 30E0      		ldi r19,hi8(gs(CDC_Device_getchar))
 2025 001c 2287      		std Z+10,r18
 2026 001e 3387      		std Z+11,r19
 292:LUFA//Drivers/USB/Class/Device/CDCClassDevice.c **** 	fdev_set_udata(Stream, CDCInterfaceInfo);
 2027               		.loc 2 292 0
 2028 0020 8487      		std Z+12,r24
 2029 0022 9587      		std Z+13,r25
 2030               	/* epilogue start */
 293:LUFA//Drivers/USB/Class/Device/CDCClassDevice.c **** }
 2031               		.loc 2 293 0
 2032 0024 0895      		ret
 2033               		.cfi_endproc
 2034               	.LFE93:
 2036               		.section	.text.CDC_Device_CreateBlockingStream,"ax",@progbits
 2037               	.global	CDC_Device_CreateBlockingStream
 2039               	CDC_Device_CreateBlockingStream:
 2040               	.LFB94:
 297:LUFA//Drivers/USB/Class/Device/CDCClassDevice.c **** {
 2041               		.loc 2 297 0
 2042               		.cfi_startproc
 2043               	.LVL87:
 2044               	/* prologue: function */
 2045               	/* frame size = 0 */
 2046               	/* stack size = 0 */
 2047               	.L__stack_usage = 0
 2048 0000 FB01      		movw r30,r22
 298:LUFA//Drivers/USB/Class/Device/CDCClassDevice.c **** 	*Stream = (FILE)FDEV_SETUP_STREAM(CDC_Device_putchar, CDC_Device_getchar_Blocking, _FDEV_SETUP_RW)
 2049               		.loc 2 298 0
 2050 0002 2EE0      		ldi r18,lo8(14)
 2051 0004 DB01      		movw r26,r22
 2052 0006 1D92      		st X+,__zero_reg__
 2053 0008 2A95      	        dec r18
 2054 000a 01F4      		brne .-6
 2055 000c 23E0      		ldi r18,lo8(3)
 2056 000e 2383      		std Z+3,r18
 2057 0010 20E0      		ldi r18,lo8(gs(CDC_Device_putchar))
 2058 0012 30E0      		ldi r19,hi8(gs(CDC_Device_putchar))
 2059 0014 2087      		std Z+8,r18
 2060 0016 3187      		std Z+9,r19
 2061 0018 20E0      		ldi r18,lo8(gs(CDC_Device_getchar_Blocking))
 2062 001a 30E0      		ldi r19,hi8(gs(CDC_Device_getchar_Blocking))
 2063 001c 2287      		std Z+10,r18
 2064 001e 3387      		std Z+11,r19
 299:LUFA//Drivers/USB/Class/Device/CDCClassDevice.c **** 	fdev_set_udata(Stream, CDCInterfaceInfo);
 2065               		.loc 2 299 0
 2066 0020 8487      		std Z+12,r24
 2067 0022 9587      		std Z+13,r25
 2068               	/* epilogue start */
 300:LUFA//Drivers/USB/Class/Device/CDCClassDevice.c **** }
 2069               		.loc 2 300 0
 2070 0024 0895      		ret
 2071               		.cfi_endproc
 2072               	.LFE94:
 2074               		.section	.text.CDC_Device_Event_Stub,"ax",@progbits
 2075               	.global	CDC_Device_Event_Stub
 2077               	CDC_Device_Event_Stub:
 2078               	.LFB98:
 333:LUFA//Drivers/USB/Class/Device/CDCClassDevice.c **** #endif
 334:LUFA//Drivers/USB/Class/Device/CDCClassDevice.c **** 
 335:LUFA//Drivers/USB/Class/Device/CDCClassDevice.c **** // cppcheck-suppress unusedFunction
 336:LUFA//Drivers/USB/Class/Device/CDCClassDevice.c **** void CDC_Device_Event_Stub(void)
 337:LUFA//Drivers/USB/Class/Device/CDCClassDevice.c **** {
 2079               		.loc 2 337 0
 2080               		.cfi_startproc
 2081               	/* prologue: function */
 2082               	/* frame size = 0 */
 2083               	/* stack size = 0 */
 2084               	.L__stack_usage = 0
 2085               	/* epilogue start */
 338:LUFA//Drivers/USB/Class/Device/CDCClassDevice.c **** 
 339:LUFA//Drivers/USB/Class/Device/CDCClassDevice.c **** }
 2086               		.loc 2 339 0
 2087 0000 0895      		ret
 2088               		.cfi_endproc
 2089               	.LFE98:
 2091               		.weak	EVENT_CDC_Device_LineEncodingChanged
 2092               		.set	EVENT_CDC_Device_LineEncodingChanged,CDC_Device_Event_Stub
 2093               		.weak	EVENT_CDC_Device_ControLineStateChanged
 2094               		.set	EVENT_CDC_Device_ControLineStateChanged,CDC_Device_Event_Stub
 2095               		.weak	EVENT_CDC_Device_BreakSent
 2096               		.set	EVENT_CDC_Device_BreakSent,CDC_Device_Event_Stub
 2097               		.text
 2098               	.Letext0:
 2099               		.file 3 "/home/dgonz/projects/Useful/avrTools/avr8-gnu-toolchain-linux_x86/bin/../lib/gcc/avr/4.6.
 2100               		.file 4 "/home/dgonz/projects/Useful/avrTools/avr8-gnu-toolchain-linux_x86/bin/../lib/gcc/avr/4.6.
 2101               		.file 5 "LUFA//Drivers/USB/Class/Device/../../Core/XMEGA/USBController_XMEGA.h"
 2102               		.file 6 "LUFA//Drivers/USB/Class/Device/../../Core/XMEGA/../Endpoint.h"
 2103               		.file 7 "LUFA//Drivers/USB/Class/Device/../../Core/XMEGA/../Device.h"
 2104               		.file 8 "LUFA//Drivers/USB/Class/Device/../../Core/XMEGA/../StdRequestType.h"
 2105               		.file 9 "LUFA//Drivers/USB/Class/Device/../../Core/XMEGA/../EndpointStream.h"
 2106               		.file 10 "LUFA//Drivers/USB/Class/Device/../../Class/Device/../Common/CDCClassCommon.h"
 2107               		.file 11 "/home/dgonz/projects/Useful/avrTools/avr8-gnu-toolchain-linux_x86/bin/../lib/gcc/avr/4.6
 2108               		.file 12 "LUFA//Drivers/USB/Class/Device/CDCClassDevice.h"
 2109               		.file 13 "LUFA//Drivers/USB/Class/Device/../../Core/USBTask.h"