   1               		.file	"HIDClassDevice.c"
   2               	__SREG__ = 0x3f
   3               	__SP_H__ = 0x3e
   4               	__SP_L__ = 0x3d
   5               	__CCP__ = 0x34
   6               	__tmp_reg__ = 0
   7               	__zero_reg__ = 1
   8               		.global __do_copy_data
   9               		.global __do_clear_bss
  10               		.text
  11               	.Ltext0:
  12               		.cfi_sections	.debug_frame
  13               		.section	.text.Endpoint_SelectEndpoint,"ax",@progbits
  15               	Endpoint_SelectEndpoint:
  16               	.LFB22:
  17               		.file 1 "LUFA//Drivers/USB/Class/Device/../../Core/XMEGA/../XMEGA/Endpoint_XMEGA.h"
   1:LUFA//Drivers/USB/Class/Device/../../Core/XMEGA/../XMEGA/Endpoint_XMEGA.h **** /*
   2:LUFA//Drivers/USB/Class/Device/../../Core/XMEGA/../XMEGA/Endpoint_XMEGA.h ****              LUFA Library
   3:LUFA//Drivers/USB/Class/Device/../../Core/XMEGA/../XMEGA/Endpoint_XMEGA.h ****      Copyright (C) Dean Camera, 2012.
   4:LUFA//Drivers/USB/Class/Device/../../Core/XMEGA/../XMEGA/Endpoint_XMEGA.h **** 
   5:LUFA//Drivers/USB/Class/Device/../../Core/XMEGA/../XMEGA/Endpoint_XMEGA.h ****   dean [at] fourwalledcubicle [dot] com
   6:LUFA//Drivers/USB/Class/Device/../../Core/XMEGA/../XMEGA/Endpoint_XMEGA.h ****            www.lufa-lib.org
   7:LUFA//Drivers/USB/Class/Device/../../Core/XMEGA/../XMEGA/Endpoint_XMEGA.h **** */
   8:LUFA//Drivers/USB/Class/Device/../../Core/XMEGA/../XMEGA/Endpoint_XMEGA.h **** 
   9:LUFA//Drivers/USB/Class/Device/../../Core/XMEGA/../XMEGA/Endpoint_XMEGA.h **** /*
  10:LUFA//Drivers/USB/Class/Device/../../Core/XMEGA/../XMEGA/Endpoint_XMEGA.h ****   Copyright 2012  Dean Camera (dean [at] fourwalledcubicle [dot] com)
  11:LUFA//Drivers/USB/Class/Device/../../Core/XMEGA/../XMEGA/Endpoint_XMEGA.h **** 
  12:LUFA//Drivers/USB/Class/Device/../../Core/XMEGA/../XMEGA/Endpoint_XMEGA.h ****   Permission to use, copy, modify, distribute, and sell this
  13:LUFA//Drivers/USB/Class/Device/../../Core/XMEGA/../XMEGA/Endpoint_XMEGA.h ****   software and its documentation for any purpose is hereby granted
  14:LUFA//Drivers/USB/Class/Device/../../Core/XMEGA/../XMEGA/Endpoint_XMEGA.h ****   without fee, provided that the above copyright notice appear in
  15:LUFA//Drivers/USB/Class/Device/../../Core/XMEGA/../XMEGA/Endpoint_XMEGA.h ****   all copies and that both that the copyright notice and this
  16:LUFA//Drivers/USB/Class/Device/../../Core/XMEGA/../XMEGA/Endpoint_XMEGA.h ****   permission notice and warranty disclaimer appear in supporting
  17:LUFA//Drivers/USB/Class/Device/../../Core/XMEGA/../XMEGA/Endpoint_XMEGA.h ****   documentation, and that the name of the author not be used in
  18:LUFA//Drivers/USB/Class/Device/../../Core/XMEGA/../XMEGA/Endpoint_XMEGA.h ****   advertising or publicity pertaining to distribution of the
  19:LUFA//Drivers/USB/Class/Device/../../Core/XMEGA/../XMEGA/Endpoint_XMEGA.h ****   software without specific, written prior permission.
  20:LUFA//Drivers/USB/Class/Device/../../Core/XMEGA/../XMEGA/Endpoint_XMEGA.h **** 
  21:LUFA//Drivers/USB/Class/Device/../../Core/XMEGA/../XMEGA/Endpoint_XMEGA.h ****   The author disclaim all warranties with regard to this
  22:LUFA//Drivers/USB/Class/Device/../../Core/XMEGA/../XMEGA/Endpoint_XMEGA.h ****   software, including all implied warranties of merchantability
  23:LUFA//Drivers/USB/Class/Device/../../Core/XMEGA/../XMEGA/Endpoint_XMEGA.h ****   and fitness.  In no event shall the author be liable for any
  24:LUFA//Drivers/USB/Class/Device/../../Core/XMEGA/../XMEGA/Endpoint_XMEGA.h ****   special, indirect or consequential damages or any damages
  25:LUFA//Drivers/USB/Class/Device/../../Core/XMEGA/../XMEGA/Endpoint_XMEGA.h ****   whatsoever resulting from loss of use, data or profits, whether
  26:LUFA//Drivers/USB/Class/Device/../../Core/XMEGA/../XMEGA/Endpoint_XMEGA.h ****   in an action of contract, negligence or other tortious action,
  27:LUFA//Drivers/USB/Class/Device/../../Core/XMEGA/../XMEGA/Endpoint_XMEGA.h ****   arising out of or in connection with the use or performance of
  28:LUFA//Drivers/USB/Class/Device/../../Core/XMEGA/../XMEGA/Endpoint_XMEGA.h ****   this software.
  29:LUFA//Drivers/USB/Class/Device/../../Core/XMEGA/../XMEGA/Endpoint_XMEGA.h **** */
  30:LUFA//Drivers/USB/Class/Device/../../Core/XMEGA/../XMEGA/Endpoint_XMEGA.h **** 
  31:LUFA//Drivers/USB/Class/Device/../../Core/XMEGA/../XMEGA/Endpoint_XMEGA.h **** /** \file
  32:LUFA//Drivers/USB/Class/Device/../../Core/XMEGA/../XMEGA/Endpoint_XMEGA.h ****  *  \brief USB Endpoint definitions for the AVR XMEGA microcontrollers.
  33:LUFA//Drivers/USB/Class/Device/../../Core/XMEGA/../XMEGA/Endpoint_XMEGA.h ****  *  \copydetails Group_EndpointManagement_XMEGA
  34:LUFA//Drivers/USB/Class/Device/../../Core/XMEGA/../XMEGA/Endpoint_XMEGA.h ****  *
  35:LUFA//Drivers/USB/Class/Device/../../Core/XMEGA/../XMEGA/Endpoint_XMEGA.h ****  *  \note This file should not be included directly. It is automatically included as needed by the 
  36:LUFA//Drivers/USB/Class/Device/../../Core/XMEGA/../XMEGA/Endpoint_XMEGA.h ****  *        dispatch header located in LUFA/Drivers/USB/USB.h.
  37:LUFA//Drivers/USB/Class/Device/../../Core/XMEGA/../XMEGA/Endpoint_XMEGA.h ****  */
  38:LUFA//Drivers/USB/Class/Device/../../Core/XMEGA/../XMEGA/Endpoint_XMEGA.h **** 
  39:LUFA//Drivers/USB/Class/Device/../../Core/XMEGA/../XMEGA/Endpoint_XMEGA.h **** /** \ingroup Group_EndpointRW
  40:LUFA//Drivers/USB/Class/Device/../../Core/XMEGA/../XMEGA/Endpoint_XMEGA.h ****  *  \defgroup Group_EndpointRW_XMEGA Endpoint Data Reading and Writing (XMEGA)
  41:LUFA//Drivers/USB/Class/Device/../../Core/XMEGA/../XMEGA/Endpoint_XMEGA.h ****  *  \brief Endpoint data read/write definitions for the Atmel AVR XMEGA architecture.
  42:LUFA//Drivers/USB/Class/Device/../../Core/XMEGA/../XMEGA/Endpoint_XMEGA.h ****  *
  43:LUFA//Drivers/USB/Class/Device/../../Core/XMEGA/../XMEGA/Endpoint_XMEGA.h ****  *  Functions, macros, variables, enums and types related to data reading and writing from and to e
  44:LUFA//Drivers/USB/Class/Device/../../Core/XMEGA/../XMEGA/Endpoint_XMEGA.h ****  */
  45:LUFA//Drivers/USB/Class/Device/../../Core/XMEGA/../XMEGA/Endpoint_XMEGA.h **** 
  46:LUFA//Drivers/USB/Class/Device/../../Core/XMEGA/../XMEGA/Endpoint_XMEGA.h **** /** \ingroup Group_EndpointPrimitiveRW
  47:LUFA//Drivers/USB/Class/Device/../../Core/XMEGA/../XMEGA/Endpoint_XMEGA.h ****  *  \defgroup Group_EndpointPrimitiveRW_XMEGA Read/Write of Primitive Data Types (XMEGA)
  48:LUFA//Drivers/USB/Class/Device/../../Core/XMEGA/../XMEGA/Endpoint_XMEGA.h ****  *  \brief Endpoint primitive read/write definitions for the Atmel AVR XMEGA architecture.
  49:LUFA//Drivers/USB/Class/Device/../../Core/XMEGA/../XMEGA/Endpoint_XMEGA.h ****  *
  50:LUFA//Drivers/USB/Class/Device/../../Core/XMEGA/../XMEGA/Endpoint_XMEGA.h ****  *  Functions, macros, variables, enums and types related to data reading and writing of primitive 
  51:LUFA//Drivers/USB/Class/Device/../../Core/XMEGA/../XMEGA/Endpoint_XMEGA.h ****  *  from and to endpoints.
  52:LUFA//Drivers/USB/Class/Device/../../Core/XMEGA/../XMEGA/Endpoint_XMEGA.h ****  */
  53:LUFA//Drivers/USB/Class/Device/../../Core/XMEGA/../XMEGA/Endpoint_XMEGA.h **** 
  54:LUFA//Drivers/USB/Class/Device/../../Core/XMEGA/../XMEGA/Endpoint_XMEGA.h **** /** \ingroup Group_EndpointPacketManagement
  55:LUFA//Drivers/USB/Class/Device/../../Core/XMEGA/../XMEGA/Endpoint_XMEGA.h ****  *  \defgroup Group_EndpointPacketManagement_XMEGA Endpoint Packet Management (XMEGA)
  56:LUFA//Drivers/USB/Class/Device/../../Core/XMEGA/../XMEGA/Endpoint_XMEGA.h ****  *  \brief Endpoint packet management definitions for the Atmel AVR XMEGA architecture.
  57:LUFA//Drivers/USB/Class/Device/../../Core/XMEGA/../XMEGA/Endpoint_XMEGA.h ****  *
  58:LUFA//Drivers/USB/Class/Device/../../Core/XMEGA/../XMEGA/Endpoint_XMEGA.h ****  *  Functions, macros, variables, enums and types related to packet management of endpoints.
  59:LUFA//Drivers/USB/Class/Device/../../Core/XMEGA/../XMEGA/Endpoint_XMEGA.h ****  */
  60:LUFA//Drivers/USB/Class/Device/../../Core/XMEGA/../XMEGA/Endpoint_XMEGA.h **** 
  61:LUFA//Drivers/USB/Class/Device/../../Core/XMEGA/../XMEGA/Endpoint_XMEGA.h **** /** \ingroup Group_EndpointManagement
  62:LUFA//Drivers/USB/Class/Device/../../Core/XMEGA/../XMEGA/Endpoint_XMEGA.h ****  *  \defgroup Group_EndpointManagement_XMEGA Endpoint Management (XMEGA)
  63:LUFA//Drivers/USB/Class/Device/../../Core/XMEGA/../XMEGA/Endpoint_XMEGA.h ****  *  \brief Endpoint management definitions for the Atmel AVR XMEGA architecture.
  64:LUFA//Drivers/USB/Class/Device/../../Core/XMEGA/../XMEGA/Endpoint_XMEGA.h ****  *
  65:LUFA//Drivers/USB/Class/Device/../../Core/XMEGA/../XMEGA/Endpoint_XMEGA.h ****  *  Functions, macros and enums related to endpoint management when in USB Device mode. This
  66:LUFA//Drivers/USB/Class/Device/../../Core/XMEGA/../XMEGA/Endpoint_XMEGA.h ****  *  module contains the endpoint management macros, as well as endpoint interrupt and data
  67:LUFA//Drivers/USB/Class/Device/../../Core/XMEGA/../XMEGA/Endpoint_XMEGA.h ****  *  send/receive functions for various data types.
  68:LUFA//Drivers/USB/Class/Device/../../Core/XMEGA/../XMEGA/Endpoint_XMEGA.h ****  *
  69:LUFA//Drivers/USB/Class/Device/../../Core/XMEGA/../XMEGA/Endpoint_XMEGA.h ****  *  @{
  70:LUFA//Drivers/USB/Class/Device/../../Core/XMEGA/../XMEGA/Endpoint_XMEGA.h ****  */
  71:LUFA//Drivers/USB/Class/Device/../../Core/XMEGA/../XMEGA/Endpoint_XMEGA.h **** 
  72:LUFA//Drivers/USB/Class/Device/../../Core/XMEGA/../XMEGA/Endpoint_XMEGA.h **** #ifndef __ENDPOINT_XMEGA_H__
  73:LUFA//Drivers/USB/Class/Device/../../Core/XMEGA/../XMEGA/Endpoint_XMEGA.h **** #define __ENDPOINT_XMEGA_H__
  74:LUFA//Drivers/USB/Class/Device/../../Core/XMEGA/../XMEGA/Endpoint_XMEGA.h **** 
  75:LUFA//Drivers/USB/Class/Device/../../Core/XMEGA/../XMEGA/Endpoint_XMEGA.h **** 	/* Includes: */
  76:LUFA//Drivers/USB/Class/Device/../../Core/XMEGA/../XMEGA/Endpoint_XMEGA.h **** 		#include "../../../../Common/Common.h"
  77:LUFA//Drivers/USB/Class/Device/../../Core/XMEGA/../XMEGA/Endpoint_XMEGA.h **** 		#include "../USBTask.h"
  78:LUFA//Drivers/USB/Class/Device/../../Core/XMEGA/../XMEGA/Endpoint_XMEGA.h **** 		#include "../USBInterrupt.h"
  79:LUFA//Drivers/USB/Class/Device/../../Core/XMEGA/../XMEGA/Endpoint_XMEGA.h **** 		#include "../USBController.h"
  80:LUFA//Drivers/USB/Class/Device/../../Core/XMEGA/../XMEGA/Endpoint_XMEGA.h **** 
  81:LUFA//Drivers/USB/Class/Device/../../Core/XMEGA/../XMEGA/Endpoint_XMEGA.h **** 	/* Enable C linkage for C++ Compilers: */
  82:LUFA//Drivers/USB/Class/Device/../../Core/XMEGA/../XMEGA/Endpoint_XMEGA.h **** 		#if defined(__cplusplus)
  83:LUFA//Drivers/USB/Class/Device/../../Core/XMEGA/../XMEGA/Endpoint_XMEGA.h **** 			extern "C" {
  84:LUFA//Drivers/USB/Class/Device/../../Core/XMEGA/../XMEGA/Endpoint_XMEGA.h **** 		#endif
  85:LUFA//Drivers/USB/Class/Device/../../Core/XMEGA/../XMEGA/Endpoint_XMEGA.h **** 
  86:LUFA//Drivers/USB/Class/Device/../../Core/XMEGA/../XMEGA/Endpoint_XMEGA.h **** 	/* Preprocessor Checks: */
  87:LUFA//Drivers/USB/Class/Device/../../Core/XMEGA/../XMEGA/Endpoint_XMEGA.h **** 		#if !defined(__INCLUDE_FROM_USB_DRIVER)
  88:LUFA//Drivers/USB/Class/Device/../../Core/XMEGA/../XMEGA/Endpoint_XMEGA.h **** 			#error Do not include this file directly. Include LUFA/Drivers/USB/USB.h instead.
  89:LUFA//Drivers/USB/Class/Device/../../Core/XMEGA/../XMEGA/Endpoint_XMEGA.h **** 		#endif
  90:LUFA//Drivers/USB/Class/Device/../../Core/XMEGA/../XMEGA/Endpoint_XMEGA.h **** 
  91:LUFA//Drivers/USB/Class/Device/../../Core/XMEGA/../XMEGA/Endpoint_XMEGA.h **** 	/* Public Interface - May be used in end-application: */
  92:LUFA//Drivers/USB/Class/Device/../../Core/XMEGA/../XMEGA/Endpoint_XMEGA.h **** 		/* Macros: */
  93:LUFA//Drivers/USB/Class/Device/../../Core/XMEGA/../XMEGA/Endpoint_XMEGA.h **** 			#if (!defined(MAX_ENDPOINT_INDEX) && !defined(CONTROL_ONLY_DEVICE)) || defined(__DOXYGEN__)
  94:LUFA//Drivers/USB/Class/Device/../../Core/XMEGA/../XMEGA/Endpoint_XMEGA.h **** 				/** Total number of endpoints (including the default control endpoint at address 0) which may
  95:LUFA//Drivers/USB/Class/Device/../../Core/XMEGA/../XMEGA/Endpoint_XMEGA.h **** 				 *  be used in the device. Different USB AVR models support different amounts of endpoints,
  96:LUFA//Drivers/USB/Class/Device/../../Core/XMEGA/../XMEGA/Endpoint_XMEGA.h **** 				 *  this value reflects the maximum number of endpoints for the currently selected AVR model.
  97:LUFA//Drivers/USB/Class/Device/../../Core/XMEGA/../XMEGA/Endpoint_XMEGA.h **** 				 */
  98:LUFA//Drivers/USB/Class/Device/../../Core/XMEGA/../XMEGA/Endpoint_XMEGA.h **** 				#define ENDPOINT_TOTAL_ENDPOINTS            16
  99:LUFA//Drivers/USB/Class/Device/../../Core/XMEGA/../XMEGA/Endpoint_XMEGA.h **** 			#else
 100:LUFA//Drivers/USB/Class/Device/../../Core/XMEGA/../XMEGA/Endpoint_XMEGA.h **** 				#if defined(CONTROL_ONLY_DEVICE)
 101:LUFA//Drivers/USB/Class/Device/../../Core/XMEGA/../XMEGA/Endpoint_XMEGA.h **** 					#define ENDPOINT_TOTAL_ENDPOINTS        1
 102:LUFA//Drivers/USB/Class/Device/../../Core/XMEGA/../XMEGA/Endpoint_XMEGA.h **** 				#else
 103:LUFA//Drivers/USB/Class/Device/../../Core/XMEGA/../XMEGA/Endpoint_XMEGA.h **** 					#define ENDPOINT_TOTAL_ENDPOINTS        (MAX_ENDPOINT_INDEX + 1)
 104:LUFA//Drivers/USB/Class/Device/../../Core/XMEGA/../XMEGA/Endpoint_XMEGA.h **** 				#endif
 105:LUFA//Drivers/USB/Class/Device/../../Core/XMEGA/../XMEGA/Endpoint_XMEGA.h **** 			#endif
 106:LUFA//Drivers/USB/Class/Device/../../Core/XMEGA/../XMEGA/Endpoint_XMEGA.h **** 
 107:LUFA//Drivers/USB/Class/Device/../../Core/XMEGA/../XMEGA/Endpoint_XMEGA.h **** 	/* Private Interface - For use in library only: */
 108:LUFA//Drivers/USB/Class/Device/../../Core/XMEGA/../XMEGA/Endpoint_XMEGA.h **** 	#if !defined(__DOXYGEN__)
 109:LUFA//Drivers/USB/Class/Device/../../Core/XMEGA/../XMEGA/Endpoint_XMEGA.h **** 		/* Type Defines: */
 110:LUFA//Drivers/USB/Class/Device/../../Core/XMEGA/../XMEGA/Endpoint_XMEGA.h **** 			typedef struct
 111:LUFA//Drivers/USB/Class/Device/../../Core/XMEGA/../XMEGA/Endpoint_XMEGA.h **** 			{
 112:LUFA//Drivers/USB/Class/Device/../../Core/XMEGA/../XMEGA/Endpoint_XMEGA.h **** 				uint8_t Data[64];
 113:LUFA//Drivers/USB/Class/Device/../../Core/XMEGA/../XMEGA/Endpoint_XMEGA.h **** 
 114:LUFA//Drivers/USB/Class/Device/../../Core/XMEGA/../XMEGA/Endpoint_XMEGA.h **** 				uint8_t Length;
 115:LUFA//Drivers/USB/Class/Device/../../Core/XMEGA/../XMEGA/Endpoint_XMEGA.h **** 				uint8_t Position;
 116:LUFA//Drivers/USB/Class/Device/../../Core/XMEGA/../XMEGA/Endpoint_XMEGA.h **** 			} Endpoint_FIFO_t;
 117:LUFA//Drivers/USB/Class/Device/../../Core/XMEGA/../XMEGA/Endpoint_XMEGA.h **** 
 118:LUFA//Drivers/USB/Class/Device/../../Core/XMEGA/../XMEGA/Endpoint_XMEGA.h **** 			typedef struct
 119:LUFA//Drivers/USB/Class/Device/../../Core/XMEGA/../XMEGA/Endpoint_XMEGA.h **** 			{
 120:LUFA//Drivers/USB/Class/Device/../../Core/XMEGA/../XMEGA/Endpoint_XMEGA.h **** 				Endpoint_FIFO_t OUT;
 121:LUFA//Drivers/USB/Class/Device/../../Core/XMEGA/../XMEGA/Endpoint_XMEGA.h **** 				Endpoint_FIFO_t IN;
 122:LUFA//Drivers/USB/Class/Device/../../Core/XMEGA/../XMEGA/Endpoint_XMEGA.h **** 			} Endpoint_FIFOPair_t;
 123:LUFA//Drivers/USB/Class/Device/../../Core/XMEGA/../XMEGA/Endpoint_XMEGA.h **** 
 124:LUFA//Drivers/USB/Class/Device/../../Core/XMEGA/../XMEGA/Endpoint_XMEGA.h **** 		/* External Variables: */
 125:LUFA//Drivers/USB/Class/Device/../../Core/XMEGA/../XMEGA/Endpoint_XMEGA.h **** 			extern Endpoint_FIFOPair_t       USB_Endpoint_FIFOs[ENDPOINT_TOTAL_ENDPOINTS];
 126:LUFA//Drivers/USB/Class/Device/../../Core/XMEGA/../XMEGA/Endpoint_XMEGA.h **** 			extern volatile uint8_t          USB_Endpoint_SelectedEndpoint;
 127:LUFA//Drivers/USB/Class/Device/../../Core/XMEGA/../XMEGA/Endpoint_XMEGA.h **** 			extern volatile USB_EP_t*        USB_Endpoint_SelectedHandle;
 128:LUFA//Drivers/USB/Class/Device/../../Core/XMEGA/../XMEGA/Endpoint_XMEGA.h **** 			extern volatile Endpoint_FIFO_t* USB_Endpoint_SelectedFIFO;
 129:LUFA//Drivers/USB/Class/Device/../../Core/XMEGA/../XMEGA/Endpoint_XMEGA.h **** 
 130:LUFA//Drivers/USB/Class/Device/../../Core/XMEGA/../XMEGA/Endpoint_XMEGA.h **** 		/* Inline Functions: */
 131:LUFA//Drivers/USB/Class/Device/../../Core/XMEGA/../XMEGA/Endpoint_XMEGA.h **** 			static inline uint8_t Endpoint_BytesToEPSizeMask(const uint16_t Bytes) ATTR_WARN_UNUSED_RESULT A
 132:LUFA//Drivers/USB/Class/Device/../../Core/XMEGA/../XMEGA/Endpoint_XMEGA.h **** 			                                                                       ATTR_ALWAYS_INLINE;
 133:LUFA//Drivers/USB/Class/Device/../../Core/XMEGA/../XMEGA/Endpoint_XMEGA.h **** 			static inline uint8_t Endpoint_BytesToEPSizeMask(const uint16_t Bytes)
 134:LUFA//Drivers/USB/Class/Device/../../Core/XMEGA/../XMEGA/Endpoint_XMEGA.h **** 			{
 135:LUFA//Drivers/USB/Class/Device/../../Core/XMEGA/../XMEGA/Endpoint_XMEGA.h **** 				uint8_t  MaskVal    = 0;
 136:LUFA//Drivers/USB/Class/Device/../../Core/XMEGA/../XMEGA/Endpoint_XMEGA.h **** 				uint16_t CheckBytes = 8;
 137:LUFA//Drivers/USB/Class/Device/../../Core/XMEGA/../XMEGA/Endpoint_XMEGA.h **** 
 138:LUFA//Drivers/USB/Class/Device/../../Core/XMEGA/../XMEGA/Endpoint_XMEGA.h **** 				while (CheckBytes < Bytes)
 139:LUFA//Drivers/USB/Class/Device/../../Core/XMEGA/../XMEGA/Endpoint_XMEGA.h **** 				{
 140:LUFA//Drivers/USB/Class/Device/../../Core/XMEGA/../XMEGA/Endpoint_XMEGA.h **** 					MaskVal++;
 141:LUFA//Drivers/USB/Class/Device/../../Core/XMEGA/../XMEGA/Endpoint_XMEGA.h **** 					CheckBytes <<= 1;
 142:LUFA//Drivers/USB/Class/Device/../../Core/XMEGA/../XMEGA/Endpoint_XMEGA.h **** 				}
 143:LUFA//Drivers/USB/Class/Device/../../Core/XMEGA/../XMEGA/Endpoint_XMEGA.h **** 
 144:LUFA//Drivers/USB/Class/Device/../../Core/XMEGA/../XMEGA/Endpoint_XMEGA.h **** 				return (MaskVal << USB_EP_BUFSIZE_gp);
 145:LUFA//Drivers/USB/Class/Device/../../Core/XMEGA/../XMEGA/Endpoint_XMEGA.h **** 			}
 146:LUFA//Drivers/USB/Class/Device/../../Core/XMEGA/../XMEGA/Endpoint_XMEGA.h **** 
 147:LUFA//Drivers/USB/Class/Device/../../Core/XMEGA/../XMEGA/Endpoint_XMEGA.h **** 		/* Function Prototypes: */
 148:LUFA//Drivers/USB/Class/Device/../../Core/XMEGA/../XMEGA/Endpoint_XMEGA.h **** 			bool Endpoint_ConfigureEndpoint_PRV(const uint8_t Address,
 149:LUFA//Drivers/USB/Class/Device/../../Core/XMEGA/../XMEGA/Endpoint_XMEGA.h **** 			                                    const uint8_t Config,
 150:LUFA//Drivers/USB/Class/Device/../../Core/XMEGA/../XMEGA/Endpoint_XMEGA.h **** 			                                    const uint8_t Size);
 151:LUFA//Drivers/USB/Class/Device/../../Core/XMEGA/../XMEGA/Endpoint_XMEGA.h **** 			void Endpoint_ClearEndpoints(void);
 152:LUFA//Drivers/USB/Class/Device/../../Core/XMEGA/../XMEGA/Endpoint_XMEGA.h **** 	#endif
 153:LUFA//Drivers/USB/Class/Device/../../Core/XMEGA/../XMEGA/Endpoint_XMEGA.h **** 
 154:LUFA//Drivers/USB/Class/Device/../../Core/XMEGA/../XMEGA/Endpoint_XMEGA.h **** 	/* Public Interface - May be used in end-application: */
 155:LUFA//Drivers/USB/Class/Device/../../Core/XMEGA/../XMEGA/Endpoint_XMEGA.h **** 		/* Macros: */
 156:LUFA//Drivers/USB/Class/Device/../../Core/XMEGA/../XMEGA/Endpoint_XMEGA.h **** 			#if (!defined(FIXED_CONTROL_ENDPOINT_SIZE) || defined(__DOXYGEN__))
 157:LUFA//Drivers/USB/Class/Device/../../Core/XMEGA/../XMEGA/Endpoint_XMEGA.h **** 				/** Default size of the default control endpoint's bank, until altered by the control endpoint 
 158:LUFA//Drivers/USB/Class/Device/../../Core/XMEGA/../XMEGA/Endpoint_XMEGA.h **** 				 *  value in the device descriptor. Not available if the \c FIXED_CONTROL_ENDPOINT_SIZE token i
 159:LUFA//Drivers/USB/Class/Device/../../Core/XMEGA/../XMEGA/Endpoint_XMEGA.h **** 				 */
 160:LUFA//Drivers/USB/Class/Device/../../Core/XMEGA/../XMEGA/Endpoint_XMEGA.h **** 				#define ENDPOINT_CONTROLEP_DEFAULT_SIZE     8
 161:LUFA//Drivers/USB/Class/Device/../../Core/XMEGA/../XMEGA/Endpoint_XMEGA.h **** 			#endif
 162:LUFA//Drivers/USB/Class/Device/../../Core/XMEGA/../XMEGA/Endpoint_XMEGA.h **** 
 163:LUFA//Drivers/USB/Class/Device/../../Core/XMEGA/../XMEGA/Endpoint_XMEGA.h **** 		/* Enums: */
 164:LUFA//Drivers/USB/Class/Device/../../Core/XMEGA/../XMEGA/Endpoint_XMEGA.h **** 			/** Enum for the possible error return codes of the \ref Endpoint_WaitUntilReady() function.
 165:LUFA//Drivers/USB/Class/Device/../../Core/XMEGA/../XMEGA/Endpoint_XMEGA.h **** 			 *
 166:LUFA//Drivers/USB/Class/Device/../../Core/XMEGA/../XMEGA/Endpoint_XMEGA.h **** 			 *  \ingroup Group_EndpointRW_XMEGA
 167:LUFA//Drivers/USB/Class/Device/../../Core/XMEGA/../XMEGA/Endpoint_XMEGA.h **** 			 */
 168:LUFA//Drivers/USB/Class/Device/../../Core/XMEGA/../XMEGA/Endpoint_XMEGA.h **** 			enum Endpoint_WaitUntilReady_ErrorCodes_t
 169:LUFA//Drivers/USB/Class/Device/../../Core/XMEGA/../XMEGA/Endpoint_XMEGA.h **** 			{
 170:LUFA//Drivers/USB/Class/Device/../../Core/XMEGA/../XMEGA/Endpoint_XMEGA.h **** 				ENDPOINT_READYWAIT_NoError                 = 0, /**< Endpoint is ready for next packet, no erro
 171:LUFA//Drivers/USB/Class/Device/../../Core/XMEGA/../XMEGA/Endpoint_XMEGA.h **** 				ENDPOINT_READYWAIT_EndpointStalled         = 1, /**< The endpoint was stalled during the stream
 172:LUFA//Drivers/USB/Class/Device/../../Core/XMEGA/../XMEGA/Endpoint_XMEGA.h **** 				                                                 *   transfer by the host or device.
 173:LUFA//Drivers/USB/Class/Device/../../Core/XMEGA/../XMEGA/Endpoint_XMEGA.h **** 				                                                 */
 174:LUFA//Drivers/USB/Class/Device/../../Core/XMEGA/../XMEGA/Endpoint_XMEGA.h **** 				ENDPOINT_READYWAIT_DeviceDisconnected      = 2,	/**< Device was disconnected from the host whil
 175:LUFA//Drivers/USB/Class/Device/../../Core/XMEGA/../XMEGA/Endpoint_XMEGA.h **** 				                                                 *   waiting for the endpoint to become ready.
 176:LUFA//Drivers/USB/Class/Device/../../Core/XMEGA/../XMEGA/Endpoint_XMEGA.h **** 				                                                 */
 177:LUFA//Drivers/USB/Class/Device/../../Core/XMEGA/../XMEGA/Endpoint_XMEGA.h **** 				ENDPOINT_READYWAIT_BusSuspended            = 3, /**< The USB bus has been suspended by the host
 178:LUFA//Drivers/USB/Class/Device/../../Core/XMEGA/../XMEGA/Endpoint_XMEGA.h **** 				                                                 *   no USB endpoint traffic can occur until th
 179:LUFA//Drivers/USB/Class/Device/../../Core/XMEGA/../XMEGA/Endpoint_XMEGA.h **** 				                                                 *   has resumed.
 180:LUFA//Drivers/USB/Class/Device/../../Core/XMEGA/../XMEGA/Endpoint_XMEGA.h **** 				                                                 */
 181:LUFA//Drivers/USB/Class/Device/../../Core/XMEGA/../XMEGA/Endpoint_XMEGA.h **** 				ENDPOINT_READYWAIT_Timeout                 = 4, /**< The host failed to accept or send the next
 182:LUFA//Drivers/USB/Class/Device/../../Core/XMEGA/../XMEGA/Endpoint_XMEGA.h **** 				                                                 *   within the software timeout period set by 
 183:LUFA//Drivers/USB/Class/Device/../../Core/XMEGA/../XMEGA/Endpoint_XMEGA.h **** 				                                                 *   \ref USB_STREAM_TIMEOUT_MS macro.
 184:LUFA//Drivers/USB/Class/Device/../../Core/XMEGA/../XMEGA/Endpoint_XMEGA.h **** 				                                                 */
 185:LUFA//Drivers/USB/Class/Device/../../Core/XMEGA/../XMEGA/Endpoint_XMEGA.h **** 			};
 186:LUFA//Drivers/USB/Class/Device/../../Core/XMEGA/../XMEGA/Endpoint_XMEGA.h **** 
 187:LUFA//Drivers/USB/Class/Device/../../Core/XMEGA/../XMEGA/Endpoint_XMEGA.h **** 		/* Inline Functions: */
 188:LUFA//Drivers/USB/Class/Device/../../Core/XMEGA/../XMEGA/Endpoint_XMEGA.h **** 			/** Selects the given endpoint address.
 189:LUFA//Drivers/USB/Class/Device/../../Core/XMEGA/../XMEGA/Endpoint_XMEGA.h **** 			 *
 190:LUFA//Drivers/USB/Class/Device/../../Core/XMEGA/../XMEGA/Endpoint_XMEGA.h **** 			 *  Any endpoint operations which do not require the endpoint address to be indicated will opera
 191:LUFA//Drivers/USB/Class/Device/../../Core/XMEGA/../XMEGA/Endpoint_XMEGA.h **** 			 *  the currently selected endpoint.
 192:LUFA//Drivers/USB/Class/Device/../../Core/XMEGA/../XMEGA/Endpoint_XMEGA.h **** 			 *
 193:LUFA//Drivers/USB/Class/Device/../../Core/XMEGA/../XMEGA/Endpoint_XMEGA.h **** 			 *  \param[in] Address  Endpoint address to select.
 194:LUFA//Drivers/USB/Class/Device/../../Core/XMEGA/../XMEGA/Endpoint_XMEGA.h **** 			 */
 195:LUFA//Drivers/USB/Class/Device/../../Core/XMEGA/../XMEGA/Endpoint_XMEGA.h **** 			static inline void Endpoint_SelectEndpoint(const uint8_t Address);
 196:LUFA//Drivers/USB/Class/Device/../../Core/XMEGA/../XMEGA/Endpoint_XMEGA.h **** 			static inline void Endpoint_SelectEndpoint(const uint8_t Address)
 197:LUFA//Drivers/USB/Class/Device/../../Core/XMEGA/../XMEGA/Endpoint_XMEGA.h **** 			{
  18               		.loc 1 197 0
  19               		.cfi_startproc
  20               	.LVL0:
  21               	/* prologue: function */
  22               	/* frame size = 0 */
  23               	/* stack size = 0 */
  24               	.L__stack_usage = 0
 198:LUFA//Drivers/USB/Class/Device/../../Core/XMEGA/../XMEGA/Endpoint_XMEGA.h **** 				uint8_t EndpointNumber = (Address & ENDPOINT_EPNUM_MASK);
  25               		.loc 1 198 0
  26 0000 282F      		mov r18,r24
  27 0002 2F70      		andi r18,lo8(15)
  28               	.LVL1:
 199:LUFA//Drivers/USB/Class/Device/../../Core/XMEGA/../XMEGA/Endpoint_XMEGA.h **** 
 200:LUFA//Drivers/USB/Class/Device/../../Core/XMEGA/../XMEGA/Endpoint_XMEGA.h **** 				USB_Endpoint_SelectedEndpoint = Address;
  29               		.loc 1 200 0
  30 0004 8093 0000 		sts USB_Endpoint_SelectedEndpoint,r24
  31 0008 30E0      		ldi r19,lo8(0)
 201:LUFA//Drivers/USB/Class/Device/../../Core/XMEGA/../XMEGA/Endpoint_XMEGA.h **** 
 202:LUFA//Drivers/USB/Class/Device/../../Core/XMEGA/../XMEGA/Endpoint_XMEGA.h **** 				if (Address & ENDPOINT_DIR_IN)
 203:LUFA//Drivers/USB/Class/Device/../../Core/XMEGA/../XMEGA/Endpoint_XMEGA.h **** 				{
 204:LUFA//Drivers/USB/Class/Device/../../Core/XMEGA/../XMEGA/Endpoint_XMEGA.h **** 					USB_Endpoint_SelectedFIFO   = &USB_Endpoint_FIFOs[EndpointNumber].IN;
  32               		.loc 1 204 0
  33 000a 44E8      		ldi r20,lo8(132)
  34 000c 50E0      		ldi r21,hi8(132)
 202:LUFA//Drivers/USB/Class/Device/../../Core/XMEGA/../XMEGA/Endpoint_XMEGA.h **** 				if (Address & ENDPOINT_DIR_IN)
  35               		.loc 1 202 0
  36 000e 87FF      		sbrs r24,7
  37 0010 00C0      		rjmp .L2
  38               		.loc 1 204 0
  39 0012 249F      		mul r18,r20
  40 0014 C001      		movw r24,r0
  41 0016 259F      		mul r18,r21
  42 0018 900D      		add r25,r0
  43 001a 349F      		mul r19,r20
  44 001c 900D      		add r25,r0
  45 001e 1124      		clr r1
  46               	.LVL2:
  47 0020 8050      		subi r24,lo8(-(USB_Endpoint_FIFOs+66))
  48 0022 9040      		sbci r25,hi8(-(USB_Endpoint_FIFOs+66))
  49 0024 8093 0000 		sts USB_Endpoint_SelectedFIFO,r24
  50 0028 9093 0000 		sts USB_Endpoint_SelectedFIFO+1,r25
 205:LUFA//Drivers/USB/Class/Device/../../Core/XMEGA/../XMEGA/Endpoint_XMEGA.h **** 					USB_Endpoint_SelectedHandle = &((USB_EndpointTable_t*)USB.EPPTR)->Endpoints[EndpointNumber].IN
  51               		.loc 1 205 0
  52 002c 8091 C604 		lds r24,1222
  53 0030 9091 C704 		lds r25,1222+1
  54 0034 74E0      		ldi r23,4
  55 0036 220F      	1:	lsl r18
  56 0038 331F      		rol r19
  57 003a 7A95      		dec r23
  58 003c 01F4      		brne 1b
  59               	.LVL3:
  60 003e 285F      		subi r18,lo8(-(8))
  61 0040 3F4F      		sbci r19,hi8(-(8))
  62 0042 00C0      		rjmp .L4
  63               	.LVL4:
  64               	.L2:
 206:LUFA//Drivers/USB/Class/Device/../../Core/XMEGA/../XMEGA/Endpoint_XMEGA.h **** 				}
 207:LUFA//Drivers/USB/Class/Device/../../Core/XMEGA/../XMEGA/Endpoint_XMEGA.h **** 				else
 208:LUFA//Drivers/USB/Class/Device/../../Core/XMEGA/../XMEGA/Endpoint_XMEGA.h **** 				{
 209:LUFA//Drivers/USB/Class/Device/../../Core/XMEGA/../XMEGA/Endpoint_XMEGA.h **** 					USB_Endpoint_SelectedFIFO   = &USB_Endpoint_FIFOs[EndpointNumber].OUT;
  65               		.loc 1 209 0
  66 0044 249F      		mul r18,r20
  67 0046 C001      		movw r24,r0
  68 0048 259F      		mul r18,r21
  69 004a 900D      		add r25,r0
  70 004c 349F      		mul r19,r20
  71 004e 900D      		add r25,r0
  72 0050 1124      		clr r1
  73 0052 8050      		subi r24,lo8(-(USB_Endpoint_FIFOs))
  74 0054 9040      		sbci r25,hi8(-(USB_Endpoint_FIFOs))
  75 0056 8093 0000 		sts USB_Endpoint_SelectedFIFO,r24
  76 005a 9093 0000 		sts USB_Endpoint_SelectedFIFO+1,r25
 210:LUFA//Drivers/USB/Class/Device/../../Core/XMEGA/../XMEGA/Endpoint_XMEGA.h **** 					USB_Endpoint_SelectedHandle = &((USB_EndpointTable_t*)USB.EPPTR)->Endpoints[EndpointNumber].OU
  77               		.loc 1 210 0
  78 005e 8091 C604 		lds r24,1222
  79 0062 9091 C704 		lds r25,1222+1
  80 0066 64E0      		ldi r22,4
  81 0068 220F      	1:	lsl r18
  82 006a 331F      		rol r19
  83 006c 6A95      		dec r22
  84 006e 01F4      		brne 1b
  85               	.LVL5:
  86               	.L4:
  87 0070 820F      		add r24,r18
  88 0072 931F      		adc r25,r19
  89 0074 8093 0000 		sts USB_Endpoint_SelectedHandle,r24
  90 0078 9093 0000 		sts USB_Endpoint_SelectedHandle+1,r25
  91 007c 0895      		ret
  92               		.cfi_endproc
  93               	.LFE22:
  95               		.section	.text.HID_Device_ProcessControlRequest,"ax",@progbits
  96               	.global	HID_Device_ProcessControlRequest
  98               	HID_Device_ProcessControlRequest:
  99               	.LFB83:
 100               		.file 2 "LUFA//Drivers/USB/Class/Device/HIDClassDevice.c"
   1:LUFA//Drivers/USB/Class/Device/HIDClassDevice.c **** /*
   2:LUFA//Drivers/USB/Class/Device/HIDClassDevice.c ****              LUFA Library
   3:LUFA//Drivers/USB/Class/Device/HIDClassDevice.c ****      Copyright (C) Dean Camera, 2012.
   4:LUFA//Drivers/USB/Class/Device/HIDClassDevice.c **** 
   5:LUFA//Drivers/USB/Class/Device/HIDClassDevice.c ****   dean [at] fourwalledcubicle [dot] com
   6:LUFA//Drivers/USB/Class/Device/HIDClassDevice.c ****            www.lufa-lib.org
   7:LUFA//Drivers/USB/Class/Device/HIDClassDevice.c **** */
   8:LUFA//Drivers/USB/Class/Device/HIDClassDevice.c **** 
   9:LUFA//Drivers/USB/Class/Device/HIDClassDevice.c **** /*
  10:LUFA//Drivers/USB/Class/Device/HIDClassDevice.c ****   Copyright 2012  Dean Camera (dean [at] fourwalledcubicle [dot] com)
  11:LUFA//Drivers/USB/Class/Device/HIDClassDevice.c **** 
  12:LUFA//Drivers/USB/Class/Device/HIDClassDevice.c ****   Permission to use, copy, modify, distribute, and sell this
  13:LUFA//Drivers/USB/Class/Device/HIDClassDevice.c ****   software and its documentation for any purpose is hereby granted
  14:LUFA//Drivers/USB/Class/Device/HIDClassDevice.c ****   without fee, provided that the above copyright notice appear in
  15:LUFA//Drivers/USB/Class/Device/HIDClassDevice.c ****   all copies and that both that the copyright notice and this
  16:LUFA//Drivers/USB/Class/Device/HIDClassDevice.c ****   permission notice and warranty disclaimer appear in supporting
  17:LUFA//Drivers/USB/Class/Device/HIDClassDevice.c ****   documentation, and that the name of the author not be used in
  18:LUFA//Drivers/USB/Class/Device/HIDClassDevice.c ****   advertising or publicity pertaining to distribution of the
  19:LUFA//Drivers/USB/Class/Device/HIDClassDevice.c ****   software without specific, written prior permission.
  20:LUFA//Drivers/USB/Class/Device/HIDClassDevice.c **** 
  21:LUFA//Drivers/USB/Class/Device/HIDClassDevice.c ****   The author disclaim all warranties with regard to this
  22:LUFA//Drivers/USB/Class/Device/HIDClassDevice.c ****   software, including all implied warranties of merchantability
  23:LUFA//Drivers/USB/Class/Device/HIDClassDevice.c ****   and fitness.  In no event shall the author be liable for any
  24:LUFA//Drivers/USB/Class/Device/HIDClassDevice.c ****   special, indirect or consequential damages or any damages
  25:LUFA//Drivers/USB/Class/Device/HIDClassDevice.c ****   whatsoever resulting from loss of use, data or profits, whether
  26:LUFA//Drivers/USB/Class/Device/HIDClassDevice.c ****   in an action of contract, negligence or other tortious action,
  27:LUFA//Drivers/USB/Class/Device/HIDClassDevice.c ****   arising out of or in connection with the use or performance of
  28:LUFA//Drivers/USB/Class/Device/HIDClassDevice.c ****   this software.
  29:LUFA//Drivers/USB/Class/Device/HIDClassDevice.c **** */
  30:LUFA//Drivers/USB/Class/Device/HIDClassDevice.c **** 
  31:LUFA//Drivers/USB/Class/Device/HIDClassDevice.c **** #define  __INCLUDE_FROM_USB_DRIVER
  32:LUFA//Drivers/USB/Class/Device/HIDClassDevice.c **** #include "../../Core/USBMode.h"
  33:LUFA//Drivers/USB/Class/Device/HIDClassDevice.c **** 
  34:LUFA//Drivers/USB/Class/Device/HIDClassDevice.c **** #if defined(USB_CAN_BE_DEVICE)
  35:LUFA//Drivers/USB/Class/Device/HIDClassDevice.c **** 
  36:LUFA//Drivers/USB/Class/Device/HIDClassDevice.c **** #define  __INCLUDE_FROM_HID_DRIVER
  37:LUFA//Drivers/USB/Class/Device/HIDClassDevice.c **** #define  __INCLUDE_FROM_HID_DEVICE_C
  38:LUFA//Drivers/USB/Class/Device/HIDClassDevice.c **** #include "HIDClassDevice.h"
  39:LUFA//Drivers/USB/Class/Device/HIDClassDevice.c **** 
  40:LUFA//Drivers/USB/Class/Device/HIDClassDevice.c **** void HID_Device_ProcessControlRequest(USB_ClassInfo_HID_Device_t* const HIDInterfaceInfo)
  41:LUFA//Drivers/USB/Class/Device/HIDClassDevice.c **** {
 101               		.loc 2 41 0
 102               		.cfi_startproc
 103               	.LVL6:
 104 0000 4F92      		push r4
 105               	.LCFI0:
 106               		.cfi_def_cfa_offset 3
 107               		.cfi_offset 4, -2
 108 0002 5F92      		push r5
 109               	.LCFI1:
 110               		.cfi_def_cfa_offset 4
 111               		.cfi_offset 5, -3
 112 0004 6F92      		push r6
 113               	.LCFI2:
 114               		.cfi_def_cfa_offset 5
 115               		.cfi_offset 6, -4
 116 0006 7F92      		push r7
 117               	.LCFI3:
 118               		.cfi_def_cfa_offset 6
 119               		.cfi_offset 7, -5
 120 0008 8F92      		push r8
 121               	.LCFI4:
 122               		.cfi_def_cfa_offset 7
 123               		.cfi_offset 8, -6
 124 000a 9F92      		push r9
 125               	.LCFI5:
 126               		.cfi_def_cfa_offset 8
 127               		.cfi_offset 9, -7
 128 000c AF92      		push r10
 129               	.LCFI6:
 130               		.cfi_def_cfa_offset 9
 131               		.cfi_offset 10, -8
 132 000e BF92      		push r11
 133               	.LCFI7:
 134               		.cfi_def_cfa_offset 10
 135               		.cfi_offset 11, -9
 136 0010 CF92      		push r12
 137               	.LCFI8:
 138               		.cfi_def_cfa_offset 11
 139               		.cfi_offset 12, -10
 140 0012 DF92      		push r13
 141               	.LCFI9:
 142               		.cfi_def_cfa_offset 12
 143               		.cfi_offset 13, -11
 144 0014 EF92      		push r14
 145               	.LCFI10:
 146               		.cfi_def_cfa_offset 13
 147               		.cfi_offset 14, -12
 148 0016 FF92      		push r15
 149               	.LCFI11:
 150               		.cfi_def_cfa_offset 14
 151               		.cfi_offset 15, -13
 152 0018 0F93      		push r16
 153               	.LCFI12:
 154               		.cfi_def_cfa_offset 15
 155               		.cfi_offset 16, -14
 156 001a 1F93      		push r17
 157               	.LCFI13:
 158               		.cfi_def_cfa_offset 16
 159               		.cfi_offset 17, -15
 160 001c CF93      		push r28
 161               	.LCFI14:
 162               		.cfi_def_cfa_offset 17
 163               		.cfi_offset 28, -16
 164 001e DF93      		push r29
 165               	.LCFI15:
 166               		.cfi_def_cfa_offset 18
 167               		.cfi_offset 29, -17
 168 0020 00D0      		rcall .
 169 0022 0F92      		push __tmp_reg__
 170               	.LCFI16:
 171               		.cfi_def_cfa_offset 21
 172 0024 CDB7      		in r28,__SP_L__
 173 0026 DEB7      		in r29,__SP_H__
 174               	.LCFI17:
 175               		.cfi_def_cfa_register 28
 176               	/* prologue: function */
 177               	/* frame size = 3 */
 178               	/* stack size = 19 */
 179               	.L__stack_usage = 19
 180 0028 6C01      		movw r12,r24
  42:LUFA//Drivers/USB/Class/Device/HIDClassDevice.c **** 	if (!(Endpoint_IsSETUPReceived()))
  43:LUFA//Drivers/USB/Class/Device/HIDClassDevice.c **** 	  return;
  44:LUFA//Drivers/USB/Class/Device/HIDClassDevice.c **** 
  45:LUFA//Drivers/USB/Class/Device/HIDClassDevice.c **** 	if (USB_ControlRequest.wIndex != HIDInterfaceInfo->Config.InterfaceNumber)
  46:LUFA//Drivers/USB/Class/Device/HIDClassDevice.c **** 	  return;
  47:LUFA//Drivers/USB/Class/Device/HIDClassDevice.c **** 
  48:LUFA//Drivers/USB/Class/Device/HIDClassDevice.c **** 	switch (USB_ControlRequest.bRequest)
  49:LUFA//Drivers/USB/Class/Device/HIDClassDevice.c **** 	{
  50:LUFA//Drivers/USB/Class/Device/HIDClassDevice.c **** 		case HID_REQ_GetReport:
  51:LUFA//Drivers/USB/Class/Device/HIDClassDevice.c **** 			if (USB_ControlRequest.bmRequestType == (REQDIR_DEVICETOHOST | REQTYPE_CLASS | REQREC_INTERFACE)
  52:LUFA//Drivers/USB/Class/Device/HIDClassDevice.c **** 			{
  53:LUFA//Drivers/USB/Class/Device/HIDClassDevice.c **** 				uint16_t ReportSize = 0;
  54:LUFA//Drivers/USB/Class/Device/HIDClassDevice.c **** 				uint8_t  ReportID   = (USB_ControlRequest.wValue & 0xFF);
  55:LUFA//Drivers/USB/Class/Device/HIDClassDevice.c **** 				uint8_t  ReportType = (USB_ControlRequest.wValue >> 8) - 1;
  56:LUFA//Drivers/USB/Class/Device/HIDClassDevice.c **** 				uint8_t  ReportData[HIDInterfaceInfo->Config.PrevReportINBufferSize];
  57:LUFA//Drivers/USB/Class/Device/HIDClassDevice.c **** 
  58:LUFA//Drivers/USB/Class/Device/HIDClassDevice.c **** 				memset(ReportData, 0, sizeof(ReportData));
  59:LUFA//Drivers/USB/Class/Device/HIDClassDevice.c **** 
  60:LUFA//Drivers/USB/Class/Device/HIDClassDevice.c **** 				CALLBACK_HID_Device_CreateHIDReport(HIDInterfaceInfo, &ReportID, ReportType, ReportData, &Repor
  61:LUFA//Drivers/USB/Class/Device/HIDClassDevice.c **** 
  62:LUFA//Drivers/USB/Class/Device/HIDClassDevice.c **** 				if (HIDInterfaceInfo->Config.PrevReportINBuffer != NULL)
  63:LUFA//Drivers/USB/Class/Device/HIDClassDevice.c **** 				{
  64:LUFA//Drivers/USB/Class/Device/HIDClassDevice.c **** 					memcpy(HIDInterfaceInfo->Config.PrevReportINBuffer, ReportData,
  65:LUFA//Drivers/USB/Class/Device/HIDClassDevice.c **** 					       HIDInterfaceInfo->Config.PrevReportINBufferSize);
  66:LUFA//Drivers/USB/Class/Device/HIDClassDevice.c **** 				}
  67:LUFA//Drivers/USB/Class/Device/HIDClassDevice.c **** 
  68:LUFA//Drivers/USB/Class/Device/HIDClassDevice.c **** 				Endpoint_SelectEndpoint(ENDPOINT_CONTROLEP);
  69:LUFA//Drivers/USB/Class/Device/HIDClassDevice.c **** 
  70:LUFA//Drivers/USB/Class/Device/HIDClassDevice.c **** 				Endpoint_ClearSETUP();
  71:LUFA//Drivers/USB/Class/Device/HIDClassDevice.c **** 				Endpoint_Write_Control_Stream_LE(ReportData, ReportSize);
  72:LUFA//Drivers/USB/Class/Device/HIDClassDevice.c **** 				Endpoint_ClearOUT();
  73:LUFA//Drivers/USB/Class/Device/HIDClassDevice.c **** 			}
  74:LUFA//Drivers/USB/Class/Device/HIDClassDevice.c **** 
  75:LUFA//Drivers/USB/Class/Device/HIDClassDevice.c **** 			break;
  76:LUFA//Drivers/USB/Class/Device/HIDClassDevice.c **** 		case HID_REQ_SetReport:
  77:LUFA//Drivers/USB/Class/Device/HIDClassDevice.c **** 			if (USB_ControlRequest.bmRequestType == (REQDIR_HOSTTODEVICE | REQTYPE_CLASS | REQREC_INTERFACE)
  78:LUFA//Drivers/USB/Class/Device/HIDClassDevice.c **** 			{
  79:LUFA//Drivers/USB/Class/Device/HIDClassDevice.c **** 				uint16_t ReportSize = USB_ControlRequest.wLength;
  80:LUFA//Drivers/USB/Class/Device/HIDClassDevice.c **** 				uint8_t  ReportID   = (USB_ControlRequest.wValue & 0xFF);
  81:LUFA//Drivers/USB/Class/Device/HIDClassDevice.c **** 				uint8_t  ReportType = (USB_ControlRequest.wValue >> 8) - 1;
  82:LUFA//Drivers/USB/Class/Device/HIDClassDevice.c **** 				uint8_t  ReportData[ReportSize];
  83:LUFA//Drivers/USB/Class/Device/HIDClassDevice.c **** 
  84:LUFA//Drivers/USB/Class/Device/HIDClassDevice.c **** 				Endpoint_ClearSETUP();
  85:LUFA//Drivers/USB/Class/Device/HIDClassDevice.c **** 				Endpoint_Read_Control_Stream_LE(ReportData, ReportSize);
  86:LUFA//Drivers/USB/Class/Device/HIDClassDevice.c **** 				Endpoint_ClearIN();
  87:LUFA//Drivers/USB/Class/Device/HIDClassDevice.c **** 
  88:LUFA//Drivers/USB/Class/Device/HIDClassDevice.c **** 				CALLBACK_HID_Device_ProcessHIDReport(HIDInterfaceInfo, ReportID, ReportType,
  89:LUFA//Drivers/USB/Class/Device/HIDClassDevice.c **** 				                                     &ReportData[ReportID ? 1 : 0], ReportSize - (ReportID ? 1 
  90:LUFA//Drivers/USB/Class/Device/HIDClassDevice.c **** 			}
  91:LUFA//Drivers/USB/Class/Device/HIDClassDevice.c **** 
  92:LUFA//Drivers/USB/Class/Device/HIDClassDevice.c **** 			break;
  93:LUFA//Drivers/USB/Class/Device/HIDClassDevice.c **** 		case HID_REQ_GetProtocol:
  94:LUFA//Drivers/USB/Class/Device/HIDClassDevice.c **** 			if (USB_ControlRequest.bmRequestType == (REQDIR_DEVICETOHOST | REQTYPE_CLASS | REQREC_INTERFACE)
  95:LUFA//Drivers/USB/Class/Device/HIDClassDevice.c **** 			{
  96:LUFA//Drivers/USB/Class/Device/HIDClassDevice.c **** 				Endpoint_ClearSETUP();
  97:LUFA//Drivers/USB/Class/Device/HIDClassDevice.c **** 				while (!(Endpoint_IsINReady()));
  98:LUFA//Drivers/USB/Class/Device/HIDClassDevice.c **** 				Endpoint_Write_8(HIDInterfaceInfo->State.UsingReportProtocol);
  99:LUFA//Drivers/USB/Class/Device/HIDClassDevice.c **** 				Endpoint_ClearIN();
 100:LUFA//Drivers/USB/Class/Device/HIDClassDevice.c **** 				Endpoint_ClearStatusStage();
 101:LUFA//Drivers/USB/Class/Device/HIDClassDevice.c **** 			}
 102:LUFA//Drivers/USB/Class/Device/HIDClassDevice.c **** 
 103:LUFA//Drivers/USB/Class/Device/HIDClassDevice.c **** 			break;
 104:LUFA//Drivers/USB/Class/Device/HIDClassDevice.c **** 		case HID_REQ_SetProtocol:
 105:LUFA//Drivers/USB/Class/Device/HIDClassDevice.c **** 			if (USB_ControlRequest.bmRequestType == (REQDIR_HOSTTODEVICE | REQTYPE_CLASS | REQREC_INTERFACE)
 106:LUFA//Drivers/USB/Class/Device/HIDClassDevice.c **** 			{
 107:LUFA//Drivers/USB/Class/Device/HIDClassDevice.c **** 				Endpoint_ClearSETUP();
 108:LUFA//Drivers/USB/Class/Device/HIDClassDevice.c **** 				Endpoint_ClearStatusStage();
 109:LUFA//Drivers/USB/Class/Device/HIDClassDevice.c **** 
 110:LUFA//Drivers/USB/Class/Device/HIDClassDevice.c **** 				HIDInterfaceInfo->State.UsingReportProtocol = ((USB_ControlRequest.wValue & 0xFF) != 0x00);
 111:LUFA//Drivers/USB/Class/Device/HIDClassDevice.c **** 			}
 112:LUFA//Drivers/USB/Class/Device/HIDClassDevice.c **** 
 113:LUFA//Drivers/USB/Class/Device/HIDClassDevice.c **** 			break;
 114:LUFA//Drivers/USB/Class/Device/HIDClassDevice.c **** 		case HID_REQ_SetIdle:
 115:LUFA//Drivers/USB/Class/Device/HIDClassDevice.c **** 			if (USB_ControlRequest.bmRequestType == (REQDIR_HOSTTODEVICE | REQTYPE_CLASS | REQREC_INTERFACE)
 116:LUFA//Drivers/USB/Class/Device/HIDClassDevice.c **** 			{
 117:LUFA//Drivers/USB/Class/Device/HIDClassDevice.c **** 				Endpoint_ClearSETUP();
 118:LUFA//Drivers/USB/Class/Device/HIDClassDevice.c **** 				Endpoint_ClearStatusStage();
 119:LUFA//Drivers/USB/Class/Device/HIDClassDevice.c **** 
 120:LUFA//Drivers/USB/Class/Device/HIDClassDevice.c **** 				HIDInterfaceInfo->State.IdleCount = ((USB_ControlRequest.wValue & 0xFF00) >> 6);
 121:LUFA//Drivers/USB/Class/Device/HIDClassDevice.c **** 			}
 122:LUFA//Drivers/USB/Class/Device/HIDClassDevice.c **** 
 123:LUFA//Drivers/USB/Class/Device/HIDClassDevice.c **** 			break;
 124:LUFA//Drivers/USB/Class/Device/HIDClassDevice.c **** 		case HID_REQ_GetIdle:
 125:LUFA//Drivers/USB/Class/Device/HIDClassDevice.c **** 			if (USB_ControlRequest.bmRequestType == (REQDIR_DEVICETOHOST | REQTYPE_CLASS | REQREC_INTERFACE)
 126:LUFA//Drivers/USB/Class/Device/HIDClassDevice.c **** 			{
 127:LUFA//Drivers/USB/Class/Device/HIDClassDevice.c **** 				Endpoint_ClearSETUP();
 128:LUFA//Drivers/USB/Class/Device/HIDClassDevice.c **** 				while (!(Endpoint_IsINReady()));
 129:LUFA//Drivers/USB/Class/Device/HIDClassDevice.c **** 				Endpoint_Write_8(HIDInterfaceInfo->State.IdleCount >> 2);
 130:LUFA//Drivers/USB/Class/Device/HIDClassDevice.c **** 				Endpoint_ClearIN();
 131:LUFA//Drivers/USB/Class/Device/HIDClassDevice.c **** 				Endpoint_ClearStatusStage();
 132:LUFA//Drivers/USB/Class/Device/HIDClassDevice.c **** 			}
 133:LUFA//Drivers/USB/Class/Device/HIDClassDevice.c **** 
 134:LUFA//Drivers/USB/Class/Device/HIDClassDevice.c **** 			break;
 135:LUFA//Drivers/USB/Class/Device/HIDClassDevice.c **** 	}
 136:LUFA//Drivers/USB/Class/Device/HIDClassDevice.c **** }
 181               		.loc 2 136 0
 182 002a 4DB6      		in r4,__SP_L__
 183 002c 5EB6      		in r5,__SP_H__
 184               	.LBB45:
 185               	.LBB46:
 211:LUFA//Drivers/USB/Class/Device/../../Core/XMEGA/../XMEGA/Endpoint_XMEGA.h **** 				}
 212:LUFA//Drivers/USB/Class/Device/../../Core/XMEGA/../XMEGA/Endpoint_XMEGA.h **** 			}
 213:LUFA//Drivers/USB/Class/Device/../../Core/XMEGA/../XMEGA/Endpoint_XMEGA.h **** 
 214:LUFA//Drivers/USB/Class/Device/../../Core/XMEGA/../XMEGA/Endpoint_XMEGA.h **** 			/** Configures the specified endpoint address with the given endpoint type, direction, bank size
 215:LUFA//Drivers/USB/Class/Device/../../Core/XMEGA/../XMEGA/Endpoint_XMEGA.h **** 			 *  and banking mode. Once configured, the endpoint may be read from or written to, depending
 216:LUFA//Drivers/USB/Class/Device/../../Core/XMEGA/../XMEGA/Endpoint_XMEGA.h **** 			 *  on its direction.
 217:LUFA//Drivers/USB/Class/Device/../../Core/XMEGA/../XMEGA/Endpoint_XMEGA.h **** 			 *
 218:LUFA//Drivers/USB/Class/Device/../../Core/XMEGA/../XMEGA/Endpoint_XMEGA.h **** 			 *  \param[in] Address    Endpoint address to configure.
 219:LUFA//Drivers/USB/Class/Device/../../Core/XMEGA/../XMEGA/Endpoint_XMEGA.h **** 			 *
 220:LUFA//Drivers/USB/Class/Device/../../Core/XMEGA/../XMEGA/Endpoint_XMEGA.h **** 			 *  \param[in] Type       Type of endpoint to configure, a \c EP_TYPE_* mask. Not all endpoint t
 221:LUFA//Drivers/USB/Class/Device/../../Core/XMEGA/../XMEGA/Endpoint_XMEGA.h **** 			 *                        are available on Low Speed USB devices - refer to the USB 2.0 specific
 222:LUFA//Drivers/USB/Class/Device/../../Core/XMEGA/../XMEGA/Endpoint_XMEGA.h **** 			 *
 223:LUFA//Drivers/USB/Class/Device/../../Core/XMEGA/../XMEGA/Endpoint_XMEGA.h **** 			 *  \param[in] Size       Size of the endpoint's bank, where packets are stored before they are 
 224:LUFA//Drivers/USB/Class/Device/../../Core/XMEGA/../XMEGA/Endpoint_XMEGA.h **** 			 *                        to the USB host, or after they have been received from the USB host (d
 225:LUFA//Drivers/USB/Class/Device/../../Core/XMEGA/../XMEGA/Endpoint_XMEGA.h **** 			 *                        the endpoint's data direction). The bank size must indicate the maximu
 226:LUFA//Drivers/USB/Class/Device/../../Core/XMEGA/../XMEGA/Endpoint_XMEGA.h **** 			 *                        that the endpoint can handle.
 227:LUFA//Drivers/USB/Class/Device/../../Core/XMEGA/../XMEGA/Endpoint_XMEGA.h **** 			 *
 228:LUFA//Drivers/USB/Class/Device/../../Core/XMEGA/../XMEGA/Endpoint_XMEGA.h **** 			 *  \param[in] Banks      Number of hardware banks to use for the endpoint being configured.
 229:LUFA//Drivers/USB/Class/Device/../../Core/XMEGA/../XMEGA/Endpoint_XMEGA.h **** 			 *
 230:LUFA//Drivers/USB/Class/Device/../../Core/XMEGA/../XMEGA/Endpoint_XMEGA.h **** 			 *  \note The default control endpoint should not be manually configured by the user application
 231:LUFA//Drivers/USB/Class/Device/../../Core/XMEGA/../XMEGA/Endpoint_XMEGA.h **** 			 *        it is automatically configured by the library internally.
 232:LUFA//Drivers/USB/Class/Device/../../Core/XMEGA/../XMEGA/Endpoint_XMEGA.h **** 			 *        \n\n
 233:LUFA//Drivers/USB/Class/Device/../../Core/XMEGA/../XMEGA/Endpoint_XMEGA.h **** 			 *
 234:LUFA//Drivers/USB/Class/Device/../../Core/XMEGA/../XMEGA/Endpoint_XMEGA.h **** 			 *  \note This routine will automatically select the specified endpoint.
 235:LUFA//Drivers/USB/Class/Device/../../Core/XMEGA/../XMEGA/Endpoint_XMEGA.h **** 			 *
 236:LUFA//Drivers/USB/Class/Device/../../Core/XMEGA/../XMEGA/Endpoint_XMEGA.h **** 			 *  \return Boolean \c true if the configuration succeeded, \c false otherwise.
 237:LUFA//Drivers/USB/Class/Device/../../Core/XMEGA/../XMEGA/Endpoint_XMEGA.h **** 			 */
 238:LUFA//Drivers/USB/Class/Device/../../Core/XMEGA/../XMEGA/Endpoint_XMEGA.h **** 			static inline bool Endpoint_ConfigureEndpoint(const uint8_t Address,
 239:LUFA//Drivers/USB/Class/Device/../../Core/XMEGA/../XMEGA/Endpoint_XMEGA.h **** 			                                              const uint8_t Type,
 240:LUFA//Drivers/USB/Class/Device/../../Core/XMEGA/../XMEGA/Endpoint_XMEGA.h **** 			                                              const uint16_t Size,
 241:LUFA//Drivers/USB/Class/Device/../../Core/XMEGA/../XMEGA/Endpoint_XMEGA.h **** 			                                              const uint8_t Banks) ATTR_ALWAYS_INLINE;
 242:LUFA//Drivers/USB/Class/Device/../../Core/XMEGA/../XMEGA/Endpoint_XMEGA.h **** 			static inline bool Endpoint_ConfigureEndpoint(const uint8_t Address,
 243:LUFA//Drivers/USB/Class/Device/../../Core/XMEGA/../XMEGA/Endpoint_XMEGA.h **** 			                                              const uint8_t Type,
 244:LUFA//Drivers/USB/Class/Device/../../Core/XMEGA/../XMEGA/Endpoint_XMEGA.h **** 			                                              const uint16_t Size,
 245:LUFA//Drivers/USB/Class/Device/../../Core/XMEGA/../XMEGA/Endpoint_XMEGA.h **** 			                                              const uint8_t Banks)
 246:LUFA//Drivers/USB/Class/Device/../../Core/XMEGA/../XMEGA/Endpoint_XMEGA.h **** 			{
 247:LUFA//Drivers/USB/Class/Device/../../Core/XMEGA/../XMEGA/Endpoint_XMEGA.h **** 				uint8_t EPConfigMask = (USB_EP_INTDSBL_bm | ((Banks > 1) ? USB_EP_PINGPONG_bm : 0) | Endpoint_B
 248:LUFA//Drivers/USB/Class/Device/../../Core/XMEGA/../XMEGA/Endpoint_XMEGA.h **** 
 249:LUFA//Drivers/USB/Class/Device/../../Core/XMEGA/../XMEGA/Endpoint_XMEGA.h **** 				if ((Address & ENDPOINT_EPNUM_MASK) >= ENDPOINT_TOTAL_ENDPOINTS)
 250:LUFA//Drivers/USB/Class/Device/../../Core/XMEGA/../XMEGA/Endpoint_XMEGA.h **** 				  return false;
 251:LUFA//Drivers/USB/Class/Device/../../Core/XMEGA/../XMEGA/Endpoint_XMEGA.h **** 
 252:LUFA//Drivers/USB/Class/Device/../../Core/XMEGA/../XMEGA/Endpoint_XMEGA.h **** 				// TODO - Fix once limitations are lifted
 253:LUFA//Drivers/USB/Class/Device/../../Core/XMEGA/../XMEGA/Endpoint_XMEGA.h **** 				EPConfigMask &= ~USB_EP_PINGPONG_bm;
 254:LUFA//Drivers/USB/Class/Device/../../Core/XMEGA/../XMEGA/Endpoint_XMEGA.h **** 				if (Size > 64)
 255:LUFA//Drivers/USB/Class/Device/../../Core/XMEGA/../XMEGA/Endpoint_XMEGA.h **** 				  return false;
 256:LUFA//Drivers/USB/Class/Device/../../Core/XMEGA/../XMEGA/Endpoint_XMEGA.h **** 
 257:LUFA//Drivers/USB/Class/Device/../../Core/XMEGA/../XMEGA/Endpoint_XMEGA.h **** 				switch (Type)
 258:LUFA//Drivers/USB/Class/Device/../../Core/XMEGA/../XMEGA/Endpoint_XMEGA.h **** 				{
 259:LUFA//Drivers/USB/Class/Device/../../Core/XMEGA/../XMEGA/Endpoint_XMEGA.h **** 					case EP_TYPE_CONTROL:
 260:LUFA//Drivers/USB/Class/Device/../../Core/XMEGA/../XMEGA/Endpoint_XMEGA.h **** 						EPConfigMask |= USB_EP_TYPE_CONTROL_gc;
 261:LUFA//Drivers/USB/Class/Device/../../Core/XMEGA/../XMEGA/Endpoint_XMEGA.h **** 						break;
 262:LUFA//Drivers/USB/Class/Device/../../Core/XMEGA/../XMEGA/Endpoint_XMEGA.h **** 					case EP_TYPE_ISOCHRONOUS:
 263:LUFA//Drivers/USB/Class/Device/../../Core/XMEGA/../XMEGA/Endpoint_XMEGA.h **** 						EPConfigMask |= USB_EP_TYPE_ISOCHRONOUS_gc;
 264:LUFA//Drivers/USB/Class/Device/../../Core/XMEGA/../XMEGA/Endpoint_XMEGA.h **** 						break;
 265:LUFA//Drivers/USB/Class/Device/../../Core/XMEGA/../XMEGA/Endpoint_XMEGA.h **** 					default:
 266:LUFA//Drivers/USB/Class/Device/../../Core/XMEGA/../XMEGA/Endpoint_XMEGA.h **** 						EPConfigMask |= USB_EP_TYPE_BULK_gc;
 267:LUFA//Drivers/USB/Class/Device/../../Core/XMEGA/../XMEGA/Endpoint_XMEGA.h **** 						break;
 268:LUFA//Drivers/USB/Class/Device/../../Core/XMEGA/../XMEGA/Endpoint_XMEGA.h **** 				}
 269:LUFA//Drivers/USB/Class/Device/../../Core/XMEGA/../XMEGA/Endpoint_XMEGA.h **** 
 270:LUFA//Drivers/USB/Class/Device/../../Core/XMEGA/../XMEGA/Endpoint_XMEGA.h **** 				if (Type == EP_TYPE_CONTROL)
 271:LUFA//Drivers/USB/Class/Device/../../Core/XMEGA/../XMEGA/Endpoint_XMEGA.h **** 				  Endpoint_ConfigureEndpoint_PRV(Address ^ ENDPOINT_DIR_IN, EPConfigMask, Size);
 272:LUFA//Drivers/USB/Class/Device/../../Core/XMEGA/../XMEGA/Endpoint_XMEGA.h **** 
 273:LUFA//Drivers/USB/Class/Device/../../Core/XMEGA/../XMEGA/Endpoint_XMEGA.h **** 				return Endpoint_ConfigureEndpoint_PRV(Address, EPConfigMask, Size);
 274:LUFA//Drivers/USB/Class/Device/../../Core/XMEGA/../XMEGA/Endpoint_XMEGA.h **** 			}
 275:LUFA//Drivers/USB/Class/Device/../../Core/XMEGA/../XMEGA/Endpoint_XMEGA.h **** 
 276:LUFA//Drivers/USB/Class/Device/../../Core/XMEGA/../XMEGA/Endpoint_XMEGA.h **** 			/** Indicates the number of bytes currently stored in the current endpoint's selected bank.
 277:LUFA//Drivers/USB/Class/Device/../../Core/XMEGA/../XMEGA/Endpoint_XMEGA.h **** 			 *
 278:LUFA//Drivers/USB/Class/Device/../../Core/XMEGA/../XMEGA/Endpoint_XMEGA.h **** 			 *  \ingroup Group_EndpointRW_XMEGA
 279:LUFA//Drivers/USB/Class/Device/../../Core/XMEGA/../XMEGA/Endpoint_XMEGA.h **** 			 *
 280:LUFA//Drivers/USB/Class/Device/../../Core/XMEGA/../XMEGA/Endpoint_XMEGA.h **** 			 *  \return Total number of bytes in the currently selected Endpoint's FIFO buffer.
 281:LUFA//Drivers/USB/Class/Device/../../Core/XMEGA/../XMEGA/Endpoint_XMEGA.h **** 			 */
 282:LUFA//Drivers/USB/Class/Device/../../Core/XMEGA/../XMEGA/Endpoint_XMEGA.h **** 			static inline uint16_t Endpoint_BytesInEndpoint(void) ATTR_WARN_UNUSED_RESULT ATTR_ALWAYS_INLINE
 283:LUFA//Drivers/USB/Class/Device/../../Core/XMEGA/../XMEGA/Endpoint_XMEGA.h **** 			static inline uint16_t Endpoint_BytesInEndpoint(void)
 284:LUFA//Drivers/USB/Class/Device/../../Core/XMEGA/../XMEGA/Endpoint_XMEGA.h **** 			{
 285:LUFA//Drivers/USB/Class/Device/../../Core/XMEGA/../XMEGA/Endpoint_XMEGA.h **** 				if (USB_Endpoint_SelectedEndpoint & ENDPOINT_DIR_IN)
 286:LUFA//Drivers/USB/Class/Device/../../Core/XMEGA/../XMEGA/Endpoint_XMEGA.h **** 				  return USB_Endpoint_SelectedFIFO->Position;
 287:LUFA//Drivers/USB/Class/Device/../../Core/XMEGA/../XMEGA/Endpoint_XMEGA.h **** 				else
 288:LUFA//Drivers/USB/Class/Device/../../Core/XMEGA/../XMEGA/Endpoint_XMEGA.h **** 				  return (USB_Endpoint_SelectedFIFO->Length - USB_Endpoint_SelectedFIFO->Position);
 289:LUFA//Drivers/USB/Class/Device/../../Core/XMEGA/../XMEGA/Endpoint_XMEGA.h **** 			}
 290:LUFA//Drivers/USB/Class/Device/../../Core/XMEGA/../XMEGA/Endpoint_XMEGA.h **** 
 291:LUFA//Drivers/USB/Class/Device/../../Core/XMEGA/../XMEGA/Endpoint_XMEGA.h **** 			/** Get the endpoint address of the currently selected endpoint. This is typically used to save
 292:LUFA//Drivers/USB/Class/Device/../../Core/XMEGA/../XMEGA/Endpoint_XMEGA.h **** 			 *  the currently selected endpoint so that it can be restored after another endpoint has been
 293:LUFA//Drivers/USB/Class/Device/../../Core/XMEGA/../XMEGA/Endpoint_XMEGA.h **** 			 *  manipulated.
 294:LUFA//Drivers/USB/Class/Device/../../Core/XMEGA/../XMEGA/Endpoint_XMEGA.h **** 			 *
 295:LUFA//Drivers/USB/Class/Device/../../Core/XMEGA/../XMEGA/Endpoint_XMEGA.h **** 			 *  \return Index of the currently selected endpoint.
 296:LUFA//Drivers/USB/Class/Device/../../Core/XMEGA/../XMEGA/Endpoint_XMEGA.h **** 			 */
 297:LUFA//Drivers/USB/Class/Device/../../Core/XMEGA/../XMEGA/Endpoint_XMEGA.h **** 			static inline uint8_t Endpoint_GetCurrentEndpoint(void) ATTR_WARN_UNUSED_RESULT ATTR_ALWAYS_INLI
 298:LUFA//Drivers/USB/Class/Device/../../Core/XMEGA/../XMEGA/Endpoint_XMEGA.h **** 			static inline uint8_t Endpoint_GetCurrentEndpoint(void)
 299:LUFA//Drivers/USB/Class/Device/../../Core/XMEGA/../XMEGA/Endpoint_XMEGA.h **** 			{
 300:LUFA//Drivers/USB/Class/Device/../../Core/XMEGA/../XMEGA/Endpoint_XMEGA.h **** 				return USB_Endpoint_SelectedEndpoint;
 301:LUFA//Drivers/USB/Class/Device/../../Core/XMEGA/../XMEGA/Endpoint_XMEGA.h **** 			}
 302:LUFA//Drivers/USB/Class/Device/../../Core/XMEGA/../XMEGA/Endpoint_XMEGA.h **** 
 303:LUFA//Drivers/USB/Class/Device/../../Core/XMEGA/../XMEGA/Endpoint_XMEGA.h **** 			/** Resets the endpoint bank FIFO. This clears all the endpoint banks and resets the USB control
 304:LUFA//Drivers/USB/Class/Device/../../Core/XMEGA/../XMEGA/Endpoint_XMEGA.h **** 			 *  data In and Out pointers to the bank's contents.
 305:LUFA//Drivers/USB/Class/Device/../../Core/XMEGA/../XMEGA/Endpoint_XMEGA.h **** 			 *
 306:LUFA//Drivers/USB/Class/Device/../../Core/XMEGA/../XMEGA/Endpoint_XMEGA.h **** 			 *  \param[in] Address  Endpoint address whose FIFO buffers are to be reset.
 307:LUFA//Drivers/USB/Class/Device/../../Core/XMEGA/../XMEGA/Endpoint_XMEGA.h **** 			 */
 308:LUFA//Drivers/USB/Class/Device/../../Core/XMEGA/../XMEGA/Endpoint_XMEGA.h **** 			static inline void Endpoint_ResetEndpoint(const uint8_t Address) ATTR_ALWAYS_INLINE;
 309:LUFA//Drivers/USB/Class/Device/../../Core/XMEGA/../XMEGA/Endpoint_XMEGA.h **** 			static inline void Endpoint_ResetEndpoint(const uint8_t Address)
 310:LUFA//Drivers/USB/Class/Device/../../Core/XMEGA/../XMEGA/Endpoint_XMEGA.h **** 			{
 311:LUFA//Drivers/USB/Class/Device/../../Core/XMEGA/../XMEGA/Endpoint_XMEGA.h **** 				if (Address & ENDPOINT_DIR_IN)
 312:LUFA//Drivers/USB/Class/Device/../../Core/XMEGA/../XMEGA/Endpoint_XMEGA.h **** 				  USB_Endpoint_FIFOs[Address & ENDPOINT_EPNUM_MASK].IN.Position  = 0;
 313:LUFA//Drivers/USB/Class/Device/../../Core/XMEGA/../XMEGA/Endpoint_XMEGA.h **** 				else
 314:LUFA//Drivers/USB/Class/Device/../../Core/XMEGA/../XMEGA/Endpoint_XMEGA.h **** 				  USB_Endpoint_FIFOs[Address & ENDPOINT_EPNUM_MASK].OUT.Position = 0;
 315:LUFA//Drivers/USB/Class/Device/../../Core/XMEGA/../XMEGA/Endpoint_XMEGA.h **** 			}
 316:LUFA//Drivers/USB/Class/Device/../../Core/XMEGA/../XMEGA/Endpoint_XMEGA.h **** 
 317:LUFA//Drivers/USB/Class/Device/../../Core/XMEGA/../XMEGA/Endpoint_XMEGA.h **** 			/** Determines if the currently selected endpoint is enabled, but not necessarily configured.
 318:LUFA//Drivers/USB/Class/Device/../../Core/XMEGA/../XMEGA/Endpoint_XMEGA.h **** 			 *
 319:LUFA//Drivers/USB/Class/Device/../../Core/XMEGA/../XMEGA/Endpoint_XMEGA.h **** 			 * \return Boolean \c true if the currently selected endpoint is enabled, \c false otherwise.
 320:LUFA//Drivers/USB/Class/Device/../../Core/XMEGA/../XMEGA/Endpoint_XMEGA.h **** 			 */
 321:LUFA//Drivers/USB/Class/Device/../../Core/XMEGA/../XMEGA/Endpoint_XMEGA.h **** 			static inline bool Endpoint_IsEnabled(void) ATTR_WARN_UNUSED_RESULT ATTR_ALWAYS_INLINE;
 322:LUFA//Drivers/USB/Class/Device/../../Core/XMEGA/../XMEGA/Endpoint_XMEGA.h **** 			static inline bool Endpoint_IsEnabled(void)
 323:LUFA//Drivers/USB/Class/Device/../../Core/XMEGA/../XMEGA/Endpoint_XMEGA.h **** 			{
 324:LUFA//Drivers/USB/Class/Device/../../Core/XMEGA/../XMEGA/Endpoint_XMEGA.h **** 				return true;
 325:LUFA//Drivers/USB/Class/Device/../../Core/XMEGA/../XMEGA/Endpoint_XMEGA.h **** 			}
 326:LUFA//Drivers/USB/Class/Device/../../Core/XMEGA/../XMEGA/Endpoint_XMEGA.h **** 
 327:LUFA//Drivers/USB/Class/Device/../../Core/XMEGA/../XMEGA/Endpoint_XMEGA.h **** 			/** Aborts all pending IN transactions on the currently selected endpoint, once the bank
 328:LUFA//Drivers/USB/Class/Device/../../Core/XMEGA/../XMEGA/Endpoint_XMEGA.h **** 			 *  has been queued for transmission to the host via \ref Endpoint_ClearIN(). This function
 329:LUFA//Drivers/USB/Class/Device/../../Core/XMEGA/../XMEGA/Endpoint_XMEGA.h **** 			 *  will terminate all queued transactions, resetting the endpoint banks ready for a new
 330:LUFA//Drivers/USB/Class/Device/../../Core/XMEGA/../XMEGA/Endpoint_XMEGA.h **** 			 *  packet.
 331:LUFA//Drivers/USB/Class/Device/../../Core/XMEGA/../XMEGA/Endpoint_XMEGA.h **** 			 *
 332:LUFA//Drivers/USB/Class/Device/../../Core/XMEGA/../XMEGA/Endpoint_XMEGA.h **** 			 *  \ingroup Group_EndpointPacketManagement_XMEGA
 333:LUFA//Drivers/USB/Class/Device/../../Core/XMEGA/../XMEGA/Endpoint_XMEGA.h **** 			 */
 334:LUFA//Drivers/USB/Class/Device/../../Core/XMEGA/../XMEGA/Endpoint_XMEGA.h **** 			static inline void Endpoint_AbortPendingIN(void)
 335:LUFA//Drivers/USB/Class/Device/../../Core/XMEGA/../XMEGA/Endpoint_XMEGA.h **** 			{
 336:LUFA//Drivers/USB/Class/Device/../../Core/XMEGA/../XMEGA/Endpoint_XMEGA.h **** 				USB_Endpoint_SelectedHandle->STATUS |= USB_EP_BUSNACK0_bm;
 337:LUFA//Drivers/USB/Class/Device/../../Core/XMEGA/../XMEGA/Endpoint_XMEGA.h **** 			}
 338:LUFA//Drivers/USB/Class/Device/../../Core/XMEGA/../XMEGA/Endpoint_XMEGA.h **** 
 339:LUFA//Drivers/USB/Class/Device/../../Core/XMEGA/../XMEGA/Endpoint_XMEGA.h **** 			/** Determines if the currently selected endpoint may be read from (if data is waiting in the en
 340:LUFA//Drivers/USB/Class/Device/../../Core/XMEGA/../XMEGA/Endpoint_XMEGA.h **** 			 *  bank and the endpoint is an OUT direction, or if the bank is not yet full if the endpoint is
 341:LUFA//Drivers/USB/Class/Device/../../Core/XMEGA/../XMEGA/Endpoint_XMEGA.h **** 			 *  direction). This function will return false if an error has occurred in the endpoint, if the
 342:LUFA//Drivers/USB/Class/Device/../../Core/XMEGA/../XMEGA/Endpoint_XMEGA.h **** 			 *  is an OUT direction and no packet (or an empty packet) has been received, or if the endpoint
 343:LUFA//Drivers/USB/Class/Device/../../Core/XMEGA/../XMEGA/Endpoint_XMEGA.h **** 			 *  direction and the endpoint bank is full.
 344:LUFA//Drivers/USB/Class/Device/../../Core/XMEGA/../XMEGA/Endpoint_XMEGA.h **** 			 *
 345:LUFA//Drivers/USB/Class/Device/../../Core/XMEGA/../XMEGA/Endpoint_XMEGA.h **** 			 *  \ingroup Group_EndpointPacketManagement_XMEGA
 346:LUFA//Drivers/USB/Class/Device/../../Core/XMEGA/../XMEGA/Endpoint_XMEGA.h **** 			 *
 347:LUFA//Drivers/USB/Class/Device/../../Core/XMEGA/../XMEGA/Endpoint_XMEGA.h **** 			 *  \return Boolean \c true if the currently selected endpoint may be read from or written to, d
 348:LUFA//Drivers/USB/Class/Device/../../Core/XMEGA/../XMEGA/Endpoint_XMEGA.h **** 			 *          on its direction.
 349:LUFA//Drivers/USB/Class/Device/../../Core/XMEGA/../XMEGA/Endpoint_XMEGA.h **** 			 */
 350:LUFA//Drivers/USB/Class/Device/../../Core/XMEGA/../XMEGA/Endpoint_XMEGA.h **** 			static inline bool Endpoint_IsReadWriteAllowed(void) ATTR_WARN_UNUSED_RESULT ATTR_ALWAYS_INLINE;
 351:LUFA//Drivers/USB/Class/Device/../../Core/XMEGA/../XMEGA/Endpoint_XMEGA.h **** 			static inline bool Endpoint_IsReadWriteAllowed(void)
 352:LUFA//Drivers/USB/Class/Device/../../Core/XMEGA/../XMEGA/Endpoint_XMEGA.h **** 			{
 353:LUFA//Drivers/USB/Class/Device/../../Core/XMEGA/../XMEGA/Endpoint_XMEGA.h **** 				return (USB_Endpoint_SelectedFIFO->Position < USB_Endpoint_SelectedFIFO->Length);
 354:LUFA//Drivers/USB/Class/Device/../../Core/XMEGA/../XMEGA/Endpoint_XMEGA.h **** 			}
 355:LUFA//Drivers/USB/Class/Device/../../Core/XMEGA/../XMEGA/Endpoint_XMEGA.h **** 
 356:LUFA//Drivers/USB/Class/Device/../../Core/XMEGA/../XMEGA/Endpoint_XMEGA.h **** 			/** Determines if the currently selected endpoint is configured.
 357:LUFA//Drivers/USB/Class/Device/../../Core/XMEGA/../XMEGA/Endpoint_XMEGA.h **** 			 *
 358:LUFA//Drivers/USB/Class/Device/../../Core/XMEGA/../XMEGA/Endpoint_XMEGA.h **** 			 *  \return Boolean \c true if the currently selected endpoint has been configured, \c false oth
 359:LUFA//Drivers/USB/Class/Device/../../Core/XMEGA/../XMEGA/Endpoint_XMEGA.h **** 			 */
 360:LUFA//Drivers/USB/Class/Device/../../Core/XMEGA/../XMEGA/Endpoint_XMEGA.h **** 			static inline bool Endpoint_IsConfigured(void) ATTR_WARN_UNUSED_RESULT ATTR_ALWAYS_INLINE;
 361:LUFA//Drivers/USB/Class/Device/../../Core/XMEGA/../XMEGA/Endpoint_XMEGA.h **** 			static inline bool Endpoint_IsConfigured(void)
 362:LUFA//Drivers/USB/Class/Device/../../Core/XMEGA/../XMEGA/Endpoint_XMEGA.h **** 			{
 363:LUFA//Drivers/USB/Class/Device/../../Core/XMEGA/../XMEGA/Endpoint_XMEGA.h **** 				return ((USB_Endpoint_SelectedHandle->CTRL & USB_EP_TYPE_gm) ? true : false);
 364:LUFA//Drivers/USB/Class/Device/../../Core/XMEGA/../XMEGA/Endpoint_XMEGA.h **** 			}
 365:LUFA//Drivers/USB/Class/Device/../../Core/XMEGA/../XMEGA/Endpoint_XMEGA.h **** 
 366:LUFA//Drivers/USB/Class/Device/../../Core/XMEGA/../XMEGA/Endpoint_XMEGA.h **** 			/** Determines if the selected IN endpoint is ready for a new packet to be sent to the host.
 367:LUFA//Drivers/USB/Class/Device/../../Core/XMEGA/../XMEGA/Endpoint_XMEGA.h **** 			 *
 368:LUFA//Drivers/USB/Class/Device/../../Core/XMEGA/../XMEGA/Endpoint_XMEGA.h **** 			 *  \ingroup Group_EndpointPacketManagement_XMEGA
 369:LUFA//Drivers/USB/Class/Device/../../Core/XMEGA/../XMEGA/Endpoint_XMEGA.h **** 			 *
 370:LUFA//Drivers/USB/Class/Device/../../Core/XMEGA/../XMEGA/Endpoint_XMEGA.h **** 			 *  \return Boolean \c true if the current endpoint is ready for an IN packet, \c false otherwis
 371:LUFA//Drivers/USB/Class/Device/../../Core/XMEGA/../XMEGA/Endpoint_XMEGA.h **** 			 */
 372:LUFA//Drivers/USB/Class/Device/../../Core/XMEGA/../XMEGA/Endpoint_XMEGA.h **** 			static inline bool Endpoint_IsINReady(void) ATTR_WARN_UNUSED_RESULT ATTR_ALWAYS_INLINE;
 373:LUFA//Drivers/USB/Class/Device/../../Core/XMEGA/../XMEGA/Endpoint_XMEGA.h **** 			static inline bool Endpoint_IsINReady(void)
 374:LUFA//Drivers/USB/Class/Device/../../Core/XMEGA/../XMEGA/Endpoint_XMEGA.h **** 			{
 375:LUFA//Drivers/USB/Class/Device/../../Core/XMEGA/../XMEGA/Endpoint_XMEGA.h **** 				Endpoint_SelectEndpoint(USB_Endpoint_SelectedEndpoint | ENDPOINT_DIR_IN);
 376:LUFA//Drivers/USB/Class/Device/../../Core/XMEGA/../XMEGA/Endpoint_XMEGA.h **** 
 377:LUFA//Drivers/USB/Class/Device/../../Core/XMEGA/../XMEGA/Endpoint_XMEGA.h **** 				return ((USB_Endpoint_SelectedHandle->STATUS & USB_EP_BUSNACK0_bm) ? true : false);
 378:LUFA//Drivers/USB/Class/Device/../../Core/XMEGA/../XMEGA/Endpoint_XMEGA.h **** 			}
 379:LUFA//Drivers/USB/Class/Device/../../Core/XMEGA/../XMEGA/Endpoint_XMEGA.h **** 
 380:LUFA//Drivers/USB/Class/Device/../../Core/XMEGA/../XMEGA/Endpoint_XMEGA.h **** 			/** Determines if the selected OUT endpoint has received new packet from the host.
 381:LUFA//Drivers/USB/Class/Device/../../Core/XMEGA/../XMEGA/Endpoint_XMEGA.h **** 			 *
 382:LUFA//Drivers/USB/Class/Device/../../Core/XMEGA/../XMEGA/Endpoint_XMEGA.h **** 			 *  \ingroup Group_EndpointPacketManagement_XMEGA
 383:LUFA//Drivers/USB/Class/Device/../../Core/XMEGA/../XMEGA/Endpoint_XMEGA.h **** 			 *
 384:LUFA//Drivers/USB/Class/Device/../../Core/XMEGA/../XMEGA/Endpoint_XMEGA.h **** 			 *  \return Boolean \c true if current endpoint is has received an OUT packet, \c false otherwis
 385:LUFA//Drivers/USB/Class/Device/../../Core/XMEGA/../XMEGA/Endpoint_XMEGA.h **** 			 */
 386:LUFA//Drivers/USB/Class/Device/../../Core/XMEGA/../XMEGA/Endpoint_XMEGA.h **** 			static inline bool Endpoint_IsOUTReceived(void) ATTR_WARN_UNUSED_RESULT ATTR_ALWAYS_INLINE;
 387:LUFA//Drivers/USB/Class/Device/../../Core/XMEGA/../XMEGA/Endpoint_XMEGA.h **** 			static inline bool Endpoint_IsOUTReceived(void)
 388:LUFA//Drivers/USB/Class/Device/../../Core/XMEGA/../XMEGA/Endpoint_XMEGA.h **** 			{
 389:LUFA//Drivers/USB/Class/Device/../../Core/XMEGA/../XMEGA/Endpoint_XMEGA.h **** 				Endpoint_SelectEndpoint(USB_Endpoint_SelectedEndpoint & ~ENDPOINT_DIR_IN);
 390:LUFA//Drivers/USB/Class/Device/../../Core/XMEGA/../XMEGA/Endpoint_XMEGA.h **** 
 391:LUFA//Drivers/USB/Class/Device/../../Core/XMEGA/../XMEGA/Endpoint_XMEGA.h **** 				if (USB_Endpoint_SelectedHandle->STATUS & USB_EP_TRNCOMPL0_bm)
 392:LUFA//Drivers/USB/Class/Device/../../Core/XMEGA/../XMEGA/Endpoint_XMEGA.h **** 				{
 393:LUFA//Drivers/USB/Class/Device/../../Core/XMEGA/../XMEGA/Endpoint_XMEGA.h **** 					USB_Endpoint_SelectedFIFO->Length = USB_Endpoint_SelectedHandle->CNT;
 394:LUFA//Drivers/USB/Class/Device/../../Core/XMEGA/../XMEGA/Endpoint_XMEGA.h **** 					return true;
 395:LUFA//Drivers/USB/Class/Device/../../Core/XMEGA/../XMEGA/Endpoint_XMEGA.h **** 				}
 396:LUFA//Drivers/USB/Class/Device/../../Core/XMEGA/../XMEGA/Endpoint_XMEGA.h **** 
 397:LUFA//Drivers/USB/Class/Device/../../Core/XMEGA/../XMEGA/Endpoint_XMEGA.h **** 				return false;
 398:LUFA//Drivers/USB/Class/Device/../../Core/XMEGA/../XMEGA/Endpoint_XMEGA.h **** 			}
 399:LUFA//Drivers/USB/Class/Device/../../Core/XMEGA/../XMEGA/Endpoint_XMEGA.h **** 
 400:LUFA//Drivers/USB/Class/Device/../../Core/XMEGA/../XMEGA/Endpoint_XMEGA.h **** 			/** Determines if the current CONTROL type endpoint has received a SETUP packet.
 401:LUFA//Drivers/USB/Class/Device/../../Core/XMEGA/../XMEGA/Endpoint_XMEGA.h **** 			 *
 402:LUFA//Drivers/USB/Class/Device/../../Core/XMEGA/../XMEGA/Endpoint_XMEGA.h **** 			 *  \ingroup Group_EndpointPacketManagement_XMEGA
 403:LUFA//Drivers/USB/Class/Device/../../Core/XMEGA/../XMEGA/Endpoint_XMEGA.h **** 			 *
 404:LUFA//Drivers/USB/Class/Device/../../Core/XMEGA/../XMEGA/Endpoint_XMEGA.h **** 			 *  \return Boolean \c true if the selected endpoint has received a SETUP packet, \c false other
 405:LUFA//Drivers/USB/Class/Device/../../Core/XMEGA/../XMEGA/Endpoint_XMEGA.h **** 			 */
 406:LUFA//Drivers/USB/Class/Device/../../Core/XMEGA/../XMEGA/Endpoint_XMEGA.h **** 			static inline bool Endpoint_IsSETUPReceived(void) ATTR_WARN_UNUSED_RESULT ATTR_ALWAYS_INLINE;
 407:LUFA//Drivers/USB/Class/Device/../../Core/XMEGA/../XMEGA/Endpoint_XMEGA.h **** 			static inline bool Endpoint_IsSETUPReceived(void)
 408:LUFA//Drivers/USB/Class/Device/../../Core/XMEGA/../XMEGA/Endpoint_XMEGA.h **** 			{
 409:LUFA//Drivers/USB/Class/Device/../../Core/XMEGA/../XMEGA/Endpoint_XMEGA.h **** 				Endpoint_SelectEndpoint(USB_Endpoint_SelectedEndpoint & ~ENDPOINT_DIR_IN);
 186               		.loc 1 409 0
 187 002e 8091 0000 		lds r24,USB_Endpoint_SelectedEndpoint
 188               	.LVL7:
 189 0032 8F77      		andi r24,lo8(127)
 190 0034 0E94 0000 		call Endpoint_SelectEndpoint
 410:LUFA//Drivers/USB/Class/Device/../../Core/XMEGA/../XMEGA/Endpoint_XMEGA.h **** 
 411:LUFA//Drivers/USB/Class/Device/../../Core/XMEGA/../XMEGA/Endpoint_XMEGA.h **** 				if (USB_Endpoint_SelectedHandle->STATUS & USB_EP_SETUP_bm)
 191               		.loc 1 411 0
 192 0038 A091 0000 		lds r26,USB_Endpoint_SelectedHandle
 193 003c B091 0000 		lds r27,USB_Endpoint_SelectedHandle+1
 194 0040 8C91      		ld r24,X
 195 0042 84FF      		sbrs r24,4
 196 0044 00C0      		rjmp .L5
 412:LUFA//Drivers/USB/Class/Device/../../Core/XMEGA/../XMEGA/Endpoint_XMEGA.h **** 				{
 413:LUFA//Drivers/USB/Class/Device/../../Core/XMEGA/../XMEGA/Endpoint_XMEGA.h **** 					USB_Endpoint_SelectedFIFO->Length = USB_Endpoint_SelectedHandle->CNT;
 197               		.loc 1 413 0
 198 0046 E091 0000 		lds r30,USB_Endpoint_SelectedFIFO
 199 004a F091 0000 		lds r31,USB_Endpoint_SelectedFIFO+1
 200 004e 1296      		adiw r26,2
 201 0050 8D91      		ld r24,X+
 202 0052 9C91      		ld r25,X
 203 0054 1397      		sbiw r26,2+1
 204 0056 E05C      		subi r30,lo8(-(64))
 205 0058 FF4F      		sbci r31,hi8(-(64))
 206 005a 8083      		st Z,r24
 207               	.LBE46:
 208               	.LBE45:
  45:LUFA//Drivers/USB/Class/Device/HIDClassDevice.c **** 	if (USB_ControlRequest.wIndex != HIDInterfaceInfo->Config.InterfaceNumber)
 209               		.loc 2 45 0
 210 005c D601      		movw r26,r12
 211 005e 8C91      		ld r24,X
 212 0060 90E0      		ldi r25,lo8(0)
 213 0062 2091 0000 		lds r18,USB_ControlRequest+4
 214 0066 3091 0000 		lds r19,USB_ControlRequest+4+1
 215 006a 2817      		cp r18,r24
 216 006c 3907      		cpc r19,r25
 217 006e 01F0      		breq .+2
 218 0070 00C0      		rjmp .L5
  48:LUFA//Drivers/USB/Class/Device/HIDClassDevice.c **** 	switch (USB_ControlRequest.bRequest)
 219               		.loc 2 48 0
 220 0072 8091 0000 		lds r24,USB_ControlRequest+1
 221 0076 8330      		cpi r24,lo8(3)
 222 0078 01F4      		brne .+2
 223 007a 00C0      		rjmp .L9
 224 007c 8430      		cpi r24,lo8(4)
 225 007e 00F4      		brsh .L13
 226 0080 8130      		cpi r24,lo8(1)
 227 0082 01F0      		breq .L7
 228 0084 8230      		cpi r24,lo8(2)
 229 0086 01F0      		breq .+2
 230 0088 00C0      		rjmp .L5
 231 008a 00C0      		rjmp .L23
 232               	.L13:
 233 008c 8A30      		cpi r24,lo8(10)
 234 008e 01F4      		brne .+2
 235 0090 00C0      		rjmp .L11
 236 0092 8B30      		cpi r24,lo8(11)
 237 0094 01F4      		brne .+2
 238 0096 00C0      		rjmp .L12
 239 0098 8930      		cpi r24,lo8(9)
 240 009a 01F0      		breq .+2
 241 009c 00C0      		rjmp .L5
 242 009e 00C0      		rjmp .L24
 243               	.L7:
  51:LUFA//Drivers/USB/Class/Device/HIDClassDevice.c **** 			if (USB_ControlRequest.bmRequestType == (REQDIR_DEVICETOHOST | REQTYPE_CLASS | REQREC_INTERFACE)
 244               		.loc 2 51 0
 245 00a0 8091 0000 		lds r24,USB_ControlRequest
 246 00a4 813A      		cpi r24,lo8(-95)
 247 00a6 01F0      		breq .+2
 248 00a8 00C0      		rjmp .L5
 249 00aa 9DB6      		in r9,__SP_L__
 250 00ac 8EB6      		in r8,__SP_H__
 251               	.LBB47:
  53:LUFA//Drivers/USB/Class/Device/HIDClassDevice.c **** 				uint16_t ReportSize = 0;
 252               		.loc 2 53 0
 253 00ae 1A82      		std Y+2,__zero_reg__
 254 00b0 1B82      		std Y+3,__zero_reg__
 255               	.LVL8:
  54:LUFA//Drivers/USB/Class/Device/HIDClassDevice.c **** 				uint8_t  ReportID   = (USB_ControlRequest.wValue & 0xFF);
 256               		.loc 2 54 0
 257 00b2 8091 0000 		lds r24,USB_ControlRequest+2
 258 00b6 0091 0000 		lds r16,USB_ControlRequest+3
 259 00ba 8983      		std Y+1,r24
 260               	.LVL9:
  56:LUFA//Drivers/USB/Class/Device/HIDClassDevice.c **** 				uint8_t  ReportData[HIDInterfaceInfo->Config.PrevReportINBufferSize];
 261               		.loc 2 56 0
 262 00bc F601      		movw r30,r12
 263 00be 4085      		ldd r20,Z+8
 264 00c0 8DB7      		in r24,__SP_L__
 265 00c2 9EB7      		in r25,__SP_H__
 266 00c4 841B      		sub r24,r20
 267 00c6 9109      		sbc r25,__zero_reg__
 268 00c8 8DBF      		out __SP_L__,r24
 269 00ca 9EBF      		out __SP_H__,r25
 270 00cc EDB6      		in r14,__SP_L__
 271 00ce FEB6      		in r15,__SP_H__
 272 00d0 0894      		sec
 273 00d2 E11C      		adc r14,__zero_reg__
 274 00d4 F11C      		adc r15,__zero_reg__
  58:LUFA//Drivers/USB/Class/Device/HIDClassDevice.c **** 				memset(ReportData, 0, sizeof(ReportData));
 275               		.loc 2 58 0
 276 00d6 BE2C      		mov r11,r14
 277 00d8 AF2C      		mov r10,r15
 278 00da C701      		movw r24,r14
 279 00dc 60E0      		ldi r22,lo8(0)
 280 00de 70E0      		ldi r23,hi8(0)
 281 00e0 50E0      		ldi r21,lo8(0)
 282 00e2 0E94 0000 		call memset
 283               	.LVL10:
  55:LUFA//Drivers/USB/Class/Device/HIDClassDevice.c **** 				uint8_t  ReportType = (USB_ControlRequest.wValue >> 8) - 1;
 284               		.loc 2 55 0
 285 00e6 402F      		mov r20,r16
 286 00e8 4150      		subi r20,lo8(-(-1))
  60:LUFA//Drivers/USB/Class/Device/HIDClassDevice.c **** 				CALLBACK_HID_Device_CreateHIDReport(HIDInterfaceInfo, &ReportID, ReportType, ReportData, &Repor
 287               		.loc 2 60 0
 288 00ea C601      		movw r24,r12
 289 00ec BE01      		movw r22,r28
 290 00ee 6F5F      		subi r22,lo8(-(1))
 291 00f0 7F4F      		sbci r23,hi8(-(1))
 292 00f2 9701      		movw r18,r14
 293 00f4 8E01      		movw r16,r28
 294               	.LVL11:
 295 00f6 0E5F      		subi r16,lo8(-(2))
 296 00f8 1F4F      		sbci r17,hi8(-(2))
 297 00fa 0E94 0000 		call CALLBACK_HID_Device_CreateHIDReport
 298               	.LVL12:
  62:LUFA//Drivers/USB/Class/Device/HIDClassDevice.c **** 				if (HIDInterfaceInfo->Config.PrevReportINBuffer != NULL)
 299               		.loc 2 62 0
 300 00fe D601      		movw r26,r12
 301 0100 1696      		adiw r26,6
 302 0102 8D91      		ld r24,X+
 303 0104 9C91      		ld r25,X
 304 0106 1797      		sbiw r26,6+1
 305 0108 0097      		sbiw r24,0
 306 010a 01F0      		breq .L14
  64:LUFA//Drivers/USB/Class/Device/HIDClassDevice.c **** 					memcpy(HIDInterfaceInfo->Config.PrevReportINBuffer, ReportData,
 307               		.loc 2 64 0
 308 010c 1896      		adiw r26,8
 309 010e 4C91      		ld r20,X
 310 0110 B701      		movw r22,r14
 311 0112 50E0      		ldi r21,lo8(0)
 312 0114 0E94 0000 		call memcpy
 313               	.L14:
  68:LUFA//Drivers/USB/Class/Device/HIDClassDevice.c **** 				Endpoint_SelectEndpoint(ENDPOINT_CONTROLEP);
 314               		.loc 2 68 0
 315 0118 80E0      		ldi r24,lo8(0)
 316 011a 0E94 0000 		call Endpoint_SelectEndpoint
 317               	.LBB48:
 318               	.LBB49:
 414:LUFA//Drivers/USB/Class/Device/../../Core/XMEGA/../XMEGA/Endpoint_XMEGA.h **** 					return true;
 415:LUFA//Drivers/USB/Class/Device/../../Core/XMEGA/../XMEGA/Endpoint_XMEGA.h **** 				}
 416:LUFA//Drivers/USB/Class/Device/../../Core/XMEGA/../XMEGA/Endpoint_XMEGA.h **** 
 417:LUFA//Drivers/USB/Class/Device/../../Core/XMEGA/../XMEGA/Endpoint_XMEGA.h **** 				return false;
 418:LUFA//Drivers/USB/Class/Device/../../Core/XMEGA/../XMEGA/Endpoint_XMEGA.h **** 			}
 419:LUFA//Drivers/USB/Class/Device/../../Core/XMEGA/../XMEGA/Endpoint_XMEGA.h **** 
 420:LUFA//Drivers/USB/Class/Device/../../Core/XMEGA/../XMEGA/Endpoint_XMEGA.h **** 			/** Clears a received SETUP packet on the currently selected CONTROL type endpoint, freeing up t
 421:LUFA//Drivers/USB/Class/Device/../../Core/XMEGA/../XMEGA/Endpoint_XMEGA.h **** 			 *  endpoint for the next packet.
 422:LUFA//Drivers/USB/Class/Device/../../Core/XMEGA/../XMEGA/Endpoint_XMEGA.h **** 			 *
 423:LUFA//Drivers/USB/Class/Device/../../Core/XMEGA/../XMEGA/Endpoint_XMEGA.h **** 			 *  \ingroup Group_EndpointPacketManagement_XMEGA
 424:LUFA//Drivers/USB/Class/Device/../../Core/XMEGA/../XMEGA/Endpoint_XMEGA.h **** 			 *
 425:LUFA//Drivers/USB/Class/Device/../../Core/XMEGA/../XMEGA/Endpoint_XMEGA.h **** 			 *  \note This is not applicable for non CONTROL type endpoints.
 426:LUFA//Drivers/USB/Class/Device/../../Core/XMEGA/../XMEGA/Endpoint_XMEGA.h **** 			 */
 427:LUFA//Drivers/USB/Class/Device/../../Core/XMEGA/../XMEGA/Endpoint_XMEGA.h **** 			static inline void Endpoint_ClearSETUP(void) ATTR_ALWAYS_INLINE;
 428:LUFA//Drivers/USB/Class/Device/../../Core/XMEGA/../XMEGA/Endpoint_XMEGA.h **** 			static inline void Endpoint_ClearSETUP(void)
 429:LUFA//Drivers/USB/Class/Device/../../Core/XMEGA/../XMEGA/Endpoint_XMEGA.h **** 			{
 430:LUFA//Drivers/USB/Class/Device/../../Core/XMEGA/../XMEGA/Endpoint_XMEGA.h **** 				Endpoint_SelectEndpoint(USB_Endpoint_SelectedEndpoint & ~ENDPOINT_DIR_IN);
 319               		.loc 1 430 0
 320 011e 8091 0000 		lds r24,USB_Endpoint_SelectedEndpoint
 321 0122 8F77      		andi r24,lo8(127)
 322 0124 0E94 0000 		call Endpoint_SelectEndpoint
 431:LUFA//Drivers/USB/Class/Device/../../Core/XMEGA/../XMEGA/Endpoint_XMEGA.h **** 				USB_Endpoint_SelectedHandle->STATUS &= ~(USB_EP_SETUP_bm | USB_EP_TRNCOMPL0_bm | USB_EP_BUSNACK
 323               		.loc 1 431 0
 324 0128 E091 0000 		lds r30,USB_Endpoint_SelectedHandle
 325 012c F091 0000 		lds r31,USB_Endpoint_SelectedHandle+1
 326 0130 8081      		ld r24,Z
 327 0132 8D78      		andi r24,lo8(-115)
 328 0134 8083      		st Z,r24
 432:LUFA//Drivers/USB/Class/Device/../../Core/XMEGA/../XMEGA/Endpoint_XMEGA.h **** 				USB_Endpoint_SelectedHandle->STATUS |= USB_EP_TOGGLE_bm;
 329               		.loc 1 432 0
 330 0136 E091 0000 		lds r30,USB_Endpoint_SelectedHandle
 331 013a F091 0000 		lds r31,USB_Endpoint_SelectedHandle+1
 332 013e 8081      		ld r24,Z
 333 0140 8160      		ori r24,lo8(1)
 334 0142 8083      		st Z,r24
 433:LUFA//Drivers/USB/Class/Device/../../Core/XMEGA/../XMEGA/Endpoint_XMEGA.h **** 				USB_Endpoint_SelectedFIFO->Position  = 0;
 335               		.loc 1 433 0
 336 0144 E091 0000 		lds r30,USB_Endpoint_SelectedFIFO
 337 0148 F091 0000 		lds r31,USB_Endpoint_SelectedFIFO+1
 338 014c EF5B      		subi r30,lo8(-(65))
 339 014e FF4F      		sbci r31,hi8(-(65))
 340 0150 1082      		st Z,__zero_reg__
 434:LUFA//Drivers/USB/Class/Device/../../Core/XMEGA/../XMEGA/Endpoint_XMEGA.h **** 
 435:LUFA//Drivers/USB/Class/Device/../../Core/XMEGA/../XMEGA/Endpoint_XMEGA.h **** 				Endpoint_SelectEndpoint(USB_Endpoint_SelectedEndpoint | ENDPOINT_DIR_IN);
 341               		.loc 1 435 0
 342 0152 8091 0000 		lds r24,USB_Endpoint_SelectedEndpoint
 343 0156 8068      		ori r24,lo8(-128)
 344 0158 0E94 0000 		call Endpoint_SelectEndpoint
 436:LUFA//Drivers/USB/Class/Device/../../Core/XMEGA/../XMEGA/Endpoint_XMEGA.h **** 				USB_Endpoint_SelectedHandle->STATUS |= USB_EP_TOGGLE_bm;
 345               		.loc 1 436 0
 346 015c E091 0000 		lds r30,USB_Endpoint_SelectedHandle
 347 0160 F091 0000 		lds r31,USB_Endpoint_SelectedHandle+1
 348 0164 8081      		ld r24,Z
 349 0166 8160      		ori r24,lo8(1)
 350 0168 8083      		st Z,r24
 437:LUFA//Drivers/USB/Class/Device/../../Core/XMEGA/../XMEGA/Endpoint_XMEGA.h **** 				USB_Endpoint_SelectedFIFO->Position  = 0;
 351               		.loc 1 437 0
 352 016a E091 0000 		lds r30,USB_Endpoint_SelectedFIFO
 353 016e F091 0000 		lds r31,USB_Endpoint_SelectedFIFO+1
 354 0172 EF5B      		subi r30,lo8(-(65))
 355 0174 FF4F      		sbci r31,hi8(-(65))
 356 0176 1082      		st Z,__zero_reg__
 357               	.LBE49:
 358               	.LBE48:
  71:LUFA//Drivers/USB/Class/Device/HIDClassDevice.c **** 				Endpoint_Write_Control_Stream_LE(ReportData, ReportSize);
 359               		.loc 2 71 0
 360 0178 6A81      		ldd r22,Y+2
 361 017a 7B81      		ldd r23,Y+3
 362 017c 8B2D      		mov r24,r11
 363 017e 9A2D      		mov r25,r10
 364 0180 0E94 0000 		call Endpoint_Write_Control_Stream_LE
 365               	.LBB50:
 366               	.LBB51:
 438:LUFA//Drivers/USB/Class/Device/../../Core/XMEGA/../XMEGA/Endpoint_XMEGA.h **** 			}
 439:LUFA//Drivers/USB/Class/Device/../../Core/XMEGA/../XMEGA/Endpoint_XMEGA.h **** 
 440:LUFA//Drivers/USB/Class/Device/../../Core/XMEGA/../XMEGA/Endpoint_XMEGA.h **** 			/** Sends an IN packet to the host on the currently selected endpoint, freeing up the endpoint f
 441:LUFA//Drivers/USB/Class/Device/../../Core/XMEGA/../XMEGA/Endpoint_XMEGA.h **** 			 *  next packet and switching to the alternative endpoint bank if double banked.
 442:LUFA//Drivers/USB/Class/Device/../../Core/XMEGA/../XMEGA/Endpoint_XMEGA.h **** 			 *
 443:LUFA//Drivers/USB/Class/Device/../../Core/XMEGA/../XMEGA/Endpoint_XMEGA.h **** 			 *  \ingroup Group_EndpointPacketManagement_XMEGA
 444:LUFA//Drivers/USB/Class/Device/../../Core/XMEGA/../XMEGA/Endpoint_XMEGA.h **** 			 */
 445:LUFA//Drivers/USB/Class/Device/../../Core/XMEGA/../XMEGA/Endpoint_XMEGA.h **** 			static inline void Endpoint_ClearIN(void) ATTR_ALWAYS_INLINE;
 446:LUFA//Drivers/USB/Class/Device/../../Core/XMEGA/../XMEGA/Endpoint_XMEGA.h **** 			static inline void Endpoint_ClearIN(void)
 447:LUFA//Drivers/USB/Class/Device/../../Core/XMEGA/../XMEGA/Endpoint_XMEGA.h **** 			{
 448:LUFA//Drivers/USB/Class/Device/../../Core/XMEGA/../XMEGA/Endpoint_XMEGA.h **** 				USB_Endpoint_SelectedHandle->CNT     = USB_Endpoint_SelectedFIFO->Position;
 449:LUFA//Drivers/USB/Class/Device/../../Core/XMEGA/../XMEGA/Endpoint_XMEGA.h **** 				USB_Endpoint_SelectedHandle->STATUS &= ~(USB_EP_TRNCOMPL0_bm | USB_EP_BUSNACK0_bm | USB_EP_OVF_
 450:LUFA//Drivers/USB/Class/Device/../../Core/XMEGA/../XMEGA/Endpoint_XMEGA.h **** 				USB_Endpoint_SelectedFIFO->Position  = 0;
 451:LUFA//Drivers/USB/Class/Device/../../Core/XMEGA/../XMEGA/Endpoint_XMEGA.h **** 			}
 452:LUFA//Drivers/USB/Class/Device/../../Core/XMEGA/../XMEGA/Endpoint_XMEGA.h **** 
 453:LUFA//Drivers/USB/Class/Device/../../Core/XMEGA/../XMEGA/Endpoint_XMEGA.h **** 			/** Acknowledges an OUT packet to the host on the currently selected endpoint, freeing up the en
 454:LUFA//Drivers/USB/Class/Device/../../Core/XMEGA/../XMEGA/Endpoint_XMEGA.h **** 			 *  for the next packet and switching to the alternative endpoint bank if double banked.
 455:LUFA//Drivers/USB/Class/Device/../../Core/XMEGA/../XMEGA/Endpoint_XMEGA.h **** 			 *
 456:LUFA//Drivers/USB/Class/Device/../../Core/XMEGA/../XMEGA/Endpoint_XMEGA.h **** 			 *  \ingroup Group_EndpointPacketManagement_XMEGA
 457:LUFA//Drivers/USB/Class/Device/../../Core/XMEGA/../XMEGA/Endpoint_XMEGA.h **** 			 */
 458:LUFA//Drivers/USB/Class/Device/../../Core/XMEGA/../XMEGA/Endpoint_XMEGA.h **** 			static inline void Endpoint_ClearOUT(void) ATTR_ALWAYS_INLINE;
 459:LUFA//Drivers/USB/Class/Device/../../Core/XMEGA/../XMEGA/Endpoint_XMEGA.h **** 			static inline void Endpoint_ClearOUT(void)
 460:LUFA//Drivers/USB/Class/Device/../../Core/XMEGA/../XMEGA/Endpoint_XMEGA.h **** 			{
 461:LUFA//Drivers/USB/Class/Device/../../Core/XMEGA/../XMEGA/Endpoint_XMEGA.h **** 				USB_Endpoint_SelectedHandle->STATUS &= ~(USB_EP_TRNCOMPL0_bm | USB_EP_BUSNACK0_bm | USB_EP_OVF_
 367               		.loc 1 461 0
 368 0184 E091 0000 		lds r30,USB_Endpoint_SelectedHandle
 369 0188 F091 0000 		lds r31,USB_Endpoint_SelectedHandle+1
 370 018c 8081      		ld r24,Z
 371 018e 8D79      		andi r24,lo8(-99)
 372 0190 8083      		st Z,r24
 462:LUFA//Drivers/USB/Class/Device/../../Core/XMEGA/../XMEGA/Endpoint_XMEGA.h **** 				USB_Endpoint_SelectedFIFO->Position  = 0;
 373               		.loc 1 462 0
 374 0192 E091 0000 		lds r30,USB_Endpoint_SelectedFIFO
 375 0196 F091 0000 		lds r31,USB_Endpoint_SelectedFIFO+1
 376 019a EF5B      		subi r30,lo8(-(65))
 377 019c FF4F      		sbci r31,hi8(-(65))
 378 019e 1082      		st Z,__zero_reg__
 379 01a0 9DBE      		out __SP_L__,r9
 380 01a2 8EBE      		out __SP_H__,r8
 381 01a4 00C0      		rjmp .L5
 382               	.LVL13:
 383               	.L24:
 384               	.LBE51:
 385               	.LBE50:
 386               	.LBE47:
  77:LUFA//Drivers/USB/Class/Device/HIDClassDevice.c **** 			if (USB_ControlRequest.bmRequestType == (REQDIR_HOSTTODEVICE | REQTYPE_CLASS | REQREC_INTERFACE)
 387               		.loc 2 77 0
 388 01a6 8091 0000 		lds r24,USB_ControlRequest
 389 01aa 8132      		cpi r24,lo8(33)
 390 01ac 01F0      		breq .+2
 391 01ae 00C0      		rjmp .L5
 392 01b0 ADB6      		in r10,__SP_L__
 393 01b2 9EB6      		in r9,__SP_H__
 394               	.LBB52:
  79:LUFA//Drivers/USB/Class/Device/HIDClassDevice.c **** 				uint16_t ReportSize = USB_ControlRequest.wLength;
 395               		.loc 2 79 0
 396 01b4 0091 0000 		lds r16,USB_ControlRequest+6
 397 01b8 1091 0000 		lds r17,USB_ControlRequest+6+1
 398               	.LVL14:
  80:LUFA//Drivers/USB/Class/Device/HIDClassDevice.c **** 				uint8_t  ReportID   = (USB_ControlRequest.wValue & 0xFF);
 399               		.loc 2 80 0
 400 01bc E090 0000 		lds r14,USB_ControlRequest+2
 401 01c0 B090 0000 		lds r11,USB_ControlRequest+3
 402               	.LVL15:
  82:LUFA//Drivers/USB/Class/Device/HIDClassDevice.c **** 				uint8_t  ReportData[ReportSize];
 403               		.loc 2 82 0
 404 01c4 EDB7      		in r30,__SP_L__
 405 01c6 FEB7      		in r31,__SP_H__
 406 01c8 E01B      		sub r30,r16
 407 01ca F10B      		sbc r31,r17
 408 01cc EDBF      		out __SP_L__,r30
 409 01ce FEBF      		out __SP_H__,r31
 410 01d0 6DB6      		in r6,__SP_L__
 411 01d2 7EB6      		in r7,__SP_H__
 412 01d4 0894      		sec
 413 01d6 611C      		adc r6,__zero_reg__
 414 01d8 711C      		adc r7,__zero_reg__
 415               	.LVL16:
 416               	.LBB53:
 417               	.LBB54:
 430:LUFA//Drivers/USB/Class/Device/../../Core/XMEGA/../XMEGA/Endpoint_XMEGA.h **** 				Endpoint_SelectEndpoint(USB_Endpoint_SelectedEndpoint & ~ENDPOINT_DIR_IN);
 418               		.loc 1 430 0
 419 01da 8091 0000 		lds r24,USB_Endpoint_SelectedEndpoint
 420 01de 8F77      		andi r24,lo8(127)
 421 01e0 0E94 0000 		call Endpoint_SelectEndpoint
 422               	.LVL17:
 431:LUFA//Drivers/USB/Class/Device/../../Core/XMEGA/../XMEGA/Endpoint_XMEGA.h **** 				USB_Endpoint_SelectedHandle->STATUS &= ~(USB_EP_SETUP_bm | USB_EP_TRNCOMPL0_bm | USB_EP_BUSNACK
 423               		.loc 1 431 0
 424 01e4 E091 0000 		lds r30,USB_Endpoint_SelectedHandle
 425 01e8 F091 0000 		lds r31,USB_Endpoint_SelectedHandle+1
 426 01ec 8081      		ld r24,Z
 427 01ee 8D78      		andi r24,lo8(-115)
 428 01f0 8083      		st Z,r24
 432:LUFA//Drivers/USB/Class/Device/../../Core/XMEGA/../XMEGA/Endpoint_XMEGA.h **** 				USB_Endpoint_SelectedHandle->STATUS |= USB_EP_TOGGLE_bm;
 429               		.loc 1 432 0
 430 01f2 E091 0000 		lds r30,USB_Endpoint_SelectedHandle
 431 01f6 F091 0000 		lds r31,USB_Endpoint_SelectedHandle+1
 432 01fa 8081      		ld r24,Z
 433 01fc 8160      		ori r24,lo8(1)
 434 01fe 8083      		st Z,r24
 433:LUFA//Drivers/USB/Class/Device/../../Core/XMEGA/../XMEGA/Endpoint_XMEGA.h **** 				USB_Endpoint_SelectedFIFO->Position  = 0;
 435               		.loc 1 433 0
 436 0200 E091 0000 		lds r30,USB_Endpoint_SelectedFIFO
 437 0204 F091 0000 		lds r31,USB_Endpoint_SelectedFIFO+1
 438 0208 EF5B      		subi r30,lo8(-(65))
 439 020a FF4F      		sbci r31,hi8(-(65))
 440 020c 1082      		st Z,__zero_reg__
 435:LUFA//Drivers/USB/Class/Device/../../Core/XMEGA/../XMEGA/Endpoint_XMEGA.h **** 				Endpoint_SelectEndpoint(USB_Endpoint_SelectedEndpoint | ENDPOINT_DIR_IN);
 441               		.loc 1 435 0
 442 020e 8091 0000 		lds r24,USB_Endpoint_SelectedEndpoint
 443 0212 8068      		ori r24,lo8(-128)
 444 0214 0E94 0000 		call Endpoint_SelectEndpoint
 436:LUFA//Drivers/USB/Class/Device/../../Core/XMEGA/../XMEGA/Endpoint_XMEGA.h **** 				USB_Endpoint_SelectedHandle->STATUS |= USB_EP_TOGGLE_bm;
 445               		.loc 1 436 0
 446 0218 E091 0000 		lds r30,USB_Endpoint_SelectedHandle
 447 021c F091 0000 		lds r31,USB_Endpoint_SelectedHandle+1
 448 0220 8081      		ld r24,Z
 449 0222 8160      		ori r24,lo8(1)
 450 0224 8083      		st Z,r24
 437:LUFA//Drivers/USB/Class/Device/../../Core/XMEGA/../XMEGA/Endpoint_XMEGA.h **** 				USB_Endpoint_SelectedFIFO->Position  = 0;
 451               		.loc 1 437 0
 452 0226 E091 0000 		lds r30,USB_Endpoint_SelectedFIFO
 453 022a F091 0000 		lds r31,USB_Endpoint_SelectedFIFO+1
 454 022e EF5B      		subi r30,lo8(-(65))
 455 0230 FF4F      		sbci r31,hi8(-(65))
 456 0232 1082      		st Z,__zero_reg__
 457               	.LBE54:
 458               	.LBE53:
  85:LUFA//Drivers/USB/Class/Device/HIDClassDevice.c **** 				Endpoint_Read_Control_Stream_LE(ReportData, ReportSize);
 459               		.loc 2 85 0
 460 0234 C301      		movw r24,r6
 461 0236 B801      		movw r22,r16
 462 0238 0E94 0000 		call Endpoint_Read_Control_Stream_LE
 463               	.LBB55:
 464               	.LBB56:
 448:LUFA//Drivers/USB/Class/Device/../../Core/XMEGA/../XMEGA/Endpoint_XMEGA.h **** 				USB_Endpoint_SelectedHandle->CNT     = USB_Endpoint_SelectedFIFO->Position;
 465               		.loc 1 448 0
 466 023c A091 0000 		lds r26,USB_Endpoint_SelectedHandle
 467 0240 B091 0000 		lds r27,USB_Endpoint_SelectedHandle+1
 468 0244 E091 0000 		lds r30,USB_Endpoint_SelectedFIFO
 469 0248 F091 0000 		lds r31,USB_Endpoint_SelectedFIFO+1
 470 024c EF5B      		subi r30,lo8(-(65))
 471 024e FF4F      		sbci r31,hi8(-(65))
 472 0250 8081      		ld r24,Z
 473 0252 90E0      		ldi r25,lo8(0)
 474 0254 1296      		adiw r26,2
 475 0256 8D93      		st X+,r24
 476 0258 9C93      		st X,r25
 477 025a 1397      		sbiw r26,2+1
 449:LUFA//Drivers/USB/Class/Device/../../Core/XMEGA/../XMEGA/Endpoint_XMEGA.h **** 				USB_Endpoint_SelectedHandle->STATUS &= ~(USB_EP_TRNCOMPL0_bm | USB_EP_BUSNACK0_bm | USB_EP_OVF_
 478               		.loc 1 449 0
 479 025c 8C91      		ld r24,X
 480 025e 8D79      		andi r24,lo8(-99)
 481 0260 8C93      		st X,r24
 450:LUFA//Drivers/USB/Class/Device/../../Core/XMEGA/../XMEGA/Endpoint_XMEGA.h **** 				USB_Endpoint_SelectedFIFO->Position  = 0;
 482               		.loc 1 450 0
 483 0262 E091 0000 		lds r30,USB_Endpoint_SelectedFIFO
 484 0266 F091 0000 		lds r31,USB_Endpoint_SelectedFIFO+1
 485 026a EF5B      		subi r30,lo8(-(65))
 486 026c FF4F      		sbci r31,hi8(-(65))
 487 026e 1082      		st Z,__zero_reg__
  88:LUFA//Drivers/USB/Class/Device/HIDClassDevice.c **** 				CALLBACK_HID_Device_ProcessHIDReport(HIDInterfaceInfo, ReportID, ReportType,
 488               		.loc 2 88 0
 489 0270 81E0      		ldi r24,lo8(1)
 490 0272 90E0      		ldi r25,hi8(1)
 491 0274 EE20      		tst r14
 492 0276 01F4      		brne .L16
 493 0278 80E0      		ldi r24,lo8(0)
 494 027a 90E0      		ldi r25,hi8(0)
 495               	.L16:
 496               	.LBE56:
 497               	.LBE55:
  81:LUFA//Drivers/USB/Class/Device/HIDClassDevice.c **** 				uint8_t  ReportType = (USB_ControlRequest.wValue >> 8) - 1;
 498               		.loc 2 81 0
 499 027c 4B2D      		mov r20,r11
 500 027e 4150      		subi r20,lo8(-(-1))
  88:LUFA//Drivers/USB/Class/Device/HIDClassDevice.c **** 				CALLBACK_HID_Device_ProcessHIDReport(HIDInterfaceInfo, ReportID, ReportType,
 501               		.loc 2 88 0
 502 0280 9301      		movw r18,r6
 503 0282 280F      		add r18,r24
 504 0284 391F      		adc r19,r25
 505 0286 081B      		sub r16,r24
 506 0288 190B      		sbc r17,r25
 507               	.LVL18:
 508 028a C601      		movw r24,r12
 509 028c 6E2D      		mov r22,r14
 510 028e 0E94 0000 		call CALLBACK_HID_Device_ProcessHIDReport
 511 0292 ADBE      		out __SP_L__,r10
 512 0294 9EBE      		out __SP_H__,r9
 513 0296 00C0      		rjmp .L5
 514               	.LVL19:
 515               	.L9:
 516               	.LBE52:
  94:LUFA//Drivers/USB/Class/Device/HIDClassDevice.c **** 			if (USB_ControlRequest.bmRequestType == (REQDIR_DEVICETOHOST | REQTYPE_CLASS | REQREC_INTERFACE)
 517               		.loc 2 94 0
 518 0298 8091 0000 		lds r24,USB_ControlRequest
 519 029c 813A      		cpi r24,lo8(-95)
 520 029e 01F0      		breq .+2
 521 02a0 00C0      		rjmp .L5
 522               	.LBB57:
 523               	.LBB58:
 430:LUFA//Drivers/USB/Class/Device/../../Core/XMEGA/../XMEGA/Endpoint_XMEGA.h **** 				Endpoint_SelectEndpoint(USB_Endpoint_SelectedEndpoint & ~ENDPOINT_DIR_IN);
 524               		.loc 1 430 0
 525 02a2 8091 0000 		lds r24,USB_Endpoint_SelectedEndpoint
 526 02a6 8F77      		andi r24,lo8(127)
 527 02a8 0E94 0000 		call Endpoint_SelectEndpoint
 431:LUFA//Drivers/USB/Class/Device/../../Core/XMEGA/../XMEGA/Endpoint_XMEGA.h **** 				USB_Endpoint_SelectedHandle->STATUS &= ~(USB_EP_SETUP_bm | USB_EP_TRNCOMPL0_bm | USB_EP_BUSNACK
 528               		.loc 1 431 0
 529 02ac E091 0000 		lds r30,USB_Endpoint_SelectedHandle
 530 02b0 F091 0000 		lds r31,USB_Endpoint_SelectedHandle+1
 531 02b4 8081      		ld r24,Z
 532 02b6 8D78      		andi r24,lo8(-115)
 533 02b8 8083      		st Z,r24
 432:LUFA//Drivers/USB/Class/Device/../../Core/XMEGA/../XMEGA/Endpoint_XMEGA.h **** 				USB_Endpoint_SelectedHandle->STATUS |= USB_EP_TOGGLE_bm;
 534               		.loc 1 432 0
 535 02ba E091 0000 		lds r30,USB_Endpoint_SelectedHandle
 536 02be F091 0000 		lds r31,USB_Endpoint_SelectedHandle+1
 537 02c2 8081      		ld r24,Z
 538 02c4 8160      		ori r24,lo8(1)
 539 02c6 8083      		st Z,r24
 433:LUFA//Drivers/USB/Class/Device/../../Core/XMEGA/../XMEGA/Endpoint_XMEGA.h **** 				USB_Endpoint_SelectedFIFO->Position  = 0;
 540               		.loc 1 433 0
 541 02c8 E091 0000 		lds r30,USB_Endpoint_SelectedFIFO
 542 02cc F091 0000 		lds r31,USB_Endpoint_SelectedFIFO+1
 543 02d0 EF5B      		subi r30,lo8(-(65))
 544 02d2 FF4F      		sbci r31,hi8(-(65))
 545 02d4 1082      		st Z,__zero_reg__
 435:LUFA//Drivers/USB/Class/Device/../../Core/XMEGA/../XMEGA/Endpoint_XMEGA.h **** 				Endpoint_SelectEndpoint(USB_Endpoint_SelectedEndpoint | ENDPOINT_DIR_IN);
 546               		.loc 1 435 0
 547 02d6 8091 0000 		lds r24,USB_Endpoint_SelectedEndpoint
 548 02da 8068      		ori r24,lo8(-128)
 549 02dc 0E94 0000 		call Endpoint_SelectEndpoint
 436:LUFA//Drivers/USB/Class/Device/../../Core/XMEGA/../XMEGA/Endpoint_XMEGA.h **** 				USB_Endpoint_SelectedHandle->STATUS |= USB_EP_TOGGLE_bm;
 550               		.loc 1 436 0
 551 02e0 E091 0000 		lds r30,USB_Endpoint_SelectedHandle
 552 02e4 F091 0000 		lds r31,USB_Endpoint_SelectedHandle+1
 553 02e8 8081      		ld r24,Z
 554 02ea 8160      		ori r24,lo8(1)
 555 02ec 8083      		st Z,r24
 437:LUFA//Drivers/USB/Class/Device/../../Core/XMEGA/../XMEGA/Endpoint_XMEGA.h **** 				USB_Endpoint_SelectedFIFO->Position  = 0;
 556               		.loc 1 437 0
 557 02ee E091 0000 		lds r30,USB_Endpoint_SelectedFIFO
 558 02f2 F091 0000 		lds r31,USB_Endpoint_SelectedFIFO+1
 559 02f6 EF5B      		subi r30,lo8(-(65))
 560 02f8 FF4F      		sbci r31,hi8(-(65))
 561 02fa 1082      		st Z,__zero_reg__
 562               	.L17:
 563               	.LBE58:
 564               	.LBE57:
 565               	.LBB59:
 566               	.LBB60:
 375:LUFA//Drivers/USB/Class/Device/../../Core/XMEGA/../XMEGA/Endpoint_XMEGA.h **** 				Endpoint_SelectEndpoint(USB_Endpoint_SelectedEndpoint | ENDPOINT_DIR_IN);
 567               		.loc 1 375 0 discriminator 1
 568 02fc 8091 0000 		lds r24,USB_Endpoint_SelectedEndpoint
 569 0300 8068      		ori r24,lo8(-128)
 570 0302 0E94 0000 		call Endpoint_SelectEndpoint
 377:LUFA//Drivers/USB/Class/Device/../../Core/XMEGA/../XMEGA/Endpoint_XMEGA.h **** 				return ((USB_Endpoint_SelectedHandle->STATUS & USB_EP_BUSNACK0_bm) ? true : false);
 571               		.loc 1 377 0 discriminator 1
 572 0306 E091 0000 		lds r30,USB_Endpoint_SelectedHandle
 573 030a F091 0000 		lds r31,USB_Endpoint_SelectedHandle+1
 574 030e 8081      		ld r24,Z
 575               	.LBE60:
 576               	.LBE59:
  97:LUFA//Drivers/USB/Class/Device/HIDClassDevice.c **** 				while (!(Endpoint_IsINReady()));
 577               		.loc 2 97 0 discriminator 1
 578 0310 81FF      		sbrs r24,1
 579 0312 00C0      		rjmp .L17
  98:LUFA//Drivers/USB/Class/Device/HIDClassDevice.c **** 				Endpoint_Write_8(HIDInterfaceInfo->State.UsingReportProtocol);
 580               		.loc 2 98 0
 581 0314 D601      		movw r26,r12
 582 0316 1996      		adiw r26,9
 583 0318 3C91      		ld r19,X
 584               	.LVL20:
 585               	.LBB61:
 586               	.LBB62:
 463:LUFA//Drivers/USB/Class/Device/../../Core/XMEGA/../XMEGA/Endpoint_XMEGA.h **** 			}
 464:LUFA//Drivers/USB/Class/Device/../../Core/XMEGA/../XMEGA/Endpoint_XMEGA.h **** 
 465:LUFA//Drivers/USB/Class/Device/../../Core/XMEGA/../XMEGA/Endpoint_XMEGA.h **** 			/** Stalls the current endpoint, indicating to the host that a logical problem occurred with the
 466:LUFA//Drivers/USB/Class/Device/../../Core/XMEGA/../XMEGA/Endpoint_XMEGA.h **** 			 *  indicated endpoint and that the current transfer sequence should be aborted. This provides a
 467:LUFA//Drivers/USB/Class/Device/../../Core/XMEGA/../XMEGA/Endpoint_XMEGA.h **** 			 *  way for devices to indicate invalid commands to the host so that the current transfer can be
 468:LUFA//Drivers/USB/Class/Device/../../Core/XMEGA/../XMEGA/Endpoint_XMEGA.h **** 			 *  aborted and the host can begin its own recovery sequence.
 469:LUFA//Drivers/USB/Class/Device/../../Core/XMEGA/../XMEGA/Endpoint_XMEGA.h **** 			 *
 470:LUFA//Drivers/USB/Class/Device/../../Core/XMEGA/../XMEGA/Endpoint_XMEGA.h **** 			 *  The currently selected endpoint remains stalled until either the \ref Endpoint_ClearStall() 
 471:LUFA//Drivers/USB/Class/Device/../../Core/XMEGA/../XMEGA/Endpoint_XMEGA.h **** 			 *  is called, or the host issues a CLEAR FEATURE request to the device for the currently select
 472:LUFA//Drivers/USB/Class/Device/../../Core/XMEGA/../XMEGA/Endpoint_XMEGA.h **** 			 *  endpoint.
 473:LUFA//Drivers/USB/Class/Device/../../Core/XMEGA/../XMEGA/Endpoint_XMEGA.h **** 			 *
 474:LUFA//Drivers/USB/Class/Device/../../Core/XMEGA/../XMEGA/Endpoint_XMEGA.h **** 			 *  \ingroup Group_EndpointPacketManagement_XMEGA
 475:LUFA//Drivers/USB/Class/Device/../../Core/XMEGA/../XMEGA/Endpoint_XMEGA.h **** 			 */
 476:LUFA//Drivers/USB/Class/Device/../../Core/XMEGA/../XMEGA/Endpoint_XMEGA.h **** 			static inline void Endpoint_StallTransaction(void) ATTR_ALWAYS_INLINE;
 477:LUFA//Drivers/USB/Class/Device/../../Core/XMEGA/../XMEGA/Endpoint_XMEGA.h **** 			static inline void Endpoint_StallTransaction(void)
 478:LUFA//Drivers/USB/Class/Device/../../Core/XMEGA/../XMEGA/Endpoint_XMEGA.h **** 			{
 479:LUFA//Drivers/USB/Class/Device/../../Core/XMEGA/../XMEGA/Endpoint_XMEGA.h **** 				USB_Endpoint_SelectedHandle->CTRL |= USB_EP_STALL_bm;
 480:LUFA//Drivers/USB/Class/Device/../../Core/XMEGA/../XMEGA/Endpoint_XMEGA.h **** 
 481:LUFA//Drivers/USB/Class/Device/../../Core/XMEGA/../XMEGA/Endpoint_XMEGA.h **** 				if ((USB_Endpoint_SelectedHandle->CTRL & USB_EP_TYPE_gm) == USB_EP_TYPE_CONTROL_gc)
 482:LUFA//Drivers/USB/Class/Device/../../Core/XMEGA/../XMEGA/Endpoint_XMEGA.h **** 				{
 483:LUFA//Drivers/USB/Class/Device/../../Core/XMEGA/../XMEGA/Endpoint_XMEGA.h **** 					Endpoint_SelectEndpoint(USB_Endpoint_SelectedEndpoint ^ ENDPOINT_DIR_IN);
 484:LUFA//Drivers/USB/Class/Device/../../Core/XMEGA/../XMEGA/Endpoint_XMEGA.h **** 					USB_Endpoint_SelectedHandle->CTRL |= USB_EP_STALL_bm;
 485:LUFA//Drivers/USB/Class/Device/../../Core/XMEGA/../XMEGA/Endpoint_XMEGA.h **** 				}
 486:LUFA//Drivers/USB/Class/Device/../../Core/XMEGA/../XMEGA/Endpoint_XMEGA.h **** 			}
 487:LUFA//Drivers/USB/Class/Device/../../Core/XMEGA/../XMEGA/Endpoint_XMEGA.h **** 
 488:LUFA//Drivers/USB/Class/Device/../../Core/XMEGA/../XMEGA/Endpoint_XMEGA.h **** 			/** Clears the STALL condition on the currently selected endpoint.
 489:LUFA//Drivers/USB/Class/Device/../../Core/XMEGA/../XMEGA/Endpoint_XMEGA.h **** 			 *
 490:LUFA//Drivers/USB/Class/Device/../../Core/XMEGA/../XMEGA/Endpoint_XMEGA.h **** 			 *  \ingroup Group_EndpointPacketManagement_XMEGA
 491:LUFA//Drivers/USB/Class/Device/../../Core/XMEGA/../XMEGA/Endpoint_XMEGA.h **** 			 */
 492:LUFA//Drivers/USB/Class/Device/../../Core/XMEGA/../XMEGA/Endpoint_XMEGA.h **** 			static inline void Endpoint_ClearStall(void) ATTR_ALWAYS_INLINE;
 493:LUFA//Drivers/USB/Class/Device/../../Core/XMEGA/../XMEGA/Endpoint_XMEGA.h **** 			static inline void Endpoint_ClearStall(void)
 494:LUFA//Drivers/USB/Class/Device/../../Core/XMEGA/../XMEGA/Endpoint_XMEGA.h **** 			{
 495:LUFA//Drivers/USB/Class/Device/../../Core/XMEGA/../XMEGA/Endpoint_XMEGA.h **** 				USB_Endpoint_SelectedHandle->CTRL &= ~USB_EP_STALL_bm;
 496:LUFA//Drivers/USB/Class/Device/../../Core/XMEGA/../XMEGA/Endpoint_XMEGA.h **** 			}
 497:LUFA//Drivers/USB/Class/Device/../../Core/XMEGA/../XMEGA/Endpoint_XMEGA.h **** 
 498:LUFA//Drivers/USB/Class/Device/../../Core/XMEGA/../XMEGA/Endpoint_XMEGA.h **** 			/** Determines if the currently selected endpoint is stalled, false otherwise.
 499:LUFA//Drivers/USB/Class/Device/../../Core/XMEGA/../XMEGA/Endpoint_XMEGA.h **** 			 *
 500:LUFA//Drivers/USB/Class/Device/../../Core/XMEGA/../XMEGA/Endpoint_XMEGA.h **** 			 *  \ingroup Group_EndpointPacketManagement_XMEGA
 501:LUFA//Drivers/USB/Class/Device/../../Core/XMEGA/../XMEGA/Endpoint_XMEGA.h **** 			 *
 502:LUFA//Drivers/USB/Class/Device/../../Core/XMEGA/../XMEGA/Endpoint_XMEGA.h **** 			 *  \return Boolean \c true if the currently selected endpoint is stalled, \c false otherwise.
 503:LUFA//Drivers/USB/Class/Device/../../Core/XMEGA/../XMEGA/Endpoint_XMEGA.h **** 			 */
 504:LUFA//Drivers/USB/Class/Device/../../Core/XMEGA/../XMEGA/Endpoint_XMEGA.h **** 			static inline bool Endpoint_IsStalled(void) ATTR_WARN_UNUSED_RESULT ATTR_ALWAYS_INLINE;
 505:LUFA//Drivers/USB/Class/Device/../../Core/XMEGA/../XMEGA/Endpoint_XMEGA.h **** 			static inline bool Endpoint_IsStalled(void)
 506:LUFA//Drivers/USB/Class/Device/../../Core/XMEGA/../XMEGA/Endpoint_XMEGA.h **** 			{
 507:LUFA//Drivers/USB/Class/Device/../../Core/XMEGA/../XMEGA/Endpoint_XMEGA.h **** 				return ((USB_Endpoint_SelectedHandle->CTRL & USB_EP_STALL_bm) ? true : false);
 508:LUFA//Drivers/USB/Class/Device/../../Core/XMEGA/../XMEGA/Endpoint_XMEGA.h **** 			}
 509:LUFA//Drivers/USB/Class/Device/../../Core/XMEGA/../XMEGA/Endpoint_XMEGA.h **** 
 510:LUFA//Drivers/USB/Class/Device/../../Core/XMEGA/../XMEGA/Endpoint_XMEGA.h **** 			/** Resets the data toggle of the currently selected endpoint. */
 511:LUFA//Drivers/USB/Class/Device/../../Core/XMEGA/../XMEGA/Endpoint_XMEGA.h **** 			static inline void Endpoint_ResetDataToggle(void) ATTR_ALWAYS_INLINE;
 512:LUFA//Drivers/USB/Class/Device/../../Core/XMEGA/../XMEGA/Endpoint_XMEGA.h **** 			static inline void Endpoint_ResetDataToggle(void)
 513:LUFA//Drivers/USB/Class/Device/../../Core/XMEGA/../XMEGA/Endpoint_XMEGA.h **** 			{
 514:LUFA//Drivers/USB/Class/Device/../../Core/XMEGA/../XMEGA/Endpoint_XMEGA.h **** 				USB_Endpoint_SelectedHandle->STATUS &= ~USB_EP_TOGGLE_bm;
 515:LUFA//Drivers/USB/Class/Device/../../Core/XMEGA/../XMEGA/Endpoint_XMEGA.h **** 			}
 516:LUFA//Drivers/USB/Class/Device/../../Core/XMEGA/../XMEGA/Endpoint_XMEGA.h **** 
 517:LUFA//Drivers/USB/Class/Device/../../Core/XMEGA/../XMEGA/Endpoint_XMEGA.h **** 			/** Determines the currently selected endpoint's direction.
 518:LUFA//Drivers/USB/Class/Device/../../Core/XMEGA/../XMEGA/Endpoint_XMEGA.h **** 			 *
 519:LUFA//Drivers/USB/Class/Device/../../Core/XMEGA/../XMEGA/Endpoint_XMEGA.h **** 			 *  \return The currently selected endpoint's direction, as a \c ENDPOINT_DIR_* mask.
 520:LUFA//Drivers/USB/Class/Device/../../Core/XMEGA/../XMEGA/Endpoint_XMEGA.h **** 			 */
 521:LUFA//Drivers/USB/Class/Device/../../Core/XMEGA/../XMEGA/Endpoint_XMEGA.h **** 			static inline uint8_t Endpoint_GetEndpointDirection(void) ATTR_WARN_UNUSED_RESULT ATTR_ALWAYS_IN
 522:LUFA//Drivers/USB/Class/Device/../../Core/XMEGA/../XMEGA/Endpoint_XMEGA.h **** 			static inline uint8_t Endpoint_GetEndpointDirection(void)
 523:LUFA//Drivers/USB/Class/Device/../../Core/XMEGA/../XMEGA/Endpoint_XMEGA.h **** 			{
 524:LUFA//Drivers/USB/Class/Device/../../Core/XMEGA/../XMEGA/Endpoint_XMEGA.h **** 				return (USB_Endpoint_SelectedEndpoint & ENDPOINT_DIR_IN);
 525:LUFA//Drivers/USB/Class/Device/../../Core/XMEGA/../XMEGA/Endpoint_XMEGA.h **** 			}
 526:LUFA//Drivers/USB/Class/Device/../../Core/XMEGA/../XMEGA/Endpoint_XMEGA.h **** 
 527:LUFA//Drivers/USB/Class/Device/../../Core/XMEGA/../XMEGA/Endpoint_XMEGA.h **** 			/** Reads one byte from the currently selected endpoint's bank, for OUT direction endpoints.
 528:LUFA//Drivers/USB/Class/Device/../../Core/XMEGA/../XMEGA/Endpoint_XMEGA.h **** 			 *
 529:LUFA//Drivers/USB/Class/Device/../../Core/XMEGA/../XMEGA/Endpoint_XMEGA.h **** 			 *  \ingroup Group_EndpointPrimitiveRW_XMEGA
 530:LUFA//Drivers/USB/Class/Device/../../Core/XMEGA/../XMEGA/Endpoint_XMEGA.h **** 			 *
 531:LUFA//Drivers/USB/Class/Device/../../Core/XMEGA/../XMEGA/Endpoint_XMEGA.h **** 			 *  \return Next byte in the currently selected endpoint's FIFO buffer.
 532:LUFA//Drivers/USB/Class/Device/../../Core/XMEGA/../XMEGA/Endpoint_XMEGA.h **** 			 */
 533:LUFA//Drivers/USB/Class/Device/../../Core/XMEGA/../XMEGA/Endpoint_XMEGA.h **** 			static inline uint8_t Endpoint_Read_8(void) ATTR_WARN_UNUSED_RESULT ATTR_ALWAYS_INLINE;
 534:LUFA//Drivers/USB/Class/Device/../../Core/XMEGA/../XMEGA/Endpoint_XMEGA.h **** 			static inline uint8_t Endpoint_Read_8(void)
 535:LUFA//Drivers/USB/Class/Device/../../Core/XMEGA/../XMEGA/Endpoint_XMEGA.h **** 			{
 536:LUFA//Drivers/USB/Class/Device/../../Core/XMEGA/../XMEGA/Endpoint_XMEGA.h **** 				return USB_Endpoint_SelectedFIFO->Data[USB_Endpoint_SelectedFIFO->Position++];
 537:LUFA//Drivers/USB/Class/Device/../../Core/XMEGA/../XMEGA/Endpoint_XMEGA.h **** 			}
 538:LUFA//Drivers/USB/Class/Device/../../Core/XMEGA/../XMEGA/Endpoint_XMEGA.h **** 
 539:LUFA//Drivers/USB/Class/Device/../../Core/XMEGA/../XMEGA/Endpoint_XMEGA.h **** 			/** Writes one byte to the currently selected endpoint's bank, for IN direction endpoints.
 540:LUFA//Drivers/USB/Class/Device/../../Core/XMEGA/../XMEGA/Endpoint_XMEGA.h **** 			 *
 541:LUFA//Drivers/USB/Class/Device/../../Core/XMEGA/../XMEGA/Endpoint_XMEGA.h **** 			 *  \ingroup Group_EndpointPrimitiveRW_XMEGA
 542:LUFA//Drivers/USB/Class/Device/../../Core/XMEGA/../XMEGA/Endpoint_XMEGA.h **** 			 *
 543:LUFA//Drivers/USB/Class/Device/../../Core/XMEGA/../XMEGA/Endpoint_XMEGA.h **** 			 *  \param[in] Data  Data to write into the the currently selected endpoint's FIFO buffer.
 544:LUFA//Drivers/USB/Class/Device/../../Core/XMEGA/../XMEGA/Endpoint_XMEGA.h **** 			 */
 545:LUFA//Drivers/USB/Class/Device/../../Core/XMEGA/../XMEGA/Endpoint_XMEGA.h **** 			static inline void Endpoint_Write_8(const uint8_t Data) ATTR_ALWAYS_INLINE;
 546:LUFA//Drivers/USB/Class/Device/../../Core/XMEGA/../XMEGA/Endpoint_XMEGA.h **** 			static inline void Endpoint_Write_8(const uint8_t Data)
 547:LUFA//Drivers/USB/Class/Device/../../Core/XMEGA/../XMEGA/Endpoint_XMEGA.h **** 			{
 548:LUFA//Drivers/USB/Class/Device/../../Core/XMEGA/../XMEGA/Endpoint_XMEGA.h **** 				USB_Endpoint_SelectedFIFO->Data[USB_Endpoint_SelectedFIFO->Position++] = Data;
 587               		.loc 1 548 0
 588 031a 8091 0000 		lds r24,USB_Endpoint_SelectedFIFO
 589 031e 9091 0000 		lds r25,USB_Endpoint_SelectedFIFO+1
 590 0322 FC01      		movw r30,r24
 591 0324 EF5B      		subi r30,lo8(-(65))
 592 0326 FF4F      		sbci r31,hi8(-(65))
 593 0328 2081      		ld r18,Z
 594 032a 820F      		add r24,r18
 595 032c 911D      		adc r25,__zero_reg__
 596 032e DC01      		movw r26,r24
 597 0330 3C93      		st X,r19
 598 0332 2F5F      		subi r18,lo8(-(1))
 599 0334 2083      		st Z,r18
 600 0336 00C0      		rjmp .L22
 601               	.LVL21:
 602               	.L12:
 603               	.LBE62:
 604               	.LBE61:
 105:LUFA//Drivers/USB/Class/Device/HIDClassDevice.c **** 			if (USB_ControlRequest.bmRequestType == (REQDIR_HOSTTODEVICE | REQTYPE_CLASS | REQREC_INTERFACE)
 605               		.loc 2 105 0
 606 0338 8091 0000 		lds r24,USB_ControlRequest
 607 033c 8132      		cpi r24,lo8(33)
 608 033e 01F0      		breq .+2
 609 0340 00C0      		rjmp .L5
 610               	.LBB63:
 611               	.LBB64:
 430:LUFA//Drivers/USB/Class/Device/../../Core/XMEGA/../XMEGA/Endpoint_XMEGA.h **** 				Endpoint_SelectEndpoint(USB_Endpoint_SelectedEndpoint & ~ENDPOINT_DIR_IN);
 612               		.loc 1 430 0
 613 0342 8091 0000 		lds r24,USB_Endpoint_SelectedEndpoint
 614 0346 8F77      		andi r24,lo8(127)
 615 0348 0E94 0000 		call Endpoint_SelectEndpoint
 431:LUFA//Drivers/USB/Class/Device/../../Core/XMEGA/../XMEGA/Endpoint_XMEGA.h **** 				USB_Endpoint_SelectedHandle->STATUS &= ~(USB_EP_SETUP_bm | USB_EP_TRNCOMPL0_bm | USB_EP_BUSNACK
 616               		.loc 1 431 0
 617 034c E091 0000 		lds r30,USB_Endpoint_SelectedHandle
 618 0350 F091 0000 		lds r31,USB_Endpoint_SelectedHandle+1
 619 0354 8081      		ld r24,Z
 620 0356 8D78      		andi r24,lo8(-115)
 621 0358 8083      		st Z,r24
 432:LUFA//Drivers/USB/Class/Device/../../Core/XMEGA/../XMEGA/Endpoint_XMEGA.h **** 				USB_Endpoint_SelectedHandle->STATUS |= USB_EP_TOGGLE_bm;
 622               		.loc 1 432 0
 623 035a E091 0000 		lds r30,USB_Endpoint_SelectedHandle
 624 035e F091 0000 		lds r31,USB_Endpoint_SelectedHandle+1
 625 0362 8081      		ld r24,Z
 626 0364 8160      		ori r24,lo8(1)
 627 0366 8083      		st Z,r24
 433:LUFA//Drivers/USB/Class/Device/../../Core/XMEGA/../XMEGA/Endpoint_XMEGA.h **** 				USB_Endpoint_SelectedFIFO->Position  = 0;
 628               		.loc 1 433 0
 629 0368 E091 0000 		lds r30,USB_Endpoint_SelectedFIFO
 630 036c F091 0000 		lds r31,USB_Endpoint_SelectedFIFO+1
 631 0370 EF5B      		subi r30,lo8(-(65))
 632 0372 FF4F      		sbci r31,hi8(-(65))
 633 0374 1082      		st Z,__zero_reg__
 435:LUFA//Drivers/USB/Class/Device/../../Core/XMEGA/../XMEGA/Endpoint_XMEGA.h **** 				Endpoint_SelectEndpoint(USB_Endpoint_SelectedEndpoint | ENDPOINT_DIR_IN);
 634               		.loc 1 435 0
 635 0376 8091 0000 		lds r24,USB_Endpoint_SelectedEndpoint
 636 037a 8068      		ori r24,lo8(-128)
 637 037c 0E94 0000 		call Endpoint_SelectEndpoint
 436:LUFA//Drivers/USB/Class/Device/../../Core/XMEGA/../XMEGA/Endpoint_XMEGA.h **** 				USB_Endpoint_SelectedHandle->STATUS |= USB_EP_TOGGLE_bm;
 638               		.loc 1 436 0
 639 0380 E091 0000 		lds r30,USB_Endpoint_SelectedHandle
 640 0384 F091 0000 		lds r31,USB_Endpoint_SelectedHandle+1
 641 0388 8081      		ld r24,Z
 642 038a 8160      		ori r24,lo8(1)
 643 038c 8083      		st Z,r24
 437:LUFA//Drivers/USB/Class/Device/../../Core/XMEGA/../XMEGA/Endpoint_XMEGA.h **** 				USB_Endpoint_SelectedFIFO->Position  = 0;
 644               		.loc 1 437 0
 645 038e E091 0000 		lds r30,USB_Endpoint_SelectedFIFO
 646 0392 F091 0000 		lds r31,USB_Endpoint_SelectedFIFO+1
 647 0396 EF5B      		subi r30,lo8(-(65))
 648 0398 FF4F      		sbci r31,hi8(-(65))
 649 039a 1082      		st Z,__zero_reg__
 650               	.LBE64:
 651               	.LBE63:
 108:LUFA//Drivers/USB/Class/Device/HIDClassDevice.c **** 				Endpoint_ClearStatusStage();
 652               		.loc 2 108 0
 653 039c 0E94 0000 		call Endpoint_ClearStatusStage
 110:LUFA//Drivers/USB/Class/Device/HIDClassDevice.c **** 				HIDInterfaceInfo->State.UsingReportProtocol = ((USB_ControlRequest.wValue & 0xFF) != 0x00);
 654               		.loc 2 110 0
 655 03a0 9091 0000 		lds r25,USB_ControlRequest+2
 656 03a4 81E0      		ldi r24,lo8(1)
 657 03a6 9923      		tst r25
 658 03a8 01F4      		brne .L18
 659 03aa 80E0      		ldi r24,lo8(0)
 660               	.L18:
 661 03ac F601      		movw r30,r12
 662 03ae 8187      		std Z+9,r24
 663 03b0 00C0      		rjmp .L5
 664               	.L11:
 115:LUFA//Drivers/USB/Class/Device/HIDClassDevice.c **** 			if (USB_ControlRequest.bmRequestType == (REQDIR_HOSTTODEVICE | REQTYPE_CLASS | REQREC_INTERFACE)
 665               		.loc 2 115 0
 666 03b2 8091 0000 		lds r24,USB_ControlRequest
 667 03b6 8132      		cpi r24,lo8(33)
 668 03b8 01F0      		breq .+2
 669 03ba 00C0      		rjmp .L5
 670               	.LBB65:
 671               	.LBB66:
 430:LUFA//Drivers/USB/Class/Device/../../Core/XMEGA/../XMEGA/Endpoint_XMEGA.h **** 				Endpoint_SelectEndpoint(USB_Endpoint_SelectedEndpoint & ~ENDPOINT_DIR_IN);
 672               		.loc 1 430 0
 673 03bc 8091 0000 		lds r24,USB_Endpoint_SelectedEndpoint
 674 03c0 8F77      		andi r24,lo8(127)
 675 03c2 0E94 0000 		call Endpoint_SelectEndpoint
 431:LUFA//Drivers/USB/Class/Device/../../Core/XMEGA/../XMEGA/Endpoint_XMEGA.h **** 				USB_Endpoint_SelectedHandle->STATUS &= ~(USB_EP_SETUP_bm | USB_EP_TRNCOMPL0_bm | USB_EP_BUSNACK
 676               		.loc 1 431 0
 677 03c6 E091 0000 		lds r30,USB_Endpoint_SelectedHandle
 678 03ca F091 0000 		lds r31,USB_Endpoint_SelectedHandle+1
 679 03ce 8081      		ld r24,Z
 680 03d0 8D78      		andi r24,lo8(-115)
 681 03d2 8083      		st Z,r24
 432:LUFA//Drivers/USB/Class/Device/../../Core/XMEGA/../XMEGA/Endpoint_XMEGA.h **** 				USB_Endpoint_SelectedHandle->STATUS |= USB_EP_TOGGLE_bm;
 682               		.loc 1 432 0
 683 03d4 E091 0000 		lds r30,USB_Endpoint_SelectedHandle
 684 03d8 F091 0000 		lds r31,USB_Endpoint_SelectedHandle+1
 685 03dc 8081      		ld r24,Z
 686 03de 8160      		ori r24,lo8(1)
 687 03e0 8083      		st Z,r24
 433:LUFA//Drivers/USB/Class/Device/../../Core/XMEGA/../XMEGA/Endpoint_XMEGA.h **** 				USB_Endpoint_SelectedFIFO->Position  = 0;
 688               		.loc 1 433 0
 689 03e2 E091 0000 		lds r30,USB_Endpoint_SelectedFIFO
 690 03e6 F091 0000 		lds r31,USB_Endpoint_SelectedFIFO+1
 691 03ea EF5B      		subi r30,lo8(-(65))
 692 03ec FF4F      		sbci r31,hi8(-(65))
 693 03ee 1082      		st Z,__zero_reg__
 435:LUFA//Drivers/USB/Class/Device/../../Core/XMEGA/../XMEGA/Endpoint_XMEGA.h **** 				Endpoint_SelectEndpoint(USB_Endpoint_SelectedEndpoint | ENDPOINT_DIR_IN);
 694               		.loc 1 435 0
 695 03f0 8091 0000 		lds r24,USB_Endpoint_SelectedEndpoint
 696 03f4 8068      		ori r24,lo8(-128)
 697 03f6 0E94 0000 		call Endpoint_SelectEndpoint
 436:LUFA//Drivers/USB/Class/Device/../../Core/XMEGA/../XMEGA/Endpoint_XMEGA.h **** 				USB_Endpoint_SelectedHandle->STATUS |= USB_EP_TOGGLE_bm;
 698               		.loc 1 436 0
 699 03fa E091 0000 		lds r30,USB_Endpoint_SelectedHandle
 700 03fe F091 0000 		lds r31,USB_Endpoint_SelectedHandle+1
 701 0402 8081      		ld r24,Z
 702 0404 8160      		ori r24,lo8(1)
 703 0406 8083      		st Z,r24
 437:LUFA//Drivers/USB/Class/Device/../../Core/XMEGA/../XMEGA/Endpoint_XMEGA.h **** 				USB_Endpoint_SelectedFIFO->Position  = 0;
 704               		.loc 1 437 0
 705 0408 E091 0000 		lds r30,USB_Endpoint_SelectedFIFO
 706 040c F091 0000 		lds r31,USB_Endpoint_SelectedFIFO+1
 707 0410 EF5B      		subi r30,lo8(-(65))
 708 0412 FF4F      		sbci r31,hi8(-(65))
 709 0414 1082      		st Z,__zero_reg__
 710               	.LBE66:
 711               	.LBE65:
 118:LUFA//Drivers/USB/Class/Device/HIDClassDevice.c **** 				Endpoint_ClearStatusStage();
 712               		.loc 2 118 0
 713 0416 0E94 0000 		call Endpoint_ClearStatusStage
 120:LUFA//Drivers/USB/Class/Device/HIDClassDevice.c **** 				HIDInterfaceInfo->State.IdleCount = ((USB_ControlRequest.wValue & 0xFF00) >> 6);
 714               		.loc 2 120 0
 715 041a 8091 0000 		lds r24,USB_ControlRequest+2
 716 041e 9091 0000 		lds r25,USB_ControlRequest+2+1
 717 0422 8070      		andi r24,lo8(-256)
 718 0424 B6E0      		ldi r27,6
 719 0426 9695      	1:	lsr r25
 720 0428 8795      		ror r24
 721 042a BA95      		dec r27
 722 042c 01F4      		brne 1b
 723 042e D601      		movw r26,r12
 724 0430 1C96      		adiw r26,12
 725 0432 8D93      		st X+,r24
 726 0434 9C93      		st X,r25
 727 0436 1D97      		sbiw r26,12+1
 728 0438 00C0      		rjmp .L5
 729               	.L23:
 125:LUFA//Drivers/USB/Class/Device/HIDClassDevice.c **** 			if (USB_ControlRequest.bmRequestType == (REQDIR_DEVICETOHOST | REQTYPE_CLASS | REQREC_INTERFACE)
 730               		.loc 2 125 0
 731 043a 8091 0000 		lds r24,USB_ControlRequest
 732 043e 813A      		cpi r24,lo8(-95)
 733 0440 01F0      		breq .+2
 734 0442 00C0      		rjmp .L5
 735               	.LBB67:
 736               	.LBB68:
 430:LUFA//Drivers/USB/Class/Device/../../Core/XMEGA/../XMEGA/Endpoint_XMEGA.h **** 				Endpoint_SelectEndpoint(USB_Endpoint_SelectedEndpoint & ~ENDPOINT_DIR_IN);
 737               		.loc 1 430 0
 738 0444 8091 0000 		lds r24,USB_Endpoint_SelectedEndpoint
 739 0448 8F77      		andi r24,lo8(127)
 740 044a 0E94 0000 		call Endpoint_SelectEndpoint
 431:LUFA//Drivers/USB/Class/Device/../../Core/XMEGA/../XMEGA/Endpoint_XMEGA.h **** 				USB_Endpoint_SelectedHandle->STATUS &= ~(USB_EP_SETUP_bm | USB_EP_TRNCOMPL0_bm | USB_EP_BUSNACK
 741               		.loc 1 431 0
 742 044e E091 0000 		lds r30,USB_Endpoint_SelectedHandle
 743 0452 F091 0000 		lds r31,USB_Endpoint_SelectedHandle+1
 744 0456 8081      		ld r24,Z
 745 0458 8D78      		andi r24,lo8(-115)
 746 045a 8083      		st Z,r24
 432:LUFA//Drivers/USB/Class/Device/../../Core/XMEGA/../XMEGA/Endpoint_XMEGA.h **** 				USB_Endpoint_SelectedHandle->STATUS |= USB_EP_TOGGLE_bm;
 747               		.loc 1 432 0
 748 045c E091 0000 		lds r30,USB_Endpoint_SelectedHandle
 749 0460 F091 0000 		lds r31,USB_Endpoint_SelectedHandle+1
 750 0464 8081      		ld r24,Z
 751 0466 8160      		ori r24,lo8(1)
 752 0468 8083      		st Z,r24
 433:LUFA//Drivers/USB/Class/Device/../../Core/XMEGA/../XMEGA/Endpoint_XMEGA.h **** 				USB_Endpoint_SelectedFIFO->Position  = 0;
 753               		.loc 1 433 0
 754 046a E091 0000 		lds r30,USB_Endpoint_SelectedFIFO
 755 046e F091 0000 		lds r31,USB_Endpoint_SelectedFIFO+1
 756 0472 EF5B      		subi r30,lo8(-(65))
 757 0474 FF4F      		sbci r31,hi8(-(65))
 758 0476 1082      		st Z,__zero_reg__
 435:LUFA//Drivers/USB/Class/Device/../../Core/XMEGA/../XMEGA/Endpoint_XMEGA.h **** 				Endpoint_SelectEndpoint(USB_Endpoint_SelectedEndpoint | ENDPOINT_DIR_IN);
 759               		.loc 1 435 0
 760 0478 8091 0000 		lds r24,USB_Endpoint_SelectedEndpoint
 761 047c 8068      		ori r24,lo8(-128)
 762 047e 0E94 0000 		call Endpoint_SelectEndpoint
 436:LUFA//Drivers/USB/Class/Device/../../Core/XMEGA/../XMEGA/Endpoint_XMEGA.h **** 				USB_Endpoint_SelectedHandle->STATUS |= USB_EP_TOGGLE_bm;
 763               		.loc 1 436 0
 764 0482 E091 0000 		lds r30,USB_Endpoint_SelectedHandle
 765 0486 F091 0000 		lds r31,USB_Endpoint_SelectedHandle+1
 766 048a 8081      		ld r24,Z
 767 048c 8160      		ori r24,lo8(1)
 768 048e 8083      		st Z,r24
 437:LUFA//Drivers/USB/Class/Device/../../Core/XMEGA/../XMEGA/Endpoint_XMEGA.h **** 				USB_Endpoint_SelectedFIFO->Position  = 0;
 769               		.loc 1 437 0
 770 0490 E091 0000 		lds r30,USB_Endpoint_SelectedFIFO
 771 0494 F091 0000 		lds r31,USB_Endpoint_SelectedFIFO+1
 772 0498 EF5B      		subi r30,lo8(-(65))
 773 049a FF4F      		sbci r31,hi8(-(65))
 774 049c 1082      		st Z,__zero_reg__
 775               	.L19:
 776               	.LBE68:
 777               	.LBE67:
 778               	.LBB69:
 779               	.LBB70:
 375:LUFA//Drivers/USB/Class/Device/../../Core/XMEGA/../XMEGA/Endpoint_XMEGA.h **** 				Endpoint_SelectEndpoint(USB_Endpoint_SelectedEndpoint | ENDPOINT_DIR_IN);
 780               		.loc 1 375 0 discriminator 1
 781 049e 8091 0000 		lds r24,USB_Endpoint_SelectedEndpoint
 782 04a2 8068      		ori r24,lo8(-128)
 783 04a4 0E94 0000 		call Endpoint_SelectEndpoint
 377:LUFA//Drivers/USB/Class/Device/../../Core/XMEGA/../XMEGA/Endpoint_XMEGA.h **** 				return ((USB_Endpoint_SelectedHandle->STATUS & USB_EP_BUSNACK0_bm) ? true : false);
 784               		.loc 1 377 0 discriminator 1
 785 04a8 E091 0000 		lds r30,USB_Endpoint_SelectedHandle
 786 04ac F091 0000 		lds r31,USB_Endpoint_SelectedHandle+1
 787 04b0 8081      		ld r24,Z
 788               	.LBE70:
 789               	.LBE69:
 128:LUFA//Drivers/USB/Class/Device/HIDClassDevice.c **** 				while (!(Endpoint_IsINReady()));
 790               		.loc 2 128 0 discriminator 1
 791 04b2 81FF      		sbrs r24,1
 792 04b4 00C0      		rjmp .L19
 129:LUFA//Drivers/USB/Class/Device/HIDClassDevice.c **** 				Endpoint_Write_8(HIDInterfaceInfo->State.IdleCount >> 2);
 793               		.loc 2 129 0
 794 04b6 F601      		movw r30,r12
 795 04b8 8485      		ldd r24,Z+12
 796 04ba 9585      		ldd r25,Z+13
 797 04bc 9695      		lsr r25
 798 04be 8795      		ror r24
 799 04c0 9695      		lsr r25
 800 04c2 8795      		ror r24
 801               	.LBB71:
 802               	.LBB72:
 803               		.loc 1 548 0
 804 04c4 2091 0000 		lds r18,USB_Endpoint_SelectedFIFO
 805 04c8 3091 0000 		lds r19,USB_Endpoint_SelectedFIFO+1
 806 04cc F901      		movw r30,r18
 807 04ce EF5B      		subi r30,lo8(-(65))
 808 04d0 FF4F      		sbci r31,hi8(-(65))
 809 04d2 9081      		ld r25,Z
 810 04d4 290F      		add r18,r25
 811 04d6 311D      		adc r19,__zero_reg__
 812 04d8 D901      		movw r26,r18
 813 04da 8C93      		st X,r24
 814 04dc 9F5F      		subi r25,lo8(-(1))
 815 04de 9083      		st Z,r25
 816               	.L22:
 817               	.LBE72:
 818               	.LBE71:
 819               	.LBB73:
 820               	.LBB74:
 448:LUFA//Drivers/USB/Class/Device/../../Core/XMEGA/../XMEGA/Endpoint_XMEGA.h **** 				USB_Endpoint_SelectedHandle->CNT     = USB_Endpoint_SelectedFIFO->Position;
 821               		.loc 1 448 0
 822 04e0 E091 0000 		lds r30,USB_Endpoint_SelectedHandle
 823 04e4 F091 0000 		lds r31,USB_Endpoint_SelectedHandle+1
 824 04e8 A091 0000 		lds r26,USB_Endpoint_SelectedFIFO
 825 04ec B091 0000 		lds r27,USB_Endpoint_SelectedFIFO+1
 826 04f0 AF5B      		subi r26,lo8(-(65))
 827 04f2 BF4F      		sbci r27,hi8(-(65))
 828 04f4 8C91      		ld r24,X
 829 04f6 90E0      		ldi r25,lo8(0)
 830 04f8 8283      		std Z+2,r24
 831 04fa 9383      		std Z+3,r25
 449:LUFA//Drivers/USB/Class/Device/../../Core/XMEGA/../XMEGA/Endpoint_XMEGA.h **** 				USB_Endpoint_SelectedHandle->STATUS &= ~(USB_EP_TRNCOMPL0_bm | USB_EP_BUSNACK0_bm | USB_EP_OVF_
 832               		.loc 1 449 0
 833 04fc 8081      		ld r24,Z
 834 04fe 8D79      		andi r24,lo8(-99)
 835 0500 8083      		st Z,r24
 450:LUFA//Drivers/USB/Class/Device/../../Core/XMEGA/../XMEGA/Endpoint_XMEGA.h **** 				USB_Endpoint_SelectedFIFO->Position  = 0;
 836               		.loc 1 450 0
 837 0502 E091 0000 		lds r30,USB_Endpoint_SelectedFIFO
 838 0506 F091 0000 		lds r31,USB_Endpoint_SelectedFIFO+1
 839 050a EF5B      		subi r30,lo8(-(65))
 840 050c FF4F      		sbci r31,hi8(-(65))
 841 050e 1082      		st Z,__zero_reg__
 842               	.LBE74:
 843               	.LBE73:
 131:LUFA//Drivers/USB/Class/Device/HIDClassDevice.c **** 				Endpoint_ClearStatusStage();
 844               		.loc 2 131 0
 845 0510 0E94 0000 		call Endpoint_ClearStatusStage
 846               	.LVL22:
 847               	.L5:
 848               		.loc 2 136 0
 849 0514 4DBE      		out __SP_L__,r4
 850 0516 5EBE      		out __SP_H__,r5
 851               	/* epilogue start */
 852 0518 2396      		adiw r28,3
 853 051a CDBF      		out __SP_L__,r28
 854 051c DEBF      		out __SP_H__,r29
 855 051e DF91      		pop r29
 856 0520 CF91      		pop r28
 857 0522 1F91      		pop r17
 858 0524 0F91      		pop r16
 859 0526 FF90      		pop r15
 860 0528 EF90      		pop r14
 861 052a DF90      		pop r13
 862 052c CF90      		pop r12
 863               	.LVL23:
 864 052e BF90      		pop r11
 865 0530 AF90      		pop r10
 866 0532 9F90      		pop r9
 867 0534 8F90      		pop r8
 868 0536 7F90      		pop r7
 869 0538 6F90      		pop r6
 870 053a 5F90      		pop r5
 871 053c 4F90      		pop r4
 872 053e 0895      		ret
 873               		.cfi_endproc
 874               	.LFE83:
 876               		.section	.text.HID_Device_ConfigureEndpoints,"ax",@progbits
 877               	.global	HID_Device_ConfigureEndpoints
 879               	HID_Device_ConfigureEndpoints:
 880               	.LFB84:
 137:LUFA//Drivers/USB/Class/Device/HIDClassDevice.c **** 
 138:LUFA//Drivers/USB/Class/Device/HIDClassDevice.c **** bool HID_Device_ConfigureEndpoints(USB_ClassInfo_HID_Device_t* const HIDInterfaceInfo)
 139:LUFA//Drivers/USB/Class/Device/HIDClassDevice.c **** {
 881               		.loc 2 139 0
 882               		.cfi_startproc
 883               	.LVL24:
 884 0000 CF93      		push r28
 885               	.LCFI18:
 886               		.cfi_def_cfa_offset 3
 887               		.cfi_offset 28, -2
 888 0002 DF93      		push r29
 889               	.LCFI19:
 890               		.cfi_def_cfa_offset 4
 891               		.cfi_offset 29, -3
 892               	/* prologue: function */
 893               	/* frame size = 0 */
 894               	/* stack size = 2 */
 895               	.L__stack_usage = 2
 896 0004 FC01      		movw r30,r24
 140:LUFA//Drivers/USB/Class/Device/HIDClassDevice.c **** 	memset(&HIDInterfaceInfo->State, 0x00, sizeof(HIDInterfaceInfo->State));
 897               		.loc 2 140 0
 898 0006 0996      		adiw r24,9
 899               	.LVL25:
 900 0008 DC01      		movw r26,r24
 901 000a 87E0      		ldi r24,lo8(7)
 902 000c ED01      		movw r28,r26
 903 000e 1992      		st Y+,__zero_reg__
 904 0010 8A95      	        dec r24
 905 0012 01F4      		brne .-6
 141:LUFA//Drivers/USB/Class/Device/HIDClassDevice.c **** 	HIDInterfaceInfo->State.UsingReportProtocol = true;
 906               		.loc 2 141 0
 907 0014 81E0      		ldi r24,lo8(1)
 908 0016 8187      		std Z+9,r24
 142:LUFA//Drivers/USB/Class/Device/HIDClassDevice.c **** 	HIDInterfaceInfo->State.IdleCount           = 500;
 909               		.loc 2 142 0
 910 0018 84EF      		ldi r24,lo8(500)
 911 001a 91E0      		ldi r25,hi8(500)
 912 001c 8487      		std Z+12,r24
 913 001e 9587      		std Z+13,r25
 143:LUFA//Drivers/USB/Class/Device/HIDClassDevice.c **** 
 144:LUFA//Drivers/USB/Class/Device/HIDClassDevice.c **** 	HIDInterfaceInfo->Config.ReportINEndpoint.Type = EP_TYPE_INTERRUPT;
 914               		.loc 2 144 0
 915 0020 83E0      		ldi r24,lo8(3)
 916 0022 8483      		std Z+4,r24
 145:LUFA//Drivers/USB/Class/Device/HIDClassDevice.c **** 
 146:LUFA//Drivers/USB/Class/Device/HIDClassDevice.c **** 	if (!(Endpoint_ConfigureEndpointTable(&HIDInterfaceInfo->Config.ReportINEndpoint, 1)))
 917               		.loc 2 146 0
 918 0024 CF01      		movw r24,r30
 919 0026 0196      		adiw r24,1
 920 0028 61E0      		ldi r22,lo8(1)
 921 002a 0E94 0000 		call Endpoint_ConfigureEndpointTable
 922               	.LVL26:
 923               	/* epilogue start */
 147:LUFA//Drivers/USB/Class/Device/HIDClassDevice.c **** 	  return false;	
 148:LUFA//Drivers/USB/Class/Device/HIDClassDevice.c **** 	
 149:LUFA//Drivers/USB/Class/Device/HIDClassDevice.c **** 	return true;
 150:LUFA//Drivers/USB/Class/Device/HIDClassDevice.c **** }
 924               		.loc 2 150 0
 925 002e DF91      		pop r29
 926 0030 CF91      		pop r28
 927 0032 0895      		ret
 928               		.cfi_endproc
 929               	.LFE84:
 931               		.section	.text.HID_Device_USBTask,"ax",@progbits
 932               	.global	HID_Device_USBTask
 934               	HID_Device_USBTask:
 935               	.LFB85:
 151:LUFA//Drivers/USB/Class/Device/HIDClassDevice.c **** 
 152:LUFA//Drivers/USB/Class/Device/HIDClassDevice.c **** void HID_Device_USBTask(USB_ClassInfo_HID_Device_t* const HIDInterfaceInfo)
 153:LUFA//Drivers/USB/Class/Device/HIDClassDevice.c **** {
 936               		.loc 2 153 0
 937               		.cfi_startproc
 938               	.LVL27:
 939 0000 4F92      		push r4
 940               	.LCFI20:
 941               		.cfi_def_cfa_offset 3
 942               		.cfi_offset 4, -2
 943 0002 5F92      		push r5
 944               	.LCFI21:
 945               		.cfi_def_cfa_offset 4
 946               		.cfi_offset 5, -3
 947 0004 6F92      		push r6
 948               	.LCFI22:
 949               		.cfi_def_cfa_offset 5
 950               		.cfi_offset 6, -4
 951 0006 7F92      		push r7
 952               	.LCFI23:
 953               		.cfi_def_cfa_offset 6
 954               		.cfi_offset 7, -5
 955 0008 8F92      		push r8
 956               	.LCFI24:
 957               		.cfi_def_cfa_offset 7
 958               		.cfi_offset 8, -6
 959 000a 9F92      		push r9
 960               	.LCFI25:
 961               		.cfi_def_cfa_offset 8
 962               		.cfi_offset 9, -7
 963 000c AF92      		push r10
 964               	.LCFI26:
 965               		.cfi_def_cfa_offset 9
 966               		.cfi_offset 10, -8
 967 000e BF92      		push r11
 968               	.LCFI27:
 969               		.cfi_def_cfa_offset 10
 970               		.cfi_offset 11, -9
 971 0010 CF92      		push r12
 972               	.LCFI28:
 973               		.cfi_def_cfa_offset 11
 974               		.cfi_offset 12, -10
 975 0012 DF92      		push r13
 976               	.LCFI29:
 977               		.cfi_def_cfa_offset 12
 978               		.cfi_offset 13, -11
 979 0014 EF92      		push r14
 980               	.LCFI30:
 981               		.cfi_def_cfa_offset 13
 982               		.cfi_offset 14, -12
 983 0016 FF92      		push r15
 984               	.LCFI31:
 985               		.cfi_def_cfa_offset 14
 986               		.cfi_offset 15, -13
 987 0018 0F93      		push r16
 988               	.LCFI32:
 989               		.cfi_def_cfa_offset 15
 990               		.cfi_offset 16, -14
 991 001a 1F93      		push r17
 992               	.LCFI33:
 993               		.cfi_def_cfa_offset 16
 994               		.cfi_offset 17, -15
 995 001c CF93      		push r28
 996               	.LCFI34:
 997               		.cfi_def_cfa_offset 17
 998               		.cfi_offset 28, -16
 999 001e DF93      		push r29
 1000               	.LCFI35:
 1001               		.cfi_def_cfa_offset 18
 1002               		.cfi_offset 29, -17
 1003 0020 00D0      		rcall .
 1004 0022 0F92      		push __tmp_reg__
 1005               	.LCFI36:
 1006               		.cfi_def_cfa_offset 21
 1007 0024 CDB7      		in r28,__SP_L__
 1008 0026 DEB7      		in r29,__SP_H__
 1009               	.LCFI37:
 1010               		.cfi_def_cfa_register 28
 1011               	/* prologue: function */
 1012               	/* frame size = 3 */
 1013               	/* stack size = 19 */
 1014               	.L__stack_usage = 19
 1015 0028 6C01      		movw r12,r24
 154:LUFA//Drivers/USB/Class/Device/HIDClassDevice.c **** 	if (USB_DeviceState != DEVICE_STATE_Configured)
 155:LUFA//Drivers/USB/Class/Device/HIDClassDevice.c **** 	  return;
 156:LUFA//Drivers/USB/Class/Device/HIDClassDevice.c **** 
 157:LUFA//Drivers/USB/Class/Device/HIDClassDevice.c **** 	if (HIDInterfaceInfo->State.PrevFrameNum == USB_Device_GetFrameNumber())
 158:LUFA//Drivers/USB/Class/Device/HIDClassDevice.c **** 	  return;
 159:LUFA//Drivers/USB/Class/Device/HIDClassDevice.c **** 	  
 160:LUFA//Drivers/USB/Class/Device/HIDClassDevice.c **** 	Endpoint_SelectEndpoint(HIDInterfaceInfo->Config.ReportINEndpoint.Address);
 161:LUFA//Drivers/USB/Class/Device/HIDClassDevice.c **** 
 162:LUFA//Drivers/USB/Class/Device/HIDClassDevice.c **** 	if (Endpoint_IsReadWriteAllowed())
 163:LUFA//Drivers/USB/Class/Device/HIDClassDevice.c **** 	{
 164:LUFA//Drivers/USB/Class/Device/HIDClassDevice.c **** 		uint8_t  ReportINData[HIDInterfaceInfo->Config.PrevReportINBufferSize];
 165:LUFA//Drivers/USB/Class/Device/HIDClassDevice.c **** 		uint8_t  ReportID     = 0;
 166:LUFA//Drivers/USB/Class/Device/HIDClassDevice.c **** 		uint16_t ReportINSize = 0;
 167:LUFA//Drivers/USB/Class/Device/HIDClassDevice.c **** 
 168:LUFA//Drivers/USB/Class/Device/HIDClassDevice.c **** 		memset(ReportINData, 0, sizeof(ReportINData));
 169:LUFA//Drivers/USB/Class/Device/HIDClassDevice.c **** 
 170:LUFA//Drivers/USB/Class/Device/HIDClassDevice.c **** 		bool ForceSend         = CALLBACK_HID_Device_CreateHIDReport(HIDInterfaceInfo, &ReportID, HID_REP
 171:LUFA//Drivers/USB/Class/Device/HIDClassDevice.c **** 		                                                             ReportINData, &ReportINSize);
 172:LUFA//Drivers/USB/Class/Device/HIDClassDevice.c **** 		bool StatesChanged     = false;
 173:LUFA//Drivers/USB/Class/Device/HIDClassDevice.c **** 		bool IdlePeriodElapsed = (HIDInterfaceInfo->State.IdleCount && !(HIDInterfaceInfo->State.IdleMSRe
 174:LUFA//Drivers/USB/Class/Device/HIDClassDevice.c **** 
 175:LUFA//Drivers/USB/Class/Device/HIDClassDevice.c **** 		if (HIDInterfaceInfo->Config.PrevReportINBuffer != NULL)
 176:LUFA//Drivers/USB/Class/Device/HIDClassDevice.c **** 		{
 177:LUFA//Drivers/USB/Class/Device/HIDClassDevice.c **** 			StatesChanged = (memcmp(ReportINData, HIDInterfaceInfo->Config.PrevReportINBuffer, ReportINSize)
 178:LUFA//Drivers/USB/Class/Device/HIDClassDevice.c **** 			memcpy(HIDInterfaceInfo->Config.PrevReportINBuffer, ReportINData, HIDInterfaceInfo->Config.PrevR
 179:LUFA//Drivers/USB/Class/Device/HIDClassDevice.c **** 		}
 180:LUFA//Drivers/USB/Class/Device/HIDClassDevice.c **** 
 181:LUFA//Drivers/USB/Class/Device/HIDClassDevice.c **** 		if (ReportINSize && (ForceSend || StatesChanged || IdlePeriodElapsed))
 182:LUFA//Drivers/USB/Class/Device/HIDClassDevice.c **** 		{
 183:LUFA//Drivers/USB/Class/Device/HIDClassDevice.c **** 			HIDInterfaceInfo->State.IdleMSRemaining = HIDInterfaceInfo->State.IdleCount;
 184:LUFA//Drivers/USB/Class/Device/HIDClassDevice.c **** 
 185:LUFA//Drivers/USB/Class/Device/HIDClassDevice.c **** 			Endpoint_SelectEndpoint(HIDInterfaceInfo->Config.ReportINEndpoint.Address);
 186:LUFA//Drivers/USB/Class/Device/HIDClassDevice.c **** 
 187:LUFA//Drivers/USB/Class/Device/HIDClassDevice.c **** 			if (ReportID)
 188:LUFA//Drivers/USB/Class/Device/HIDClassDevice.c **** 			  Endpoint_Write_8(ReportID);
 189:LUFA//Drivers/USB/Class/Device/HIDClassDevice.c **** 
 190:LUFA//Drivers/USB/Class/Device/HIDClassDevice.c **** 			Endpoint_Write_Stream_LE(ReportINData, ReportINSize, NULL);
 191:LUFA//Drivers/USB/Class/Device/HIDClassDevice.c **** 
 192:LUFA//Drivers/USB/Class/Device/HIDClassDevice.c **** 			Endpoint_ClearIN();
 193:LUFA//Drivers/USB/Class/Device/HIDClassDevice.c **** 		}
 194:LUFA//Drivers/USB/Class/Device/HIDClassDevice.c **** 		
 195:LUFA//Drivers/USB/Class/Device/HIDClassDevice.c **** 		HIDInterfaceInfo->State.PrevFrameNum = USB_Device_GetFrameNumber();
 196:LUFA//Drivers/USB/Class/Device/HIDClassDevice.c **** 	}
 197:LUFA//Drivers/USB/Class/Device/HIDClassDevice.c **** }
 1016               		.loc 2 197 0
 1017 002a 4DB6      		in r4,__SP_L__
 1018 002c 5EB6      		in r5,__SP_H__
 154:LUFA//Drivers/USB/Class/Device/HIDClassDevice.c **** 	if (USB_DeviceState != DEVICE_STATE_Configured)
 1019               		.loc 2 154 0
 1020 002e 8091 0000 		lds r24,USB_DeviceState
 1021               	.LVL28:
 1022 0032 8430      		cpi r24,lo8(4)
 1023 0034 01F0      		breq .+2
 1024 0036 00C0      		rjmp .L26
 1025               	.LBB75:
 1026               	.LBB76:
 1027               		.file 3 "LUFA//Drivers/USB/Class/Device/../../Core/XMEGA/../XMEGA/Device_XMEGA.h"
   1:LUFA//Drivers/USB/Class/Device/../../Core/XMEGA/../XMEGA/Device_XMEGA.h **** /*
   2:LUFA//Drivers/USB/Class/Device/../../Core/XMEGA/../XMEGA/Device_XMEGA.h ****              LUFA Library
   3:LUFA//Drivers/USB/Class/Device/../../Core/XMEGA/../XMEGA/Device_XMEGA.h ****      Copyright (C) Dean Camera, 2012.
   4:LUFA//Drivers/USB/Class/Device/../../Core/XMEGA/../XMEGA/Device_XMEGA.h **** 
   5:LUFA//Drivers/USB/Class/Device/../../Core/XMEGA/../XMEGA/Device_XMEGA.h ****   dean [at] fourwalledcubicle [dot] com
   6:LUFA//Drivers/USB/Class/Device/../../Core/XMEGA/../XMEGA/Device_XMEGA.h ****            www.lufa-lib.org
   7:LUFA//Drivers/USB/Class/Device/../../Core/XMEGA/../XMEGA/Device_XMEGA.h **** */
   8:LUFA//Drivers/USB/Class/Device/../../Core/XMEGA/../XMEGA/Device_XMEGA.h **** 
   9:LUFA//Drivers/USB/Class/Device/../../Core/XMEGA/../XMEGA/Device_XMEGA.h **** /*
  10:LUFA//Drivers/USB/Class/Device/../../Core/XMEGA/../XMEGA/Device_XMEGA.h ****   Copyright 2012  Dean Camera (dean [at] fourwalledcubicle [dot] com)
  11:LUFA//Drivers/USB/Class/Device/../../Core/XMEGA/../XMEGA/Device_XMEGA.h **** 
  12:LUFA//Drivers/USB/Class/Device/../../Core/XMEGA/../XMEGA/Device_XMEGA.h ****   Permission to use, copy, modify, distribute, and sell this
  13:LUFA//Drivers/USB/Class/Device/../../Core/XMEGA/../XMEGA/Device_XMEGA.h ****   software and its documentation for any purpose is hereby granted
  14:LUFA//Drivers/USB/Class/Device/../../Core/XMEGA/../XMEGA/Device_XMEGA.h ****   without fee, provided that the above copyright notice appear in
  15:LUFA//Drivers/USB/Class/Device/../../Core/XMEGA/../XMEGA/Device_XMEGA.h ****   all copies and that both that the copyright notice and this
  16:LUFA//Drivers/USB/Class/Device/../../Core/XMEGA/../XMEGA/Device_XMEGA.h ****   permission notice and warranty disclaimer appear in supporting
  17:LUFA//Drivers/USB/Class/Device/../../Core/XMEGA/../XMEGA/Device_XMEGA.h ****   documentation, and that the name of the author not be used in
  18:LUFA//Drivers/USB/Class/Device/../../Core/XMEGA/../XMEGA/Device_XMEGA.h ****   advertising or publicity pertaining to distribution of the
  19:LUFA//Drivers/USB/Class/Device/../../Core/XMEGA/../XMEGA/Device_XMEGA.h ****   software without specific, written prior permission.
  20:LUFA//Drivers/USB/Class/Device/../../Core/XMEGA/../XMEGA/Device_XMEGA.h **** 
  21:LUFA//Drivers/USB/Class/Device/../../Core/XMEGA/../XMEGA/Device_XMEGA.h ****   The author disclaim all warranties with regard to this
  22:LUFA//Drivers/USB/Class/Device/../../Core/XMEGA/../XMEGA/Device_XMEGA.h ****   software, including all implied warranties of merchantability
  23:LUFA//Drivers/USB/Class/Device/../../Core/XMEGA/../XMEGA/Device_XMEGA.h ****   and fitness.  In no event shall the author be liable for any
  24:LUFA//Drivers/USB/Class/Device/../../Core/XMEGA/../XMEGA/Device_XMEGA.h ****   special, indirect or consequential damages or any damages
  25:LUFA//Drivers/USB/Class/Device/../../Core/XMEGA/../XMEGA/Device_XMEGA.h ****   whatsoever resulting from loss of use, data or profits, whether
  26:LUFA//Drivers/USB/Class/Device/../../Core/XMEGA/../XMEGA/Device_XMEGA.h ****   in an action of contract, negligence or other tortious action,
  27:LUFA//Drivers/USB/Class/Device/../../Core/XMEGA/../XMEGA/Device_XMEGA.h ****   arising out of or in connection with the use or performance of
  28:LUFA//Drivers/USB/Class/Device/../../Core/XMEGA/../XMEGA/Device_XMEGA.h ****   this software.
  29:LUFA//Drivers/USB/Class/Device/../../Core/XMEGA/../XMEGA/Device_XMEGA.h **** */
  30:LUFA//Drivers/USB/Class/Device/../../Core/XMEGA/../XMEGA/Device_XMEGA.h **** 
  31:LUFA//Drivers/USB/Class/Device/../../Core/XMEGA/../XMEGA/Device_XMEGA.h **** /** \file
  32:LUFA//Drivers/USB/Class/Device/../../Core/XMEGA/../XMEGA/Device_XMEGA.h ****  *  \brief USB Device definitions for the AVR XMEGA microcontrollers.
  33:LUFA//Drivers/USB/Class/Device/../../Core/XMEGA/../XMEGA/Device_XMEGA.h ****  *  \copydetails Group_Device_XMEGA
  34:LUFA//Drivers/USB/Class/Device/../../Core/XMEGA/../XMEGA/Device_XMEGA.h ****  *
  35:LUFA//Drivers/USB/Class/Device/../../Core/XMEGA/../XMEGA/Device_XMEGA.h ****  *  \note This file should not be included directly. It is automatically included as needed by the 
  36:LUFA//Drivers/USB/Class/Device/../../Core/XMEGA/../XMEGA/Device_XMEGA.h ****  *        dispatch header located in LUFA/Drivers/USB/USB.h.
  37:LUFA//Drivers/USB/Class/Device/../../Core/XMEGA/../XMEGA/Device_XMEGA.h ****  */
  38:LUFA//Drivers/USB/Class/Device/../../Core/XMEGA/../XMEGA/Device_XMEGA.h **** 
  39:LUFA//Drivers/USB/Class/Device/../../Core/XMEGA/../XMEGA/Device_XMEGA.h **** /** \ingroup Group_Device
  40:LUFA//Drivers/USB/Class/Device/../../Core/XMEGA/../XMEGA/Device_XMEGA.h ****  *  \defgroup Group_Device_XMEGA Device Management (XMEGA)
  41:LUFA//Drivers/USB/Class/Device/../../Core/XMEGA/../XMEGA/Device_XMEGA.h ****  *  \brief USB Device definitions for the AVR XMEGA microcontrollers.
  42:LUFA//Drivers/USB/Class/Device/../../Core/XMEGA/../XMEGA/Device_XMEGA.h ****  *
  43:LUFA//Drivers/USB/Class/Device/../../Core/XMEGA/../XMEGA/Device_XMEGA.h ****  *  Architecture specific USB Device definitions for the Atmel AVR XMEGA microcontrollers.
  44:LUFA//Drivers/USB/Class/Device/../../Core/XMEGA/../XMEGA/Device_XMEGA.h ****  *
  45:LUFA//Drivers/USB/Class/Device/../../Core/XMEGA/../XMEGA/Device_XMEGA.h ****  *  @{
  46:LUFA//Drivers/USB/Class/Device/../../Core/XMEGA/../XMEGA/Device_XMEGA.h ****  */
  47:LUFA//Drivers/USB/Class/Device/../../Core/XMEGA/../XMEGA/Device_XMEGA.h **** 
  48:LUFA//Drivers/USB/Class/Device/../../Core/XMEGA/../XMEGA/Device_XMEGA.h **** #ifndef __USBDEVICE_XMEGA_H__
  49:LUFA//Drivers/USB/Class/Device/../../Core/XMEGA/../XMEGA/Device_XMEGA.h **** #define __USBDEVICE_XMEGA_H__
  50:LUFA//Drivers/USB/Class/Device/../../Core/XMEGA/../XMEGA/Device_XMEGA.h **** 
  51:LUFA//Drivers/USB/Class/Device/../../Core/XMEGA/../XMEGA/Device_XMEGA.h **** 	/* Includes: */
  52:LUFA//Drivers/USB/Class/Device/../../Core/XMEGA/../XMEGA/Device_XMEGA.h **** 		#include "../../../../Common/Common.h"
  53:LUFA//Drivers/USB/Class/Device/../../Core/XMEGA/../XMEGA/Device_XMEGA.h **** 		#include "../USBController.h"
  54:LUFA//Drivers/USB/Class/Device/../../Core/XMEGA/../XMEGA/Device_XMEGA.h **** 		#include "../StdDescriptors.h"
  55:LUFA//Drivers/USB/Class/Device/../../Core/XMEGA/../XMEGA/Device_XMEGA.h **** 		#include "../USBInterrupt.h"
  56:LUFA//Drivers/USB/Class/Device/../../Core/XMEGA/../XMEGA/Device_XMEGA.h **** 		#include "../Endpoint.h"
  57:LUFA//Drivers/USB/Class/Device/../../Core/XMEGA/../XMEGA/Device_XMEGA.h **** 
  58:LUFA//Drivers/USB/Class/Device/../../Core/XMEGA/../XMEGA/Device_XMEGA.h **** 	/* Enable C linkage for C++ Compilers: */
  59:LUFA//Drivers/USB/Class/Device/../../Core/XMEGA/../XMEGA/Device_XMEGA.h **** 		#if defined(__cplusplus)
  60:LUFA//Drivers/USB/Class/Device/../../Core/XMEGA/../XMEGA/Device_XMEGA.h **** 			extern "C" {
  61:LUFA//Drivers/USB/Class/Device/../../Core/XMEGA/../XMEGA/Device_XMEGA.h **** 		#endif
  62:LUFA//Drivers/USB/Class/Device/../../Core/XMEGA/../XMEGA/Device_XMEGA.h **** 
  63:LUFA//Drivers/USB/Class/Device/../../Core/XMEGA/../XMEGA/Device_XMEGA.h **** 	/* Preprocessor Checks: */
  64:LUFA//Drivers/USB/Class/Device/../../Core/XMEGA/../XMEGA/Device_XMEGA.h **** 		#if !defined(__INCLUDE_FROM_USB_DRIVER)
  65:LUFA//Drivers/USB/Class/Device/../../Core/XMEGA/../XMEGA/Device_XMEGA.h **** 			#error Do not include this file directly. Include LUFA/Drivers/USB/USB.h instead.
  66:LUFA//Drivers/USB/Class/Device/../../Core/XMEGA/../XMEGA/Device_XMEGA.h **** 		#endif
  67:LUFA//Drivers/USB/Class/Device/../../Core/XMEGA/../XMEGA/Device_XMEGA.h **** 
  68:LUFA//Drivers/USB/Class/Device/../../Core/XMEGA/../XMEGA/Device_XMEGA.h **** 		#if (defined(USE_RAM_DESCRIPTORS) && defined(USE_EEPROM_DESCRIPTORS))
  69:LUFA//Drivers/USB/Class/Device/../../Core/XMEGA/../XMEGA/Device_XMEGA.h **** 			#error USE_RAM_DESCRIPTORS and USE_EEPROM_DESCRIPTORS are mutually exclusive.
  70:LUFA//Drivers/USB/Class/Device/../../Core/XMEGA/../XMEGA/Device_XMEGA.h **** 		#endif
  71:LUFA//Drivers/USB/Class/Device/../../Core/XMEGA/../XMEGA/Device_XMEGA.h **** 
  72:LUFA//Drivers/USB/Class/Device/../../Core/XMEGA/../XMEGA/Device_XMEGA.h **** 		#if (defined(USE_FLASH_DESCRIPTORS) && defined(USE_EEPROM_DESCRIPTORS))
  73:LUFA//Drivers/USB/Class/Device/../../Core/XMEGA/../XMEGA/Device_XMEGA.h **** 			#error USE_FLASH_DESCRIPTORS and USE_EEPROM_DESCRIPTORS are mutually exclusive.
  74:LUFA//Drivers/USB/Class/Device/../../Core/XMEGA/../XMEGA/Device_XMEGA.h **** 		#endif
  75:LUFA//Drivers/USB/Class/Device/../../Core/XMEGA/../XMEGA/Device_XMEGA.h **** 
  76:LUFA//Drivers/USB/Class/Device/../../Core/XMEGA/../XMEGA/Device_XMEGA.h **** 		#if (defined(USE_FLASH_DESCRIPTORS) && defined(USE_RAM_DESCRIPTORS))
  77:LUFA//Drivers/USB/Class/Device/../../Core/XMEGA/../XMEGA/Device_XMEGA.h **** 			#error USE_FLASH_DESCRIPTORS and USE_RAM_DESCRIPTORS are mutually exclusive.
  78:LUFA//Drivers/USB/Class/Device/../../Core/XMEGA/../XMEGA/Device_XMEGA.h **** 		#endif
  79:LUFA//Drivers/USB/Class/Device/../../Core/XMEGA/../XMEGA/Device_XMEGA.h **** 
  80:LUFA//Drivers/USB/Class/Device/../../Core/XMEGA/../XMEGA/Device_XMEGA.h **** 	/* Public Interface - May be used in end-application: */
  81:LUFA//Drivers/USB/Class/Device/../../Core/XMEGA/../XMEGA/Device_XMEGA.h **** 		/* Macros: */
  82:LUFA//Drivers/USB/Class/Device/../../Core/XMEGA/../XMEGA/Device_XMEGA.h **** 			/** \name USB Device Mode Option Masks */
  83:LUFA//Drivers/USB/Class/Device/../../Core/XMEGA/../XMEGA/Device_XMEGA.h **** 			//@{
  84:LUFA//Drivers/USB/Class/Device/../../Core/XMEGA/../XMEGA/Device_XMEGA.h **** 			/** Mask for the Options parameter of the \ref USB_Init() function. This indicates that the
  85:LUFA//Drivers/USB/Class/Device/../../Core/XMEGA/../XMEGA/Device_XMEGA.h **** 			 *  USB interface should be initialized in low speed (1.5Mb/s) mode.
  86:LUFA//Drivers/USB/Class/Device/../../Core/XMEGA/../XMEGA/Device_XMEGA.h **** 			 *
  87:LUFA//Drivers/USB/Class/Device/../../Core/XMEGA/../XMEGA/Device_XMEGA.h **** 			 *  \note Low Speed mode is not available on all USB AVR models.
  88:LUFA//Drivers/USB/Class/Device/../../Core/XMEGA/../XMEGA/Device_XMEGA.h **** 			 *        \n
  89:LUFA//Drivers/USB/Class/Device/../../Core/XMEGA/../XMEGA/Device_XMEGA.h **** 			 *
  90:LUFA//Drivers/USB/Class/Device/../../Core/XMEGA/../XMEGA/Device_XMEGA.h **** 			 *  \note Restrictions apply on the number, size and type of endpoints which can be used
  91:LUFA//Drivers/USB/Class/Device/../../Core/XMEGA/../XMEGA/Device_XMEGA.h **** 			 *        when running in low speed mode - refer to the USB 2.0 specification.
  92:LUFA//Drivers/USB/Class/Device/../../Core/XMEGA/../XMEGA/Device_XMEGA.h **** 			 */
  93:LUFA//Drivers/USB/Class/Device/../../Core/XMEGA/../XMEGA/Device_XMEGA.h **** 			#define USB_DEVICE_OPT_LOWSPEED        (1 << 0)
  94:LUFA//Drivers/USB/Class/Device/../../Core/XMEGA/../XMEGA/Device_XMEGA.h **** 
  95:LUFA//Drivers/USB/Class/Device/../../Core/XMEGA/../XMEGA/Device_XMEGA.h **** 			#if (F_USB > 6000000)
  96:LUFA//Drivers/USB/Class/Device/../../Core/XMEGA/../XMEGA/Device_XMEGA.h **** 				/** Mask for the Options parameter of the \ref USB_Init() function. This indicates that the
  97:LUFA//Drivers/USB/Class/Device/../../Core/XMEGA/../XMEGA/Device_XMEGA.h **** 				 *  USB interface should be initialized in full speed (12Mb/s) mode.
  98:LUFA//Drivers/USB/Class/Device/../../Core/XMEGA/../XMEGA/Device_XMEGA.h **** 				 */
  99:LUFA//Drivers/USB/Class/Device/../../Core/XMEGA/../XMEGA/Device_XMEGA.h **** 				#define USB_DEVICE_OPT_FULLSPEED   (0 << 0)
 100:LUFA//Drivers/USB/Class/Device/../../Core/XMEGA/../XMEGA/Device_XMEGA.h **** 			#endif
 101:LUFA//Drivers/USB/Class/Device/../../Core/XMEGA/../XMEGA/Device_XMEGA.h **** 			//@}
 102:LUFA//Drivers/USB/Class/Device/../../Core/XMEGA/../XMEGA/Device_XMEGA.h **** 
 103:LUFA//Drivers/USB/Class/Device/../../Core/XMEGA/../XMEGA/Device_XMEGA.h **** 			#if (!defined(NO_INTERNAL_SERIAL) || defined(__DOXYGEN__))
 104:LUFA//Drivers/USB/Class/Device/../../Core/XMEGA/../XMEGA/Device_XMEGA.h **** 				/** String descriptor index for the device's unique serial number string descriptor within the 
 105:LUFA//Drivers/USB/Class/Device/../../Core/XMEGA/../XMEGA/Device_XMEGA.h **** 				 *  This unique serial number is used by the host to associate resources to the device (such as
 106:LUFA//Drivers/USB/Class/Device/../../Core/XMEGA/../XMEGA/Device_XMEGA.h **** 				 *  number allocations) to a device regardless of the port it is plugged in to on the host. Som
 107:LUFA//Drivers/USB/Class/Device/../../Core/XMEGA/../XMEGA/Device_XMEGA.h **** 				 *  a unique serial number internally, and setting the device descriptors serial number string 
 108:LUFA//Drivers/USB/Class/Device/../../Core/XMEGA/../XMEGA/Device_XMEGA.h **** 				 *  will cause it to use the internal serial number.
 109:LUFA//Drivers/USB/Class/Device/../../Core/XMEGA/../XMEGA/Device_XMEGA.h **** 				 *
 110:LUFA//Drivers/USB/Class/Device/../../Core/XMEGA/../XMEGA/Device_XMEGA.h **** 				 *  On unsupported devices, this will evaluate to \ref NO_DESCRIPTOR and so will force the host
 111:LUFA//Drivers/USB/Class/Device/../../Core/XMEGA/../XMEGA/Device_XMEGA.h **** 				 *  number for the device.
 112:LUFA//Drivers/USB/Class/Device/../../Core/XMEGA/../XMEGA/Device_XMEGA.h **** 				 */
 113:LUFA//Drivers/USB/Class/Device/../../Core/XMEGA/../XMEGA/Device_XMEGA.h **** 				#define USE_INTERNAL_SERIAL            0xDC
 114:LUFA//Drivers/USB/Class/Device/../../Core/XMEGA/../XMEGA/Device_XMEGA.h **** 
 115:LUFA//Drivers/USB/Class/Device/../../Core/XMEGA/../XMEGA/Device_XMEGA.h **** 				/** Length of the device's unique internal serial number, in bits, if present on the selected m
 116:LUFA//Drivers/USB/Class/Device/../../Core/XMEGA/../XMEGA/Device_XMEGA.h **** 				 *  model.
 117:LUFA//Drivers/USB/Class/Device/../../Core/XMEGA/../XMEGA/Device_XMEGA.h **** 				 */
 118:LUFA//Drivers/USB/Class/Device/../../Core/XMEGA/../XMEGA/Device_XMEGA.h **** 				#define INTERNAL_SERIAL_LENGTH_BITS    (8 * (1 + (offsetof(NVM_PROD_SIGNATURES_t, COORDY1) - of
 119:LUFA//Drivers/USB/Class/Device/../../Core/XMEGA/../XMEGA/Device_XMEGA.h **** 
 120:LUFA//Drivers/USB/Class/Device/../../Core/XMEGA/../XMEGA/Device_XMEGA.h **** 				/** Start address of the internal serial number, in the appropriate address space, if present o
 121:LUFA//Drivers/USB/Class/Device/../../Core/XMEGA/../XMEGA/Device_XMEGA.h **** 				 *  model.
 122:LUFA//Drivers/USB/Class/Device/../../Core/XMEGA/../XMEGA/Device_XMEGA.h **** 				 */
 123:LUFA//Drivers/USB/Class/Device/../../Core/XMEGA/../XMEGA/Device_XMEGA.h **** 				#define INTERNAL_SERIAL_START_ADDRESS  offsetof(NVM_PROD_SIGNATURES_t, LOTNUM0)
 124:LUFA//Drivers/USB/Class/Device/../../Core/XMEGA/../XMEGA/Device_XMEGA.h **** 			#else
 125:LUFA//Drivers/USB/Class/Device/../../Core/XMEGA/../XMEGA/Device_XMEGA.h **** 				#define USE_INTERNAL_SERIAL            NO_DESCRIPTOR
 126:LUFA//Drivers/USB/Class/Device/../../Core/XMEGA/../XMEGA/Device_XMEGA.h **** 
 127:LUFA//Drivers/USB/Class/Device/../../Core/XMEGA/../XMEGA/Device_XMEGA.h **** 				#define INTERNAL_SERIAL_LENGTH_BITS    0
 128:LUFA//Drivers/USB/Class/Device/../../Core/XMEGA/../XMEGA/Device_XMEGA.h **** 				#define INTERNAL_SERIAL_START_ADDRESS  0
 129:LUFA//Drivers/USB/Class/Device/../../Core/XMEGA/../XMEGA/Device_XMEGA.h **** 			#endif
 130:LUFA//Drivers/USB/Class/Device/../../Core/XMEGA/../XMEGA/Device_XMEGA.h **** 
 131:LUFA//Drivers/USB/Class/Device/../../Core/XMEGA/../XMEGA/Device_XMEGA.h **** 		/* Function Prototypes: */
 132:LUFA//Drivers/USB/Class/Device/../../Core/XMEGA/../XMEGA/Device_XMEGA.h **** 			/** Sends a Remote Wakeup request to the host. This signals to the host that the device should
 133:LUFA//Drivers/USB/Class/Device/../../Core/XMEGA/../XMEGA/Device_XMEGA.h **** 			 *  be taken out of suspended mode, and communications should resume.
 134:LUFA//Drivers/USB/Class/Device/../../Core/XMEGA/../XMEGA/Device_XMEGA.h **** 			 *
 135:LUFA//Drivers/USB/Class/Device/../../Core/XMEGA/../XMEGA/Device_XMEGA.h **** 			 *  Typically, this is implemented so that HID devices (mice, keyboards, etc.) can wake up the
 136:LUFA//Drivers/USB/Class/Device/../../Core/XMEGA/../XMEGA/Device_XMEGA.h **** 			 *  host computer when the host has suspended all USB devices to enter a low power state.
 137:LUFA//Drivers/USB/Class/Device/../../Core/XMEGA/../XMEGA/Device_XMEGA.h **** 			 *
 138:LUFA//Drivers/USB/Class/Device/../../Core/XMEGA/../XMEGA/Device_XMEGA.h **** 			 *  \note This function should only be used if the device has indicated to the host that it
 139:LUFA//Drivers/USB/Class/Device/../../Core/XMEGA/../XMEGA/Device_XMEGA.h **** 			 *        supports the Remote Wakeup feature in the device descriptors, and should only be
 140:LUFA//Drivers/USB/Class/Device/../../Core/XMEGA/../XMEGA/Device_XMEGA.h **** 			 *        issued if the host is currently allowing remote wakeup events from the device (i.e.,
 141:LUFA//Drivers/USB/Class/Device/../../Core/XMEGA/../XMEGA/Device_XMEGA.h **** 			 *        the \ref USB_Device_RemoteWakeupEnabled flag is set). When the \c NO_DEVICE_REMOTE_WAK
 142:LUFA//Drivers/USB/Class/Device/../../Core/XMEGA/../XMEGA/Device_XMEGA.h **** 			 *        compile time option is used, this function is unavailable.
 143:LUFA//Drivers/USB/Class/Device/../../Core/XMEGA/../XMEGA/Device_XMEGA.h **** 			 *        \n\n
 144:LUFA//Drivers/USB/Class/Device/../../Core/XMEGA/../XMEGA/Device_XMEGA.h **** 			 *
 145:LUFA//Drivers/USB/Class/Device/../../Core/XMEGA/../XMEGA/Device_XMEGA.h **** 			 *  \note The USB clock must be running for this function to operate. If the stack is initialize
 146:LUFA//Drivers/USB/Class/Device/../../Core/XMEGA/../XMEGA/Device_XMEGA.h **** 			 *        the \ref USB_OPT_MANUAL_PLL option enabled, the user must ensure that the PLL is runni
 147:LUFA//Drivers/USB/Class/Device/../../Core/XMEGA/../XMEGA/Device_XMEGA.h **** 			 *        before attempting to call this function.
 148:LUFA//Drivers/USB/Class/Device/../../Core/XMEGA/../XMEGA/Device_XMEGA.h **** 			 *
 149:LUFA//Drivers/USB/Class/Device/../../Core/XMEGA/../XMEGA/Device_XMEGA.h **** 			 *  \see \ref Group_StdDescriptors for more information on the RMWAKEUP feature and device descr
 150:LUFA//Drivers/USB/Class/Device/../../Core/XMEGA/../XMEGA/Device_XMEGA.h **** 			 */
 151:LUFA//Drivers/USB/Class/Device/../../Core/XMEGA/../XMEGA/Device_XMEGA.h **** 			void USB_Device_SendRemoteWakeup(void);
 152:LUFA//Drivers/USB/Class/Device/../../Core/XMEGA/../XMEGA/Device_XMEGA.h **** 
 153:LUFA//Drivers/USB/Class/Device/../../Core/XMEGA/../XMEGA/Device_XMEGA.h **** 		/* Inline Functions: */
 154:LUFA//Drivers/USB/Class/Device/../../Core/XMEGA/../XMEGA/Device_XMEGA.h **** 			/** Returns the current USB frame number, when in device mode. Every millisecond the USB bus is 
 155:LUFA//Drivers/USB/Class/Device/../../Core/XMEGA/../XMEGA/Device_XMEGA.h **** 			 *  the frame number is incremented by one.
 156:LUFA//Drivers/USB/Class/Device/../../Core/XMEGA/../XMEGA/Device_XMEGA.h **** 			 *
 157:LUFA//Drivers/USB/Class/Device/../../Core/XMEGA/../XMEGA/Device_XMEGA.h **** 			 *  \return Current USB frame number from the USB controller.
 158:LUFA//Drivers/USB/Class/Device/../../Core/XMEGA/../XMEGA/Device_XMEGA.h **** 			 */
 159:LUFA//Drivers/USB/Class/Device/../../Core/XMEGA/../XMEGA/Device_XMEGA.h **** 			static inline uint16_t USB_Device_GetFrameNumber(void) ATTR_ALWAYS_INLINE ATTR_WARN_UNUSED_RESUL
 160:LUFA//Drivers/USB/Class/Device/../../Core/XMEGA/../XMEGA/Device_XMEGA.h **** 			static inline uint16_t USB_Device_GetFrameNumber(void)
 161:LUFA//Drivers/USB/Class/Device/../../Core/XMEGA/../XMEGA/Device_XMEGA.h **** 			{
 162:LUFA//Drivers/USB/Class/Device/../../Core/XMEGA/../XMEGA/Device_XMEGA.h **** 				return ((USB_EndpointTable_t*)USB.EPPTR)->FrameNum;
 1028               		.loc 3 162 0
 1029 0038 E091 C604 		lds r30,1222
 1030 003c F091 C704 		lds r31,1222+1
 1031 0040 E050      		subi r30,lo8(-(256))
 1032 0042 FF4F      		sbci r31,hi8(-(256))
 1033               	.LBE76:
 1034               	.LBE75:
 157:LUFA//Drivers/USB/Class/Device/HIDClassDevice.c **** 	if (HIDInterfaceInfo->State.PrevFrameNum == USB_Device_GetFrameNumber())
 1035               		.loc 2 157 0
 1036 0044 D601      		movw r26,r12
 1037 0046 1A96      		adiw r26,10
 1038 0048 8D91      		ld r24,X+
 1039 004a 9C91      		ld r25,X
 1040 004c 1B97      		sbiw r26,10+1
 1041 004e 2081      		ld r18,Z
 1042 0050 3181      		ldd r19,Z+1
 1043 0052 8217      		cp r24,r18
 1044 0054 9307      		cpc r25,r19
 1045 0056 01F4      		brne .+2
 1046 0058 00C0      		rjmp .L26
 160:LUFA//Drivers/USB/Class/Device/HIDClassDevice.c **** 	Endpoint_SelectEndpoint(HIDInterfaceInfo->Config.ReportINEndpoint.Address);
 1047               		.loc 2 160 0
 1048 005a 1196      		adiw r26,1
 1049 005c 8C91      		ld r24,X
 1050 005e 0E94 0000 		call Endpoint_SelectEndpoint
 1051               	.LBB77:
 1052               	.LBB78:
 353:LUFA//Drivers/USB/Class/Device/../../Core/XMEGA/../XMEGA/Endpoint_XMEGA.h **** 				return (USB_Endpoint_SelectedFIFO->Position < USB_Endpoint_SelectedFIFO->Length);
 1053               		.loc 1 353 0
 1054 0062 8091 0000 		lds r24,USB_Endpoint_SelectedFIFO
 1055 0066 9091 0000 		lds r25,USB_Endpoint_SelectedFIFO+1
 1056 006a FC01      		movw r30,r24
 1057 006c EF5B      		subi r30,lo8(-(65))
 1058 006e FF4F      		sbci r31,hi8(-(65))
 1059 0070 2081      		ld r18,Z
 1060 0072 805C      		subi r24,lo8(-(64))
 1061 0074 9F4F      		sbci r25,hi8(-(64))
 1062 0076 FC01      		movw r30,r24
 1063 0078 8081      		ld r24,Z
 1064               	.LBE78:
 1065               	.LBE77:
 162:LUFA//Drivers/USB/Class/Device/HIDClassDevice.c **** 	if (Endpoint_IsReadWriteAllowed())
 1066               		.loc 2 162 0
 1067 007a 2817      		cp r18,r24
 1068 007c 00F0      		brlo .+2
 1069 007e 00C0      		rjmp .L26
 1070 0080 7DB6      		in r7,__SP_L__
 1071 0082 6EB6      		in r6,__SP_H__
 1072               	.LVL29:
 1073               	.LBB79:
 164:LUFA//Drivers/USB/Class/Device/HIDClassDevice.c **** 		uint8_t  ReportINData[HIDInterfaceInfo->Config.PrevReportINBufferSize];
 1074               		.loc 2 164 0
 1075 0084 D601      		movw r26,r12
 1076 0086 1896      		adiw r26,8
 1077 0088 4C91      		ld r20,X
 1078 008a EDB7      		in r30,__SP_L__
 1079 008c FEB7      		in r31,__SP_H__
 1080 008e E41B      		sub r30,r20
 1081 0090 F109      		sbc r31,__zero_reg__
 1082 0092 EDBF      		out __SP_L__,r30
 1083 0094 FEBF      		out __SP_H__,r31
 1084 0096 0DB7      		in r16,__SP_L__
 1085 0098 1EB7      		in r17,__SP_H__
 1086 009a 0F5F      		subi r16,lo8(-(1))
 1087 009c 1F4F      		sbci r17,hi8(-(1))
 165:LUFA//Drivers/USB/Class/Device/HIDClassDevice.c **** 		uint8_t  ReportID     = 0;
 1088               		.loc 2 165 0
 1089 009e 1982      		std Y+1,__zero_reg__
 1090               	.LVL30:
 166:LUFA//Drivers/USB/Class/Device/HIDClassDevice.c **** 		uint16_t ReportINSize = 0;
 1091               		.loc 2 166 0
 1092 00a0 1A82      		std Y+2,__zero_reg__
 1093 00a2 1B82      		std Y+3,__zero_reg__
 1094               	.LVL31:
 168:LUFA//Drivers/USB/Class/Device/HIDClassDevice.c **** 		memset(ReportINData, 0, sizeof(ReportINData));
 1095               		.loc 2 168 0
 1096 00a4 902E      		mov r9,r16
 1097 00a6 812E      		mov r8,r17
 1098 00a8 C801      		movw r24,r16
 1099 00aa 60E0      		ldi r22,lo8(0)
 1100 00ac 70E0      		ldi r23,hi8(0)
 1101 00ae 50E0      		ldi r21,lo8(0)
 1102 00b0 0E94 0000 		call memset
 1103               	.LVL32:
 170:LUFA//Drivers/USB/Class/Device/HIDClassDevice.c **** 		bool ForceSend         = CALLBACK_HID_Device_CreateHIDReport(HIDInterfaceInfo, &ReportID, HID_REP
 1104               		.loc 2 170 0
 1105 00b4 C601      		movw r24,r12
 1106 00b6 BE01      		movw r22,r28
 1107 00b8 6F5F      		subi r22,lo8(-(1))
 1108 00ba 7F4F      		sbci r23,hi8(-(1))
 1109 00bc 40E0      		ldi r20,lo8(0)
 1110 00be 9801      		movw r18,r16
 1111 00c0 8E01      		movw r16,r28
 1112 00c2 0E5F      		subi r16,lo8(-(2))
 1113 00c4 1F4F      		sbci r17,hi8(-(2))
 1114 00c6 0E94 0000 		call CALLBACK_HID_Device_CreateHIDReport
 1115 00ca 182F      		mov r17,r24
 1116               	.LVL33:
 173:LUFA//Drivers/USB/Class/Device/HIDClassDevice.c **** 		bool IdlePeriodElapsed = (HIDInterfaceInfo->State.IdleCount && !(HIDInterfaceInfo->State.IdleMSRe
 1117               		.loc 2 173 0
 1118 00cc D601      		movw r26,r12
 1119 00ce 1C96      		adiw r26,12
 1120 00d0 8D91      		ld r24,X+
 1121 00d2 9C91      		ld r25,X
 1122 00d4 1D97      		sbiw r26,12+1
 1123               	.LVL34:
 1124 00d6 0097      		sbiw r24,0
 1125 00d8 01F0      		breq .L36
 152:LUFA//Drivers/USB/Class/Device/HIDClassDevice.c **** void HID_Device_USBTask(USB_ClassInfo_HID_Device_t* const HIDInterfaceInfo)
 1126               		.loc 2 152 0 discriminator 1
 1127 00da 81E0      		ldi r24,lo8(1)
 1128 00dc 90E0      		ldi r25,hi8(1)
 1129 00de 1E96      		adiw r26,14
 1130 00e0 2D91      		ld r18,X+
 1131 00e2 3C91      		ld r19,X
 1132 00e4 1F97      		sbiw r26,14+1
 1133 00e6 2115      		cp r18,__zero_reg__
 1134 00e8 3105      		cpc r19,__zero_reg__
 1135 00ea 01F0      		breq .L29
 1136 00ec 80E0      		ldi r24,lo8(0)
 1137 00ee 90E0      		ldi r25,hi8(0)
 1138               	.L29:
 173:LUFA//Drivers/USB/Class/Device/HIDClassDevice.c **** 		bool IdlePeriodElapsed = (HIDInterfaceInfo->State.IdleCount && !(HIDInterfaceInfo->State.IdleMSRe
 1139               		.loc 2 173 0 discriminator 1
 1140 00f0 5C01      		movw r10,r24
 1141 00f2 00C0      		rjmp .L28
 1142               	.L36:
 173:LUFA//Drivers/USB/Class/Device/HIDClassDevice.c **** 		bool IdlePeriodElapsed = (HIDInterfaceInfo->State.IdleCount && !(HIDInterfaceInfo->State.IdleMSRe
 1143               		.loc 2 173 0 is_stmt 0
 1144 00f4 AA24      		clr r10
 1145 00f6 BB24      		clr r11
 1146               	.L28:
 1147               	.LVL35:
 175:LUFA//Drivers/USB/Class/Device/HIDClassDevice.c **** 		if (HIDInterfaceInfo->Config.PrevReportINBuffer != NULL)
 1148               		.loc 2 175 0 is_stmt 1 discriminator 4
 1149 00f8 F601      		movw r30,r12
 1150 00fa E680      		ldd r14,Z+6
 1151 00fc F780      		ldd r15,Z+7
 1152 00fe E114      		cp r14,__zero_reg__
 1153 0100 F104      		cpc r15,__zero_reg__
 1154 0102 01F0      		breq .L37
 177:LUFA//Drivers/USB/Class/Device/HIDClassDevice.c **** 			StatesChanged = (memcmp(ReportINData, HIDInterfaceInfo->Config.PrevReportINBuffer, ReportINSize)
 1155               		.loc 2 177 0
 1156 0104 4A81      		ldd r20,Y+2
 1157 0106 5B81      		ldd r21,Y+3
 1158 0108 892D      		mov r24,r9
 1159 010a 982D      		mov r25,r8
 1160 010c B701      		movw r22,r14
 1161 010e 0E94 0000 		call memcmp
 1162 0112 01E0      		ldi r16,lo8(1)
 1163 0114 0097      		sbiw r24,0
 1164 0116 01F4      		brne .L31
 1165 0118 00E0      		ldi r16,lo8(0)
 1166               	.L31:
 1167               	.LVL36:
 178:LUFA//Drivers/USB/Class/Device/HIDClassDevice.c **** 			memcpy(HIDInterfaceInfo->Config.PrevReportINBuffer, ReportINData, HIDInterfaceInfo->Config.PrevR
 1168               		.loc 2 178 0
 1169 011a D601      		movw r26,r12
 1170 011c 1896      		adiw r26,8
 1171 011e 4C91      		ld r20,X
 1172 0120 C701      		movw r24,r14
 1173 0122 692D      		mov r22,r9
 1174 0124 782D      		mov r23,r8
 1175 0126 50E0      		ldi r21,lo8(0)
 1176 0128 0E94 0000 		call memcpy
 1177 012c 00C0      		rjmp .L30
 1178               	.LVL37:
 1179               	.L37:
 172:LUFA//Drivers/USB/Class/Device/HIDClassDevice.c **** 		bool StatesChanged     = false;
 1180               		.loc 2 172 0
 1181 012e 00E0      		ldi r16,lo8(0)
 1182               	.LVL38:
 1183               	.L30:
 181:LUFA//Drivers/USB/Class/Device/HIDClassDevice.c **** 		if (ReportINSize && (ForceSend || StatesChanged || IdlePeriodElapsed))
 1184               		.loc 2 181 0
 1185 0130 8A81      		ldd r24,Y+2
 1186 0132 9B81      		ldd r25,Y+3
 1187 0134 0097      		sbiw r24,0
 1188 0136 01F4      		brne .+2
 1189 0138 00C0      		rjmp .L33
 181:LUFA//Drivers/USB/Class/Device/HIDClassDevice.c **** 		if (ReportINSize && (ForceSend || StatesChanged || IdlePeriodElapsed))
 1190               		.loc 2 181 0 is_stmt 0 discriminator 1
 1191 013a 1123      		tst r17
 1192 013c 01F4      		brne .L34
 1193 013e 0023      		tst r16
 1194 0140 01F4      		brne .L34
 1195 0142 A114      		cp r10,__zero_reg__
 1196 0144 B104      		cpc r11,__zero_reg__
 1197 0146 01F0      		breq .L33
 1198               	.L34:
 183:LUFA//Drivers/USB/Class/Device/HIDClassDevice.c **** 			HIDInterfaceInfo->State.IdleMSRemaining = HIDInterfaceInfo->State.IdleCount;
 1199               		.loc 2 183 0 is_stmt 1
 1200 0148 F601      		movw r30,r12
 1201 014a 8485      		ldd r24,Z+12
 1202 014c 9585      		ldd r25,Z+13
 1203 014e 8687      		std Z+14,r24
 1204 0150 9787      		std Z+15,r25
 185:LUFA//Drivers/USB/Class/Device/HIDClassDevice.c **** 			Endpoint_SelectEndpoint(HIDInterfaceInfo->Config.ReportINEndpoint.Address);
 1205               		.loc 2 185 0
 1206 0152 8181      		ldd r24,Z+1
 1207 0154 0E94 0000 		call Endpoint_SelectEndpoint
 187:LUFA//Drivers/USB/Class/Device/HIDClassDevice.c **** 			if (ReportID)
 1208               		.loc 2 187 0
 1209 0158 3981      		ldd r19,Y+1
 1210 015a 3323      		tst r19
 1211 015c 01F0      		breq .L35
 1212               	.LVL39:
 1213               	.LBB80:
 1214               	.LBB81:
 1215               		.loc 1 548 0
 1216 015e 8091 0000 		lds r24,USB_Endpoint_SelectedFIFO
 1217 0162 9091 0000 		lds r25,USB_Endpoint_SelectedFIFO+1
 1218 0166 FC01      		movw r30,r24
 1219 0168 EF5B      		subi r30,lo8(-(65))
 1220 016a FF4F      		sbci r31,hi8(-(65))
 1221 016c 2081      		ld r18,Z
 1222 016e 820F      		add r24,r18
 1223 0170 911D      		adc r25,__zero_reg__
 1224 0172 DC01      		movw r26,r24
 1225 0174 3C93      		st X,r19
 1226 0176 2F5F      		subi r18,lo8(-(1))
 1227 0178 2083      		st Z,r18
 1228               	.LVL40:
 1229               	.L35:
 1230               	.LBE81:
 1231               	.LBE80:
 190:LUFA//Drivers/USB/Class/Device/HIDClassDevice.c **** 			Endpoint_Write_Stream_LE(ReportINData, ReportINSize, NULL);
 1232               		.loc 2 190 0
 1233 017a 6A81      		ldd r22,Y+2
 1234 017c 7B81      		ldd r23,Y+3
 1235 017e 892D      		mov r24,r9
 1236 0180 982D      		mov r25,r8
 1237 0182 40E0      		ldi r20,lo8(0)
 1238 0184 50E0      		ldi r21,hi8(0)
 1239 0186 0E94 0000 		call Endpoint_Write_Stream_LE
 1240               	.LBB82:
 1241               	.LBB83:
 448:LUFA//Drivers/USB/Class/Device/../../Core/XMEGA/../XMEGA/Endpoint_XMEGA.h **** 				USB_Endpoint_SelectedHandle->CNT     = USB_Endpoint_SelectedFIFO->Position;
 1242               		.loc 1 448 0
 1243 018a E091 0000 		lds r30,USB_Endpoint_SelectedHandle
 1244 018e F091 0000 		lds r31,USB_Endpoint_SelectedHandle+1
 1245 0192 A091 0000 		lds r26,USB_Endpoint_SelectedFIFO
 1246 0196 B091 0000 		lds r27,USB_Endpoint_SelectedFIFO+1
 1247 019a AF5B      		subi r26,lo8(-(65))
 1248 019c BF4F      		sbci r27,hi8(-(65))
 1249 019e 8C91      		ld r24,X
 1250 01a0 90E0      		ldi r25,lo8(0)
 1251 01a2 8283      		std Z+2,r24
 1252 01a4 9383      		std Z+3,r25
 449:LUFA//Drivers/USB/Class/Device/../../Core/XMEGA/../XMEGA/Endpoint_XMEGA.h **** 				USB_Endpoint_SelectedHandle->STATUS &= ~(USB_EP_TRNCOMPL0_bm | USB_EP_BUSNACK0_bm | USB_EP_OVF_
 1253               		.loc 1 449 0
 1254 01a6 8081      		ld r24,Z
 1255 01a8 8D79      		andi r24,lo8(-99)
 1256 01aa 8083      		st Z,r24
 450:LUFA//Drivers/USB/Class/Device/../../Core/XMEGA/../XMEGA/Endpoint_XMEGA.h **** 				USB_Endpoint_SelectedFIFO->Position  = 0;
 1257               		.loc 1 450 0
 1258 01ac E091 0000 		lds r30,USB_Endpoint_SelectedFIFO
 1259 01b0 F091 0000 		lds r31,USB_Endpoint_SelectedFIFO+1
 1260 01b4 EF5B      		subi r30,lo8(-(65))
 1261 01b6 FF4F      		sbci r31,hi8(-(65))
 1262 01b8 1082      		st Z,__zero_reg__
 1263               	.L33:
 1264               	.LBE83:
 1265               	.LBE82:
 1266               	.LBB84:
 1267               	.LBB85:
 1268               		.loc 3 162 0
 1269 01ba E091 C604 		lds r30,1222
 1270 01be F091 C704 		lds r31,1222+1
 1271 01c2 E050      		subi r30,lo8(-(256))
 1272 01c4 FF4F      		sbci r31,hi8(-(256))
 1273 01c6 8081      		ld r24,Z
 1274 01c8 9181      		ldd r25,Z+1
 1275               	.LBE85:
 1276               	.LBE84:
 195:LUFA//Drivers/USB/Class/Device/HIDClassDevice.c **** 		HIDInterfaceInfo->State.PrevFrameNum = USB_Device_GetFrameNumber();
 1277               		.loc 2 195 0
 1278 01ca F601      		movw r30,r12
 1279 01cc 8287      		std Z+10,r24
 1280 01ce 9387      		std Z+11,r25
 1281 01d0 7DBE      		out __SP_L__,r7
 1282 01d2 6EBE      		out __SP_H__,r6
 1283               	.LVL41:
 1284               	.L26:
 1285               	.LBE79:
 1286               		.loc 2 197 0
 1287 01d4 4DBE      		out __SP_L__,r4
 1288 01d6 5EBE      		out __SP_H__,r5
 1289               	/* epilogue start */
 1290 01d8 2396      		adiw r28,3
 1291 01da CDBF      		out __SP_L__,r28
 1292 01dc DEBF      		out __SP_H__,r29
 1293 01de DF91      		pop r29
 1294 01e0 CF91      		pop r28
 1295 01e2 1F91      		pop r17
 1296 01e4 0F91      		pop r16
 1297 01e6 FF90      		pop r15
 1298 01e8 EF90      		pop r14
 1299 01ea DF90      		pop r13
 1300 01ec CF90      		pop r12
 1301               	.LVL42:
 1302 01ee BF90      		pop r11
 1303 01f0 AF90      		pop r10
 1304 01f2 9F90      		pop r9
 1305 01f4 8F90      		pop r8
 1306 01f6 7F90      		pop r7
 1307 01f8 6F90      		pop r6
 1308 01fa 5F90      		pop r5
 1309 01fc 4F90      		pop r4
 1310 01fe 0895      		ret
 1311               		.cfi_endproc
 1312               	.LFE85:
 1314               		.text
 1315               	.Letext0:
 1316               		.file 4 "/home/dgonz/projects/Useful/avrTools/avr8-gnu-toolchain-linux_x86/bin/../lib/gcc/avr/4.6.
 1317               		.file 5 "/home/dgonz/projects/Useful/avrTools/avr8-gnu-toolchain-linux_x86/bin/../lib/gcc/avr/4.6.
 1318               		.file 6 "LUFA//Drivers/USB/Class/Device/../../Core/XMEGA/USBController_XMEGA.h"
 1319               		.file 7 "LUFA//Drivers/USB/Class/Device/../../Core/XMEGA/../Endpoint.h"
 1320               		.file 8 "LUFA//Drivers/USB/Class/Device/../../Core/XMEGA/../StdRequestType.h"
 1321               		.file 9 "LUFA//Drivers/USB/Class/Device/../../Core/XMEGA/../Device.h"
 1322               		.file 10 "LUFA//Drivers/USB/Class/Device/../Common/HIDClassCommon.h"
 1323               		.file 11 "LUFA//Drivers/USB/Class/Device/HIDClassDevice.h"
 1324               		.file 12 "LUFA//Drivers/USB/Class/Device/../../Core/USBTask.h"