GAS LISTING /tmp/ccPqDIXf.s 			page 1


   1               		.file	"AdDemo.c"
   2               	__SP_H__ = 0x3e
   3               	__SP_L__ = 0x3d
   4               	__SREG__ = 0x3f
   5               	__CCP__ = 0x34
   6               	__tmp_reg__ = 0
   7               	__zero_reg__ = 1
   8               		.text
   9               	.Ltext0:
  10               	.global	CCPWrite
  11               		.type	CCPWrite, @function
  12               	CCPWrite:
  13               	.LFB7:
  14               		.file 1 "requiredFiles/clksys_driver.c"
   1:requiredFiles/clksys_driver.c **** /* This file has been prepared for Doxygen automatic documentation generation.*/
   2:requiredFiles/clksys_driver.c **** /*! \file *********************************************************************
   3:requiredFiles/clksys_driver.c ****  *
   4:requiredFiles/clksys_driver.c ****  * \brief  XMEGA Clock System driver source file.
   5:requiredFiles/clksys_driver.c ****  *
   6:requiredFiles/clksys_driver.c ****  *      This file contains the function implementations for the XMEGA Clock
   7:requiredFiles/clksys_driver.c ****  *      System driver.
   8:requiredFiles/clksys_driver.c ****  *
   9:requiredFiles/clksys_driver.c ****  *      The driver is not intended for size and/or speed critical code, since
  10:requiredFiles/clksys_driver.c ****  *      most functions are just a few lines of code, and the function call
  11:requiredFiles/clksys_driver.c ****  *      overhead would decrease code performance. The driver is intended for
  12:requiredFiles/clksys_driver.c ****  *      rapid prototyping and documentation purposes for getting started with
  13:requiredFiles/clksys_driver.c ****  *      the XMEGA Clock System.
  14:requiredFiles/clksys_driver.c ****  *
  15:requiredFiles/clksys_driver.c ****  *      For size and/or speed critical code, it is recommended to copy the
  16:requiredFiles/clksys_driver.c ****  *      function contents directly into your application instead of making
  17:requiredFiles/clksys_driver.c ****  *      a function call.
  18:requiredFiles/clksys_driver.c ****  *
  19:requiredFiles/clksys_driver.c ****  *      Several functions use the following construct:
  20:requiredFiles/clksys_driver.c ****  *          "some_register = ... | (some_parameter ? SOME_BIT_bm : 0) | ..."
  21:requiredFiles/clksys_driver.c ****  *      Although the use of the ternary operator ( if ? then : else ) is
  22:requiredFiles/clksys_driver.c ****  *      discouraged, in some occasions the operator makes it possible to
  23:requiredFiles/clksys_driver.c ****  *      write pretty clean and neat code. In this driver, the construct is
  24:requiredFiles/clksys_driver.c ****  *      used to set or not set a configuration bit based on a boolean input
  25:requiredFiles/clksys_driver.c ****  *      parameter, such as the "some_parameter" in the example above.
  26:requiredFiles/clksys_driver.c ****  *
  27:requiredFiles/clksys_driver.c ****  * \par Application note:
  28:requiredFiles/clksys_driver.c ****  *      AVR1003: Using the XMEGA Clock System
  29:requiredFiles/clksys_driver.c ****  *
  30:requiredFiles/clksys_driver.c ****  * \par Documentation
  31:requiredFiles/clksys_driver.c ****  *      For comprehensive code documentation, supported compilers, compiler
  32:requiredFiles/clksys_driver.c ****  *      settings and supported devices see readme.html
  33:requiredFiles/clksys_driver.c ****  *
  34:requiredFiles/clksys_driver.c ****  * \author
  35:requiredFiles/clksys_driver.c ****  *      Atmel Corporation: http://www.atmel.com \n
  36:requiredFiles/clksys_driver.c ****  *      Support email: avr@atmel.com
  37:requiredFiles/clksys_driver.c ****  *
  38:requiredFiles/clksys_driver.c ****  * $Revision: 2771 $
  39:requiredFiles/clksys_driver.c ****  * $Date: 2009-09-11 11:54:26 +0200 (fr, 11 sep 2009) $  \n
  40:requiredFiles/clksys_driver.c ****  *
  41:requiredFiles/clksys_driver.c ****  * Copyright (c) 2008, Atmel Corporation All rights reserved.
  42:requiredFiles/clksys_driver.c ****  *
  43:requiredFiles/clksys_driver.c ****  * Redistribution and use in source and binary forms, with or without
GAS LISTING /tmp/ccPqDIXf.s 			page 2


  44:requiredFiles/clksys_driver.c ****  * modification, are permitted provided that the following conditions are met:
  45:requiredFiles/clksys_driver.c ****  *
  46:requiredFiles/clksys_driver.c ****  * 1. Redistributions of source code must retain the above copyright notice,
  47:requiredFiles/clksys_driver.c ****  * this list of conditions and the following disclaimer.
  48:requiredFiles/clksys_driver.c ****  *
  49:requiredFiles/clksys_driver.c ****  * 2. Redistributions in binary form must reproduce the above copyright notice,
  50:requiredFiles/clksys_driver.c ****  * this list of conditions and the following disclaimer in the documentation
  51:requiredFiles/clksys_driver.c ****  * and/or other materials provided with the distribution.
  52:requiredFiles/clksys_driver.c ****  *
  53:requiredFiles/clksys_driver.c ****  * 3. The name of ATMEL may not be used to endorse or promote products derived
  54:requiredFiles/clksys_driver.c ****  * from this software without specific prior written permission.
  55:requiredFiles/clksys_driver.c ****  *
  56:requiredFiles/clksys_driver.c ****  * THIS SOFTWARE IS PROVIDED BY ATMEL "AS IS" AND ANY EXPRESS OR IMPLIED
  57:requiredFiles/clksys_driver.c ****  * WARRANTIES, INCLUDING, BUT NOT LIMITED TO, THE IMPLIED WARRANTIES OF
  58:requiredFiles/clksys_driver.c ****  * MERCHANTABILITY AND FITNESS FOR A PARTICULAR PURPOSE ARE EXPRESSLY AND
  59:requiredFiles/clksys_driver.c ****  * SPECIFICALLY DISCLAIMED. IN NO EVENT SHALL ATMEL BE LIABLE FOR ANY DIRECT,
  60:requiredFiles/clksys_driver.c ****  * INDIRECT, INCIDENTAL, SPECIAL, EXEMPLARY, OR CONSEQUENTIAL DAMAGES
  61:requiredFiles/clksys_driver.c ****  * (INCLUDING, BUT NOT LIMITED TO, PROCUREMENT OF SUBSTITUTE GOODS OR SERVICES;
  62:requiredFiles/clksys_driver.c ****  * LOSS OF USE, DATA, OR PROFITS; OR BUSINESS INTERRUPTION) HOWEVER CAUSED AND
  63:requiredFiles/clksys_driver.c ****  * ON ANY THEORY OF LIABILITY, WHETHER IN CONTRACT, STRICT LIABILITY, OR TORT
  64:requiredFiles/clksys_driver.c ****  * (INCLUDING NEGLIGENCE OR OTHERWISE) ARISING IN ANY WAY OUT OF THE USE OF
  65:requiredFiles/clksys_driver.c ****  * THIS SOFTWARE, EVEN IF ADVISED OF THE POSSIBILITY OF SUCH DAMAGE.
  66:requiredFiles/clksys_driver.c ****  *****************************************************************************/
  67:requiredFiles/clksys_driver.c **** #include "clksys_driver.h"
  68:requiredFiles/clksys_driver.c **** 
  69:requiredFiles/clksys_driver.c **** /*! \brief CCP write helper function written in assembly.
  70:requiredFiles/clksys_driver.c ****  *
  71:requiredFiles/clksys_driver.c ****  *  This function is written in assembly because of the timecritial
  72:requiredFiles/clksys_driver.c ****  *  operation of writing to the registers.
  73:requiredFiles/clksys_driver.c ****  *
  74:requiredFiles/clksys_driver.c ****  *  \param address A pointer to the address to write to.
  75:requiredFiles/clksys_driver.c ****  *  \param value   The value to put in to the register.
  76:requiredFiles/clksys_driver.c ****  */
  77:requiredFiles/clksys_driver.c **** void CCPWrite( volatile uint8_t * address, uint8_t value )
  78:requiredFiles/clksys_driver.c **** {
  15               		.loc 1 78 0
  16               	.LVL0:
  17 0000 0F93      		push r16
  18               	.LCFI0:
  19 0002 CF93      		push r28
  20               	.LCFI1:
  21 0004 DF93      		push r29
  22               	.LCFI2:
  23 0006 1F92      		push __zero_reg__
  24               	.LCFI3:
  25 0008 CDB7      		in r28,__SP_L__
  26 000a DEB7      		in r29,__SP_H__
  27               	.LCFI4:
  28               	/* prologue: function */
  29               	/* frame size = 1 */
  30               	/* stack size = 4 */
  31               	.L__stack_usage = 4
  79:requiredFiles/clksys_driver.c **** #ifdef __ICCAVR__
  80:requiredFiles/clksys_driver.c **** 
  81:requiredFiles/clksys_driver.c **** 	// Store global interrupt setting in scratch register and disable interrupts.
  82:requiredFiles/clksys_driver.c ****         asm("in  R1, 0x3F \n"
  83:requiredFiles/clksys_driver.c **** 	    "cli"
GAS LISTING /tmp/ccPqDIXf.s 			page 3


  84:requiredFiles/clksys_driver.c **** 	    );
  85:requiredFiles/clksys_driver.c **** 
  86:requiredFiles/clksys_driver.c **** 	// Move destination address pointer to Z pointer registers.
  87:requiredFiles/clksys_driver.c **** 	asm("movw r30, r16");
  88:requiredFiles/clksys_driver.c **** #ifdef RAMPZ
  89:requiredFiles/clksys_driver.c **** 	asm("ldi  R16, 0 \n"
  90:requiredFiles/clksys_driver.c ****             "out  0x3B, R16"
  91:requiredFiles/clksys_driver.c **** 	    );
  92:requiredFiles/clksys_driver.c **** 
  93:requiredFiles/clksys_driver.c **** #endif
  94:requiredFiles/clksys_driver.c **** 	asm("ldi  r16,  0xD8 \n"
  95:requiredFiles/clksys_driver.c **** 	    "out  0x34, r16  \n"
  96:requiredFiles/clksys_driver.c **** #if (__MEMORY_MODEL__ == 1)
  97:requiredFiles/clksys_driver.c **** 	    "st     Z,  r17  \n");
  98:requiredFiles/clksys_driver.c **** #elif (__MEMORY_MODEL__ == 2)
  99:requiredFiles/clksys_driver.c **** 	    "st     Z,  r18  \n");
 100:requiredFiles/clksys_driver.c **** #else /* (__MEMORY_MODEL__ == 3) || (__MEMORY_MODEL__ == 5) */
 101:requiredFiles/clksys_driver.c **** 	    "st     Z,  r19  \n");
 102:requiredFiles/clksys_driver.c **** #endif /* __MEMORY_MODEL__ */
 103:requiredFiles/clksys_driver.c **** 
 104:requiredFiles/clksys_driver.c **** 	// Restore global interrupt setting from scratch register.
 105:requiredFiles/clksys_driver.c ****         asm("out  0x3F, R1");
 106:requiredFiles/clksys_driver.c **** 
 107:requiredFiles/clksys_driver.c **** #elif defined __GNUC__
 108:requiredFiles/clksys_driver.c **** 	AVR_ENTER_CRITICAL_REGION( );
  32               		.loc 1 108 0
  33 000c 2FB7      		in r18,__SREG__
  34               	.LVL1:
  35 000e 2983      		std Y+1,r18
  36               	/* #APP */
  37               	 ;  108 "requiredFiles/clksys_driver.c" 1
  38 0010 F894      		cli
  39               	 ;  0 "" 2
  40               	.LVL2:
 109:requiredFiles/clksys_driver.c **** 	volatile uint8_t * tmpAddr = address;
 110:requiredFiles/clksys_driver.c **** #ifdef RAMPZ
 111:requiredFiles/clksys_driver.c **** 	RAMPZ = 0;
  41               		.loc 1 111 0
  42               	/* #NOAPP */
  43 0012 1BBE      		out 0x3b,__zero_reg__
 112:requiredFiles/clksys_driver.c **** #endif
 113:requiredFiles/clksys_driver.c **** 	asm volatile(
  44               		.loc 1 113 0
  45               	/* #APP */
  46               	 ;  113 "requiredFiles/clksys_driver.c" 1
  47 0014 FC01      		movw r30,  r24
  48 0016 08ED      		ldi  r16,  216
  49 0018 04BF      		out   52, r16
  50 001a 6083      		st     Z,  r22
  51               		
  52               	 ;  0 "" 2
 114:requiredFiles/clksys_driver.c **** 		"movw r30,  %0"	      "\n\t"
 115:requiredFiles/clksys_driver.c **** 		"ldi  r16,  %2"	      "\n\t"
 116:requiredFiles/clksys_driver.c **** 		"out   %3, r16"	      "\n\t"
 117:requiredFiles/clksys_driver.c **** 		"st     Z,  %1"       "\n\t"
 118:requiredFiles/clksys_driver.c **** 		:
 119:requiredFiles/clksys_driver.c **** 		: "r" (tmpAddr), "r" (value), "M" (CCP_IOREG_gc), "i" (&CCP)
GAS LISTING /tmp/ccPqDIXf.s 			page 4


 120:requiredFiles/clksys_driver.c **** 		: "r16", "r30", "r31"
 121:requiredFiles/clksys_driver.c **** 		);
 122:requiredFiles/clksys_driver.c **** 
 123:requiredFiles/clksys_driver.c **** 	AVR_LEAVE_CRITICAL_REGION( );
  53               		.loc 1 123 0
  54               	/* #NOAPP */
  55 001c 8981      		ldd r24,Y+1
  56               	.LVL3:
  57 001e 8FBF      		out __SREG__,r24
  58               	/* epilogue start */
 124:requiredFiles/clksys_driver.c **** #endif
 125:requiredFiles/clksys_driver.c **** }
  59               		.loc 1 125 0
  60 0020 0F90      		pop __tmp_reg__
  61 0022 DF91      		pop r29
  62 0024 CF91      		pop r28
  63 0026 0F91      		pop r16
  64 0028 0895      		ret
  65               	.LFE7:
  66               		.size	CCPWrite, .-CCPWrite
  67               	.global	CLKSYS_XOSC_Config
  68               		.type	CLKSYS_XOSC_Config, @function
  69               	CLKSYS_XOSC_Config:
  70               	.LFB8:
 126:requiredFiles/clksys_driver.c **** 
 127:requiredFiles/clksys_driver.c **** /*! \brief This function configures the external oscillator.
 128:requiredFiles/clksys_driver.c ****  *
 129:requiredFiles/clksys_driver.c ****  *  \note Note that the oscillator cannot be used as a main system clock
 130:requiredFiles/clksys_driver.c ****  *        source without being enabled and stable first. Check the ready flag
 131:requiredFiles/clksys_driver.c ****  *        before using the clock. The macro CLKSYS_IsReady( _oscSel )
 132:requiredFiles/clksys_driver.c ****  *        can be used to check this.
 133:requiredFiles/clksys_driver.c ****  *
 134:requiredFiles/clksys_driver.c ****  *  \param  freqRange          Frequency range for high-frequency crystal, does
 135:requiredFiles/clksys_driver.c ****  *                             not apply for external clock or 32kHz crystals.
 136:requiredFiles/clksys_driver.c ****  *  \param  lowPower32kHz      True of high-quality watch crystals are used and
 137:requiredFiles/clksys_driver.c ****  *                             low-power oscillator is desired.
 138:requiredFiles/clksys_driver.c ****  *  \param  xoscModeSelection  Combined selection of oscillator type (or
 139:requiredFiles/clksys_driver.c ****  *                             external clock) and startup times.
 140:requiredFiles/clksys_driver.c ****  */
 141:requiredFiles/clksys_driver.c **** void CLKSYS_XOSC_Config( OSC_FRQRANGE_t freqRange,
 142:requiredFiles/clksys_driver.c ****                          bool lowPower32kHz,
 143:requiredFiles/clksys_driver.c ****                          OSC_XOSCSEL_t xoscModeSelection )
 144:requiredFiles/clksys_driver.c **** {
  71               		.loc 1 144 0
  72               	.LVL4:
  73               	/* prologue: function */
  74               	/* frame size = 0 */
  75               	/* stack size = 0 */
  76               	.L__stack_usage = 0
 145:requiredFiles/clksys_driver.c **** 	OSC.XOSCCTRL = (uint8_t) freqRange |
  77               		.loc 1 145 0
  78 002a 6623      		tst r22
  79 002c 01F0      		breq .L4
  80 002e 90E2      		ldi r25,lo8(32)
  81 0030 00C0      		rjmp .L3
  82               	.L4:
  83 0032 90E0      		ldi r25,0
GAS LISTING /tmp/ccPqDIXf.s 			page 5


  84               	.L3:
  85               		.loc 1 145 0 is_stmt 0 discriminator 3
  86 0034 842B      		or r24,r20
  87               	.LVL5:
  88 0036 892B      		or r24,r25
  89 0038 8093 5200 		sts 82,r24
  90 003c 0895      		ret
  91               	.LFE8:
  92               		.size	CLKSYS_XOSC_Config, .-CLKSYS_XOSC_Config
  93               	.global	CLKSYS_PLL_Config
  94               		.type	CLKSYS_PLL_Config, @function
  95               	CLKSYS_PLL_Config:
  96               	.LFB9:
 146:requiredFiles/clksys_driver.c **** 	               ( lowPower32kHz ? OSC_X32KLPM_bm : 0 ) |
 147:requiredFiles/clksys_driver.c **** 	               xoscModeSelection;
 148:requiredFiles/clksys_driver.c **** }
 149:requiredFiles/clksys_driver.c **** 
 150:requiredFiles/clksys_driver.c **** 
 151:requiredFiles/clksys_driver.c **** /*! \brief This function configures the internal high-frequency PLL.
 152:requiredFiles/clksys_driver.c ****  *
 153:requiredFiles/clksys_driver.c ****  *  Configuration of the internal high-frequency PLL to the correct
 154:requiredFiles/clksys_driver.c ****  *  values. It is used to define the input of the PLL and the factor of
 155:requiredFiles/clksys_driver.c ****  *  multiplication of the input clock source.
 156:requiredFiles/clksys_driver.c ****  *
 157:requiredFiles/clksys_driver.c ****  *  \note Note that the oscillator cannot be used as a main system clock
 158:requiredFiles/clksys_driver.c ****  *        source without being enabled and stable first. Check the ready flag
 159:requiredFiles/clksys_driver.c ****  *        before using the clock. The macro CLKSYS_IsReady( _oscSel )
 160:requiredFiles/clksys_driver.c ****  *        can be used to check this.
 161:requiredFiles/clksys_driver.c ****  *
 162:requiredFiles/clksys_driver.c ****  *  \param  clockSource Reference clock source for the PLL,
 163:requiredFiles/clksys_driver.c ****  *                      must be above 0.4MHz.
 164:requiredFiles/clksys_driver.c ****  *  \param  factor      PLL multiplication factor, must be
 165:requiredFiles/clksys_driver.c ****  *                      from 1 to 31, inclusive.
 166:requiredFiles/clksys_driver.c ****  */
 167:requiredFiles/clksys_driver.c **** void CLKSYS_PLL_Config( OSC_PLLSRC_t clockSource, uint8_t factor )
 168:requiredFiles/clksys_driver.c **** {
  97               		.loc 1 168 0 is_stmt 1
  98               	.LVL6:
  99               	/* prologue: function */
 100               	/* frame size = 0 */
 101               	/* stack size = 0 */
 102               	.L__stack_usage = 0
 169:requiredFiles/clksys_driver.c **** 	factor &= OSC_PLLFAC_gm;
 103               		.loc 1 169 0
 104 003e 6F71      		andi r22,lo8(31)
 105               	.LVL7:
 170:requiredFiles/clksys_driver.c **** 	OSC.PLLCTRL = (uint8_t) clockSource | ( factor << OSC_PLLFAC_gp );
 106               		.loc 1 170 0
 107 0040 682B      		or r22,r24
 108               	.LVL8:
 109 0042 E0E5      		ldi r30,lo8(80)
 110 0044 F0E0      		ldi r31,0
 111 0046 6583      		std Z+5,r22
 112 0048 0895      		ret
 113               	.LFE9:
 114               		.size	CLKSYS_PLL_Config, .-CLKSYS_PLL_Config
 115               	.global	CLKSYS_Disable
GAS LISTING /tmp/ccPqDIXf.s 			page 6


 116               		.type	CLKSYS_Disable, @function
 117               	CLKSYS_Disable:
 118               	.LFB10:
 171:requiredFiles/clksys_driver.c **** }
 172:requiredFiles/clksys_driver.c **** 
 173:requiredFiles/clksys_driver.c **** 
 174:requiredFiles/clksys_driver.c **** /*! \brief This function disables the selected oscillator.
 175:requiredFiles/clksys_driver.c ****  *
 176:requiredFiles/clksys_driver.c ****  *  This function will disable the selected oscillator if possible.
 177:requiredFiles/clksys_driver.c ****  *  If it is currently used as a main system clock source, hardware will
 178:requiredFiles/clksys_driver.c ****  *  disregard the disable attempt, and this function will return zero.
 179:requiredFiles/clksys_driver.c ****  *  If it fails, change to another main system clock source and try again.
 180:requiredFiles/clksys_driver.c ****  *
 181:requiredFiles/clksys_driver.c ****  *  \param oscSel  Bitmask of selected clock. Can be one of the following
 182:requiredFiles/clksys_driver.c ****  *                 OSC_RC2MEN_bm, OSC_RC32MEN_bm, OSC_RC32KEN_bm,
 183:requiredFiles/clksys_driver.c ****  *                 OSC_XOSCEN_bm, OSC_PLLEN_bm.
 184:requiredFiles/clksys_driver.c ****  *
 185:requiredFiles/clksys_driver.c ****  *  \return  Non-zero if oscillator was disabled successfully.
 186:requiredFiles/clksys_driver.c ****  */
 187:requiredFiles/clksys_driver.c **** uint8_t CLKSYS_Disable( uint8_t oscSel )
 188:requiredFiles/clksys_driver.c **** {
 119               		.loc 1 188 0
 120               	.LVL9:
 121               	/* prologue: function */
 122               	/* frame size = 0 */
 123               	/* stack size = 0 */
 124               	.L__stack_usage = 0
 189:requiredFiles/clksys_driver.c **** 	OSC.CTRL &= ~oscSel;
 125               		.loc 1 189 0
 126 004a E0E5      		ldi r30,lo8(80)
 127 004c F0E0      		ldi r31,0
 128 004e 2081      		ld r18,Z
 129 0050 982F      		mov r25,r24
 130 0052 9095      		com r25
 131 0054 9223      		and r25,r18
 132 0056 9083      		st Z,r25
 190:requiredFiles/clksys_driver.c **** 	uint8_t clkEnabled = OSC.CTRL & oscSel;
 133               		.loc 1 190 0
 134 0058 9081      		ld r25,Z
 135               	.LVL10:
 191:requiredFiles/clksys_driver.c **** 	return clkEnabled;
 192:requiredFiles/clksys_driver.c **** }
 136               		.loc 1 192 0
 137 005a 8923      		and r24,r25
 138               	.LVL11:
 139 005c 0895      		ret
 140               	.LFE10:
 141               		.size	CLKSYS_Disable, .-CLKSYS_Disable
 142               	.global	CLKSYS_Prescalers_Config
 143               		.type	CLKSYS_Prescalers_Config, @function
 144               	CLKSYS_Prescalers_Config:
 145               	.LFB11:
 193:requiredFiles/clksys_driver.c **** 
 194:requiredFiles/clksys_driver.c **** 
 195:requiredFiles/clksys_driver.c **** /*! \brief This function changes the prescaler configuration.
 196:requiredFiles/clksys_driver.c ****  *
 197:requiredFiles/clksys_driver.c ****  *  Change the configuration of the three system clock
GAS LISTING /tmp/ccPqDIXf.s 			page 7


 198:requiredFiles/clksys_driver.c ****  *  prescaler is one single operation. The user must make sure that
 199:requiredFiles/clksys_driver.c ****  *  the main CPU clock does not exceed recommended limits.
 200:requiredFiles/clksys_driver.c ****  *
 201:requiredFiles/clksys_driver.c ****  *  \param  PSAfactor   Prescaler A division factor, OFF or 2 to 512 in
 202:requiredFiles/clksys_driver.c ****  *                      powers of two.
 203:requiredFiles/clksys_driver.c ****  *  \param  PSBCfactor  Prescaler B and C division factor, in the combination
 204:requiredFiles/clksys_driver.c ****  *                      of (1,1), (1,2), (4,1) or (2,2).
 205:requiredFiles/clksys_driver.c ****  */
 206:requiredFiles/clksys_driver.c **** void CLKSYS_Prescalers_Config( CLK_PSADIV_t PSAfactor,
 207:requiredFiles/clksys_driver.c ****                                CLK_PSBCDIV_t PSBCfactor )
 208:requiredFiles/clksys_driver.c **** {
 146               		.loc 1 208 0
 147               	.LVL12:
 148               	/* prologue: function */
 149               	/* frame size = 0 */
 150               	/* stack size = 0 */
 151               	.L__stack_usage = 0
 209:requiredFiles/clksys_driver.c **** 	uint8_t PSconfig = (uint8_t) PSAfactor | PSBCfactor;
 152               		.loc 1 209 0
 153 005e 682B      		or r22,r24
 154               	.LVL13:
 210:requiredFiles/clksys_driver.c **** 	CCPWrite( &CLK.PSCTRL, PSconfig );
 155               		.loc 1 210 0
 156 0060 81E4      		ldi r24,lo8(65)
 157 0062 90E0      		ldi r25,0
 158               	.LVL14:
 159 0064 0C94 0000 		jmp CCPWrite
 160               	.LVL15:
 161               	.LFE11:
 162               		.size	CLKSYS_Prescalers_Config, .-CLKSYS_Prescalers_Config
 163               	.global	CLKSYS_Main_ClockSource_Select
 164               		.type	CLKSYS_Main_ClockSource_Select, @function
 165               	CLKSYS_Main_ClockSource_Select:
 166               	.LFB12:
 211:requiredFiles/clksys_driver.c **** }
 212:requiredFiles/clksys_driver.c **** 
 213:requiredFiles/clksys_driver.c **** 
 214:requiredFiles/clksys_driver.c **** /*! \brief This function selects the main system clock source.
 215:requiredFiles/clksys_driver.c ****  *
 216:requiredFiles/clksys_driver.c ****  *  Hardware will disregard any attempts to select a clock source that is not
 217:requiredFiles/clksys_driver.c ****  *  enabled or not stable. If the change fails, make sure the source is ready
 218:requiredFiles/clksys_driver.c ****  *  and running and try again.
 219:requiredFiles/clksys_driver.c ****  *
 220:requiredFiles/clksys_driver.c ****  *  \param  clockSource  Clock source to use as input for the system clock
 221:requiredFiles/clksys_driver.c ****  *                       prescaler block.
 222:requiredFiles/clksys_driver.c ****  *
 223:requiredFiles/clksys_driver.c ****  *  \return  Non-zero if change was successful.
 224:requiredFiles/clksys_driver.c ****  */
 225:requiredFiles/clksys_driver.c **** uint8_t CLKSYS_Main_ClockSource_Select( CLK_SCLKSEL_t clockSource )
 226:requiredFiles/clksys_driver.c **** {
 167               		.loc 1 226 0
 168               	.LVL16:
 169 0068 1F93      		push r17
 170               	.LCFI5:
 171 006a CF93      		push r28
 172               	.LCFI6:
 173 006c DF93      		push r29
GAS LISTING /tmp/ccPqDIXf.s 			page 8


 174               	.LCFI7:
 175               	/* prologue: function */
 176               	/* frame size = 0 */
 177               	/* stack size = 3 */
 178               	.L__stack_usage = 3
 179 006e 182F      		mov r17,r24
 227:requiredFiles/clksys_driver.c **** 	uint8_t clkCtrl = ( CLK.CTRL & ~CLK_SCLKSEL_gm ) | clockSource;
 180               		.loc 1 227 0
 181 0070 C0E4      		ldi r28,lo8(64)
 182 0072 D0E0      		ldi r29,0
 183 0074 6881      		ld r22,Y
 184               	.LVL17:
 185 0076 687F      		andi r22,lo8(-8)
 186               	.LVL18:
 187 0078 682B      		or r22,r24
 188               	.LVL19:
 228:requiredFiles/clksys_driver.c **** 	CCPWrite( &CLK.CTRL, clkCtrl );
 189               		.loc 1 228 0
 190 007a 80E4      		ldi r24,lo8(64)
 191 007c 90E0      		ldi r25,0
 192               	.LVL20:
 193 007e 0E94 0000 		call CCPWrite
 194               	.LVL21:
 229:requiredFiles/clksys_driver.c **** 	clkCtrl = ( CLK.CTRL & clockSource );
 195               		.loc 1 229 0
 196 0082 8881      		ld r24,Y
 197               	.LVL22:
 230:requiredFiles/clksys_driver.c **** 	return clkCtrl;
 231:requiredFiles/clksys_driver.c **** }
 198               		.loc 1 231 0
 199 0084 8123      		and r24,r17
 200               	.LVL23:
 201               	/* epilogue start */
 202 0086 DF91      		pop r29
 203 0088 CF91      		pop r28
 204 008a 1F91      		pop r17
 205               	.LVL24:
 206 008c 0895      		ret
 207               	.LFE12:
 208               		.size	CLKSYS_Main_ClockSource_Select, .-CLKSYS_Main_ClockSource_Select
 209               	.global	CLKSYS_RTC_ClockSource_Enable
 210               		.type	CLKSYS_RTC_ClockSource_Enable, @function
 211               	CLKSYS_RTC_ClockSource_Enable:
 212               	.LFB13:
 232:requiredFiles/clksys_driver.c **** 
 233:requiredFiles/clksys_driver.c **** 
 234:requiredFiles/clksys_driver.c **** /*! \brief This function selects a Real-Time Counter clock source.
 235:requiredFiles/clksys_driver.c ****  *
 236:requiredFiles/clksys_driver.c ****  *  Selects the clock source for use by the Real-Time Counter (RTC)
 237:requiredFiles/clksys_driver.c ****  *  and enables clock signal routing to the RTC module.
 238:requiredFiles/clksys_driver.c ****  *
 239:requiredFiles/clksys_driver.c ****  *  \param  clockSource  Clock source to use for the RTC.
 240:requiredFiles/clksys_driver.c ****  */
 241:requiredFiles/clksys_driver.c **** void CLKSYS_RTC_ClockSource_Enable( CLK_RTCSRC_t clockSource )
 242:requiredFiles/clksys_driver.c **** {
 213               		.loc 1 242 0
 214               	.LVL25:
GAS LISTING /tmp/ccPqDIXf.s 			page 9


 215               	/* prologue: function */
 216               	/* frame size = 0 */
 217               	/* stack size = 0 */
 218               	.L__stack_usage = 0
 243:requiredFiles/clksys_driver.c **** 	CLK.RTCCTRL = ( CLK.RTCCTRL & ~CLK_RTCSRC_gm ) |
 219               		.loc 1 243 0
 220 008e E0E4      		ldi r30,lo8(64)
 221 0090 F0E0      		ldi r31,0
 222 0092 9381      		ldd r25,Z+3
 223 0094 917F      		andi r25,lo8(-15)
 224 0096 9160      		ori r25,lo8(1)
 225 0098 982B      		or r25,r24
 226 009a 9383      		std Z+3,r25
 227 009c 0895      		ret
 228               	.LFE13:
 229               		.size	CLKSYS_RTC_ClockSource_Enable, .-CLKSYS_RTC_ClockSource_Enable
 230               	.global	CLKSYS_AutoCalibration_Enable
 231               		.type	CLKSYS_AutoCalibration_Enable, @function
 232               	CLKSYS_AutoCalibration_Enable:
 233               	.LFB14:
 244:requiredFiles/clksys_driver.c **** 	              clockSource |
 245:requiredFiles/clksys_driver.c **** 	              CLK_RTCEN_bm;
 246:requiredFiles/clksys_driver.c **** }
 247:requiredFiles/clksys_driver.c **** 
 248:requiredFiles/clksys_driver.c **** 
 249:requiredFiles/clksys_driver.c **** /*! \brief This function enables automatic calibration of the selected internal
 250:requiredFiles/clksys_driver.c ****  *         oscillator.
 251:requiredFiles/clksys_driver.c ****  *
 252:requiredFiles/clksys_driver.c ****  *  Either the internal 32kHz RC oscillator or an external 32kHz
 253:requiredFiles/clksys_driver.c ****  *  crystal can be used as a calibration reference. The user must make sure
 254:requiredFiles/clksys_driver.c ****  *  that the selected reference is ready and running.
 255:requiredFiles/clksys_driver.c ****  *
 256:requiredFiles/clksys_driver.c ****  *  \param  clkSource    Clock source to calibrate, either OSC_RC2MCREF_bm or
 257:requiredFiles/clksys_driver.c ****  *                       OSC_RC32MCREF_bm.
 258:requiredFiles/clksys_driver.c ****  *  \param  extReference True if external crystal should be used as reference.
 259:requiredFiles/clksys_driver.c ****  */
 260:requiredFiles/clksys_driver.c **** void CLKSYS_AutoCalibration_Enable( uint8_t clkSource, bool extReference )
 261:requiredFiles/clksys_driver.c **** {
 234               		.loc 1 261 0
 235               	.LVL26:
 236               	/* prologue: function */
 237               	/* frame size = 0 */
 238               	/* stack size = 0 */
 239               	.L__stack_usage = 0
 262:requiredFiles/clksys_driver.c **** 	OSC.DFLLCTRL = ( OSC.DFLLCTRL & ~clkSource ) |
 240               		.loc 1 262 0
 241 009e 3091 5600 		lds r19,86
 242 00a2 282F      		mov r18,r24
 243 00a4 982F      		mov r25,r24
 244 00a6 9095      		com r25
 245 00a8 9323      		and r25,r19
 246 00aa 6111      		cpse r22,__zero_reg__
 247 00ac 00C0      		rjmp .L11
 248 00ae 20E0      		ldi r18,0
 249               	.L11:
 250               		.loc 1 262 0 is_stmt 0 discriminator 3
 251 00b0 922B      		or r25,r18
GAS LISTING /tmp/ccPqDIXf.s 			page 10


 252 00b2 9093 5600 		sts 86,r25
 263:requiredFiles/clksys_driver.c **** 	               ( extReference ? clkSource : 0 );
 264:requiredFiles/clksys_driver.c **** 	if (clkSource == OSC_RC2MCREF_bm) {
 253               		.loc 1 264 0 is_stmt 1 discriminator 3
 254 00b6 8130      		cpi r24,lo8(1)
 255 00b8 01F4      		brne .L12
 265:requiredFiles/clksys_driver.c **** 		DFLLRC2M.CTRL |= DFLL_ENABLE_bm;
 256               		.loc 1 265 0
 257 00ba 8091 6800 		lds r24,104
 258               	.LVL27:
 259 00be 8160      		ori r24,lo8(1)
 260 00c0 8093 6800 		sts 104,r24
 261 00c4 0895      		ret
 262               	.LVL28:
 263               	.L12:
 266:requiredFiles/clksys_driver.c **** 	} else if (clkSource == OSC_RC32MCREF_bm) {
 264               		.loc 1 266 0
 265 00c6 8230      		cpi r24,lo8(2)
 266 00c8 01F4      		brne .L10
 267:requiredFiles/clksys_driver.c **** 		DFLLRC32M.CTRL |= DFLL_ENABLE_bm;
 267               		.loc 1 267 0
 268 00ca 8091 6000 		lds r24,96
 269               	.LVL29:
 270 00ce 8160      		ori r24,lo8(1)
 271 00d0 8093 6000 		sts 96,r24
 272               	.L10:
 273 00d4 0895      		ret
 274               	.LFE14:
 275               		.size	CLKSYS_AutoCalibration_Enable, .-CLKSYS_AutoCalibration_Enable
 276               	.global	CLKSYS_XOSC_FailureDetection_Enable
 277               		.type	CLKSYS_XOSC_FailureDetection_Enable, @function
 278               	CLKSYS_XOSC_FailureDetection_Enable:
 279               	.LFB15:
 268:requiredFiles/clksys_driver.c **** 	}
 269:requiredFiles/clksys_driver.c **** }
 270:requiredFiles/clksys_driver.c **** 
 271:requiredFiles/clksys_driver.c **** 
 272:requiredFiles/clksys_driver.c **** /*! \brief This function enables the External Oscillator Failure Detection
 273:requiredFiles/clksys_driver.c ****  *         (XOSCFD) feature.
 274:requiredFiles/clksys_driver.c ****  *
 275:requiredFiles/clksys_driver.c ****  *  The feature will stay enabled until next reset. Note that the
 276:requiredFiles/clksys_driver.c ****  *  XOSCFD _will_ issue the XOSCF Non-maskable Interrupt (NMI) regardless of
 277:requiredFiles/clksys_driver.c ****  *  any interrupt priorities and settings. Therefore, make sure that a handler
 278:requiredFiles/clksys_driver.c ****  *  is implemented for the XOSCF NMI when you enable it.
 279:requiredFiles/clksys_driver.c ****  */
 280:requiredFiles/clksys_driver.c **** void CLKSYS_XOSC_FailureDetection_Enable( void )
 281:requiredFiles/clksys_driver.c **** {
 280               		.loc 1 281 0
 281               	/* prologue: function */
 282               	/* frame size = 0 */
 283               	/* stack size = 0 */
 284               	.L__stack_usage = 0
 282:requiredFiles/clksys_driver.c **** 	CCPWrite( &OSC.XOSCFAIL, ( OSC_XOSCFDIF_bm | OSC_XOSCFDEN_bm ) );
 285               		.loc 1 282 0
 286 00d6 63E0      		ldi r22,lo8(3)
 287 00d8 83E5      		ldi r24,lo8(83)
 288 00da 90E0      		ldi r25,0
GAS LISTING /tmp/ccPqDIXf.s 			page 11


 289 00dc 0C94 0000 		jmp CCPWrite
 290               	.LVL30:
 291               	.LFE15:
 292               		.size	CLKSYS_XOSC_FailureDetection_Enable, .-CLKSYS_XOSC_FailureDetection_Enable
 293               	.global	CLKSYS_Configuration_Lock
 294               		.type	CLKSYS_Configuration_Lock, @function
 295               	CLKSYS_Configuration_Lock:
 296               	.LFB16:
 283:requiredFiles/clksys_driver.c **** }
 284:requiredFiles/clksys_driver.c **** 
 285:requiredFiles/clksys_driver.c **** 
 286:requiredFiles/clksys_driver.c **** /*! \brief This function lock the entire clock system configuration.
 287:requiredFiles/clksys_driver.c ****  *
 288:requiredFiles/clksys_driver.c ****  *  This will lock the configuration until the next reset, or until the
 289:requiredFiles/clksys_driver.c ****  *  External Oscillator Failure Detections (XOSCFD) feature detects a failure
 290:requiredFiles/clksys_driver.c ****  *  and switches to internal 2MHz RC oscillator.
 291:requiredFiles/clksys_driver.c ****  */
 292:requiredFiles/clksys_driver.c **** void CLKSYS_Configuration_Lock( void )
 293:requiredFiles/clksys_driver.c **** {
 297               		.loc 1 293 0
 298               	/* prologue: function */
 299               	/* frame size = 0 */
 300               	/* stack size = 0 */
 301               	.L__stack_usage = 0
 294:requiredFiles/clksys_driver.c **** 	CCPWrite( &CLK.LOCK, CLK_LOCK_bm );
 302               		.loc 1 294 0
 303 00e0 61E0      		ldi r22,lo8(1)
 304 00e2 82E4      		ldi r24,lo8(66)
 305 00e4 90E0      		ldi r25,0
 306 00e6 0C94 0000 		jmp CCPWrite
 307               	.LVL31:
 308               	.LFE16:
 309               		.size	CLKSYS_Configuration_Lock, .-CLKSYS_Configuration_Lock
 310               	.global	__vector_14
 311               		.type	__vector_14, @function
 312               	__vector_14:
 313               	.LFB17:
 314               		.file 2 "AdDemo.c"
   1:AdDemo.c      **** /* TinyArmTroller Advertisement Demo
   2:AdDemo.c      ****  * by Daniel J. Gonzalez
   3:AdDemo.c      ****  * July 2012, yameb.blogspot.com
   4:AdDemo.c      ****  * 
   5:AdDemo.c      ****  * Home: 
   6:AdDemo.c      ****  * * Facing right 
   7:AdDemo.c      ****  * * Shoulder and elbow down 
   8:AdDemo.c      ****  * * Advert facing wherever 
   9:AdDemo.c      ****  * * Gripper already gripping
  10:AdDemo.c      ****  */
  11:AdDemo.c      **** 
  12:AdDemo.c      **** #define F_CPU 	32000000UL //32 MHz Internal Oscillator
  13:AdDemo.c      **** #define LOW 0
  14:AdDemo.c      **** #define HIGH 1
  15:AdDemo.c      **** #define MOTOR_1 Base
  16:AdDemo.c      **** #define MOTOR_2 Shoulder
  17:AdDemo.c      **** #define MOTOR_3 Elbow
  18:AdDemo.c      **** #define MOTOR_4 Right_Wrist
  19:AdDemo.c      **** #define MOTOR_5 Left_Wrist
GAS LISTING /tmp/ccPqDIXf.s 			page 12


  20:AdDemo.c      **** #define MOTOR_6 Gripper
  21:AdDemo.c      **** #define MAXSPEED 35
  22:AdDemo.c      **** 
  23:AdDemo.c      **** #include <avr/io.h>
  24:AdDemo.c      **** #include <avr/interrupt.h>
  25:AdDemo.c      **** #include <util/delay.h>
  26:AdDemo.c      **** #include "requiredFiles/avr_compiler.h"
  27:AdDemo.c      **** #include "requiredFiles/clksys_driver.h"
  28:AdDemo.c      **** #include "requiredFiles/clksys_driver.c"
  29:AdDemo.c      **** 
  30:AdDemo.c      **** #define set_it(p,m) ((p) = (m))
  31:AdDemo.c      **** #define bit_get(p,m) ((p) & (m)) 
  32:AdDemo.c      **** #define bit_set(p,m) ((p) |= (m)) 
  33:AdDemo.c      **** #define bit_clear(p,m) ((p) &= ~(m)) 
  34:AdDemo.c      **** #define bit_flip(p,m) ((p) ^= (m)) 
  35:AdDemo.c      **** // #define bit_write(c<Plug>PeepOpen,m) (c ? bit_set(p,m) : bit_clear(p,m)) //Giving me issues with
  36:AdDemo.c      **** #define BIT(x) (0x01 << (x))
  37:AdDemo.c      **** #define LONGBIT(x) ((unsigned long)0x00000001 << (x))
  38:AdDemo.c      **** 
  39:AdDemo.c      **** // State Machine Definitions
  40:AdDemo.c      **** #define DEBUG 0
  41:AdDemo.c      **** #define INIT 1
  42:AdDemo.c      **** #define IDLE 2
  43:AdDemo.c      **** #define MOVING 3
  44:AdDemo.c      **** #define LOST 4
  45:AdDemo.c      **** 
  46:AdDemo.c      **** int state = INIT;
  47:AdDemo.c      **** int debugFlag = 0;
  48:AdDemo.c      **** int goal[6]={0,0,0,0,0,0};
  49:AdDemo.c      **** int pose[6]={0,0,0,0,0,0};
  50:AdDemo.c      **** volatile unsigned long elapsedMillis = 0;
  51:AdDemo.c      **** 
  52:AdDemo.c      **** 
  53:AdDemo.c      **** ISR(TCC0_OVF_vect){
 315               		.loc 2 53 0
 316 00ea 1F92      		push r1
 317               	.LCFI8:
 318 00ec 0F92      		push r0
 319               	.LCFI9:
 320 00ee 0FB6      		in r0,__SREG__
 321 00f0 0F92      		push r0
 322 00f2 1124      		clr __zero_reg__
 323 00f4 8F93      		push r24
 324               	.LCFI10:
 325 00f6 9F93      		push r25
 326               	.LCFI11:
 327 00f8 AF93      		push r26
 328               	.LCFI12:
 329 00fa BF93      		push r27
 330               	.LCFI13:
 331               	/* prologue: Signal */
 332               	/* frame size = 0 */
 333               	/* stack size = 7 */
 334               	.L__stack_usage = 7
  54:AdDemo.c      **** 	elapsedMillis++;
 335               		.loc 2 54 0
 336 00fc 8091 0000 		lds r24,elapsedMillis
GAS LISTING /tmp/ccPqDIXf.s 			page 13


 337 0100 9091 0000 		lds r25,elapsedMillis+1
 338 0104 A091 0000 		lds r26,elapsedMillis+2
 339 0108 B091 0000 		lds r27,elapsedMillis+3
 340 010c 0196      		adiw r24,1
 341 010e A11D      		adc r26,__zero_reg__
 342 0110 B11D      		adc r27,__zero_reg__
 343 0112 8093 0000 		sts elapsedMillis,r24
 344 0116 9093 0000 		sts elapsedMillis+1,r25
 345 011a A093 0000 		sts elapsedMillis+2,r26
 346 011e B093 0000 		sts elapsedMillis+3,r27
 347               	/* epilogue start */
  55:AdDemo.c      **** }
 348               		.loc 2 55 0
 349 0122 BF91      		pop r27
 350 0124 AF91      		pop r26
 351 0126 9F91      		pop r25
 352 0128 8F91      		pop r24
 353 012a 0F90      		pop r0
 354 012c 0FBE      		out __SREG__,r0
 355 012e 0F90      		pop r0
 356 0130 1F90      		pop r1
 357 0132 1895      		reti
 358               	.LFE17:
 359               		.size	__vector_14, .-__vector_14
 360               	.global	delay_ms
 361               		.type	delay_ms, @function
 362               	delay_ms:
 363               	.LFB18:
  56:AdDemo.c      **** 
  57:AdDemo.c      **** // My own Delay function, because the built-in _delay_ms() can delay for only a limited time
  58:AdDemo.c      **** void delay_ms(int ms) 
  59:AdDemo.c      **** { 
 364               		.loc 2 59 0
 365               	.LVL32:
 366               	/* prologue: function */
 367               	/* frame size = 0 */
 368               	/* stack size = 0 */
 369               	.L__stack_usage = 0
 370 0134 9C01      		movw r18,r24
  60:AdDemo.c      ****     while (ms--) 
 371               		.loc 2 60 0
 372 0136 00C0      		rjmp .L18
 373               	.LVL33:
 374               	.L19:
 375               	.LBB64:
 376               	.LBB65:
 377               		.file 3 "/usr/lib/gcc/avr/4.7.0/../../../avr/include/util/delay.h"
   1:/usr/lib/gcc/avr/4.7.0/../../../avr/include/util/delay.h **** /* Copyright (c) 2002, Marek Michalkiewicz
   2:/usr/lib/gcc/avr/4.7.0/../../../avr/include/util/delay.h ****    Copyright (c) 2004,2005,2007 Joerg Wunsch
   3:/usr/lib/gcc/avr/4.7.0/../../../avr/include/util/delay.h ****    Copyright (c) 2007  Florin-Viorel Petrov
   4:/usr/lib/gcc/avr/4.7.0/../../../avr/include/util/delay.h ****    All rights reserved.
   5:/usr/lib/gcc/avr/4.7.0/../../../avr/include/util/delay.h **** 
   6:/usr/lib/gcc/avr/4.7.0/../../../avr/include/util/delay.h ****    Redistribution and use in source and binary forms, with or without
   7:/usr/lib/gcc/avr/4.7.0/../../../avr/include/util/delay.h ****    modification, are permitted provided that the following conditions are met:
   8:/usr/lib/gcc/avr/4.7.0/../../../avr/include/util/delay.h **** 
   9:/usr/lib/gcc/avr/4.7.0/../../../avr/include/util/delay.h ****    * Redistributions of source code must retain the above copyright
  10:/usr/lib/gcc/avr/4.7.0/../../../avr/include/util/delay.h ****      notice, this list of conditions and the following disclaimer.
GAS LISTING /tmp/ccPqDIXf.s 			page 14


  11:/usr/lib/gcc/avr/4.7.0/../../../avr/include/util/delay.h **** 
  12:/usr/lib/gcc/avr/4.7.0/../../../avr/include/util/delay.h ****    * Redistributions in binary form must reproduce the above copyright
  13:/usr/lib/gcc/avr/4.7.0/../../../avr/include/util/delay.h ****      notice, this list of conditions and the following disclaimer in
  14:/usr/lib/gcc/avr/4.7.0/../../../avr/include/util/delay.h ****      the documentation and/or other materials provided with the
  15:/usr/lib/gcc/avr/4.7.0/../../../avr/include/util/delay.h ****      distribution.
  16:/usr/lib/gcc/avr/4.7.0/../../../avr/include/util/delay.h **** 
  17:/usr/lib/gcc/avr/4.7.0/../../../avr/include/util/delay.h ****    * Neither the name of the copyright holders nor the names of
  18:/usr/lib/gcc/avr/4.7.0/../../../avr/include/util/delay.h ****      contributors may be used to endorse or promote products derived
  19:/usr/lib/gcc/avr/4.7.0/../../../avr/include/util/delay.h ****      from this software without specific prior written permission.
  20:/usr/lib/gcc/avr/4.7.0/../../../avr/include/util/delay.h **** 
  21:/usr/lib/gcc/avr/4.7.0/../../../avr/include/util/delay.h ****   THIS SOFTWARE IS PROVIDED BY THE COPYRIGHT HOLDERS AND CONTRIBUTORS "AS IS"
  22:/usr/lib/gcc/avr/4.7.0/../../../avr/include/util/delay.h ****   AND ANY EXPRESS OR IMPLIED WARRANTIES, INCLUDING, BUT NOT LIMITED TO, THE
  23:/usr/lib/gcc/avr/4.7.0/../../../avr/include/util/delay.h ****   IMPLIED WARRANTIES OF MERCHANTABILITY AND FITNESS FOR A PARTICULAR PURPOSE
  24:/usr/lib/gcc/avr/4.7.0/../../../avr/include/util/delay.h ****   ARE DISCLAIMED. IN NO EVENT SHALL THE COPYRIGHT OWNER OR CONTRIBUTORS BE
  25:/usr/lib/gcc/avr/4.7.0/../../../avr/include/util/delay.h ****   LIABLE FOR ANY DIRECT, INDIRECT, INCIDENTAL, SPECIAL, EXEMPLARY, OR
  26:/usr/lib/gcc/avr/4.7.0/../../../avr/include/util/delay.h ****   CONSEQUENTIAL DAMAGES (INCLUDING, BUT NOT LIMITED TO, PROCUREMENT OF
  27:/usr/lib/gcc/avr/4.7.0/../../../avr/include/util/delay.h ****   SUBSTITUTE GOODS OR SERVICES; LOSS OF USE, DATA, OR PROFITS; OR BUSINESS
  28:/usr/lib/gcc/avr/4.7.0/../../../avr/include/util/delay.h ****   INTERRUPTION) HOWEVER CAUSED AND ON ANY THEORY OF LIABILITY, WHETHER IN
  29:/usr/lib/gcc/avr/4.7.0/../../../avr/include/util/delay.h ****   CONTRACT, STRICT LIABILITY, OR TORT (INCLUDING NEGLIGENCE OR OTHERWISE)
  30:/usr/lib/gcc/avr/4.7.0/../../../avr/include/util/delay.h ****   ARISING IN ANY WAY OUT OF THE USE OF THIS SOFTWARE, EVEN IF ADVISED OF THE
  31:/usr/lib/gcc/avr/4.7.0/../../../avr/include/util/delay.h ****   POSSIBILITY OF SUCH DAMAGE. */
  32:/usr/lib/gcc/avr/4.7.0/../../../avr/include/util/delay.h **** 
  33:/usr/lib/gcc/avr/4.7.0/../../../avr/include/util/delay.h **** /* $Id: delay.h.in 2251 2011-09-14 08:20:33Z joerg_wunsch $ */
  34:/usr/lib/gcc/avr/4.7.0/../../../avr/include/util/delay.h **** 
  35:/usr/lib/gcc/avr/4.7.0/../../../avr/include/util/delay.h **** #ifndef _UTIL_DELAY_H_
  36:/usr/lib/gcc/avr/4.7.0/../../../avr/include/util/delay.h **** #define _UTIL_DELAY_H_ 1
  37:/usr/lib/gcc/avr/4.7.0/../../../avr/include/util/delay.h **** 
  38:/usr/lib/gcc/avr/4.7.0/../../../avr/include/util/delay.h **** #ifndef __HAS_DELAY_CYCLES
  39:/usr/lib/gcc/avr/4.7.0/../../../avr/include/util/delay.h **** #define __HAS_DELAY_CYCLES 1
  40:/usr/lib/gcc/avr/4.7.0/../../../avr/include/util/delay.h **** #endif
  41:/usr/lib/gcc/avr/4.7.0/../../../avr/include/util/delay.h **** 
  42:/usr/lib/gcc/avr/4.7.0/../../../avr/include/util/delay.h **** #include <inttypes.h>
  43:/usr/lib/gcc/avr/4.7.0/../../../avr/include/util/delay.h **** #include <util/delay_basic.h>
  44:/usr/lib/gcc/avr/4.7.0/../../../avr/include/util/delay.h **** #include <math.h>
  45:/usr/lib/gcc/avr/4.7.0/../../../avr/include/util/delay.h **** 
  46:/usr/lib/gcc/avr/4.7.0/../../../avr/include/util/delay.h **** /** \file */
  47:/usr/lib/gcc/avr/4.7.0/../../../avr/include/util/delay.h **** /** \defgroup util_delay <util/delay.h>: Convenience functions for busy-wait delay loops
  48:/usr/lib/gcc/avr/4.7.0/../../../avr/include/util/delay.h ****     \code
  49:/usr/lib/gcc/avr/4.7.0/../../../avr/include/util/delay.h ****     #define F_CPU 1000000UL  // 1 MHz
  50:/usr/lib/gcc/avr/4.7.0/../../../avr/include/util/delay.h ****     //#define F_CPU 14.7456E6
  51:/usr/lib/gcc/avr/4.7.0/../../../avr/include/util/delay.h ****     #include <util/delay.h>
  52:/usr/lib/gcc/avr/4.7.0/../../../avr/include/util/delay.h ****     \endcode
  53:/usr/lib/gcc/avr/4.7.0/../../../avr/include/util/delay.h **** 
  54:/usr/lib/gcc/avr/4.7.0/../../../avr/include/util/delay.h ****     \note As an alternative method, it is possible to pass the
  55:/usr/lib/gcc/avr/4.7.0/../../../avr/include/util/delay.h ****     F_CPU macro down to the compiler from the Makefile.
  56:/usr/lib/gcc/avr/4.7.0/../../../avr/include/util/delay.h ****     Obviously, in that case, no \c \#define statement should be
  57:/usr/lib/gcc/avr/4.7.0/../../../avr/include/util/delay.h ****     used.
  58:/usr/lib/gcc/avr/4.7.0/../../../avr/include/util/delay.h **** 
  59:/usr/lib/gcc/avr/4.7.0/../../../avr/include/util/delay.h ****     The functions in this header file are wrappers around the basic
  60:/usr/lib/gcc/avr/4.7.0/../../../avr/include/util/delay.h ****     busy-wait functions from <util/delay_basic.h>.  They are meant as
  61:/usr/lib/gcc/avr/4.7.0/../../../avr/include/util/delay.h ****     convenience functions where actual time values can be specified
  62:/usr/lib/gcc/avr/4.7.0/../../../avr/include/util/delay.h ****     rather than a number of cycles to wait for.  The idea behind is
  63:/usr/lib/gcc/avr/4.7.0/../../../avr/include/util/delay.h ****     that compile-time constant expressions will be eliminated by
  64:/usr/lib/gcc/avr/4.7.0/../../../avr/include/util/delay.h ****     compiler optimization so floating-point expressions can be used
  65:/usr/lib/gcc/avr/4.7.0/../../../avr/include/util/delay.h ****     to calculate the number of delay cycles needed based on the CPU
  66:/usr/lib/gcc/avr/4.7.0/../../../avr/include/util/delay.h ****     frequency passed by the macro F_CPU.
  67:/usr/lib/gcc/avr/4.7.0/../../../avr/include/util/delay.h **** 
GAS LISTING /tmp/ccPqDIXf.s 			page 15


  68:/usr/lib/gcc/avr/4.7.0/../../../avr/include/util/delay.h ****     \note In order for these functions to work as intended, compiler
  69:/usr/lib/gcc/avr/4.7.0/../../../avr/include/util/delay.h ****     optimizations <em>must</em> be enabled, and the delay time
  70:/usr/lib/gcc/avr/4.7.0/../../../avr/include/util/delay.h ****     <em>must</em> be an expression that is a known constant at
  71:/usr/lib/gcc/avr/4.7.0/../../../avr/include/util/delay.h ****     compile-time.  If these requirements are not met, the resulting
  72:/usr/lib/gcc/avr/4.7.0/../../../avr/include/util/delay.h ****     delay will be much longer (and basically unpredictable), and
  73:/usr/lib/gcc/avr/4.7.0/../../../avr/include/util/delay.h ****     applications that otherwise do not use floating-point calculations
  74:/usr/lib/gcc/avr/4.7.0/../../../avr/include/util/delay.h ****     will experience severe code bloat by the floating-point library
  75:/usr/lib/gcc/avr/4.7.0/../../../avr/include/util/delay.h ****     routines linked into the application.
  76:/usr/lib/gcc/avr/4.7.0/../../../avr/include/util/delay.h **** 
  77:/usr/lib/gcc/avr/4.7.0/../../../avr/include/util/delay.h ****     The functions available allow the specification of microsecond, and
  78:/usr/lib/gcc/avr/4.7.0/../../../avr/include/util/delay.h ****     millisecond delays directly, using the application-supplied macro
  79:/usr/lib/gcc/avr/4.7.0/../../../avr/include/util/delay.h ****     F_CPU as the CPU clock frequency (in Hertz).
  80:/usr/lib/gcc/avr/4.7.0/../../../avr/include/util/delay.h **** 
  81:/usr/lib/gcc/avr/4.7.0/../../../avr/include/util/delay.h **** */
  82:/usr/lib/gcc/avr/4.7.0/../../../avr/include/util/delay.h **** 
  83:/usr/lib/gcc/avr/4.7.0/../../../avr/include/util/delay.h **** #if !defined(__DOXYGEN__)
  84:/usr/lib/gcc/avr/4.7.0/../../../avr/include/util/delay.h **** static inline void _delay_us(double __us) __attribute__((always_inline));
  85:/usr/lib/gcc/avr/4.7.0/../../../avr/include/util/delay.h **** static inline void _delay_ms(double __ms) __attribute__((always_inline));
  86:/usr/lib/gcc/avr/4.7.0/../../../avr/include/util/delay.h **** #endif
  87:/usr/lib/gcc/avr/4.7.0/../../../avr/include/util/delay.h **** 
  88:/usr/lib/gcc/avr/4.7.0/../../../avr/include/util/delay.h **** #ifndef F_CPU
  89:/usr/lib/gcc/avr/4.7.0/../../../avr/include/util/delay.h **** /* prevent compiler error by supplying a default */
  90:/usr/lib/gcc/avr/4.7.0/../../../avr/include/util/delay.h **** # warning "F_CPU not defined for <util/delay.h>"
  91:/usr/lib/gcc/avr/4.7.0/../../../avr/include/util/delay.h **** # define F_CPU 1000000UL
  92:/usr/lib/gcc/avr/4.7.0/../../../avr/include/util/delay.h **** #endif
  93:/usr/lib/gcc/avr/4.7.0/../../../avr/include/util/delay.h **** 
  94:/usr/lib/gcc/avr/4.7.0/../../../avr/include/util/delay.h **** #ifndef __OPTIMIZE__
  95:/usr/lib/gcc/avr/4.7.0/../../../avr/include/util/delay.h **** # warning "Compiler optimizations disabled; functions from <util/delay.h> won't work as designed"
  96:/usr/lib/gcc/avr/4.7.0/../../../avr/include/util/delay.h **** #endif
  97:/usr/lib/gcc/avr/4.7.0/../../../avr/include/util/delay.h **** 
  98:/usr/lib/gcc/avr/4.7.0/../../../avr/include/util/delay.h **** #if __HAS_DELAY_CYCLES && defined(__OPTIMIZE__) && \
  99:/usr/lib/gcc/avr/4.7.0/../../../avr/include/util/delay.h ****   !defined(__DELAY_BACKWARD_COMPATIBLE__) &&	   \
 100:/usr/lib/gcc/avr/4.7.0/../../../avr/include/util/delay.h ****   __STDC_HOSTED__
 101:/usr/lib/gcc/avr/4.7.0/../../../avr/include/util/delay.h **** #  include <math.h>
 102:/usr/lib/gcc/avr/4.7.0/../../../avr/include/util/delay.h **** #endif
 103:/usr/lib/gcc/avr/4.7.0/../../../avr/include/util/delay.h **** 
 104:/usr/lib/gcc/avr/4.7.0/../../../avr/include/util/delay.h **** /**
 105:/usr/lib/gcc/avr/4.7.0/../../../avr/include/util/delay.h ****    \ingroup util_delay
 106:/usr/lib/gcc/avr/4.7.0/../../../avr/include/util/delay.h **** 
 107:/usr/lib/gcc/avr/4.7.0/../../../avr/include/util/delay.h ****    Perform a delay of \c __ms milliseconds, using _delay_loop_2().
 108:/usr/lib/gcc/avr/4.7.0/../../../avr/include/util/delay.h **** 
 109:/usr/lib/gcc/avr/4.7.0/../../../avr/include/util/delay.h ****    The macro F_CPU is supposed to be defined to a
 110:/usr/lib/gcc/avr/4.7.0/../../../avr/include/util/delay.h ****    constant defining the CPU clock frequency (in Hertz).
 111:/usr/lib/gcc/avr/4.7.0/../../../avr/include/util/delay.h **** 
 112:/usr/lib/gcc/avr/4.7.0/../../../avr/include/util/delay.h ****    The maximal possible delay is 262.14 ms / F_CPU in MHz.
 113:/usr/lib/gcc/avr/4.7.0/../../../avr/include/util/delay.h **** 
 114:/usr/lib/gcc/avr/4.7.0/../../../avr/include/util/delay.h ****    When the user request delay which exceed the maximum possible one,
 115:/usr/lib/gcc/avr/4.7.0/../../../avr/include/util/delay.h ****    _delay_ms() provides a decreased resolution functionality. In this
 116:/usr/lib/gcc/avr/4.7.0/../../../avr/include/util/delay.h ****    mode _delay_ms() will work with a resolution of 1/10 ms, providing
 117:/usr/lib/gcc/avr/4.7.0/../../../avr/include/util/delay.h ****    delays up to 6.5535 seconds (independent from CPU frequency).  The
 118:/usr/lib/gcc/avr/4.7.0/../../../avr/include/util/delay.h ****    user will not be informed about decreased resolution.
 119:/usr/lib/gcc/avr/4.7.0/../../../avr/include/util/delay.h **** 
 120:/usr/lib/gcc/avr/4.7.0/../../../avr/include/util/delay.h ****    If the avr-gcc toolchain has __builtin_avr_delay_cycles(unsigned long)
 121:/usr/lib/gcc/avr/4.7.0/../../../avr/include/util/delay.h ****    support, maximal possible delay is 4294967.295 ms/ F_CPU in MHz. For
 122:/usr/lib/gcc/avr/4.7.0/../../../avr/include/util/delay.h ****    values greater than the maximal possible delay, overflows results in
 123:/usr/lib/gcc/avr/4.7.0/../../../avr/include/util/delay.h ****    no delay i.e., 0ms.
 124:/usr/lib/gcc/avr/4.7.0/../../../avr/include/util/delay.h **** 
GAS LISTING /tmp/ccPqDIXf.s 			page 16


 125:/usr/lib/gcc/avr/4.7.0/../../../avr/include/util/delay.h ****    Conversion of __us into clock cycles may not always result in integer.
 126:/usr/lib/gcc/avr/4.7.0/../../../avr/include/util/delay.h ****    By default, the clock cycles rounded up to next integer. This ensures that
 127:/usr/lib/gcc/avr/4.7.0/../../../avr/include/util/delay.h ****    the user gets atleast __us microseconds of delay.
 128:/usr/lib/gcc/avr/4.7.0/../../../avr/include/util/delay.h **** 
 129:/usr/lib/gcc/avr/4.7.0/../../../avr/include/util/delay.h ****    Alternatively, user can define __DELAY_ROUND_DOWN__ and __DELAY_ROUND_CLOSEST__
 130:/usr/lib/gcc/avr/4.7.0/../../../avr/include/util/delay.h ****    to round down and round to closest integer.
 131:/usr/lib/gcc/avr/4.7.0/../../../avr/include/util/delay.h **** 
 132:/usr/lib/gcc/avr/4.7.0/../../../avr/include/util/delay.h ****    Note: The new implementation of _delay_ms(double __ms) with 
 133:/usr/lib/gcc/avr/4.7.0/../../../avr/include/util/delay.h ****     __builtin_avr_delay_cycles(unsigned long) support is not backward compatible. 
 134:/usr/lib/gcc/avr/4.7.0/../../../avr/include/util/delay.h ****    User can define __DELAY_BACKWARD_COMPATIBLE__ to get a backward compatible delay.
 135:/usr/lib/gcc/avr/4.7.0/../../../avr/include/util/delay.h ****    Also, the backward compatible
 136:/usr/lib/gcc/avr/4.7.0/../../../avr/include/util/delay.h ****    algorithm will be chosen if the code is compiled in a <em>freestanding
 137:/usr/lib/gcc/avr/4.7.0/../../../avr/include/util/delay.h ****    environment</em> (GCC option \c -ffreestanding), as the math functions
 138:/usr/lib/gcc/avr/4.7.0/../../../avr/include/util/delay.h ****    required for rounding are not available to the compiler then.
 139:/usr/lib/gcc/avr/4.7.0/../../../avr/include/util/delay.h **** 
 140:/usr/lib/gcc/avr/4.7.0/../../../avr/include/util/delay.h ****  */
 141:/usr/lib/gcc/avr/4.7.0/../../../avr/include/util/delay.h **** void
 142:/usr/lib/gcc/avr/4.7.0/../../../avr/include/util/delay.h **** _delay_ms(double __ms)
 143:/usr/lib/gcc/avr/4.7.0/../../../avr/include/util/delay.h **** {
 144:/usr/lib/gcc/avr/4.7.0/../../../avr/include/util/delay.h **** 	uint16_t __ticks;
 145:/usr/lib/gcc/avr/4.7.0/../../../avr/include/util/delay.h **** 	double __tmp ; 
 146:/usr/lib/gcc/avr/4.7.0/../../../avr/include/util/delay.h **** #if __HAS_DELAY_CYCLES && defined(__OPTIMIZE__) && \
 147:/usr/lib/gcc/avr/4.7.0/../../../avr/include/util/delay.h ****   !defined(__DELAY_BACKWARD_COMPATIBLE__) &&	   \
 148:/usr/lib/gcc/avr/4.7.0/../../../avr/include/util/delay.h ****   __STDC_HOSTED__
 149:/usr/lib/gcc/avr/4.7.0/../../../avr/include/util/delay.h **** 	uint32_t __ticks_dc;
 150:/usr/lib/gcc/avr/4.7.0/../../../avr/include/util/delay.h **** 	extern void __builtin_avr_delay_cycles(unsigned long);
 151:/usr/lib/gcc/avr/4.7.0/../../../avr/include/util/delay.h **** 	__tmp = ((F_CPU) / 1e3) * __ms;
 152:/usr/lib/gcc/avr/4.7.0/../../../avr/include/util/delay.h **** 
 153:/usr/lib/gcc/avr/4.7.0/../../../avr/include/util/delay.h **** 	#if defined(__DELAY_ROUND_DOWN__)
 154:/usr/lib/gcc/avr/4.7.0/../../../avr/include/util/delay.h **** 		__ticks_dc = (uint32_t)fabs(__tmp);
 155:/usr/lib/gcc/avr/4.7.0/../../../avr/include/util/delay.h **** 
 156:/usr/lib/gcc/avr/4.7.0/../../../avr/include/util/delay.h **** 	#elif defined(__DELAY_ROUND_CLOSEST__)
 157:/usr/lib/gcc/avr/4.7.0/../../../avr/include/util/delay.h **** 		__ticks_dc = (uint32_t)(fabs(__tmp)+0.5);
 158:/usr/lib/gcc/avr/4.7.0/../../../avr/include/util/delay.h **** 
 159:/usr/lib/gcc/avr/4.7.0/../../../avr/include/util/delay.h **** 	#else
 160:/usr/lib/gcc/avr/4.7.0/../../../avr/include/util/delay.h **** 		//round up by default
 161:/usr/lib/gcc/avr/4.7.0/../../../avr/include/util/delay.h **** 		__ticks_dc = (uint32_t)(ceil(fabs(__tmp)));
 162:/usr/lib/gcc/avr/4.7.0/../../../avr/include/util/delay.h **** 	#endif
 163:/usr/lib/gcc/avr/4.7.0/../../../avr/include/util/delay.h **** 
 164:/usr/lib/gcc/avr/4.7.0/../../../avr/include/util/delay.h **** 	__builtin_avr_delay_cycles(__ticks_dc);
 165:/usr/lib/gcc/avr/4.7.0/../../../avr/include/util/delay.h **** 
 166:/usr/lib/gcc/avr/4.7.0/../../../avr/include/util/delay.h **** #else
 167:/usr/lib/gcc/avr/4.7.0/../../../avr/include/util/delay.h **** 	__tmp = ((F_CPU) / 4e3) * __ms;
 168:/usr/lib/gcc/avr/4.7.0/../../../avr/include/util/delay.h **** 	if (__tmp < 1.0)
 169:/usr/lib/gcc/avr/4.7.0/../../../avr/include/util/delay.h **** 		__ticks = 1;
 170:/usr/lib/gcc/avr/4.7.0/../../../avr/include/util/delay.h **** 	else if (__tmp > 65535)
 171:/usr/lib/gcc/avr/4.7.0/../../../avr/include/util/delay.h **** 	{
 172:/usr/lib/gcc/avr/4.7.0/../../../avr/include/util/delay.h **** 		//	__ticks = requested delay in 1/10 ms
 173:/usr/lib/gcc/avr/4.7.0/../../../avr/include/util/delay.h **** 		__ticks = (uint16_t) (__ms * 10.0);
 174:/usr/lib/gcc/avr/4.7.0/../../../avr/include/util/delay.h **** 		while(__ticks)
 175:/usr/lib/gcc/avr/4.7.0/../../../avr/include/util/delay.h **** 		{
 176:/usr/lib/gcc/avr/4.7.0/../../../avr/include/util/delay.h **** 			// wait 1/10 ms
 177:/usr/lib/gcc/avr/4.7.0/../../../avr/include/util/delay.h **** 			_delay_loop_2(((F_CPU) / 4e3) / 10);
 178:/usr/lib/gcc/avr/4.7.0/../../../avr/include/util/delay.h **** 			__ticks --;
 179:/usr/lib/gcc/avr/4.7.0/../../../avr/include/util/delay.h **** 		}
 180:/usr/lib/gcc/avr/4.7.0/../../../avr/include/util/delay.h **** 		return;
 181:/usr/lib/gcc/avr/4.7.0/../../../avr/include/util/delay.h **** 	}
GAS LISTING /tmp/ccPqDIXf.s 			page 17


 182:/usr/lib/gcc/avr/4.7.0/../../../avr/include/util/delay.h **** 	else
 183:/usr/lib/gcc/avr/4.7.0/../../../avr/include/util/delay.h **** 		__ticks = (uint16_t)__tmp;
 184:/usr/lib/gcc/avr/4.7.0/../../../avr/include/util/delay.h **** 	_delay_loop_2(__ticks);
 185:/usr/lib/gcc/avr/4.7.0/../../../avr/include/util/delay.h **** #endif
 186:/usr/lib/gcc/avr/4.7.0/../../../avr/include/util/delay.h **** }
 187:/usr/lib/gcc/avr/4.7.0/../../../avr/include/util/delay.h **** 
 188:/usr/lib/gcc/avr/4.7.0/../../../avr/include/util/delay.h **** /**
 189:/usr/lib/gcc/avr/4.7.0/../../../avr/include/util/delay.h ****    \ingroup util_delay
 190:/usr/lib/gcc/avr/4.7.0/../../../avr/include/util/delay.h **** 
 191:/usr/lib/gcc/avr/4.7.0/../../../avr/include/util/delay.h ****    Perform a delay of \c __us microseconds, using _delay_loop_1().
 192:/usr/lib/gcc/avr/4.7.0/../../../avr/include/util/delay.h **** 
 193:/usr/lib/gcc/avr/4.7.0/../../../avr/include/util/delay.h ****    The macro F_CPU is supposed to be defined to a
 194:/usr/lib/gcc/avr/4.7.0/../../../avr/include/util/delay.h ****    constant defining the CPU clock frequency (in Hertz).
 195:/usr/lib/gcc/avr/4.7.0/../../../avr/include/util/delay.h **** 
 196:/usr/lib/gcc/avr/4.7.0/../../../avr/include/util/delay.h ****    The maximal possible delay is 768 us / F_CPU in MHz.
 197:/usr/lib/gcc/avr/4.7.0/../../../avr/include/util/delay.h **** 
 198:/usr/lib/gcc/avr/4.7.0/../../../avr/include/util/delay.h ****    If the user requests a delay greater than the maximal possible one,
 199:/usr/lib/gcc/avr/4.7.0/../../../avr/include/util/delay.h ****    _delay_us() will automatically call _delay_ms() instead.  The user
 200:/usr/lib/gcc/avr/4.7.0/../../../avr/include/util/delay.h ****    will not be informed about this case.
 201:/usr/lib/gcc/avr/4.7.0/../../../avr/include/util/delay.h **** 
 202:/usr/lib/gcc/avr/4.7.0/../../../avr/include/util/delay.h ****    If the avr-gcc toolchain has __builtin_avr_delay_cycles(unsigned long)
 203:/usr/lib/gcc/avr/4.7.0/../../../avr/include/util/delay.h ****    support, maximal possible delay is 4294967.295 us/ F_CPU in MHz. For
 204:/usr/lib/gcc/avr/4.7.0/../../../avr/include/util/delay.h ****    values greater than the maximal possible delay, overflow results in
 205:/usr/lib/gcc/avr/4.7.0/../../../avr/include/util/delay.h ****    no delay i.e., 0us.
 206:/usr/lib/gcc/avr/4.7.0/../../../avr/include/util/delay.h ****   
 207:/usr/lib/gcc/avr/4.7.0/../../../avr/include/util/delay.h ****    Conversion of __us into clock cycles may not always result in integer.
 208:/usr/lib/gcc/avr/4.7.0/../../../avr/include/util/delay.h ****    By default, the clock cycles rounded up to next integer. This ensures that
 209:/usr/lib/gcc/avr/4.7.0/../../../avr/include/util/delay.h ****    the user gets atleast __us microseconds of delay.
 210:/usr/lib/gcc/avr/4.7.0/../../../avr/include/util/delay.h **** 
 211:/usr/lib/gcc/avr/4.7.0/../../../avr/include/util/delay.h ****    Alternatively, user can define __DELAY_ROUND_DOWN__ and __DELAY_ROUND_CLOSEST__
 212:/usr/lib/gcc/avr/4.7.0/../../../avr/include/util/delay.h ****    to round down and round to closest integer.
 213:/usr/lib/gcc/avr/4.7.0/../../../avr/include/util/delay.h ****  
 214:/usr/lib/gcc/avr/4.7.0/../../../avr/include/util/delay.h ****    Note: The new implementation of _delay_us(double __us) with 
 215:/usr/lib/gcc/avr/4.7.0/../../../avr/include/util/delay.h ****     __builtin_avr_delay_cycles(unsigned long) support is not backward compatible.
 216:/usr/lib/gcc/avr/4.7.0/../../../avr/include/util/delay.h ****    User can define __DELAY_BACKWARD_COMPATIBLE__ to get a backward compatible delay.
 217:/usr/lib/gcc/avr/4.7.0/../../../avr/include/util/delay.h ****    Also, the backward compatible
 218:/usr/lib/gcc/avr/4.7.0/../../../avr/include/util/delay.h ****    algorithm will be chosen if the code is compiled in a <em>freestanding
 219:/usr/lib/gcc/avr/4.7.0/../../../avr/include/util/delay.h ****    environment</em> (GCC option \c -ffreestanding), as the math functions
 220:/usr/lib/gcc/avr/4.7.0/../../../avr/include/util/delay.h ****    required for rounding are not available to the compiler then.
 221:/usr/lib/gcc/avr/4.7.0/../../../avr/include/util/delay.h **** 
 222:/usr/lib/gcc/avr/4.7.0/../../../avr/include/util/delay.h ****  */
 223:/usr/lib/gcc/avr/4.7.0/../../../avr/include/util/delay.h **** void
 224:/usr/lib/gcc/avr/4.7.0/../../../avr/include/util/delay.h **** _delay_us(double __us)
 225:/usr/lib/gcc/avr/4.7.0/../../../avr/include/util/delay.h **** {
 226:/usr/lib/gcc/avr/4.7.0/../../../avr/include/util/delay.h **** 	uint8_t __ticks;
 227:/usr/lib/gcc/avr/4.7.0/../../../avr/include/util/delay.h **** 	double __tmp ; 
 228:/usr/lib/gcc/avr/4.7.0/../../../avr/include/util/delay.h **** #if __HAS_DELAY_CYCLES && defined(__OPTIMIZE__) && \
 229:/usr/lib/gcc/avr/4.7.0/../../../avr/include/util/delay.h ****   !defined(__DELAY_BACKWARD_COMPATIBLE__) &&	   \
 230:/usr/lib/gcc/avr/4.7.0/../../../avr/include/util/delay.h ****   __STDC_HOSTED__
 231:/usr/lib/gcc/avr/4.7.0/../../../avr/include/util/delay.h **** 	uint32_t __ticks_dc;
 232:/usr/lib/gcc/avr/4.7.0/../../../avr/include/util/delay.h **** 	extern void __builtin_avr_delay_cycles(unsigned long);
 233:/usr/lib/gcc/avr/4.7.0/../../../avr/include/util/delay.h **** 	__tmp = ((F_CPU) / 1e6) * __us;
 234:/usr/lib/gcc/avr/4.7.0/../../../avr/include/util/delay.h **** 
 235:/usr/lib/gcc/avr/4.7.0/../../../avr/include/util/delay.h **** 	#if defined(__DELAY_ROUND_DOWN__)
 236:/usr/lib/gcc/avr/4.7.0/../../../avr/include/util/delay.h **** 		__ticks_dc = (uint32_t)fabs(__tmp);
 237:/usr/lib/gcc/avr/4.7.0/../../../avr/include/util/delay.h **** 
 238:/usr/lib/gcc/avr/4.7.0/../../../avr/include/util/delay.h **** 	#elif defined(__DELAY_ROUND_CLOSEST__)
GAS LISTING /tmp/ccPqDIXf.s 			page 18


 239:/usr/lib/gcc/avr/4.7.0/../../../avr/include/util/delay.h **** 		__ticks_dc = (uint32_t)(fabs(__tmp)+0.5);
 240:/usr/lib/gcc/avr/4.7.0/../../../avr/include/util/delay.h **** 
 241:/usr/lib/gcc/avr/4.7.0/../../../avr/include/util/delay.h **** 	#else
 242:/usr/lib/gcc/avr/4.7.0/../../../avr/include/util/delay.h **** 		//round up by default
 243:/usr/lib/gcc/avr/4.7.0/../../../avr/include/util/delay.h **** 		__ticks_dc = (uint32_t)(ceil(fabs(__tmp)));
 244:/usr/lib/gcc/avr/4.7.0/../../../avr/include/util/delay.h **** 	#endif
 245:/usr/lib/gcc/avr/4.7.0/../../../avr/include/util/delay.h **** 
 246:/usr/lib/gcc/avr/4.7.0/../../../avr/include/util/delay.h **** 	__builtin_avr_delay_cycles(__ticks_dc);
 378               		.loc 3 246 0
 379 0138 8FE3      		ldi r24,lo8(7999)
 380 013a 9FE1      		ldi r25,hi8(7999)
 381 013c 0197      		1: sbiw r24,1
 382 013e 01F4      		brne 1b
 383 0140 00C0      		rjmp .
 384 0142 0000      		nop
 385 0144 2150      		subi r18,1
 386 0146 3109      		sbc r19,__zero_reg__
 387               	.LVL34:
 388               	.L18:
 389               	.LBE65:
 390               	.LBE64:
 391               		.loc 2 60 0 discriminator 1
 392 0148 2115      		cp r18,__zero_reg__
 393 014a 3105      		cpc r19,__zero_reg__
 394 014c 01F4      		brne .L19
 395               	/* epilogue start */
  61:AdDemo.c      ****         _delay_us(1000);  
  62:AdDemo.c      **** } 
 396               		.loc 2 62 0
 397 014e 0895      		ret
 398               	.LFE18:
 399               		.size	delay_ms, .-delay_ms
 400               	.global	compareArray
 401               		.type	compareArray, @function
 402               	compareArray:
 403               	.LFB19:
  63:AdDemo.c      **** 
  64:AdDemo.c      **** // Compare two arrays
  65:AdDemo.c      **** int compareArray(int a[6], int b[6]){
 404               		.loc 2 65 0
 405               	.LVL35:
 406               	/* prologue: function */
 407               	/* frame size = 0 */
 408               	/* stack size = 0 */
 409               	.L__stack_usage = 0
 410 0150 FC01      		movw r30,r24
 411 0152 DB01      		movw r26,r22
  66:AdDemo.c      **** 	return ((a[0]==b[0])&&
  67:AdDemo.c      **** 			(a[1]==b[1])&&
  68:AdDemo.c      **** 			(a[2]==b[2])&&
  69:AdDemo.c      **** 			(a[3]==b[3])&&
  70:AdDemo.c      **** 			(a[4]==b[4])&&
 412               		.loc 2 70 0
 413 0154 2081      		ld r18,Z
 414 0156 3181      		ldd r19,Z+1
 415 0158 8D91      		ld r24,X+
 416 015a 9C91      		ld r25,X
GAS LISTING /tmp/ccPqDIXf.s 			page 19


 417 015c 1197      		sbiw r26,1
 418               	.LVL36:
 419 015e 2817      		cp r18,r24
 420 0160 3907      		cpc r19,r25
 421 0162 01F4      		brne .L27
  66:AdDemo.c      **** 	return ((a[0]==b[0])&&
 422               		.loc 2 66 0
 423 0164 2281      		ldd r18,Z+2
 424 0166 3381      		ldd r19,Z+3
 425 0168 1296      		adiw r26,2
 426 016a 8D91      		ld r24,X+
 427 016c 9C91      		ld r25,X
 428 016e 1397      		sbiw r26,2+1
 429 0170 2817      		cp r18,r24
 430 0172 3907      		cpc r19,r25
 431 0174 01F4      		brne .L27
  67:AdDemo.c      **** 			(a[1]==b[1])&&
 432               		.loc 2 67 0
 433 0176 2481      		ldd r18,Z+4
 434 0178 3581      		ldd r19,Z+5
 435 017a 1496      		adiw r26,4
 436 017c 8D91      		ld r24,X+
 437 017e 9C91      		ld r25,X
 438 0180 1597      		sbiw r26,4+1
 439 0182 2817      		cp r18,r24
 440 0184 3907      		cpc r19,r25
 441 0186 01F4      		brne .L27
  68:AdDemo.c      **** 			(a[2]==b[2])&&
 442               		.loc 2 68 0
 443 0188 2681      		ldd r18,Z+6
 444 018a 3781      		ldd r19,Z+7
 445 018c 1696      		adiw r26,6
 446 018e 8D91      		ld r24,X+
 447 0190 9C91      		ld r25,X
 448 0192 1797      		sbiw r26,6+1
 449 0194 2817      		cp r18,r24
 450 0196 3907      		cpc r19,r25
 451 0198 01F4      		brne .L27
  69:AdDemo.c      **** 			(a[3]==b[3])&&
 452               		.loc 2 69 0
 453 019a 2085      		ldd r18,Z+8
 454 019c 3185      		ldd r19,Z+9
 455 019e 1896      		adiw r26,8
 456 01a0 8D91      		ld r24,X+
 457 01a2 9C91      		ld r25,X
 458 01a4 1997      		sbiw r26,8+1
 459 01a6 2817      		cp r18,r24
 460 01a8 3907      		cpc r19,r25
 461 01aa 01F4      		brne .L27
 462               		.loc 2 70 0
 463 01ac 21E0      		ldi r18,lo8(1)
 464 01ae 30E0      		ldi r19,0
 465 01b0 4285      		ldd r20,Z+10
 466 01b2 5385      		ldd r21,Z+11
 467 01b4 1A96      		adiw r26,10
 468 01b6 8D91      		ld r24,X+
 469 01b8 9C91      		ld r25,X
GAS LISTING /tmp/ccPqDIXf.s 			page 20


 470 01ba 1B97      		sbiw r26,10+1
 471 01bc 4817      		cp r20,r24
 472 01be 5907      		cpc r21,r25
 473 01c0 01F0      		breq .L21
 474               	.L27:
 475 01c2 20E0      		ldi r18,0
 476 01c4 30E0      		ldi r19,0
 477               	.L21:
  71:AdDemo.c      **** 			(a[5]==b[5]));
  72:AdDemo.c      **** }
 478               		.loc 2 72 0
 479 01c6 C901      		movw r24,r18
 480 01c8 0895      		ret
 481               	.LFE19:
 482               		.size	compareArray, .-compareArray
 483               	.global	signum
 484               		.type	signum, @function
 485               	signum:
 486               	.LFB20:
  73:AdDemo.c      **** 
  74:AdDemo.c      **** //Return only the sign of number n: 1, -1, or 0. 
  75:AdDemo.c      **** int signum(int n) { 
 487               		.loc 2 75 0
 488               	.LVL37:
 489               	/* prologue: function */
 490               	/* frame size = 0 */
 491               	/* stack size = 0 */
 492               	.L__stack_usage = 0
  76:AdDemo.c      **** 	return (n < 0) ? -1 : (n > 0) ? +1 : 0; 
 493               		.loc 2 76 0
 494 01ca 97FD      		sbrc r25,7
 495 01cc 00C0      		rjmp .L31
 496               		.loc 2 76 0 is_stmt 0 discriminator 1
 497 01ce 21E0      		ldi r18,lo8(1)
 498 01d0 30E0      		ldi r19,0
 499 01d2 1816      		cp __zero_reg__,r24
 500 01d4 1906      		cpc __zero_reg__,r25
 501 01d6 04F0      		brlt .L29
 502 01d8 20E0      		ldi r18,0
 503 01da 30E0      		ldi r19,0
 504 01dc 00C0      		rjmp .L29
 505               	.L31:
 506               		.loc 2 76 0
 507 01de 2FEF      		ldi r18,lo8(-1)
 508 01e0 3FEF      		ldi r19,lo8(-1)
 509               	.L29:
  77:AdDemo.c      **** }
 510               		.loc 2 77 0 is_stmt 1 discriminator 3
 511 01e2 C901      		movw r24,r18
 512               	.LVL38:
 513 01e4 0895      		ret
 514               	.LFE20:
 515               		.size	signum, .-signum
 516               	.global	Config32MHzClock
 517               		.type	Config32MHzClock, @function
 518               	Config32MHzClock:
 519               	.LFB21:
GAS LISTING /tmp/ccPqDIXf.s 			page 21


  78:AdDemo.c      **** 
  79:AdDemo.c      **** // Set Clock Speed to 32MHz (XMega)
  80:AdDemo.c      **** void Config32MHzClock(void)
  81:AdDemo.c      **** { 
 520               		.loc 2 81 0
 521               	/* prologue: function */
 522               	/* frame size = 0 */
 523               	/* stack size = 0 */
 524               	.L__stack_usage = 0
  82:AdDemo.c      **** 	CCP = CCP_IOREG_gc; //Security Signature to modify clock 
 525               		.loc 2 82 0
 526 01e6 88ED      		ldi r24,lo8(-40)
 527 01e8 84BF      		out __CCP__,r24
  83:AdDemo.c      **** 	// initialize clock source to be 32MHz internal oscillator (no PLL) 
  84:AdDemo.c      **** 	OSC.CTRL = OSC_RC32MEN_bm; // enable internal 32MHz oscillator 
 528               		.loc 2 84 0
 529 01ea 82E0      		ldi r24,lo8(2)
 530 01ec 8093 5000 		sts 80,r24
 531               	.L33:
  85:AdDemo.c      **** 	while(!(OSC.STATUS & OSC_RC32MRDY_bm)); // wait for oscillator ready 
 532               		.loc 2 85 0 discriminator 1
 533 01f0 8091 5100 		lds r24,81
 534 01f4 81FF      		sbrs r24,1
 535 01f6 00C0      		rjmp .L33
  86:AdDemo.c      **** 	CCP = CCP_IOREG_gc; //Security Signature to modify clock 
 536               		.loc 2 86 0
 537 01f8 88ED      		ldi r24,lo8(-40)
 538 01fa 84BF      		out __CCP__,r24
  87:AdDemo.c      **** 	CLK.CTRL = 0x01; //select sysclock 32MHz osc 
 539               		.loc 2 87 0
 540 01fc 81E0      		ldi r24,lo8(1)
 541 01fe 8093 4000 		sts 64,r24
 542 0202 0895      		ret
 543               	.LFE21:
 544               		.size	Config32MHzClock, .-Config32MHzClock
 545               	.global	millis
 546               		.type	millis, @function
 547               	millis:
 548               	.LFB22:
  88:AdDemo.c      **** }
  89:AdDemo.c      **** 
  90:AdDemo.c      **** //Get time elapsed in millis 
  91:AdDemo.c      **** long millis(void){
 549               		.loc 2 91 0
 550 0204 0F93      		push r16
 551               	.LCFI14:
 552 0206 1F93      		push r17
 553               	.LCFI15:
 554               	/* prologue: function */
 555               	/* frame size = 0 */
 556               	/* stack size = 2 */
 557               	.L__stack_usage = 2
  92:AdDemo.c      **** 	return elapsedMillis;
 558               		.loc 2 92 0
 559 0208 0091 0000 		lds r16,elapsedMillis
 560 020c 1091 0000 		lds r17,elapsedMillis+1
 561 0210 2091 0000 		lds r18,elapsedMillis+2
GAS LISTING /tmp/ccPqDIXf.s 			page 22


 562 0214 3091 0000 		lds r19,elapsedMillis+3
  93:AdDemo.c      **** }
 563               		.loc 2 93 0
 564 0218 B801      		movw r22,r16
 565 021a C901      		movw r24,r18
 566               	/* epilogue start */
 567 021c 1F91      		pop r17
 568 021e 0F91      		pop r16
 569 0220 0895      		ret
 570               	.LFE22:
 571               		.size	millis, .-millis
 572               	.global	blink
 573               		.type	blink, @function
 574               	blink:
 575               	.LFB23:
  94:AdDemo.c      **** 
  95:AdDemo.c      **** void blink(int myVal){
 576               		.loc 2 95 0
 577               	.LVL39:
 578 0222 FF92      		push r15
 579               	.LCFI16:
 580 0224 0F93      		push r16
 581               	.LCFI17:
 582 0226 1F93      		push r17
 583               	.LCFI18:
 584 0228 CF93      		push r28
 585               	.LCFI19:
 586 022a DF93      		push r29
 587               	.LCFI20:
 588               	/* prologue: function */
 589               	/* frame size = 0 */
 590               	/* stack size = 5 */
 591               	.L__stack_usage = 5
 592 022c 8C01      		movw r16,r24
  96:AdDemo.c      **** 		PORTE.OUTSET = _BV(0);
 593               		.loc 2 96 0
 594 022e C0E8      		ldi r28,lo8(-128)
 595 0230 D6E0      		ldi r29,lo8(6)
 596 0232 FF24      		clr r15
 597 0234 F394      		inc r15
 598 0236 FD82      		std Y+5,r15
  97:AdDemo.c      ****         delay_ms(myVal);
 599               		.loc 2 97 0
 600 0238 0E94 0000 		call delay_ms
 601               	.LVL40:
  98:AdDemo.c      ****         PORTE.OUTCLR = _BV(0);
 602               		.loc 2 98 0
 603 023c FE82      		std Y+6,r15
  99:AdDemo.c      ****         delay_ms(myVal);
 604               		.loc 2 99 0
 605 023e C801      		movw r24,r16
 606               	/* epilogue start */
 100:AdDemo.c      **** }
 607               		.loc 2 100 0
 608 0240 DF91      		pop r29
 609 0242 CF91      		pop r28
 610 0244 1F91      		pop r17
GAS LISTING /tmp/ccPqDIXf.s 			page 23


 611 0246 0F91      		pop r16
 612               	.LVL41:
 613 0248 FF90      		pop r15
  99:AdDemo.c      ****         delay_ms(myVal);
 614               		.loc 2 99 0
 615 024a 0C94 0000 		jmp delay_ms
 616               	.LVL42:
 617               	.LFE23:
 618               		.size	blink, .-blink
 619               	.global	setPin
 620               		.type	setPin, @function
 621               	setPin:
 622               	.LFB24:
 101:AdDemo.c      **** 
 102:AdDemo.c      **** // Set selected pin to 1/HIGH 
 103:AdDemo.c      **** // TODO: rest of ports
 104:AdDemo.c      **** void setPin(char portNum, int pinNum){
 623               		.loc 2 104 0
 624               	.LVL43:
 625               	/* prologue: function */
 626               	/* frame size = 0 */
 627               	/* stack size = 0 */
 628               	.L__stack_usage = 0
 105:AdDemo.c      **** 	switch (portNum){
 629               		.loc 2 105 0
 630 024e 8234      		cpi r24,lo8(66)
 631 0250 01F0      		breq .L43
 632 0252 00F4      		brsh .L46
 633 0254 8134      		cpi r24,lo8(65)
 634 0256 01F0      		breq .+2
 635 0258 00C0      		rjmp .L40
 636 025a 00C0      		rjmp .L42
 637               	.L46:
 638 025c 8334      		cpi r24,lo8(67)
 639 025e 01F4      		brne .+2
 640 0260 00C0      		rjmp .L44
 641 0262 8434      		cpi r24,lo8(68)
 642 0264 01F0      		breq .+2
 643 0266 00C0      		rjmp .L40
 644 0268 00C0      		rjmp .L45
 645               	.L42:
 106:AdDemo.c      **** 		//PORTA 
 107:AdDemo.c      **** 		case 'A':{
 108:AdDemo.c      **** 			switch (pinNum){
 646               		.loc 2 108 0
 647 026a 6330      		cpi r22,3
 648 026c 7105      		cpc r23,__zero_reg__
 649 026e 01F0      		breq .L50
 650 0270 04F4      		brge .L55
 651 0272 6130      		cpi r22,1
 652 0274 7105      		cpc r23,__zero_reg__
 653 0276 01F0      		breq .L48
 654 0278 04F4      		brge .L49
 655 027a 672B      		or r22,r23
 656 027c 01F0      		breq .L47
 657 027e 0895      		ret
 658               	.L55:
GAS LISTING /tmp/ccPqDIXf.s 			page 24


 659 0280 6530      		cpi r22,5
 660 0282 7105      		cpc r23,__zero_reg__
 661 0284 01F0      		breq .L52
 662 0286 04F0      		brlt .L51
 663 0288 6630      		cpi r22,6
 664 028a 7105      		cpc r23,__zero_reg__
 665 028c 01F0      		breq .L53
 666 028e 6730      		cpi r22,7
 667 0290 7105      		cpc r23,__zero_reg__
 668 0292 01F0      		breq .+2
 669 0294 00C0      		rjmp .L40
 670 0296 00C0      		rjmp .L54
 671               	.L47:
 109:AdDemo.c      **** 				case 0: set_it(PORTA_OUTSET,BIT(0)); break; 
 672               		.loc 2 109 0
 673 0298 81E0      		ldi r24,lo8(1)
 674               	.LVL44:
 675 029a 00C0      		rjmp .L76
 676               	.LVL45:
 677               	.L48:
 110:AdDemo.c      **** 				case 1: set_it(PORTA_OUTSET,BIT(1)); break;
 678               		.loc 2 110 0
 679 029c 82E0      		ldi r24,lo8(2)
 680               	.LVL46:
 681               	.L76:
 682 029e 8093 0506 		sts 1541,r24
 683 02a2 0895      		ret
 684               	.LVL47:
 685               	.L49:
 111:AdDemo.c      **** 				case 2: set_it(PORTA_OUTSET,BIT(2)); break;
 686               		.loc 2 111 0
 687 02a4 84E0      		ldi r24,lo8(4)
 688               	.LVL48:
 689 02a6 00C0      		rjmp .L76
 690               	.LVL49:
 691               	.L50:
 112:AdDemo.c      **** 				case 3: set_it(PORTA_OUTSET,BIT(3)); break;
 692               		.loc 2 112 0
 693 02a8 88E0      		ldi r24,lo8(8)
 694               	.LVL50:
 695 02aa 00C0      		rjmp .L76
 696               	.LVL51:
 697               	.L51:
 113:AdDemo.c      **** 				case 4: set_it(PORTA_OUTSET,BIT(4)); break;
 698               		.loc 2 113 0
 699 02ac 80E1      		ldi r24,lo8(16)
 700               	.LVL52:
 701 02ae 00C0      		rjmp .L76
 702               	.LVL53:
 703               	.L52:
 114:AdDemo.c      **** 				case 5: set_it(PORTA_OUTSET,BIT(5)); break;
 704               		.loc 2 114 0
 705 02b0 80E2      		ldi r24,lo8(32)
 706               	.LVL54:
 707 02b2 00C0      		rjmp .L76
 708               	.LVL55:
 709               	.L53:
GAS LISTING /tmp/ccPqDIXf.s 			page 25


 115:AdDemo.c      **** 				case 6: set_it(PORTA_OUTSET,BIT(6)); break;
 710               		.loc 2 115 0
 711 02b4 80E4      		ldi r24,lo8(64)
 712               	.LVL56:
 713 02b6 00C0      		rjmp .L76
 714               	.LVL57:
 715               	.L54:
 116:AdDemo.c      **** 				case 7: set_it(PORTA_OUTSET,BIT(7)); break;
 716               		.loc 2 116 0
 717 02b8 80E8      		ldi r24,lo8(-128)
 718               	.LVL58:
 719 02ba 00C0      		rjmp .L76
 720               	.LVL59:
 721               	.L43:
 117:AdDemo.c      **** 			}
 118:AdDemo.c      **** 		break;
 119:AdDemo.c      **** 		}
 120:AdDemo.c      **** 		//PORTB
 121:AdDemo.c      **** 		case 'B':{
 122:AdDemo.c      **** 			switch (pinNum){
 722               		.loc 2 122 0
 723 02bc 6130      		cpi r22,1
 724 02be 7105      		cpc r23,__zero_reg__
 725 02c0 01F0      		breq .L57
 726 02c2 04F4      		brge .L60
 727 02c4 672B      		or r22,r23
 728 02c6 01F0      		breq .L56
 729 02c8 0895      		ret
 730               	.L60:
 731 02ca 6230      		cpi r22,2
 732 02cc 7105      		cpc r23,__zero_reg__
 733 02ce 01F0      		breq .L58
 734 02d0 6330      		cpi r22,3
 735 02d2 7105      		cpc r23,__zero_reg__
 736 02d4 01F0      		breq .+2
 737 02d6 00C0      		rjmp .L40
 738 02d8 00C0      		rjmp .L59
 739               	.L56:
 123:AdDemo.c      **** 				case 0: set_it(PORTB_OUTSET,BIT(0)); break;
 740               		.loc 2 123 0
 741 02da 81E0      		ldi r24,lo8(1)
 742               	.LVL60:
 743 02dc 00C0      		rjmp .L78
 744               	.LVL61:
 745               	.L57:
 124:AdDemo.c      **** 				case 1: set_it(PORTB_OUTSET,BIT(1)); break;
 746               		.loc 2 124 0
 747 02de 82E0      		ldi r24,lo8(2)
 748               	.LVL62:
 749 02e0 00C0      		rjmp .L78
 750               	.LVL63:
 751               	.L58:
 125:AdDemo.c      **** 				case 2: set_it(PORTB_OUTSET,BIT(2)); break;
 752               		.loc 2 125 0
 753 02e2 84E0      		ldi r24,lo8(4)
 754               	.LVL64:
 755 02e4 00C0      		rjmp .L78
GAS LISTING /tmp/ccPqDIXf.s 			page 26


 756               	.LVL65:
 757               	.L59:
 126:AdDemo.c      **** 				case 3: set_it(PORTB_OUTSET,BIT(3)); break;
 758               		.loc 2 126 0
 759 02e6 88E0      		ldi r24,lo8(8)
 760               	.LVL66:
 761               	.L78:
 762 02e8 8093 2506 		sts 1573,r24
 763 02ec 0895      		ret
 764               	.LVL67:
 765               	.L44:
 127:AdDemo.c      **** 			}
 128:AdDemo.c      **** 		break;
 129:AdDemo.c      **** 		}
 130:AdDemo.c      **** 		//PORTC
 131:AdDemo.c      **** 		case 'C':{
 132:AdDemo.c      **** 			switch (pinNum){
 766               		.loc 2 132 0
 767 02ee 6330      		cpi r22,3
 768 02f0 7105      		cpc r23,__zero_reg__
 769 02f2 01F0      		breq .L64
 770 02f4 04F4      		brge .L69
 771 02f6 6130      		cpi r22,1
 772 02f8 7105      		cpc r23,__zero_reg__
 773 02fa 01F0      		breq .L62
 774 02fc 04F4      		brge .L63
 775 02fe 672B      		or r22,r23
 776 0300 01F0      		breq .L61
 777 0302 0895      		ret
 778               	.L69:
 779 0304 6530      		cpi r22,5
 780 0306 7105      		cpc r23,__zero_reg__
 781 0308 01F0      		breq .L66
 782 030a 04F0      		brlt .L65
 783 030c 6630      		cpi r22,6
 784 030e 7105      		cpc r23,__zero_reg__
 785 0310 01F0      		breq .L67
 786 0312 6730      		cpi r22,7
 787 0314 7105      		cpc r23,__zero_reg__
 788 0316 01F4      		brne .L40
 789 0318 00C0      		rjmp .L68
 790               	.L61:
 133:AdDemo.c      **** 				case 0: set_it(PORTC_OUTSET,BIT(0)); break;
 791               		.loc 2 133 0
 792 031a 81E0      		ldi r24,lo8(1)
 793               	.LVL68:
 794 031c 00C0      		rjmp .L77
 795               	.LVL69:
 796               	.L62:
 134:AdDemo.c      **** 				case 1: set_it(PORTC_OUTSET,BIT(1)); break;
 797               		.loc 2 134 0
 798 031e 82E0      		ldi r24,lo8(2)
 799               	.LVL70:
 800 0320 00C0      		rjmp .L77
 801               	.LVL71:
 802               	.L63:
 135:AdDemo.c      **** 				case 2: set_it(PORTC_OUTSET,BIT(2)); break;
GAS LISTING /tmp/ccPqDIXf.s 			page 27


 803               		.loc 2 135 0
 804 0322 84E0      		ldi r24,lo8(4)
 805               	.LVL72:
 806 0324 00C0      		rjmp .L77
 807               	.LVL73:
 808               	.L64:
 136:AdDemo.c      **** 				case 3: set_it(PORTC_OUTSET,BIT(3)); break;
 809               		.loc 2 136 0
 810 0326 88E0      		ldi r24,lo8(8)
 811               	.LVL74:
 812 0328 00C0      		rjmp .L77
 813               	.LVL75:
 814               	.L65:
 137:AdDemo.c      **** 				case 4: set_it(PORTC_OUTSET,BIT(4)); break;
 815               		.loc 2 137 0
 816 032a 80E1      		ldi r24,lo8(16)
 817               	.LVL76:
 818 032c 00C0      		rjmp .L77
 819               	.LVL77:
 820               	.L66:
 138:AdDemo.c      **** 				case 5: set_it(PORTC_OUTSET,BIT(5)); break;
 821               		.loc 2 138 0
 822 032e 80E2      		ldi r24,lo8(32)
 823               	.LVL78:
 824 0330 00C0      		rjmp .L77
 825               	.LVL79:
 826               	.L67:
 139:AdDemo.c      **** 				case 6: set_it(PORTC_OUTSET,BIT(6)); break;
 827               		.loc 2 139 0
 828 0332 80E4      		ldi r24,lo8(64)
 829               	.LVL80:
 830 0334 00C0      		rjmp .L77
 831               	.LVL81:
 832               	.L68:
 140:AdDemo.c      **** 				case 7: set_it(PORTC_OUTSET,BIT(7)); break;
 833               		.loc 2 140 0
 834 0336 80E8      		ldi r24,lo8(-128)
 835               	.LVL82:
 836               	.L77:
 837 0338 8093 4506 		sts 1605,r24
 838 033c 0895      		ret
 839               	.LVL83:
 840               	.L45:
 141:AdDemo.c      **** 			}
 142:AdDemo.c      **** 		break;
 143:AdDemo.c      **** 		}
 144:AdDemo.c      **** 		//PORTD
 145:AdDemo.c      **** 		case 'D':{
 146:AdDemo.c      **** 			switch (pinNum){
 841               		.loc 2 146 0
 842 033e 6130      		cpi r22,1
 843 0340 7105      		cpc r23,__zero_reg__
 844 0342 01F0      		breq .L71
 845 0344 04F4      		brge .L74
 846 0346 672B      		or r22,r23
 847 0348 01F0      		breq .L70
 848 034a 0895      		ret
GAS LISTING /tmp/ccPqDIXf.s 			page 28


 849               	.L74:
 850 034c 6230      		cpi r22,2
 851 034e 7105      		cpc r23,__zero_reg__
 852 0350 01F0      		breq .L72
 853 0352 6330      		cpi r22,3
 854 0354 7105      		cpc r23,__zero_reg__
 855 0356 01F4      		brne .L40
 856 0358 00C0      		rjmp .L73
 857               	.L70:
 147:AdDemo.c      **** 				case 0: set_it(PORTD_OUTSET,BIT(0)); break;
 858               		.loc 2 147 0
 859 035a 81E0      		ldi r24,lo8(1)
 860               	.LVL84:
 861 035c 00C0      		rjmp .L75
 862               	.LVL85:
 863               	.L71:
 148:AdDemo.c      **** 				case 1: set_it(PORTD_OUTSET,BIT(1)); break;
 864               		.loc 2 148 0
 865 035e 82E0      		ldi r24,lo8(2)
 866               	.LVL86:
 867 0360 00C0      		rjmp .L75
 868               	.LVL87:
 869               	.L72:
 149:AdDemo.c      **** 				case 2: set_it(PORTD_OUTSET,BIT(2)); break;
 870               		.loc 2 149 0
 871 0362 84E0      		ldi r24,lo8(4)
 872               	.LVL88:
 873 0364 00C0      		rjmp .L75
 874               	.LVL89:
 875               	.L73:
 150:AdDemo.c      **** 				case 3: set_it(PORTD_OUTSET,BIT(3)); break;
 876               		.loc 2 150 0
 877 0366 88E0      		ldi r24,lo8(8)
 878               	.LVL90:
 879               	.L75:
 880 0368 8093 6506 		sts 1637,r24
 881               	.L40:
 882 036c 0895      		ret
 883               	.LFE24:
 884               		.size	setPin, .-setPin
 885               	.global	clearPin
 886               		.type	clearPin, @function
 887               	clearPin:
 888               	.LFB25:
 151:AdDemo.c      **** 			}
 152:AdDemo.c      **** 		break;
 153:AdDemo.c      **** 		}
 154:AdDemo.c      **** 	}
 155:AdDemo.c      **** }
 156:AdDemo.c      **** 
 157:AdDemo.c      **** // Set selected pin to 0/LOW 
 158:AdDemo.c      **** // TODO: Rest of ports
 159:AdDemo.c      **** void clearPin(char portNum, int pinNum){
 889               		.loc 2 159 0
 890               	.LVL91:
 891               	/* prologue: function */
 892               	/* frame size = 0 */
GAS LISTING /tmp/ccPqDIXf.s 			page 29


 893               	/* stack size = 0 */
 894               	.L__stack_usage = 0
 160:AdDemo.c      **** 	switch (portNum){
 895               		.loc 2 160 0
 896 036e 8234      		cpi r24,lo8(66)
 897 0370 01F0      		breq .L82
 898 0372 00F4      		brsh .L85
 899 0374 8134      		cpi r24,lo8(65)
 900 0376 01F0      		breq .+2
 901 0378 00C0      		rjmp .L79
 902 037a 00C0      		rjmp .L81
 903               	.L85:
 904 037c 8334      		cpi r24,lo8(67)
 905 037e 01F4      		brne .+2
 906 0380 00C0      		rjmp .L83
 907 0382 8434      		cpi r24,lo8(68)
 908 0384 01F0      		breq .+2
 909 0386 00C0      		rjmp .L79
 910 0388 00C0      		rjmp .L84
 911               	.L81:
 161:AdDemo.c      **** 		//PORTA
 162:AdDemo.c      **** 		case 'A':{
 163:AdDemo.c      **** 			switch (pinNum){
 912               		.loc 2 163 0
 913 038a 6330      		cpi r22,3
 914 038c 7105      		cpc r23,__zero_reg__
 915 038e 01F0      		breq .L89
 916 0390 04F4      		brge .L94
 917 0392 6130      		cpi r22,1
 918 0394 7105      		cpc r23,__zero_reg__
 919 0396 01F0      		breq .L87
 920 0398 04F4      		brge .L88
 921 039a 672B      		or r22,r23
 922 039c 01F0      		breq .L86
 923 039e 0895      		ret
 924               	.L94:
 925 03a0 6530      		cpi r22,5
 926 03a2 7105      		cpc r23,__zero_reg__
 927 03a4 01F0      		breq .L91
 928 03a6 04F0      		brlt .L90
 929 03a8 6630      		cpi r22,6
 930 03aa 7105      		cpc r23,__zero_reg__
 931 03ac 01F0      		breq .L92
 932 03ae 6730      		cpi r22,7
 933 03b0 7105      		cpc r23,__zero_reg__
 934 03b2 01F0      		breq .+2
 935 03b4 00C0      		rjmp .L79
 936 03b6 00C0      		rjmp .L93
 937               	.L86:
 164:AdDemo.c      **** 				case 0: set_it(PORTA_OUTCLR,BIT(0)); break; 
 938               		.loc 2 164 0
 939 03b8 81E0      		ldi r24,lo8(1)
 940               	.LVL92:
 941 03ba 00C0      		rjmp .L115
 942               	.LVL93:
 943               	.L87:
 165:AdDemo.c      **** 				case 1: set_it(PORTA_OUTCLR,BIT(1)); break;
GAS LISTING /tmp/ccPqDIXf.s 			page 30


 944               		.loc 2 165 0
 945 03bc 82E0      		ldi r24,lo8(2)
 946               	.LVL94:
 947               	.L115:
 948 03be 8093 0606 		sts 1542,r24
 949 03c2 0895      		ret
 950               	.LVL95:
 951               	.L88:
 166:AdDemo.c      **** 				case 2: set_it(PORTA_OUTCLR,BIT(2)); break;
 952               		.loc 2 166 0
 953 03c4 84E0      		ldi r24,lo8(4)
 954               	.LVL96:
 955 03c6 00C0      		rjmp .L115
 956               	.LVL97:
 957               	.L89:
 167:AdDemo.c      **** 				case 3: set_it(PORTA_OUTCLR,BIT(3)); break;
 958               		.loc 2 167 0
 959 03c8 88E0      		ldi r24,lo8(8)
 960               	.LVL98:
 961 03ca 00C0      		rjmp .L115
 962               	.LVL99:
 963               	.L90:
 168:AdDemo.c      **** 				case 4: set_it(PORTA_OUTCLR,BIT(4)); break;
 964               		.loc 2 168 0
 965 03cc 80E1      		ldi r24,lo8(16)
 966               	.LVL100:
 967 03ce 00C0      		rjmp .L115
 968               	.LVL101:
 969               	.L91:
 169:AdDemo.c      **** 				case 5: set_it(PORTA_OUTCLR,BIT(5)); break;
 970               		.loc 2 169 0
 971 03d0 80E2      		ldi r24,lo8(32)
 972               	.LVL102:
 973 03d2 00C0      		rjmp .L115
 974               	.LVL103:
 975               	.L92:
 170:AdDemo.c      **** 				case 6: set_it(PORTA_OUTCLR,BIT(6)); break;
 976               		.loc 2 170 0
 977 03d4 80E4      		ldi r24,lo8(64)
 978               	.LVL104:
 979 03d6 00C0      		rjmp .L115
 980               	.LVL105:
 981               	.L93:
 171:AdDemo.c      **** 				case 7: set_it(PORTA_OUTCLR,BIT(7)); break;
 982               		.loc 2 171 0
 983 03d8 80E8      		ldi r24,lo8(-128)
 984               	.LVL106:
 985 03da 00C0      		rjmp .L115
 986               	.LVL107:
 987               	.L82:
 172:AdDemo.c      **** 			}
 173:AdDemo.c      **** 		break;
 174:AdDemo.c      **** 		}
 175:AdDemo.c      **** 				//PORTB
 176:AdDemo.c      **** 		case 'B':{
 177:AdDemo.c      **** 			switch (pinNum){
 988               		.loc 2 177 0
GAS LISTING /tmp/ccPqDIXf.s 			page 31


 989 03dc 6130      		cpi r22,1
 990 03de 7105      		cpc r23,__zero_reg__
 991 03e0 01F0      		breq .L96
 992 03e2 04F4      		brge .L99
 993 03e4 672B      		or r22,r23
 994 03e6 01F0      		breq .L95
 995 03e8 0895      		ret
 996               	.L99:
 997 03ea 6230      		cpi r22,2
 998 03ec 7105      		cpc r23,__zero_reg__
 999 03ee 01F0      		breq .L97
 1000 03f0 6330      		cpi r22,3
 1001 03f2 7105      		cpc r23,__zero_reg__
 1002 03f4 01F0      		breq .+2
 1003 03f6 00C0      		rjmp .L79
 1004 03f8 00C0      		rjmp .L98
 1005               	.L95:
 178:AdDemo.c      **** 				case 0: set_it(PORTB_OUTCLR,BIT(0)); break;
 1006               		.loc 2 178 0
 1007 03fa 81E0      		ldi r24,lo8(1)
 1008               	.LVL108:
 1009 03fc 00C0      		rjmp .L117
 1010               	.LVL109:
 1011               	.L96:
 179:AdDemo.c      **** 				case 1: set_it(PORTB_OUTCLR,BIT(1)); break;
 1012               		.loc 2 179 0
 1013 03fe 82E0      		ldi r24,lo8(2)
 1014               	.LVL110:
 1015 0400 00C0      		rjmp .L117
 1016               	.LVL111:
 1017               	.L97:
 180:AdDemo.c      **** 				case 2: set_it(PORTB_OUTCLR,BIT(2)); break;
 1018               		.loc 2 180 0
 1019 0402 84E0      		ldi r24,lo8(4)
 1020               	.LVL112:
 1021 0404 00C0      		rjmp .L117
 1022               	.LVL113:
 1023               	.L98:
 181:AdDemo.c      **** 				case 3: set_it(PORTB_OUTCLR,BIT(3)); break;
 1024               		.loc 2 181 0
 1025 0406 88E0      		ldi r24,lo8(8)
 1026               	.LVL114:
 1027               	.L117:
 1028 0408 8093 2606 		sts 1574,r24
 1029 040c 0895      		ret
 1030               	.LVL115:
 1031               	.L83:
 182:AdDemo.c      **** 			}
 183:AdDemo.c      **** 		break;
 184:AdDemo.c      **** 		}
 185:AdDemo.c      **** 		//PORTC
 186:AdDemo.c      **** 		case 'C':{
 187:AdDemo.c      **** 			switch (pinNum){
 1032               		.loc 2 187 0
 1033 040e 6330      		cpi r22,3
 1034 0410 7105      		cpc r23,__zero_reg__
 1035 0412 01F0      		breq .L103
GAS LISTING /tmp/ccPqDIXf.s 			page 32


 1036 0414 04F4      		brge .L108
 1037 0416 6130      		cpi r22,1
 1038 0418 7105      		cpc r23,__zero_reg__
 1039 041a 01F0      		breq .L101
 1040 041c 04F4      		brge .L102
 1041 041e 672B      		or r22,r23
 1042 0420 01F0      		breq .L100
 1043 0422 0895      		ret
 1044               	.L108:
 1045 0424 6530      		cpi r22,5
 1046 0426 7105      		cpc r23,__zero_reg__
 1047 0428 01F0      		breq .L105
 1048 042a 04F0      		brlt .L104
 1049 042c 6630      		cpi r22,6
 1050 042e 7105      		cpc r23,__zero_reg__
 1051 0430 01F0      		breq .L106
 1052 0432 6730      		cpi r22,7
 1053 0434 7105      		cpc r23,__zero_reg__
 1054 0436 01F4      		brne .L79
 1055 0438 00C0      		rjmp .L107
 1056               	.L100:
 188:AdDemo.c      **** 				case 0: set_it(PORTC_OUTCLR,BIT(0)); break;
 1057               		.loc 2 188 0
 1058 043a 81E0      		ldi r24,lo8(1)
 1059               	.LVL116:
 1060 043c 00C0      		rjmp .L116
 1061               	.LVL117:
 1062               	.L101:
 189:AdDemo.c      **** 				case 1: set_it(PORTC_OUTCLR,BIT(1)); break;
 1063               		.loc 2 189 0
 1064 043e 82E0      		ldi r24,lo8(2)
 1065               	.LVL118:
 1066 0440 00C0      		rjmp .L116
 1067               	.LVL119:
 1068               	.L102:
 190:AdDemo.c      **** 				case 2: set_it(PORTC_OUTCLR,BIT(2)); break;
 1069               		.loc 2 190 0
 1070 0442 84E0      		ldi r24,lo8(4)
 1071               	.LVL120:
 1072 0444 00C0      		rjmp .L116
 1073               	.LVL121:
 1074               	.L103:
 191:AdDemo.c      **** 				case 3: set_it(PORTC_OUTCLR,BIT(3)); break;
 1075               		.loc 2 191 0
 1076 0446 88E0      		ldi r24,lo8(8)
 1077               	.LVL122:
 1078 0448 00C0      		rjmp .L116
 1079               	.LVL123:
 1080               	.L104:
 192:AdDemo.c      **** 				case 4: set_it(PORTC_OUTCLR,BIT(4)); break;
 1081               		.loc 2 192 0
 1082 044a 80E1      		ldi r24,lo8(16)
 1083               	.LVL124:
 1084 044c 00C0      		rjmp .L116
 1085               	.LVL125:
 1086               	.L105:
 193:AdDemo.c      **** 				case 5: set_it(PORTC_OUTCLR,BIT(5)); break;
GAS LISTING /tmp/ccPqDIXf.s 			page 33


 1087               		.loc 2 193 0
 1088 044e 80E2      		ldi r24,lo8(32)
 1089               	.LVL126:
 1090 0450 00C0      		rjmp .L116
 1091               	.LVL127:
 1092               	.L106:
 194:AdDemo.c      **** 				case 6: set_it(PORTC_OUTCLR,BIT(6)); break;
 1093               		.loc 2 194 0
 1094 0452 80E4      		ldi r24,lo8(64)
 1095               	.LVL128:
 1096 0454 00C0      		rjmp .L116
 1097               	.LVL129:
 1098               	.L107:
 195:AdDemo.c      **** 				case 7: set_it(PORTC_OUTCLR,BIT(7)); break;
 1099               		.loc 2 195 0
 1100 0456 80E8      		ldi r24,lo8(-128)
 1101               	.LVL130:
 1102               	.L116:
 1103 0458 8093 4606 		sts 1606,r24
 1104 045c 0895      		ret
 1105               	.LVL131:
 1106               	.L84:
 196:AdDemo.c      **** 			}
 197:AdDemo.c      **** 		break;
 198:AdDemo.c      **** 		}
 199:AdDemo.c      **** 		//PORTD
 200:AdDemo.c      **** 		case 'D':{
 201:AdDemo.c      **** 			switch (pinNum){
 1107               		.loc 2 201 0
 1108 045e 6130      		cpi r22,1
 1109 0460 7105      		cpc r23,__zero_reg__
 1110 0462 01F0      		breq .L110
 1111 0464 04F4      		brge .L113
 1112 0466 672B      		or r22,r23
 1113 0468 01F0      		breq .L109
 1114 046a 0895      		ret
 1115               	.L113:
 1116 046c 6230      		cpi r22,2
 1117 046e 7105      		cpc r23,__zero_reg__
 1118 0470 01F0      		breq .L111
 1119 0472 6330      		cpi r22,3
 1120 0474 7105      		cpc r23,__zero_reg__
 1121 0476 01F4      		brne .L79
 1122 0478 00C0      		rjmp .L112
 1123               	.L109:
 202:AdDemo.c      **** 				case 0: set_it(PORTD_OUTCLR,BIT(0)); break;
 1124               		.loc 2 202 0
 1125 047a 81E0      		ldi r24,lo8(1)
 1126               	.LVL132:
 1127 047c 00C0      		rjmp .L114
 1128               	.LVL133:
 1129               	.L110:
 203:AdDemo.c      **** 				case 1: set_it(PORTD_OUTCLR,BIT(1)); break;
 1130               		.loc 2 203 0
 1131 047e 82E0      		ldi r24,lo8(2)
 1132               	.LVL134:
 1133 0480 00C0      		rjmp .L114
GAS LISTING /tmp/ccPqDIXf.s 			page 34


 1134               	.LVL135:
 1135               	.L111:
 204:AdDemo.c      **** 				case 2: set_it(PORTD_OUTCLR,BIT(2)); break;
 1136               		.loc 2 204 0
 1137 0482 84E0      		ldi r24,lo8(4)
 1138               	.LVL136:
 1139 0484 00C0      		rjmp .L114
 1140               	.LVL137:
 1141               	.L112:
 205:AdDemo.c      **** 				case 3: set_it(PORTD_OUTCLR,BIT(3)); break;
 1142               		.loc 2 205 0
 1143 0486 88E0      		ldi r24,lo8(8)
 1144               	.LVL138:
 1145               	.L114:
 1146 0488 8093 6606 		sts 1638,r24
 1147               	.L79:
 1148 048c 0895      		ret
 1149               	.LFE25:
 1150               		.size	clearPin, .-clearPin
 1151               	.global	setSpeed
 1152               		.type	setSpeed, @function
 1153               	setSpeed:
 1154               	.LFB26:
 206:AdDemo.c      **** 			}
 207:AdDemo.c      **** 		break;
 208:AdDemo.c      **** 		}
 209:AdDemo.c      **** 	}
 210:AdDemo.c      **** }
 211:AdDemo.c      **** 
 212:AdDemo.c      **** // struct of Stepper Motor
 213:AdDemo.c      **** struct Stepper{
 214:AdDemo.c      **** 	int motorNumber; //Which motor is this, starting at 1
 215:AdDemo.c      **** 	int direction;
 216:AdDemo.c      **** 	int speed; // RPM
 217:AdDemo.c      **** 	unsigned long step_delay; //ms
 218:AdDemo.c      **** 	int number_of_steps; 
 219:AdDemo.c      **** 	int pin_count; // 2 pin or 4 pin configuration
 220:AdDemo.c      **** 	int step_number; //which step the motor is on now
 221:AdDemo.c      **** 	int minSteps; //Upper Limit of how many steps 
 222:AdDemo.c      **** 	int maxSteps; //Lower Limit of how many steps 
 223:AdDemo.c      **** 
 224:AdDemo.c      **** 	// motor pin numbers:
 225:AdDemo.c      **** 
 226:AdDemo.c      **** 	char motor_port_1;
 227:AdDemo.c      **** 	int motor_pin_1;
 228:AdDemo.c      **** 	char motor_port_2;
 229:AdDemo.c      **** 	int motor_pin_2;
 230:AdDemo.c      **** 	char motor_port_3;
 231:AdDemo.c      **** 	int motor_pin_3;
 232:AdDemo.c      **** 	char motor_port_4;
 233:AdDemo.c      **** 	int motor_pin_4;
 234:AdDemo.c      **** 
 235:AdDemo.c      **** 	long last_step_time; //ms, time stamp when last step was taken
 236:AdDemo.c      **** } Base,Shoulder,Elbow,Left_Wrist,Right_Wrist,Gripper;
 237:AdDemo.c      **** 
 238:AdDemo.c      **** /*
 239:AdDemo.c      **** int getMotor(int n){
GAS LISTING /tmp/ccPqDIXf.s 			page 35


 240:AdDemo.c      **** 	switch (n){
 241:AdDemo.c      **** 				case 0: return MOTOR_1;
 242:AdDemo.c      **** 				case 1: return MOTOR_2;
 243:AdDemo.c      **** 				case 2: return MOTOR_3;
 244:AdDemo.c      **** 				case 3: return MOTOR_4;
 245:AdDemo.c      **** 				case 4: return MOTOR_5;
 246:AdDemo.c      **** 				case 5: return MOTOR_6;
 247:AdDemo.c      **** }*/
 248:AdDemo.c      **** 
 249:AdDemo.c      **** struct Stepper Base = {
 250:AdDemo.c      **** 	.motorNumber = 1,
 251:AdDemo.c      **** 	.direction = 1,
 252:AdDemo.c      **** 	.speed = 40,
 253:AdDemo.c      **** 	.step_delay = 10,
 254:AdDemo.c      **** 	.number_of_steps = 200,
 255:AdDemo.c      **** 	.pin_count = 4,
 256:AdDemo.c      **** 	.step_number = 0,
 257:AdDemo.c      **** 	.minSteps = -850,
 258:AdDemo.c      **** 	.maxSteps = 850,
 259:AdDemo.c      **** 	.motor_port_1 = 'A',
 260:AdDemo.c      **** 	.motor_pin_1 = 0,
 261:AdDemo.c      **** 	.motor_port_2 = 'A',
 262:AdDemo.c      **** 	.motor_pin_2 = 1, 
 263:AdDemo.c      **** 	.motor_port_3 = 'A',
 264:AdDemo.c      **** 	.motor_pin_3 = 2, 
 265:AdDemo.c      **** 	.motor_port_4 = 'A',
 266:AdDemo.c      **** 	.motor_pin_4 = 3
 267:AdDemo.c      **** 	};
 268:AdDemo.c      **** 	
 269:AdDemo.c      **** struct Stepper Shoulder = {
 270:AdDemo.c      **** 	.motorNumber = 2,
 271:AdDemo.c      **** 	.direction = 1,
 272:AdDemo.c      **** 	.speed = 40,
 273:AdDemo.c      **** 	.step_delay = 10,
 274:AdDemo.c      **** 	.number_of_steps = 200,
 275:AdDemo.c      **** 	.pin_count = 4,
 276:AdDemo.c      **** 	.step_number = 0, 
 277:AdDemo.c      **** 	.minSteps = 0,
 278:AdDemo.c      **** 	.maxSteps = -1450,
 279:AdDemo.c      **** 	.motor_port_1 = 'A',
 280:AdDemo.c      **** 	.motor_pin_1 = 4,
 281:AdDemo.c      **** 	.motor_port_2 = 'A',
 282:AdDemo.c      **** 	.motor_pin_2 = 5, 
 283:AdDemo.c      **** 	.motor_port_3 = 'A',
 284:AdDemo.c      **** 	.motor_pin_3 = 6, 
 285:AdDemo.c      **** 	.motor_port_4 = 'A',
 286:AdDemo.c      **** 	.motor_pin_4 = 7
 287:AdDemo.c      **** 	};
 288:AdDemo.c      **** struct Stepper Elbow = {
 289:AdDemo.c      **** 	.motorNumber = 3,
 290:AdDemo.c      **** 	.direction = 1,
 291:AdDemo.c      **** 	.speed = 40,
 292:AdDemo.c      **** 	.step_delay = 10,
 293:AdDemo.c      **** 	.number_of_steps = 200,
 294:AdDemo.c      **** 	.pin_count = 4,
 295:AdDemo.c      **** 	.step_number = 0, 
 296:AdDemo.c      **** 	.minSteps = 0,
GAS LISTING /tmp/ccPqDIXf.s 			page 36


 297:AdDemo.c      **** 	.maxSteps = 1450,
 298:AdDemo.c      **** 	.motor_port_1 = 'B',
 299:AdDemo.c      **** 	.motor_pin_1 = 0,
 300:AdDemo.c      **** 	.motor_port_2 = 'B',
 301:AdDemo.c      **** 	.motor_pin_2 = 1, 
 302:AdDemo.c      **** 	.motor_port_3 = 'B',
 303:AdDemo.c      **** 	.motor_pin_3 = 2, 
 304:AdDemo.c      **** 	.motor_port_4 = 'B',
 305:AdDemo.c      **** 	.motor_pin_4 = 3
 306:AdDemo.c      **** 	};
 307:AdDemo.c      **** struct Stepper Right_Wrist = {
 308:AdDemo.c      **** 	.motorNumber = 4,
 309:AdDemo.c      **** 	.direction = 1,
 310:AdDemo.c      **** 	.speed = 40,
 311:AdDemo.c      **** 	.step_delay = 10,
 312:AdDemo.c      **** 	.number_of_steps = 200,
 313:AdDemo.c      **** 	.pin_count = 4,
 314:AdDemo.c      **** 	.step_number = 0, 
 315:AdDemo.c      **** 	.minSteps = 200,
 316:AdDemo.c      **** 	.maxSteps = -200,
 317:AdDemo.c      **** 	.motor_port_1 = 'C',
 318:AdDemo.c      **** 	.motor_pin_1 = 0,
 319:AdDemo.c      **** 	.motor_port_2 = 'C',
 320:AdDemo.c      **** 	.motor_pin_2 = 1, 
 321:AdDemo.c      **** 	.motor_port_3 = 'C',
 322:AdDemo.c      **** 	.motor_pin_3 = 2, 
 323:AdDemo.c      **** 	.motor_port_4 = 'C',
 324:AdDemo.c      **** 	.motor_pin_4 = 3
 325:AdDemo.c      **** 	};
 326:AdDemo.c      **** struct Stepper Left_Wrist = {
 327:AdDemo.c      **** 	.motorNumber = 5,
 328:AdDemo.c      **** 	.direction = 1,
 329:AdDemo.c      **** 	.speed = 40,
 330:AdDemo.c      **** 	.step_delay = 10,
 331:AdDemo.c      **** 	.number_of_steps = 200,
 332:AdDemo.c      **** 	.pin_count = 4,
 333:AdDemo.c      **** 	.step_number = 0, 
 334:AdDemo.c      **** 	.minSteps = -200,
 335:AdDemo.c      **** 	.maxSteps = 200,
 336:AdDemo.c      **** 	.motor_port_1 = 'C',
 337:AdDemo.c      **** 	.motor_pin_1 = 4,
 338:AdDemo.c      **** 	.motor_port_2 = 'C',
 339:AdDemo.c      **** 	.motor_pin_2 = 5, 
 340:AdDemo.c      **** 	.motor_port_3 = 'C',
 341:AdDemo.c      **** 	.motor_pin_3 = 6, 
 342:AdDemo.c      **** 	.motor_port_4 = 'C',
 343:AdDemo.c      **** 	.motor_pin_4 = 7
 344:AdDemo.c      **** 	};
 345:AdDemo.c      **** 	
 346:AdDemo.c      **** struct Stepper Gripper = {
 347:AdDemo.c      **** 	.motorNumber = 6,
 348:AdDemo.c      **** 	.direction = 1,
 349:AdDemo.c      **** 	.speed = 40,
 350:AdDemo.c      **** 	.step_delay = 10,
 351:AdDemo.c      **** 	.number_of_steps = 200,
 352:AdDemo.c      **** 	.pin_count = 4,
 353:AdDemo.c      **** 	.step_number = 0, 
GAS LISTING /tmp/ccPqDIXf.s 			page 37


 354:AdDemo.c      **** 	.minSteps = 0,
 355:AdDemo.c      **** 	.maxSteps = 800,
 356:AdDemo.c      **** 	.motor_port_1 = 'D',
 357:AdDemo.c      **** 	.motor_pin_1 = 0,
 358:AdDemo.c      **** 	.motor_port_2 = 'D',
 359:AdDemo.c      **** 	.motor_pin_2 = 1, 
 360:AdDemo.c      **** 	.motor_port_3 = 'D',
 361:AdDemo.c      **** 	.motor_pin_3 = 2, 
 362:AdDemo.c      **** 	.motor_port_4 = 'D',
 363:AdDemo.c      **** 	.motor_pin_4 = 3
 364:AdDemo.c      **** 	};
 365:AdDemo.c      **** 	
 366:AdDemo.c      **** 
 367:AdDemo.c      **** // Set Speed, in RPM
 368:AdDemo.c      **** // (60 seconds per minute*1000 Microseconds per second)/200 steps per rotation/ 40 Rotations per mi
 369:AdDemo.c      **** void setSpeed(struct Stepper *stepper, long whatSpeed){
 1155               		.loc 2 369 0
 1156               	.LVL139:
 1157 048e CF92      		push r12
 1158               	.LCFI21:
 1159 0490 DF92      		push r13
 1160               	.LCFI22:
 1161 0492 EF92      		push r14
 1162               	.LCFI23:
 1163 0494 FF92      		push r15
 1164               	.LCFI24:
 1165 0496 CF93      		push r28
 1166               	.LCFI25:
 1167 0498 DF93      		push r29
 1168               	.LCFI26:
 1169               	/* prologue: function */
 1170               	/* frame size = 0 */
 1171               	/* stack size = 6 */
 1172               	.L__stack_usage = 6
 1173 049a EC01      		movw r28,r24
 1174 049c 6A01      		movw r12,r20
 1175 049e 7B01      		movw r14,r22
 370:AdDemo.c      **** 	(*stepper).step_delay = 60L * 1000L / (*stepper).number_of_steps / whatSpeed;
 1176               		.loc 2 370 0
 1177 04a0 2A85      		ldd r18,Y+10
 1178 04a2 3B85      		ldd r19,Y+11
 1179 04a4 4427      		clr r20
 1180 04a6 37FD      		sbrc r19,7
 1181 04a8 4095      		com r20
 1182 04aa 542F      		mov r21,r20
 1183 04ac 60E6      		ldi r22,lo8(96)
 1184 04ae 7AEE      		ldi r23,lo8(-22)
 1185 04b0 80E0      		ldi r24,0
 1186 04b2 90E0      		ldi r25,0
 1187 04b4 0E94 0000 		call __divmodsi4
 1188 04b8 CA01      		movw r24,r20
 1189 04ba B901      		movw r22,r18
 1190 04bc A701      		movw r20,r14
 1191 04be 9601      		movw r18,r12
 1192 04c0 0E94 0000 		call __divmodsi4
 1193 04c4 2E83      		std Y+6,r18
 1194 04c6 3F83      		std Y+7,r19
GAS LISTING /tmp/ccPqDIXf.s 			page 38


 1195 04c8 4887      		std Y+8,r20
 1196 04ca 5987      		std Y+9,r21
 1197               	/* epilogue start */
 371:AdDemo.c      **** }
 1198               		.loc 2 371 0
 1199 04cc DF91      		pop r29
 1200 04ce CF91      		pop r28
 1201 04d0 FF90      		pop r15
 1202 04d2 EF90      		pop r14
 1203 04d4 DF90      		pop r13
 1204 04d6 CF90      		pop r12
 1205 04d8 0895      		ret
 1206               	.LFE26:
 1207               		.size	setSpeed, .-setSpeed
 1208               	.global	stepMotor
 1209               		.type	stepMotor, @function
 1210               	stepMotor:
 1211               	.LFB27:
 372:AdDemo.c      **** 
 373:AdDemo.c      **** // Moves the motor by 1 step. calls clearPin and setPin.
 374:AdDemo.c      **** void stepMotor(struct Stepper stepper, int thisStep) {
 1212               		.loc 2 374 0
 1213               	.LVL140:
 1214 04da 9F92      		push r9
 1215               	.LCFI27:
 1216 04dc AF92      		push r10
 1217               	.LCFI28:
 1218 04de BF92      		push r11
 1219               	.LCFI29:
 1220 04e0 CF92      		push r12
 1221               	.LCFI30:
 1222 04e2 DF92      		push r13
 1223               	.LCFI31:
 1224 04e4 EF92      		push r14
 1225               	.LCFI32:
 1226 04e6 FF92      		push r15
 1227               	.LCFI33:
 1228 04e8 0F93      		push r16
 1229               	.LCFI34:
 1230 04ea 1F93      		push r17
 1231               	.LCFI35:
 1232 04ec CF93      		push r28
 1233               	.LCFI36:
 1234 04ee DF93      		push r29
 1235               	.LCFI37:
 1236 04f0 CDB7      		in r28,__SP_L__
 1237 04f2 DEB7      		in r29,__SP_H__
 1238               	.LCFI38:
 1239               	/* prologue: function */
 1240               	/* frame size = 0 */
 1241               	/* stack size = 11 */
 1242               	.L__stack_usage = 11
 1243 04f4 2AA9      		ldd r18,Y+50
 1244 04f6 3BA9      		ldd r19,Y+51
 1245 04f8 4A8D      		ldd r20,Y+26
 1246 04fa 5B8D      		ldd r21,Y+27
 1247               	.LVL141:
GAS LISTING /tmp/ccPqDIXf.s 			page 39


 1248 04fc 8AA1      		ldd r24,Y+34
 1249               	.LVL142:
 1250 04fe 6BA1      		ldd r22,Y+35
 1251 0500 7CA1      		ldd r23,Y+36
 1252               	.LVL143:
 1253 0502 BDA0      		ldd r11,Y+37
 1254               	.LVL144:
 1255 0504 0EA1      		ldd r16,Y+38
 1256 0506 1FA1      		ldd r17,Y+39
 1257               	.LVL145:
 1258 0508 98A4      		ldd r9,Y+40
 1259               	.LVL146:
 1260 050a C9A4      		ldd r12,Y+41
 1261 050c DAA4      		ldd r13,Y+42
 1262               	.LVL147:
 1263 050e ABA4      		ldd r10,Y+43
 1264               	.LVL148:
 1265 0510 ECA4      		ldd r14,Y+44
 1266 0512 FDA4      		ldd r15,Y+45
 1267               	.LVL149:
 375:AdDemo.c      ****   if ((stepper).pin_count == 2) {
 1268               		.loc 2 375 0
 1269 0514 4230      		cpi r20,2
 1270 0516 5105      		cpc r21,__zero_reg__
 1271 0518 01F4      		brne .L120
 376:AdDemo.c      ****     switch (thisStep) {
 1272               		.loc 2 376 0
 1273 051a 2130      		cpi r18,1
 1274 051c 3105      		cpc r19,__zero_reg__
 1275 051e 01F0      		breq .L123
 1276 0520 04F4      		brge .L126
 1277 0522 232B      		or r18,r19
 1278 0524 01F0      		breq .L122
 1279 0526 00C0      		rjmp .L119
 1280               	.L126:
 1281 0528 2230      		cpi r18,2
 1282 052a 3105      		cpc r19,__zero_reg__
 1283 052c 01F0      		breq .L124
 1284 052e 2330      		cpi r18,3
 1285 0530 3105      		cpc r19,__zero_reg__
 1286 0532 01F0      		breq .+2
 1287 0534 00C0      		rjmp .L119
 1288 0536 00C0      		rjmp .L125
 1289               	.L122:
 377:AdDemo.c      ****       case 0: // 01 
 378:AdDemo.c      ****       clearPin((stepper).motor_port_1,(stepper).motor_pin_1);
 1290               		.loc 2 378 0
 1291 0538 0E94 0000 		call clearPin
 1292               	.LVL150:
 1293 053c 00C0      		rjmp .L138
 1294               	.LVL151:
 1295               	.L123:
 379:AdDemo.c      ****       setPin((stepper).motor_port_2,(stepper).motor_pin_2);
 380:AdDemo.c      ****       break;
 381:AdDemo.c      ****       case 1: // 11 
 382:AdDemo.c      ****       setPin((stepper).motor_port_1,(stepper).motor_pin_1);
 1296               		.loc 2 382 0
GAS LISTING /tmp/ccPqDIXf.s 			page 40


 1297 053e 0E94 0000 		call setPin
 1298               	.LVL152:
 1299               	.L138:
 383:AdDemo.c      ****       setPin((stepper).motor_port_2,(stepper).motor_pin_2);
 1300               		.loc 2 383 0
 1301 0542 B801      		movw r22,r16
 1302 0544 8B2D      		mov r24,r11
 1303 0546 00C0      		rjmp .L133
 1304               	.LVL153:
 1305               	.L124:
 384:AdDemo.c      ****       break;
 385:AdDemo.c      ****       case 2: // 10 
 386:AdDemo.c      ****       setPin((stepper).motor_port_1,(stepper).motor_pin_1);
 1306               		.loc 2 386 0
 1307 0548 0E94 0000 		call setPin
 1308               	.LVL154:
 1309 054c 00C0      		rjmp .L137
 1310               	.LVL155:
 1311               	.L125:
 387:AdDemo.c      ****       clearPin((stepper).motor_port_2,(stepper).motor_pin_2);
 388:AdDemo.c      ****       break;
 389:AdDemo.c      ****       case 3: // 00 
 390:AdDemo.c      ****       clearPin((stepper).motor_port_1,(stepper).motor_pin_1);
 1312               		.loc 2 390 0
 1313 054e 0E94 0000 		call clearPin
 1314               	.LVL156:
 1315               	.L137:
 391:AdDemo.c      ****       clearPin((stepper).motor_port_2,(stepper).motor_pin_2);
 1316               		.loc 2 391 0
 1317 0552 B801      		movw r22,r16
 1318 0554 8B2D      		mov r24,r11
 1319 0556 00C0      		rjmp .L135
 1320               	.LVL157:
 1321               	.L120:
 392:AdDemo.c      ****       break;
 393:AdDemo.c      ****     } 
 394:AdDemo.c      ****   }
 395:AdDemo.c      ****   if ((stepper).pin_count == 4) {
 1322               		.loc 2 395 0
 1323 0558 4430      		cpi r20,4
 1324 055a 5105      		cpc r21,__zero_reg__
 1325 055c 01F0      		breq .+2
 1326 055e 00C0      		rjmp .L119
 396:AdDemo.c      ****     switch (thisStep) {
 1327               		.loc 2 396 0
 1328 0560 2130      		cpi r18,1
 1329 0562 3105      		cpc r19,__zero_reg__
 1330 0564 01F0      		breq .L129
 1331 0566 04F4      		brge .L132
 1332 0568 232B      		or r18,r19
 1333 056a 01F0      		breq .L128
 1334 056c 00C0      		rjmp .L119
 1335               	.L132:
 1336 056e 2230      		cpi r18,2
 1337 0570 3105      		cpc r19,__zero_reg__
 1338 0572 01F0      		breq .L130
 1339 0574 2330      		cpi r18,3
GAS LISTING /tmp/ccPqDIXf.s 			page 41


 1340 0576 3105      		cpc r19,__zero_reg__
 1341 0578 01F0      		breq .+2
 1342 057a 00C0      		rjmp .L119
 1343 057c 00C0      		rjmp .L131
 1344               	.L128:
 397:AdDemo.c      ****       case 0:    // 1010
 398:AdDemo.c      ****       setPin((stepper).motor_port_1,(stepper).motor_pin_1);
 1345               		.loc 2 398 0
 1346 057e 0E94 0000 		call setPin
 1347               	.LVL158:
 399:AdDemo.c      ****       clearPin((stepper).motor_port_2,(stepper).motor_pin_2);
 1348               		.loc 2 399 0
 1349 0582 B801      		movw r22,r16
 1350 0584 8B2D      		mov r24,r11
 1351 0586 0E94 0000 		call clearPin
 1352               	.LVL159:
 1353 058a 00C0      		rjmp .L136
 1354               	.LVL160:
 1355               	.L129:
 400:AdDemo.c      ****       setPin((stepper).motor_port_3,(stepper).motor_pin_3);
 401:AdDemo.c      ****       clearPin((stepper).motor_port_4,(stepper).motor_pin_4);
 402:AdDemo.c      ****       break;
 403:AdDemo.c      ****       case 1:   // 0110
 404:AdDemo.c      ****       clearPin((stepper).motor_port_1,(stepper).motor_pin_1);
 1356               		.loc 2 404 0
 1357 058c 0E94 0000 		call clearPin
 1358               	.LVL161:
 405:AdDemo.c      ****       setPin((stepper).motor_port_2,(stepper).motor_pin_2);
 1359               		.loc 2 405 0
 1360 0590 B801      		movw r22,r16
 1361 0592 8B2D      		mov r24,r11
 1362 0594 0E94 0000 		call setPin
 1363               	.LVL162:
 1364               	.L136:
 406:AdDemo.c      ****       setPin((stepper).motor_port_3,(stepper).motor_pin_3);
 1365               		.loc 2 406 0
 1366 0598 B601      		movw r22,r12
 1367 059a 892D      		mov r24,r9
 1368 059c 0E94 0000 		call setPin
 1369               	.LVL163:
 407:AdDemo.c      ****       clearPin((stepper).motor_port_4,(stepper).motor_pin_4);
 1370               		.loc 2 407 0
 1371 05a0 B701      		movw r22,r14
 1372 05a2 8A2D      		mov r24,r10
 1373               	.L135:
 1374               	/* epilogue start */
 408:AdDemo.c      ****       break;
 409:AdDemo.c      ****       case 2:    //0101
 410:AdDemo.c      ****       clearPin((stepper).motor_port_1,(stepper).motor_pin_1);
 411:AdDemo.c      ****       setPin((stepper).motor_port_2,(stepper).motor_pin_2);
 412:AdDemo.c      ****       clearPin((stepper).motor_port_3,(stepper).motor_pin_3);
 413:AdDemo.c      ****       setPin((stepper).motor_port_4,(stepper).motor_pin_4);
 414:AdDemo.c      ****       break;
 415:AdDemo.c      ****       case 3:    //1001
 416:AdDemo.c      ****       setPin((stepper).motor_port_1,(stepper).motor_pin_1);
 417:AdDemo.c      ****       clearPin((stepper).motor_port_2,(stepper).motor_pin_2);
 418:AdDemo.c      ****       clearPin((stepper).motor_port_3,(stepper).motor_pin_3);
GAS LISTING /tmp/ccPqDIXf.s 			page 42


 419:AdDemo.c      ****       setPin((stepper).motor_port_4,(stepper).motor_pin_4);
 420:AdDemo.c      ****       break;
 421:AdDemo.c      ****     } 
 422:AdDemo.c      ****   }
 423:AdDemo.c      **** }
 1375               		.loc 2 423 0
 1376 05a4 DF91      		pop r29
 1377 05a6 CF91      		pop r28
 1378 05a8 1F91      		pop r17
 1379 05aa 0F91      		pop r16
 1380               	.LVL164:
 1381 05ac FF90      		pop r15
 1382 05ae EF90      		pop r14
 1383               	.LVL165:
 1384 05b0 DF90      		pop r13
 1385 05b2 CF90      		pop r12
 1386               	.LVL166:
 1387 05b4 BF90      		pop r11
 1388               	.LVL167:
 1389 05b6 AF90      		pop r10
 1390               	.LVL168:
 1391 05b8 9F90      		pop r9
 1392               	.LVL169:
 407:AdDemo.c      ****       clearPin((stepper).motor_port_4,(stepper).motor_pin_4);
 1393               		.loc 2 407 0
 1394 05ba 0C94 0000 		jmp clearPin
 1395               	.LVL170:
 1396               	.L130:
 410:AdDemo.c      ****       clearPin((stepper).motor_port_1,(stepper).motor_pin_1);
 1397               		.loc 2 410 0
 1398 05be 0E94 0000 		call clearPin
 1399               	.LVL171:
 411:AdDemo.c      ****       setPin((stepper).motor_port_2,(stepper).motor_pin_2);
 1400               		.loc 2 411 0
 1401 05c2 B801      		movw r22,r16
 1402 05c4 8B2D      		mov r24,r11
 1403 05c6 0E94 0000 		call setPin
 1404               	.LVL172:
 1405 05ca 00C0      		rjmp .L134
 1406               	.LVL173:
 1407               	.L131:
 416:AdDemo.c      ****       setPin((stepper).motor_port_1,(stepper).motor_pin_1);
 1408               		.loc 2 416 0
 1409 05cc 0E94 0000 		call setPin
 1410               	.LVL174:
 417:AdDemo.c      ****       clearPin((stepper).motor_port_2,(stepper).motor_pin_2);
 1411               		.loc 2 417 0
 1412 05d0 B801      		movw r22,r16
 1413 05d2 8B2D      		mov r24,r11
 1414 05d4 0E94 0000 		call clearPin
 1415               	.LVL175:
 1416               	.L134:
 418:AdDemo.c      ****       clearPin((stepper).motor_port_3,(stepper).motor_pin_3);
 1417               		.loc 2 418 0
 1418 05d8 B601      		movw r22,r12
 1419 05da 892D      		mov r24,r9
 1420 05dc 0E94 0000 		call clearPin
GAS LISTING /tmp/ccPqDIXf.s 			page 43


 1421               	.LVL176:
 419:AdDemo.c      ****       setPin((stepper).motor_port_4,(stepper).motor_pin_4);
 1422               		.loc 2 419 0
 1423 05e0 B701      		movw r22,r14
 1424 05e2 8A2D      		mov r24,r10
 1425               	.L133:
 1426               	/* epilogue start */
 1427               		.loc 2 423 0
 1428 05e4 DF91      		pop r29
 1429 05e6 CF91      		pop r28
 1430 05e8 1F91      		pop r17
 1431 05ea 0F91      		pop r16
 1432               	.LVL177:
 1433 05ec FF90      		pop r15
 1434 05ee EF90      		pop r14
 1435               	.LVL178:
 1436 05f0 DF90      		pop r13
 1437 05f2 CF90      		pop r12
 1438               	.LVL179:
 1439 05f4 BF90      		pop r11
 1440               	.LVL180:
 1441 05f6 AF90      		pop r10
 1442               	.LVL181:
 1443 05f8 9F90      		pop r9
 1444               	.LVL182:
 419:AdDemo.c      ****       setPin((stepper).motor_port_4,(stepper).motor_pin_4);
 1445               		.loc 2 419 0
 1446 05fa 0C94 0000 		jmp setPin
 1447               	.LVL183:
 1448               	.L119:
 1449               	/* epilogue start */
 1450               		.loc 2 423 0
 1451 05fe DF91      		pop r29
 1452 0600 CF91      		pop r28
 1453 0602 1F91      		pop r17
 1454 0604 0F91      		pop r16
 1455               	.LVL184:
 1456 0606 FF90      		pop r15
 1457 0608 EF90      		pop r14
 1458               	.LVL185:
 1459 060a DF90      		pop r13
 1460 060c CF90      		pop r12
 1461               	.LVL186:
 1462 060e BF90      		pop r11
 1463               	.LVL187:
 1464 0610 AF90      		pop r10
 1465               	.LVL188:
 1466 0612 9F90      		pop r9
 1467               	.LVL189:
 1468 0614 0895      		ret
 1469               	.LFE27:
 1470               		.size	stepMotor, .-stepMotor
 1471               	.global	step
 1472               		.type	step, @function
 1473               	step:
 1474               	.LFB28:
 424:AdDemo.c      **** 
GAS LISTING /tmp/ccPqDIXf.s 			page 44


 425:AdDemo.c      **** // Move (*stepper). This function calls millis() and stepMotor()
 426:AdDemo.c      **** void step(struct Stepper *stepper, int steps_to_move){
 1475               		.loc 2 426 0
 1476 0616 7F92      		push r7
 1477               	.LCFI39:
 1478 0618 8F92      		push r8
 1479               	.LCFI40:
 1480 061a 9F92      		push r9
 1481               	.LCFI41:
 1482 061c AF92      		push r10
 1483               	.LCFI42:
 1484 061e BF92      		push r11
 1485               	.LCFI43:
 1486 0620 CF92      		push r12
 1487               	.LCFI44:
 1488 0622 DF92      		push r13
 1489               	.LCFI45:
 1490 0624 EF92      		push r14
 1491               	.LCFI46:
 1492 0626 FF92      		push r15
 1493               	.LCFI47:
 1494 0628 0F93      		push r16
 1495               	.LCFI48:
 1496 062a 1F93      		push r17
 1497               	.LCFI49:
 1498 062c CF93      		push r28
 1499               	.LCFI50:
 1500 062e DF93      		push r29
 1501               	.LCFI51:
 1502               	/* prologue: function */
 1503               	/* frame size = 0 */
 1504               	/* stack size = 13 */
 1505               	.L__stack_usage = 13
 1506 0630 EC01      		movw r28,r24
 427:AdDemo.c      **** 	int steps_left = 0;
 428:AdDemo.c      **** 
 429:AdDemo.c      **** 	if (steps_to_move > 1) {
 1507               		.loc 2 429 0
 1508 0632 6230      		cpi r22,2
 1509 0634 7105      		cpc r23,__zero_reg__
 1510 0636 04F0      		brlt .L140
 430:AdDemo.c      **** 		steps_left = steps_to_move; // how many steps to take
 431:AdDemo.c      **** 		(*stepper).direction = 1;// determine direction
 1511               		.loc 2 431 0
 1512 0638 81E0      		ldi r24,lo8(1)
 1513 063a 90E0      		ldi r25,0
 1514 063c 8A83      		std Y+2,r24
 1515 063e 9B83      		std Y+3,r25
 1516 0640 5B01      		movw r10,r22
 1517 0642 00C0      		rjmp .L156
 1518               	.L140:
 432:AdDemo.c      **** 	} 
 433:AdDemo.c      ****     else {
 434:AdDemo.c      **** 		steps_left = -steps_to_move;
 1519               		.loc 2 434 0
 1520 0644 AA24      		clr r10
 1521 0646 BB24      		clr r11
GAS LISTING /tmp/ccPqDIXf.s 			page 45


 1522 0648 A61A      		sub r10,r22
 1523 064a B70A      		sbc r11,r23
 435:AdDemo.c      **** 		(*stepper).direction = 0;
 1524               		.loc 2 435 0
 1525 064c 1A82      		std Y+2,__zero_reg__
 1526 064e 1B82      		std Y+3,__zero_reg__
 1527 0650 00C0      		rjmp .L156
 1528               	.L151:
 436:AdDemo.c      **** 	}
 437:AdDemo.c      **** 	// decrease the number of steps, moving on step each time:
 438:AdDemo.c      **** 	while(steps_left >0) {
 439:AdDemo.c      **** 		// move only if the appropriate delay has passed:
 440:AdDemo.c      **** 		if (millis() - (*stepper).last_step_time >= (*stepper).step_delay){
 1529               		.loc 2 440 0
 1530 0652 C8A0      		ldd r12,Y+32
 1531 0654 D9A0      		ldd r13,Y+33
 1532 0656 EAA0      		ldd r14,Y+34
 1533 0658 FBA0      		ldd r15,Y+35
 1534 065a 0E81      		ldd r16,Y+6
 1535 065c 1F81      		ldd r17,Y+7
 1536 065e 2885      		ldd r18,Y+8
 1537 0660 3985      		ldd r19,Y+9
 1538               	.L143:
 1539               	.LBB66:
 1540               	.LBB67:
  92:AdDemo.c      **** 	return elapsedMillis;
 1541               		.loc 2 92 0
 1542 0662 4091 0000 		lds r20,elapsedMillis
 1543 0666 5091 0000 		lds r21,elapsedMillis+1
 1544 066a 6091 0000 		lds r22,elapsedMillis+2
 1545 066e 7091 0000 		lds r23,elapsedMillis+3
 1546               	.LBE67:
 1547               	.LBE66:
 1548               		.loc 2 440 0
 1549 0672 4C19      		sub r20,r12
 1550 0674 5D09      		sbc r21,r13
 1551 0676 6E09      		sbc r22,r14
 1552 0678 7F09      		sbc r23,r15
 1553 067a 4017      		cp r20,r16
 1554 067c 5107      		cpc r21,r17
 1555 067e 6207      		cpc r22,r18
 1556 0680 7307      		cpc r23,r19
 1557 0682 00F0      		brlo .L143
 1558               	.LBB68:
 1559               	.LBB69:
  92:AdDemo.c      **** 	return elapsedMillis;
 1560               		.loc 2 92 0
 1561 0684 4091 0000 		lds r20,elapsedMillis
 1562 0688 5091 0000 		lds r21,elapsedMillis+1
 1563 068c 6091 0000 		lds r22,elapsedMillis+2
 1564 0690 7091 0000 		lds r23,elapsedMillis+3
 1565               	.LBE69:
 1566               	.LBE68:
 441:AdDemo.c      **** 			// get the timeStamp of when you stepped:
 442:AdDemo.c      **** 			(*stepper).last_step_time = millis();
 1567               		.loc 2 442 0
 1568 0694 48A3      		std Y+32,r20
GAS LISTING /tmp/ccPqDIXf.s 			page 46


 1569 0696 59A3      		std Y+33,r21
 1570 0698 6AA3      		std Y+34,r22
 1571 069a 7BA3      		std Y+35,r23
 443:AdDemo.c      **** 			// increase or decrease the step number, depending on direction
 444:AdDemo.c      **** 			if ((*stepper).direction == 1) {
 1572               		.loc 2 444 0
 1573 069c 2A81      		ldd r18,Y+2
 1574 069e 3B81      		ldd r19,Y+3
 1575 06a0 8E85      		ldd r24,Y+14
 1576 06a2 9F85      		ldd r25,Y+15
 1577 06a4 E881      		ld r30,Y
 1578 06a6 F981      		ldd r31,Y+1
 1579 06a8 2130      		cpi r18,1
 1580 06aa 3105      		cpc r19,__zero_reg__
 1581 06ac 01F4      		brne .L144
 445:AdDemo.c      **** 				(*stepper).step_number++;
 1582               		.loc 2 445 0
 1583 06ae 0196      		adiw r24,1
 1584 06b0 8E87      		std Y+14,r24
 1585 06b2 9F87      		std Y+15,r25
 446:AdDemo.c      **** 				pose[(*stepper).motorNumber -1] ++;
 1586               		.loc 2 446 0
 1587 06b4 EE0F      		lsl r30
 1588 06b6 FF1F      		rol r31
 1589 06b8 E050      		subi r30,lo8(-(pose-2))
 1590 06ba F040      		sbci r31,hi8(-(pose-2))
 1591 06bc 2081      		ld r18,Z
 1592 06be 3181      		ldd r19,Z+1
 1593 06c0 2F5F      		subi r18,-1
 1594 06c2 3F4F      		sbci r19,-1
 1595 06c4 2083      		st Z,r18
 1596 06c6 3183      		std Z+1,r19
 447:AdDemo.c      **** 				if ((*stepper).step_number == (*stepper).number_of_steps) {
 1597               		.loc 2 447 0
 1598 06c8 2A85      		ldd r18,Y+10
 1599 06ca 3B85      		ldd r19,Y+11
 1600 06cc 8217      		cp r24,r18
 1601 06ce 9307      		cpc r25,r19
 1602 06d0 01F4      		brne .L145
 448:AdDemo.c      **** 					(*stepper).step_number = 0;
 1603               		.loc 2 448 0
 1604 06d2 1E86      		std Y+14,__zero_reg__
 1605 06d4 1F86      		std Y+15,__zero_reg__
 1606 06d6 00C0      		rjmp .L145
 1607               	.L144:
 449:AdDemo.c      **** 				}
 450:AdDemo.c      **** 			}
 451:AdDemo.c      **** 			else { 
 452:AdDemo.c      **** 				if ((*stepper).step_number == 0) {
 1608               		.loc 2 452 0
 1609 06d8 892B      		or r24,r25
 1610 06da 01F4      		brne .L146
 453:AdDemo.c      **** 				(*stepper).step_number = (*stepper).number_of_steps;
 1611               		.loc 2 453 0
 1612 06dc 8A85      		ldd r24,Y+10
 1613 06de 9B85      		ldd r25,Y+11
 1614 06e0 8E87      		std Y+14,r24
GAS LISTING /tmp/ccPqDIXf.s 			page 47


 1615 06e2 9F87      		std Y+15,r25
 1616               	.L146:
 454:AdDemo.c      **** 				}
 455:AdDemo.c      **** 			(*stepper).step_number--;
 1617               		.loc 2 455 0
 1618 06e4 8E85      		ldd r24,Y+14
 1619 06e6 9F85      		ldd r25,Y+15
 1620 06e8 0197      		sbiw r24,1
 1621 06ea 8E87      		std Y+14,r24
 1622 06ec 9F87      		std Y+15,r25
 456:AdDemo.c      **** 			pose[(*stepper).motorNumber -1] --;
 1623               		.loc 2 456 0
 1624 06ee EE0F      		lsl r30
 1625 06f0 FF1F      		rol r31
 1626 06f2 E050      		subi r30,lo8(-(pose-2))
 1627 06f4 F040      		sbci r31,hi8(-(pose-2))
 1628 06f6 8081      		ld r24,Z
 1629 06f8 9181      		ldd r25,Z+1
 1630 06fa 0197      		sbiw r24,1
 1631 06fc 8083      		st Z,r24
 1632 06fe 9183      		std Z+1,r25
 1633               	.L145:
 457:AdDemo.c      **** 			}
 458:AdDemo.c      **** 		  // decrease the steps left:
 459:AdDemo.c      **** 		  steps_left--;
 1634               		.loc 2 459 0
 1635 0700 81E0      		ldi r24,1
 1636 0702 A81A      		sub r10,r24
 1637 0704 B108      		sbc r11,__zero_reg__
 460:AdDemo.c      **** 		  
 461:AdDemo.c      **** 		  // step the motor to step number 0, 1, 2, or 3:
 462:AdDemo.c      **** 		  stepMotor((*stepper),(*stepper).step_number % 4);
 1638               		.loc 2 462 0
 1639 0706 8E85      		ldd r24,Y+14
 1640 0708 9F85      		ldd r25,Y+15
 1641 070a B401      		movw r22,r8
 1642 070c 0E94 0000 		call __divmodhi4
 1643 0710 9F93      		push r25
 1644               	.LCFI52:
 1645 0712 8F93      		push r24
 1646               	.LCFI53:
 1647 0714 8DB7      		in r24,__SP_L__
 1648 0716 9EB7      		in r25,__SP_H__
 1649 0718 8497      		sbiw r24,36
 1650 071a 8DBF      		out __SP_L__,r24
 1651 071c 9EBF      		out __SP_H__,r25
 1652               	.LCFI54:
 1653 071e ADB7      		in r26,__SP_L__
 1654 0720 BEB7      		in r27,__SP_H__
 1655 0722 1196      		adiw r26,1
 1656 0724 FE01      		movw r30,r28
 1657 0726 872D      		mov r24,r7
 1658               		0:
 1659 0728 0190      		ld r0,Z+
 1660 072a 0D92      		st X+,r0
 1661 072c 8A95      		dec r24
 1662 072e 01F4      		brne 0b
GAS LISTING /tmp/ccPqDIXf.s 			page 48


 1663 0730 0E94 0000 		call stepMotor
 463:AdDemo.c      **** 		  
 464:AdDemo.c      **** 		  // Special Case: Move Gripper if Elbow moves, because of mechanical design limitations.
 465:AdDemo.c      **** 		  if((*stepper).motorNumber==3){
 1664               		.loc 2 465 0
 1665 0734 8DB7      		in r24,__SP_L__
 1666 0736 9EB7      		in r25,__SP_H__
 1667 0738 8696      		adiw r24,38
 1668 073a 8DBF      		out __SP_L__,r24
 1669 073c 9EBF      		out __SP_H__,r25
 1670               	.LCFI55:
 1671 073e 8881      		ld r24,Y
 1672 0740 9981      		ldd r25,Y+1
 1673 0742 0397      		sbiw r24,3
 1674 0744 01F0      		breq .+2
 1675 0746 00C0      		rjmp .L155
 466:AdDemo.c      **** 			  
 467:AdDemo.c      **** 				Gripper.direction = -1*(*stepper).direction;
 1676               		.loc 2 467 0
 1677 0748 2A81      		ldd r18,Y+2
 1678 074a 3B81      		ldd r19,Y+3
 1679 074c 3195      		neg r19
 1680 074e 2195      		neg r18
 1681 0750 3109      		sbc r19,__zero_reg__
 1682 0752 2093 0000 		sts Gripper+2,r18
 1683 0756 3093 0000 		sts Gripper+2+1,r19
 1684 075a 8091 0000 		lds r24,Gripper+14
 1685 075e 9091 0000 		lds r25,Gripper+14+1
 468:AdDemo.c      **** 				
 469:AdDemo.c      **** 				if (Gripper.direction == 1) {
 1686               		.loc 2 469 0
 1687 0762 2130      		cpi r18,1
 1688 0764 3105      		cpc r19,__zero_reg__
 1689 0766 01F4      		brne .L148
 470:AdDemo.c      **** 					Gripper.step_number++;
 1690               		.loc 2 470 0
 1691 0768 0196      		adiw r24,1
 1692 076a 8093 0000 		sts Gripper+14,r24
 1693 076e 9093 0000 		sts Gripper+14+1,r25
 471:AdDemo.c      **** 					if (Gripper.step_number == Gripper.number_of_steps) {
 1694               		.loc 2 471 0
 1695 0772 2091 0000 		lds r18,Gripper+10
 1696 0776 3091 0000 		lds r19,Gripper+10+1
 1697 077a 8217      		cp r24,r18
 1698 077c 9307      		cpc r25,r19
 1699 077e 01F4      		brne .L149
 472:AdDemo.c      **** 						Gripper.step_number = 0;
 1700               		.loc 2 472 0
 1701 0780 1092 0000 		sts Gripper+14,__zero_reg__
 1702 0784 1092 0000 		sts Gripper+14+1,__zero_reg__
 1703 0788 00C0      		rjmp .L149
 1704               	.L148:
 473:AdDemo.c      **** 					}
 474:AdDemo.c      **** 				}
 475:AdDemo.c      **** 				else { 
 476:AdDemo.c      **** 					if (Gripper.step_number == 0) {
 1705               		.loc 2 476 0
GAS LISTING /tmp/ccPqDIXf.s 			page 49


 1706 078a 892B      		or r24,r25
 1707 078c 01F4      		brne .L150
 477:AdDemo.c      **** 						Gripper.step_number = Gripper.number_of_steps;
 1708               		.loc 2 477 0
 1709 078e 8091 0000 		lds r24,Gripper+10
 1710 0792 9091 0000 		lds r25,Gripper+10+1
 1711 0796 8093 0000 		sts Gripper+14,r24
 1712 079a 9093 0000 		sts Gripper+14+1,r25
 1713               	.L150:
 478:AdDemo.c      **** 					}
 479:AdDemo.c      **** 					Gripper.step_number--;
 1714               		.loc 2 479 0
 1715 079e 8091 0000 		lds r24,Gripper+14
 1716 07a2 9091 0000 		lds r25,Gripper+14+1
 1717 07a6 0197      		sbiw r24,1
 1718 07a8 8093 0000 		sts Gripper+14,r24
 1719 07ac 9093 0000 		sts Gripper+14+1,r25
 1720               	.L149:
 480:AdDemo.c      **** 				}
 481:AdDemo.c      **** 				
 482:AdDemo.c      **** 				stepMotor(Gripper,Gripper.step_number % 4);
 1721               		.loc 2 482 0
 1722 07b0 8091 0000 		lds r24,Gripper+14
 1723 07b4 9091 0000 		lds r25,Gripper+14+1
 1724 07b8 B401      		movw r22,r8
 1725 07ba 0E94 0000 		call __divmodhi4
 1726 07be 9F93      		push r25
 1727               	.LCFI56:
 1728 07c0 8F93      		push r24
 1729               	.LCFI57:
 1730 07c2 8DB7      		in r24,__SP_L__
 1731 07c4 9EB7      		in r25,__SP_H__
 1732 07c6 8497      		sbiw r24,36
 1733 07c8 8DBF      		out __SP_L__,r24
 1734 07ca 9EBF      		out __SP_H__,r25
 1735               	.LCFI58:
 1736 07cc ADB7      		in r26,__SP_L__
 1737 07ce BEB7      		in r27,__SP_H__
 1738 07d0 1196      		adiw r26,1
 1739 07d2 E0E0      		ldi r30,lo8(Gripper)
 1740 07d4 F0E0      		ldi r31,hi8(Gripper)
 1741 07d6 872D      		mov r24,r7
 1742               		0:
 1743 07d8 0190      		ld r0,Z+
 1744 07da 0D92      		st X+,r0
 1745 07dc 8A95      		dec r24
 1746 07de 01F4      		brne 0b
 1747 07e0 0E94 0000 		call stepMotor
 1748 07e4 8DB7      		in r24,__SP_L__
 1749 07e6 9EB7      		in r25,__SP_H__
 1750 07e8 8696      		adiw r24,38
 1751 07ea 8DBF      		out __SP_L__,r24
 1752 07ec 9EBF      		out __SP_H__,r25
 1753               	.LCFI59:
 1754 07ee 00C0      		rjmp .L155
 1755               	.L156:
 462:AdDemo.c      **** 		  stepMotor((*stepper),(*stepper).step_number % 4);
GAS LISTING /tmp/ccPqDIXf.s 			page 50


 1756               		.loc 2 462 0 discriminator 1
 1757 07f0 84E0      		ldi r24,lo8(4)
 1758 07f2 882E      		mov r8,r24
 1759 07f4 912C      		mov r9,__zero_reg__
 1760 07f6 94E2      		ldi r25,lo8(36)
 1761 07f8 792E      		mov r7,r25
 1762               	.L155:
 438:AdDemo.c      **** 	while(steps_left >0) {
 1763               		.loc 2 438 0 discriminator 1
 1764 07fa 1A14      		cp __zero_reg__,r10
 1765 07fc 1B04      		cpc __zero_reg__,r11
 1766 07fe 04F4      		brge .+2
 1767 0800 00C0      		rjmp .L151
 1768               	/* epilogue start */
 483:AdDemo.c      **** 			}
 484:AdDemo.c      **** 		}
 485:AdDemo.c      ****   	}
 486:AdDemo.c      **** }
 1769               		.loc 2 486 0
 1770 0802 DF91      		pop r29
 1771 0804 CF91      		pop r28
 1772 0806 1F91      		pop r17
 1773 0808 0F91      		pop r16
 1774 080a FF90      		pop r15
 1775 080c EF90      		pop r14
 1776 080e DF90      		pop r13
 1777 0810 CF90      		pop r12
 1778 0812 BF90      		pop r11
 1779 0814 AF90      		pop r10
 1780 0816 9F90      		pop r9
 1781 0818 8F90      		pop r8
 1782 081a 7F90      		pop r7
 1783 081c 0895      		ret
 1784               	.LFE28:
 1785               		.size	step, .-step
 1786               	.global	stepOne
 1787               		.type	stepOne, @function
 1788               	stepOne:
 1789               	.LFB29:
 487:AdDemo.c      **** 
 488:AdDemo.c      **** // Step Once in a given direction. 
 489:AdDemo.c      **** // *stepper is which motor to move
 490:AdDemo.c      **** // myDir is what direction to move the motor: 1 is forwards, 0 is backwards
 491:AdDemo.c      **** void stepOne(struct Stepper *stepper, int myDir){
 1790               		.loc 2 491 0
 1791 081e CF93      		push r28
 1792               	.LCFI60:
 1793 0820 DF93      		push r29
 1794               	.LCFI61:
 1795               	/* prologue: function */
 1796               	/* frame size = 0 */
 1797               	/* stack size = 2 */
 1798               	.L__stack_usage = 2
 1799 0822 EC01      		movw r28,r24
 492:AdDemo.c      **** 	(*stepper).direction = myDir;
 1800               		.loc 2 492 0
 1801 0824 6A83      		std Y+2,r22
GAS LISTING /tmp/ccPqDIXf.s 			page 51


 1802 0826 7B83      		std Y+3,r23
 1803 0828 8E85      		ldd r24,Y+14
 1804 082a 9F85      		ldd r25,Y+15
 493:AdDemo.c      **** 	
 494:AdDemo.c      **** 	// increase or decrease the step number, depending on direction, keeping up odometry
 495:AdDemo.c      **** 	if ((*stepper).direction == 1) {
 1805               		.loc 2 495 0
 1806 082c 6130      		cpi r22,1
 1807 082e 7105      		cpc r23,__zero_reg__
 1808 0830 01F4      		brne .L158
 496:AdDemo.c      **** 		(*stepper).step_number++;
 1809               		.loc 2 496 0
 1810 0832 0196      		adiw r24,1
 1811 0834 8E87      		std Y+14,r24
 1812 0836 9F87      		std Y+15,r25
 497:AdDemo.c      **** 		pose[(*stepper).motorNumber -1] ++;
 1813               		.loc 2 497 0
 1814 0838 E881      		ld r30,Y
 1815 083a F981      		ldd r31,Y+1
 1816 083c EE0F      		lsl r30
 1817 083e FF1F      		rol r31
 1818 0840 E050      		subi r30,lo8(-(pose-2))
 1819 0842 F040      		sbci r31,hi8(-(pose-2))
 1820 0844 2081      		ld r18,Z
 1821 0846 3181      		ldd r19,Z+1
 1822 0848 2F5F      		subi r18,-1
 1823 084a 3F4F      		sbci r19,-1
 1824 084c 2083      		st Z,r18
 1825 084e 3183      		std Z+1,r19
 498:AdDemo.c      **** 		if ((*stepper).step_number == (*stepper).number_of_steps) {
 1826               		.loc 2 498 0
 1827 0850 2A85      		ldd r18,Y+10
 1828 0852 3B85      		ldd r19,Y+11
 1829 0854 8217      		cp r24,r18
 1830 0856 9307      		cpc r25,r19
 1831 0858 01F4      		brne .L160
 499:AdDemo.c      **** 			(*stepper).step_number = 0;
 1832               		.loc 2 499 0
 1833 085a 1E86      		std Y+14,__zero_reg__
 1834 085c 1F86      		std Y+15,__zero_reg__
 1835 085e 00C0      		rjmp .L160
 1836               	.L158:
 500:AdDemo.c      **** 		}
 501:AdDemo.c      **** 	}
 502:AdDemo.c      **** 	else if((*stepper).direction == 0){
 1837               		.loc 2 502 0
 1838 0860 672B      		or r22,r23
 1839 0862 01F0      		breq .L160
 503:AdDemo.c      **** 		
 504:AdDemo.c      **** 	} else { 
 505:AdDemo.c      **** 		if ((*stepper).step_number == 0) {
 1840               		.loc 2 505 0
 1841 0864 892B      		or r24,r25
 1842 0866 01F4      		brne .L162
 506:AdDemo.c      **** 			(*stepper).step_number = (*stepper).number_of_steps;
 1843               		.loc 2 506 0
 1844 0868 8A85      		ldd r24,Y+10
GAS LISTING /tmp/ccPqDIXf.s 			page 52


 1845 086a 9B85      		ldd r25,Y+11
 1846 086c 8E87      		std Y+14,r24
 1847 086e 9F87      		std Y+15,r25
 1848               	.L162:
 507:AdDemo.c      **** 		}
 508:AdDemo.c      **** 		(*stepper).step_number--;
 1849               		.loc 2 508 0
 1850 0870 8E85      		ldd r24,Y+14
 1851 0872 9F85      		ldd r25,Y+15
 1852 0874 0197      		sbiw r24,1
 1853 0876 8E87      		std Y+14,r24
 1854 0878 9F87      		std Y+15,r25
 509:AdDemo.c      **** 		pose[(*stepper).motorNumber -1] --;
 1855               		.loc 2 509 0
 1856 087a E881      		ld r30,Y
 1857 087c F981      		ldd r31,Y+1
 1858 087e EE0F      		lsl r30
 1859 0880 FF1F      		rol r31
 1860 0882 E050      		subi r30,lo8(-(pose-2))
 1861 0884 F040      		sbci r31,hi8(-(pose-2))
 1862 0886 8081      		ld r24,Z
 1863 0888 9181      		ldd r25,Z+1
 1864 088a 0197      		sbiw r24,1
 1865 088c 8083      		st Z,r24
 1866 088e 9183      		std Z+1,r25
 1867               	.L160:
 510:AdDemo.c      **** 	}
 511:AdDemo.c      ****   // step the motor to step number 0, 1, 2, or 3:
 512:AdDemo.c      ****   stepMotor((*stepper),(*stepper).step_number % 4);
 1868               		.loc 2 512 0
 1869 0890 8E85      		ldd r24,Y+14
 1870 0892 9F85      		ldd r25,Y+15
 1871 0894 64E0      		ldi r22,lo8(4)
 1872 0896 70E0      		ldi r23,0
 1873 0898 0E94 0000 		call __divmodhi4
 1874 089c 9F93      		push r25
 1875               	.LCFI62:
 1876 089e 8F93      		push r24
 1877               	.LCFI63:
 1878 08a0 8DB7      		in r24,__SP_L__
 1879 08a2 9EB7      		in r25,__SP_H__
 1880 08a4 8497      		sbiw r24,36
 1881 08a6 8DBF      		out __SP_L__,r24
 1882 08a8 9EBF      		out __SP_H__,r25
 1883               	.LCFI64:
 1884 08aa ADB7      		in r26,__SP_L__
 1885 08ac BEB7      		in r27,__SP_H__
 1886 08ae 1196      		adiw r26,1
 1887 08b0 84E2      		ldi r24,lo8(36)
 1888 08b2 FE01      		movw r30,r28
 1889               		0:
 1890 08b4 0190      		ld r0,Z+
 1891 08b6 0D92      		st X+,r0
 1892 08b8 8A95      		dec r24
 1893 08ba 01F4      		brne 0b
 1894 08bc 0E94 0000 		call stepMotor
 513:AdDemo.c      ****   
GAS LISTING /tmp/ccPqDIXf.s 			page 53


 514:AdDemo.c      ****   // Special Case: Move Gripper if Elbow moves, because of mechanical design limitations.
 515:AdDemo.c      ****   if((*stepper).motorNumber==3){
 1895               		.loc 2 515 0
 1896 08c0 8DB7      		in r24,__SP_L__
 1897 08c2 9EB7      		in r25,__SP_H__
 1898 08c4 8696      		adiw r24,38
 1899 08c6 8DBF      		out __SP_L__,r24
 1900 08c8 9EBF      		out __SP_H__,r25
 1901               	.LCFI65:
 1902 08ca 8881      		ld r24,Y
 1903 08cc 9981      		ldd r25,Y+1
 1904 08ce 0397      		sbiw r24,3
 1905 08d0 01F0      		breq .+2
 1906 08d2 00C0      		rjmp .L157
 516:AdDemo.c      **** 	  
 517:AdDemo.c      **** 		Gripper.direction = -1*(*stepper).direction;
 1907               		.loc 2 517 0
 1908 08d4 2A81      		ldd r18,Y+2
 1909 08d6 3B81      		ldd r19,Y+3
 1910 08d8 3195      		neg r19
 1911 08da 2195      		neg r18
 1912 08dc 3109      		sbc r19,__zero_reg__
 1913 08de 2093 0000 		sts Gripper+2,r18
 1914 08e2 3093 0000 		sts Gripper+2+1,r19
 1915 08e6 8091 0000 		lds r24,Gripper+14
 1916 08ea 9091 0000 		lds r25,Gripper+14+1
 518:AdDemo.c      **** 		
 519:AdDemo.c      **** 		if (Gripper.direction == 1) {
 1917               		.loc 2 519 0
 1918 08ee 2130      		cpi r18,1
 1919 08f0 3105      		cpc r19,__zero_reg__
 1920 08f2 01F4      		brne .L164
 520:AdDemo.c      **** 			Gripper.step_number++;
 1921               		.loc 2 520 0
 1922 08f4 0196      		adiw r24,1
 1923 08f6 8093 0000 		sts Gripper+14,r24
 1924 08fa 9093 0000 		sts Gripper+14+1,r25
 521:AdDemo.c      **** 			if (Gripper.step_number == Gripper.number_of_steps) {
 1925               		.loc 2 521 0
 1926 08fe 2091 0000 		lds r18,Gripper+10
 1927 0902 3091 0000 		lds r19,Gripper+10+1
 1928 0906 8217      		cp r24,r18
 1929 0908 9307      		cpc r25,r19
 1930 090a 01F4      		brne .L166
 522:AdDemo.c      **** 				Gripper.step_number = 0;
 1931               		.loc 2 522 0
 1932 090c 1092 0000 		sts Gripper+14,__zero_reg__
 1933 0910 1092 0000 		sts Gripper+14+1,__zero_reg__
 1934 0914 00C0      		rjmp .L166
 1935               	.L164:
 523:AdDemo.c      **** 			}
 524:AdDemo.c      **** 		}else if((*stepper).direction == 0){
 1936               		.loc 2 524 0
 1937 0916 2A81      		ldd r18,Y+2
 1938 0918 3B81      		ldd r19,Y+3
 1939 091a 232B      		or r18,r19
 1940 091c 01F0      		breq .L166
GAS LISTING /tmp/ccPqDIXf.s 			page 54


 525:AdDemo.c      **** 		
 526:AdDemo.c      **** 		}else { 
 527:AdDemo.c      **** 			if (Gripper.step_number == 0) {
 1941               		.loc 2 527 0
 1942 091e 892B      		or r24,r25
 1943 0920 01F4      		brne .L168
 528:AdDemo.c      **** 				Gripper.step_number = Gripper.number_of_steps;
 1944               		.loc 2 528 0
 1945 0922 8091 0000 		lds r24,Gripper+10
 1946 0926 9091 0000 		lds r25,Gripper+10+1
 1947 092a 8093 0000 		sts Gripper+14,r24
 1948 092e 9093 0000 		sts Gripper+14+1,r25
 1949               	.L168:
 529:AdDemo.c      **** 			}
 530:AdDemo.c      **** 			Gripper.step_number--;
 1950               		.loc 2 530 0
 1951 0932 8091 0000 		lds r24,Gripper+14
 1952 0936 9091 0000 		lds r25,Gripper+14+1
 1953 093a 0197      		sbiw r24,1
 1954 093c 8093 0000 		sts Gripper+14,r24
 1955 0940 9093 0000 		sts Gripper+14+1,r25
 1956               	.L166:
 531:AdDemo.c      **** 		}
 532:AdDemo.c      **** 		
 533:AdDemo.c      **** 		stepMotor(Gripper,Gripper.step_number % 4);
 1957               		.loc 2 533 0
 1958 0944 8091 0000 		lds r24,Gripper+14
 1959 0948 9091 0000 		lds r25,Gripper+14+1
 1960 094c 64E0      		ldi r22,lo8(4)
 1961 094e 70E0      		ldi r23,0
 1962 0950 0E94 0000 		call __divmodhi4
 1963 0954 9F93      		push r25
 1964               	.LCFI66:
 1965 0956 8F93      		push r24
 1966               	.LCFI67:
 1967 0958 8DB7      		in r24,__SP_L__
 1968 095a 9EB7      		in r25,__SP_H__
 1969 095c 8497      		sbiw r24,36
 1970 095e 8DBF      		out __SP_L__,r24
 1971 0960 9EBF      		out __SP_H__,r25
 1972               	.LCFI68:
 1973 0962 ADB7      		in r26,__SP_L__
 1974 0964 BEB7      		in r27,__SP_H__
 1975 0966 1196      		adiw r26,1
 1976 0968 84E2      		ldi r24,lo8(36)
 1977 096a E0E0      		ldi r30,lo8(Gripper)
 1978 096c F0E0      		ldi r31,hi8(Gripper)
 1979               		0:
 1980 096e 0190      		ld r0,Z+
 1981 0970 0D92      		st X+,r0
 1982 0972 8A95      		dec r24
 1983 0974 01F4      		brne 0b
 1984 0976 0E94 0000 		call stepMotor
 1985 097a 8DB7      		in r24,__SP_L__
 1986 097c 9EB7      		in r25,__SP_H__
 1987 097e 8696      		adiw r24,38
 1988 0980 8DBF      		out __SP_L__,r24
GAS LISTING /tmp/ccPqDIXf.s 			page 55


 1989 0982 9EBF      		out __SP_H__,r25
 1990               	.LCFI69:
 1991               	.L157:
 1992               	/* epilogue start */
 534:AdDemo.c      **** 	}
 535:AdDemo.c      **** }
 1993               		.loc 2 535 0
 1994 0984 DF91      		pop r29
 1995 0986 CF91      		pop r28
 1996 0988 0895      		ret
 1997               	.LFE29:
 1998               		.size	stepOne, .-stepOne
 1999               	.global	changeGoal
 2000               		.type	changeGoal, @function
 2001               	changeGoal:
 2002               	.LFB30:
 536:AdDemo.c      **** 
 537:AdDemo.c      **** void changeGoal(int val0, int val1, int val2, int val3, int val4, int val5){
 2003               		.loc 2 537 0
 2004               	.LVL190:
 2005 098a EF92      		push r14
 2006               	.LCFI70:
 2007 098c FF92      		push r15
 2008               	.LCFI71:
 2009 098e 0F93      		push r16
 2010               	.LCFI72:
 2011 0990 1F93      		push r17
 2012               	.LCFI73:
 2013               	/* prologue: function */
 2014               	/* frame size = 0 */
 2015               	/* stack size = 4 */
 2016               	.L__stack_usage = 4
 538:AdDemo.c      **** 	goal[0] = val0;
 2017               		.loc 2 538 0
 2018 0992 8093 0000 		sts goal,r24
 2019 0996 9093 0000 		sts goal+1,r25
 539:AdDemo.c      **** 	goal[1] = val1;
 2020               		.loc 2 539 0
 2021 099a 6093 0000 		sts goal+2,r22
 2022 099e 7093 0000 		sts goal+2+1,r23
 540:AdDemo.c      **** 	goal[2] = val2;
 2023               		.loc 2 540 0
 2024 09a2 4093 0000 		sts goal+4,r20
 2025 09a6 5093 0000 		sts goal+4+1,r21
 541:AdDemo.c      **** 	goal[3] = val3;
 2026               		.loc 2 541 0
 2027 09aa 2093 0000 		sts goal+6,r18
 2028 09ae 3093 0000 		sts goal+6+1,r19
 542:AdDemo.c      **** 	goal[4] = val4;
 2029               		.loc 2 542 0
 2030 09b2 0093 0000 		sts goal+8,r16
 2031 09b6 1093 0000 		sts goal+8+1,r17
 543:AdDemo.c      **** 	goal[5] = val5;
 2032               		.loc 2 543 0
 2033 09ba E092 0000 		sts goal+10,r14
 2034 09be F092 0000 		sts goal+10+1,r15
 2035               	/* epilogue start */
GAS LISTING /tmp/ccPqDIXf.s 			page 56


 544:AdDemo.c      **** }
 2036               		.loc 2 544 0
 2037 09c2 1F91      		pop r17
 2038 09c4 0F91      		pop r16
 2039               	.LVL191:
 2040 09c6 FF90      		pop r15
 2041 09c8 EF90      		pop r14
 2042               	.LVL192:
 2043 09ca 0895      		ret
 2044               	.LFE30:
 2045               		.size	changeGoal, .-changeGoal
 2046               	.global	__floatsisf
 2047               	.global	__divsf3
 2048               	.global	__mulsf3
 2049               	.global	__fixsfsi
 2050               	.global	moveToGoal
 2051               		.type	moveToGoal, @function
 2052               	moveToGoal:
 2053               	.LFB31:
 545:AdDemo.c      **** 
 546:AdDemo.c      **** void moveToGoal(void){
 2054               		.loc 2 546 0
 2055 09cc 2F92      		push r2
 2056               	.LCFI74:
 2057 09ce 3F92      		push r3
 2058               	.LCFI75:
 2059 09d0 4F92      		push r4
 2060               	.LCFI76:
 2061 09d2 5F92      		push r5
 2062               	.LCFI77:
 2063 09d4 6F92      		push r6
 2064               	.LCFI78:
 2065 09d6 7F92      		push r7
 2066               	.LCFI79:
 2067 09d8 8F92      		push r8
 2068               	.LCFI80:
 2069 09da 9F92      		push r9
 2070               	.LCFI81:
 2071 09dc AF92      		push r10
 2072               	.LCFI82:
 2073 09de BF92      		push r11
 2074               	.LCFI83:
 2075 09e0 CF92      		push r12
 2076               	.LCFI84:
 2077 09e2 DF92      		push r13
 2078               	.LCFI85:
 2079 09e4 EF92      		push r14
 2080               	.LCFI86:
 2081 09e6 FF92      		push r15
 2082               	.LCFI87:
 2083 09e8 0F93      		push r16
 2084               	.LCFI88:
 2085 09ea 1F93      		push r17
 2086               	.LCFI89:
 2087 09ec CF93      		push r28
 2088               	.LCFI90:
 2089 09ee DF93      		push r29
GAS LISTING /tmp/ccPqDIXf.s 			page 57


 2090               	.LCFI91:
 2091 09f0 CDB7      		in r28,__SP_L__
 2092 09f2 DEB7      		in r29,__SP_H__
 2093               	.LCFI92:
 2094 09f4 6697      		sbiw r28,22
 2095               	.LCFI93:
 2096 09f6 CDBF      		out __SP_L__,r28
 2097 09f8 DEBF      		out __SP_H__,r29
 2098               	/* prologue: function */
 2099               	/* frame size = 22 */
 2100               	/* stack size = 40 */
 2101               	.L__stack_usage = 40
 547:AdDemo.c      **** 	// Get Error Array
 548:AdDemo.c      **** 	int error[6] = {
 549:AdDemo.c      **** 					goal[0]-pose[0],
 2102               		.loc 2 549 0
 2103 09fa 6090 0000 		lds r6,goal
 2104 09fe 7090 0000 		lds r7,goal+1
 2105 0a02 8091 0000 		lds r24,pose
 2106 0a06 9091 0000 		lds r25,pose+1
 2107 0a0a 681A      		sub r6,r24
 2108 0a0c 790A      		sbc r7,r25
 548:AdDemo.c      **** 	int error[6] = {
 2109               		.loc 2 548 0
 2110 0a0e 6982      		std Y+1,r6
 2111 0a10 7A82      		std Y+2,r7
 550:AdDemo.c      **** 					goal[1]-pose[1],
 2112               		.loc 2 550 0
 2113 0a12 2091 0000 		lds r18,goal+2
 2114 0a16 3091 0000 		lds r19,goal+2+1
 2115 0a1a 8091 0000 		lds r24,pose+2
 2116 0a1e 9091 0000 		lds r25,pose+2+1
 2117 0a22 281B      		sub r18,r24
 2118 0a24 390B      		sbc r19,r25
 2119 0a26 2D87      		std Y+13,r18
 2120 0a28 3E87      		std Y+14,r19
 548:AdDemo.c      **** 	int error[6] = {
 2121               		.loc 2 548 0
 2122 0a2a 2B83      		std Y+3,r18
 2123 0a2c 3C83      		std Y+4,r19
 551:AdDemo.c      **** 					goal[2]-pose[2],
 2124               		.loc 2 551 0
 2125 0a2e 8091 0000 		lds r24,goal+4
 2126 0a32 9091 0000 		lds r25,goal+4+1
 2127 0a36 8F87      		std Y+15,r24
 2128 0a38 988B      		std Y+16,r25
 2129 0a3a 8091 0000 		lds r24,pose+4
 2130 0a3e 9091 0000 		lds r25,pose+4+1
 2131 0a42 AF85      		ldd r26,Y+15
 2132 0a44 B889      		ldd r27,Y+16
 2133 0a46 A81B      		sub r26,r24
 2134 0a48 B90B      		sbc r27,r25
 2135 0a4a AF87      		std Y+15,r26
 2136 0a4c B88B      		std Y+16,r27
 548:AdDemo.c      **** 	int error[6] = {
 2137               		.loc 2 548 0
 2138 0a4e AD83      		std Y+5,r26
GAS LISTING /tmp/ccPqDIXf.s 			page 58


 2139 0a50 BE83      		std Y+6,r27
 552:AdDemo.c      **** 					goal[3]-pose[3],
 2140               		.loc 2 552 0
 2141 0a52 2091 0000 		lds r18,goal+6
 2142 0a56 3091 0000 		lds r19,goal+6+1
 2143 0a5a 8091 0000 		lds r24,pose+6
 2144 0a5e 9091 0000 		lds r25,pose+6+1
 2145 0a62 281B      		sub r18,r24
 2146 0a64 390B      		sbc r19,r25
 2147 0a66 298B      		std Y+17,r18
 2148 0a68 3A8B      		std Y+18,r19
 548:AdDemo.c      **** 	int error[6] = {
 2149               		.loc 2 548 0
 2150 0a6a 2F83      		std Y+7,r18
 2151 0a6c 3887      		std Y+8,r19
 553:AdDemo.c      **** 					goal[4]-pose[4],
 2152               		.loc 2 553 0
 2153 0a6e 2090 0000 		lds r2,goal+8
 2154 0a72 3090 0000 		lds r3,goal+8+1
 2155 0a76 8091 0000 		lds r24,pose+8
 2156 0a7a 9091 0000 		lds r25,pose+8+1
 2157 0a7e 281A      		sub r2,r24
 2158 0a80 390A      		sbc r3,r25
 548:AdDemo.c      **** 	int error[6] = {
 2159               		.loc 2 548 0
 2160 0a82 2986      		std Y+9,r2
 2161 0a84 3A86      		std Y+10,r3
 554:AdDemo.c      **** 					goal[5]-pose[5],					
 2162               		.loc 2 554 0
 2163 0a86 0091 0000 		lds r16,goal+10
 2164 0a8a 1091 0000 		lds r17,goal+10+1
 2165 0a8e 8091 0000 		lds r24,pose+10
 2166 0a92 9091 0000 		lds r25,pose+10+1
 2167 0a96 081B      		sub r16,r24
 2168 0a98 190B      		sbc r17,r25
 548:AdDemo.c      **** 	int error[6] = {
 2169               		.loc 2 548 0
 2170 0a9a 0B87      		std Y+11,r16
 2171 0a9c 1C87      		std Y+12,r17
 2172               	.LVL193:
 2173 0a9e FE01      		movw r30,r28
 2174 0aa0 3396      		adiw r30,3
 546:AdDemo.c      **** void moveToGoal(void){
 2175               		.loc 2 546 0
 2176 0aa2 BE01      		movw r22,r28
 2177 0aa4 635F      		subi r22,-13
 2178 0aa6 7F4F      		sbci r23,-1
 555:AdDemo.c      **** 					};
 556:AdDemo.c      **** 					
 557:AdDemo.c      **** 	// Determine the max error
 558:AdDemo.c      **** 	int maxError = error[0];
 2179               		.loc 2 558 0
 2180 0aa8 C301      		movw r24,r6
 2181               	.LVL194:
 2182               	.L180:
 559:AdDemo.c      **** 	int i;
 560:AdDemo.c      **** 	for (i = 1; i < 6 ; i++){
GAS LISTING /tmp/ccPqDIXf.s 			page 59


 561:AdDemo.c      **** 		if(abs(error[i])>abs(maxError)){
 2183               		.loc 2 561 0
 2184 0aaa B081      		ld r27,Z
 2185 0aac A181      		ldd r26,Z+1
 2186 0aae 3296      		adiw r30,2
 2187 0ab0 2B2F      		mov r18,r27
 2188 0ab2 3A2F      		mov r19,r26
 2189 0ab4 37FF      		sbrs r19,7
 2190 0ab6 00C0      		rjmp .L178
 2191 0ab8 3195      		neg r19
 2192 0aba 2195      		neg r18
 2193 0abc 3109      		sbc r19,__zero_reg__
 2194               	.L178:
 2195 0abe AC01      		movw r20,r24
 2196 0ac0 97FF      		sbrs r25,7
 2197 0ac2 00C0      		rjmp .L179
 2198               	.LVL195:
 2199 0ac4 4427      		clr r20
 2200 0ac6 5527      		clr r21
 2201 0ac8 481B      		sub r20,r24
 2202 0aca 590B      		sbc r21,r25
 2203               	.LVL196:
 2204               	.L179:
 2205 0acc 4217      		cp r20,r18
 2206 0ace 5307      		cpc r21,r19
 2207 0ad0 04F4      		brge .L177
 562:AdDemo.c      **** 			maxError = error[i];
 2208               		.loc 2 562 0
 2209 0ad2 8B2F      		mov r24,r27
 2210               	.LVL197:
 2211 0ad4 9A2F      		mov r25,r26
 2212               	.L177:
 2213               	.LVL198:
 560:AdDemo.c      **** 	for (i = 1; i < 6 ; i++){
 2214               		.loc 2 560 0
 2215 0ad6 E617      		cp r30,r22
 2216 0ad8 F707      		cpc r31,r23
 2217 0ada 01F4      		brne .L180
 563:AdDemo.c      **** 		}
 564:AdDemo.c      **** 	}	
 565:AdDemo.c      **** 	//Determine the speed each motor needs to step at based on error array
 566:AdDemo.c      **** 	//Speeds are such that each motor arrives at the end point at the same time. 
 567:AdDemo.c      **** 	
 568:AdDemo.c      **** 	setSpeed(&MOTOR_1,(int)(MAXSPEED*(error[0]/(double)maxError)));
 2218               		.loc 2 568 0
 2219 0adc BC01      		movw r22,r24
 2220 0ade 8827      		clr r24
 2221 0ae0 77FD      		sbrc r23,7
 2222 0ae2 8095      		com r24
 2223 0ae4 982F      		mov r25,r24
 2224 0ae6 0E94 0000 		call __floatsisf
 2225               	.LVL199:
 2226 0aea 6B01      		movw r12,r22
 2227 0aec 7C01      		movw r14,r24
 2228               	.LVL200:
 2229               	.LBB70:
 2230               	.LBB71:
GAS LISTING /tmp/ccPqDIXf.s 			page 60


 370:AdDemo.c      **** 	(*stepper).step_delay = 60L * 1000L / (*stepper).number_of_steps / whatSpeed;
 2231               		.loc 2 370 0
 2232 0aee 2091 0000 		lds r18,Base+10
 2233 0af2 3091 0000 		lds r19,Base+10+1
 2234 0af6 4427      		clr r20
 2235 0af8 37FD      		sbrc r19,7
 2236 0afa 4095      		com r20
 2237 0afc 542F      		mov r21,r20
 2238 0afe 60E6      		ldi r22,lo8(96)
 2239 0b00 862E      		mov r8,r22
 2240 0b02 6AEE      		ldi r22,lo8(-22)
 2241 0b04 962E      		mov r9,r22
 2242 0b06 A12C      		mov r10,__zero_reg__
 2243 0b08 B12C      		mov r11,__zero_reg__
 2244 0b0a C501      		movw r24,r10
 2245 0b0c B401      		movw r22,r8
 2246 0b0e 0E94 0000 		call __divmodsi4
 2247 0b12 2B8B      		std Y+19,r18
 2248 0b14 3C8B      		std Y+20,r19
 2249 0b16 4D8B      		std Y+21,r20
 2250 0b18 5E8B      		std Y+22,r21
 2251               	.LBE71:
 2252               	.LBE70:
 2253               		.loc 2 568 0
 2254 0b1a B301      		movw r22,r6
 2255 0b1c 8827      		clr r24
 2256 0b1e 77FD      		sbrc r23,7
 2257 0b20 8095      		com r24
 2258 0b22 982F      		mov r25,r24
 2259 0b24 0E94 0000 		call __floatsisf
 2260               	.LVL201:
 2261 0b28 A701      		movw r20,r14
 2262 0b2a 9601      		movw r18,r12
 2263 0b2c 0E94 0000 		call __divsf3
 2264               	.LVL202:
 2265 0b30 20E0      		ldi r18,0
 2266 0b32 30E0      		ldi r19,0
 2267 0b34 4CE0      		ldi r20,lo8(12)
 2268 0b36 52E4      		ldi r21,lo8(66)
 2269 0b38 0E94 0000 		call __mulsf3
 2270               	.LVL203:
 2271 0b3c 0E94 0000 		call __fixsfsi
 2272               	.LVL204:
 2273 0b40 9B01      		movw r18,r22
 2274 0b42 4427      		clr r20
 2275 0b44 37FD      		sbrc r19,7
 2276 0b46 4095      		com r20
 2277 0b48 542F      		mov r21,r20
 2278               	.LBB73:
 2279               	.LBB72:
 370:AdDemo.c      **** 	(*stepper).step_delay = 60L * 1000L / (*stepper).number_of_steps / whatSpeed;
 2280               		.loc 2 370 0
 2281 0b4a 6B89      		ldd r22,Y+19
 2282 0b4c 7C89      		ldd r23,Y+20
 2283 0b4e 8D89      		ldd r24,Y+21
 2284 0b50 9E89      		ldd r25,Y+22
 2285 0b52 0E94 0000 		call __divmodsi4
GAS LISTING /tmp/ccPqDIXf.s 			page 61


 2286 0b56 2093 0000 		sts Base+6,r18
 2287 0b5a 3093 0000 		sts Base+6+1,r19
 2288 0b5e 4093 0000 		sts Base+6+2,r20
 2289 0b62 5093 0000 		sts Base+6+3,r21
 2290               	.LVL205:
 2291               	.LBE72:
 2292               	.LBE73:
 2293               	.LBB74:
 2294               	.LBB75:
 2295 0b66 2091 0000 		lds r18,Shoulder+10
 2296 0b6a 3091 0000 		lds r19,Shoulder+10+1
 2297 0b6e 4427      		clr r20
 2298 0b70 37FD      		sbrc r19,7
 2299 0b72 4095      		com r20
 2300 0b74 542F      		mov r21,r20
 2301 0b76 C501      		movw r24,r10
 2302 0b78 B401      		movw r22,r8
 2303 0b7a 0E94 0000 		call __divmodsi4
 2304 0b7e 2901      		movw r4,r18
 2305 0b80 3A01      		movw r6,r20
 2306               	.LBE75:
 2307               	.LBE74:
 569:AdDemo.c      **** 	setSpeed(&MOTOR_2,(int)(MAXSPEED*(error[1]/(double)maxError)));
 2308               		.loc 2 569 0
 2309 0b82 AD85      		ldd r26,Y+13
 2310 0b84 BE85      		ldd r27,Y+14
 2311 0b86 BD01      		movw r22,r26
 2312 0b88 8827      		clr r24
 2313 0b8a 77FD      		sbrc r23,7
 2314 0b8c 8095      		com r24
 2315 0b8e 982F      		mov r25,r24
 2316 0b90 0E94 0000 		call __floatsisf
 2317               	.LVL206:
 2318 0b94 A701      		movw r20,r14
 2319 0b96 9601      		movw r18,r12
 2320 0b98 0E94 0000 		call __divsf3
 2321               	.LVL207:
 2322 0b9c 20E0      		ldi r18,0
 2323 0b9e 30E0      		ldi r19,0
 2324 0ba0 4CE0      		ldi r20,lo8(12)
 2325 0ba2 52E4      		ldi r21,lo8(66)
 2326 0ba4 0E94 0000 		call __mulsf3
 2327               	.LVL208:
 2328 0ba8 0E94 0000 		call __fixsfsi
 2329               	.LVL209:
 2330 0bac 9B01      		movw r18,r22
 2331 0bae 4427      		clr r20
 2332 0bb0 37FD      		sbrc r19,7
 2333 0bb2 4095      		com r20
 2334 0bb4 542F      		mov r21,r20
 2335               	.LBB77:
 2336               	.LBB76:
 370:AdDemo.c      **** 	(*stepper).step_delay = 60L * 1000L / (*stepper).number_of_steps / whatSpeed;
 2337               		.loc 2 370 0
 2338 0bb6 C301      		movw r24,r6
 2339 0bb8 B201      		movw r22,r4
 2340 0bba 0E94 0000 		call __divmodsi4
GAS LISTING /tmp/ccPqDIXf.s 			page 62


 2341 0bbe 2093 0000 		sts Shoulder+6,r18
 2342 0bc2 3093 0000 		sts Shoulder+6+1,r19
 2343 0bc6 4093 0000 		sts Shoulder+6+2,r20
 2344 0bca 5093 0000 		sts Shoulder+6+3,r21
 2345               	.LVL210:
 2346               	.LBE76:
 2347               	.LBE77:
 2348               	.LBB78:
 2349               	.LBB79:
 2350 0bce 2091 0000 		lds r18,Elbow+10
 2351 0bd2 3091 0000 		lds r19,Elbow+10+1
 2352 0bd6 4427      		clr r20
 2353 0bd8 37FD      		sbrc r19,7
 2354 0bda 4095      		com r20
 2355 0bdc 542F      		mov r21,r20
 2356 0bde C501      		movw r24,r10
 2357 0be0 B401      		movw r22,r8
 2358 0be2 0E94 0000 		call __divmodsi4
 2359 0be6 2901      		movw r4,r18
 2360 0be8 3A01      		movw r6,r20
 2361               	.LBE79:
 2362               	.LBE78:
 570:AdDemo.c      **** 	setSpeed(&MOTOR_3,(int)(MAXSPEED*(error[2]/(double)maxError)));
 2363               		.loc 2 570 0
 2364 0bea 2F85      		ldd r18,Y+15
 2365 0bec 3889      		ldd r19,Y+16
 2366 0bee B901      		movw r22,r18
 2367 0bf0 8827      		clr r24
 2368 0bf2 77FD      		sbrc r23,7
 2369 0bf4 8095      		com r24
 2370 0bf6 982F      		mov r25,r24
 2371 0bf8 0E94 0000 		call __floatsisf
 2372               	.LVL211:
 2373 0bfc A701      		movw r20,r14
 2374 0bfe 9601      		movw r18,r12
 2375 0c00 0E94 0000 		call __divsf3
 2376               	.LVL212:
 2377 0c04 20E0      		ldi r18,0
 2378 0c06 30E0      		ldi r19,0
 2379 0c08 4CE0      		ldi r20,lo8(12)
 2380 0c0a 52E4      		ldi r21,lo8(66)
 2381 0c0c 0E94 0000 		call __mulsf3
 2382               	.LVL213:
 2383 0c10 0E94 0000 		call __fixsfsi
 2384               	.LVL214:
 2385 0c14 9B01      		movw r18,r22
 2386 0c16 4427      		clr r20
 2387 0c18 37FD      		sbrc r19,7
 2388 0c1a 4095      		com r20
 2389 0c1c 542F      		mov r21,r20
 2390               	.LBB81:
 2391               	.LBB80:
 370:AdDemo.c      **** 	(*stepper).step_delay = 60L * 1000L / (*stepper).number_of_steps / whatSpeed;
 2392               		.loc 2 370 0
 2393 0c1e C301      		movw r24,r6
 2394 0c20 B201      		movw r22,r4
 2395 0c22 0E94 0000 		call __divmodsi4
GAS LISTING /tmp/ccPqDIXf.s 			page 63


 2396 0c26 2093 0000 		sts Elbow+6,r18
 2397 0c2a 3093 0000 		sts Elbow+6+1,r19
 2398 0c2e 4093 0000 		sts Elbow+6+2,r20
 2399 0c32 5093 0000 		sts Elbow+6+3,r21
 2400               	.LVL215:
 2401               	.LBE80:
 2402               	.LBE81:
 2403               	.LBB82:
 2404               	.LBB83:
 2405 0c36 2091 0000 		lds r18,Right_Wrist+10
 2406 0c3a 3091 0000 		lds r19,Right_Wrist+10+1
 2407 0c3e 4427      		clr r20
 2408 0c40 37FD      		sbrc r19,7
 2409 0c42 4095      		com r20
 2410 0c44 542F      		mov r21,r20
 2411 0c46 C501      		movw r24,r10
 2412 0c48 B401      		movw r22,r8
 2413 0c4a 0E94 0000 		call __divmodsi4
 2414 0c4e 2901      		movw r4,r18
 2415 0c50 3A01      		movw r6,r20
 2416               	.LBE83:
 2417               	.LBE82:
 571:AdDemo.c      **** 	setSpeed(&MOTOR_4,(int)(MAXSPEED*(error[3]/(double)maxError)));
 2418               		.loc 2 571 0
 2419 0c52 A989      		ldd r26,Y+17
 2420 0c54 BA89      		ldd r27,Y+18
 2421 0c56 BD01      		movw r22,r26
 2422 0c58 8827      		clr r24
 2423 0c5a 77FD      		sbrc r23,7
 2424 0c5c 8095      		com r24
 2425 0c5e 982F      		mov r25,r24
 2426 0c60 0E94 0000 		call __floatsisf
 2427               	.LVL216:
 2428 0c64 A701      		movw r20,r14
 2429 0c66 9601      		movw r18,r12
 2430 0c68 0E94 0000 		call __divsf3
 2431               	.LVL217:
 2432 0c6c 20E0      		ldi r18,0
 2433 0c6e 30E0      		ldi r19,0
 2434 0c70 4CE0      		ldi r20,lo8(12)
 2435 0c72 52E4      		ldi r21,lo8(66)
 2436 0c74 0E94 0000 		call __mulsf3
 2437               	.LVL218:
 2438 0c78 0E94 0000 		call __fixsfsi
 2439               	.LVL219:
 2440 0c7c 9B01      		movw r18,r22
 2441 0c7e 4427      		clr r20
 2442 0c80 37FD      		sbrc r19,7
 2443 0c82 4095      		com r20
 2444 0c84 542F      		mov r21,r20
 2445               	.LBB85:
 2446               	.LBB84:
 370:AdDemo.c      **** 	(*stepper).step_delay = 60L * 1000L / (*stepper).number_of_steps / whatSpeed;
 2447               		.loc 2 370 0
 2448 0c86 C301      		movw r24,r6
 2449 0c88 B201      		movw r22,r4
 2450 0c8a 0E94 0000 		call __divmodsi4
GAS LISTING /tmp/ccPqDIXf.s 			page 64


 2451 0c8e 2093 0000 		sts Right_Wrist+6,r18
 2452 0c92 3093 0000 		sts Right_Wrist+6+1,r19
 2453 0c96 4093 0000 		sts Right_Wrist+6+2,r20
 2454 0c9a 5093 0000 		sts Right_Wrist+6+3,r21
 2455               	.LVL220:
 2456               	.LBE84:
 2457               	.LBE85:
 2458               	.LBB86:
 2459               	.LBB87:
 2460 0c9e 2091 0000 		lds r18,Left_Wrist+10
 2461 0ca2 3091 0000 		lds r19,Left_Wrist+10+1
 2462 0ca6 4427      		clr r20
 2463 0ca8 37FD      		sbrc r19,7
 2464 0caa 4095      		com r20
 2465 0cac 542F      		mov r21,r20
 2466 0cae C501      		movw r24,r10
 2467 0cb0 B401      		movw r22,r8
 2468 0cb2 0E94 0000 		call __divmodsi4
 2469 0cb6 2901      		movw r4,r18
 2470 0cb8 3A01      		movw r6,r20
 2471               	.LBE87:
 2472               	.LBE86:
 572:AdDemo.c      **** 	setSpeed(&MOTOR_5,(int)(MAXSPEED*(error[4]/(double)maxError)));
 2473               		.loc 2 572 0
 2474 0cba B101      		movw r22,r2
 2475 0cbc 8827      		clr r24
 2476 0cbe 77FD      		sbrc r23,7
 2477 0cc0 8095      		com r24
 2478 0cc2 982F      		mov r25,r24
 2479 0cc4 0E94 0000 		call __floatsisf
 2480               	.LVL221:
 2481 0cc8 A701      		movw r20,r14
 2482 0cca 9601      		movw r18,r12
 2483 0ccc 0E94 0000 		call __divsf3
 2484               	.LVL222:
 2485 0cd0 20E0      		ldi r18,0
 2486 0cd2 30E0      		ldi r19,0
 2487 0cd4 4CE0      		ldi r20,lo8(12)
 2488 0cd6 52E4      		ldi r21,lo8(66)
 2489 0cd8 0E94 0000 		call __mulsf3
 2490               	.LVL223:
 2491 0cdc 0E94 0000 		call __fixsfsi
 2492               	.LVL224:
 2493 0ce0 9B01      		movw r18,r22
 2494 0ce2 4427      		clr r20
 2495 0ce4 37FD      		sbrc r19,7
 2496 0ce6 4095      		com r20
 2497 0ce8 542F      		mov r21,r20
 2498               	.LBB89:
 2499               	.LBB88:
 370:AdDemo.c      **** 	(*stepper).step_delay = 60L * 1000L / (*stepper).number_of_steps / whatSpeed;
 2500               		.loc 2 370 0
 2501 0cea C301      		movw r24,r6
 2502 0cec B201      		movw r22,r4
 2503 0cee 0E94 0000 		call __divmodsi4
 2504 0cf2 2093 0000 		sts Left_Wrist+6,r18
 2505 0cf6 3093 0000 		sts Left_Wrist+6+1,r19
GAS LISTING /tmp/ccPqDIXf.s 			page 65


 2506 0cfa 4093 0000 		sts Left_Wrist+6+2,r20
 2507 0cfe 5093 0000 		sts Left_Wrist+6+3,r21
 2508               	.LVL225:
 2509               	.LBE88:
 2510               	.LBE89:
 2511               	.LBB90:
 2512               	.LBB91:
 2513 0d02 2091 0000 		lds r18,Gripper+10
 2514 0d06 3091 0000 		lds r19,Gripper+10+1
 2515 0d0a 4427      		clr r20
 2516 0d0c 37FD      		sbrc r19,7
 2517 0d0e 4095      		com r20
 2518 0d10 542F      		mov r21,r20
 2519 0d12 C501      		movw r24,r10
 2520 0d14 B401      		movw r22,r8
 2521 0d16 0E94 0000 		call __divmodsi4
 2522 0d1a 4901      		movw r8,r18
 2523 0d1c 5A01      		movw r10,r20
 2524               	.LBE91:
 2525               	.LBE90:
 573:AdDemo.c      **** 	setSpeed(&MOTOR_6,(int)(MAXSPEED*(error[5]/(double)maxError)));
 2526               		.loc 2 573 0
 2527 0d1e B801      		movw r22,r16
 2528 0d20 8827      		clr r24
 2529 0d22 77FD      		sbrc r23,7
 2530 0d24 8095      		com r24
 2531 0d26 982F      		mov r25,r24
 2532 0d28 0E94 0000 		call __floatsisf
 2533               	.LVL226:
 2534 0d2c A701      		movw r20,r14
 2535 0d2e 9601      		movw r18,r12
 2536 0d30 0E94 0000 		call __divsf3
 2537               	.LVL227:
 2538 0d34 20E0      		ldi r18,0
 2539 0d36 30E0      		ldi r19,0
 2540 0d38 4CE0      		ldi r20,lo8(12)
 2541 0d3a 52E4      		ldi r21,lo8(66)
 2542 0d3c 0E94 0000 		call __mulsf3
 2543               	.LVL228:
 2544 0d40 0E94 0000 		call __fixsfsi
 2545               	.LVL229:
 2546 0d44 9B01      		movw r18,r22
 2547 0d46 4427      		clr r20
 2548 0d48 37FD      		sbrc r19,7
 2549 0d4a 4095      		com r20
 2550 0d4c 542F      		mov r21,r20
 2551               	.LBB93:
 2552               	.LBB92:
 370:AdDemo.c      **** 	(*stepper).step_delay = 60L * 1000L / (*stepper).number_of_steps / whatSpeed;
 2553               		.loc 2 370 0
 2554 0d4e C501      		movw r24,r10
 2555 0d50 B401      		movw r22,r8
 2556 0d52 0E94 0000 		call __divmodsi4
 2557 0d56 2093 0000 		sts Gripper+6,r18
 2558 0d5a 3093 0000 		sts Gripper+6+1,r19
 2559 0d5e 4093 0000 		sts Gripper+6+2,r20
 2560 0d62 5093 0000 		sts Gripper+6+3,r21
GAS LISTING /tmp/ccPqDIXf.s 			page 66


 2561 0d66 00C0      		rjmp .L213
 2562               	.L182:
 2563               	.LBE92:
 2564               	.LBE93:
 574:AdDemo.c      **** 	
 575:AdDemo.c      **** 	//Step
 576:AdDemo.c      **** 	while(!compareArray(pose,goal)){
 577:AdDemo.c      **** 		
 578:AdDemo.c      **** 		for(i = 0; i < 6 ; i++){
 579:AdDemo.c      **** 			error[i] = goal[i]-pose[i];
 2565               		.loc 2 579 0 discriminator 2
 2566 0d68 8191      		ld r24,Z+
 2567 0d6a 9191      		ld r25,Z+
 2568 0d6c D901      		movw r26,r18
 2569 0d6e 4D91      		ld r20,X+
 2570 0d70 5D91      		ld r21,X+
 2571 0d72 9D01      		movw r18,r26
 2572 0d74 841B      		sub r24,r20
 2573 0d76 950B      		sbc r25,r21
 2574 0d78 DB01      		movw r26,r22
 2575 0d7a 8D93      		st X+,r24
 2576 0d7c 9D93      		st X+,r25
 2577 0d7e BD01      		movw r22,r26
 578:AdDemo.c      **** 		for(i = 0; i < 6 ; i++){
 2578               		.loc 2 578 0 discriminator 2
 2579 0d80 B0E0      		ldi r27,hi8(goal+12)
 2580 0d82 E030      		cpi r30,lo8(goal+12)
 2581 0d84 FB07      		cpc r31,r27
 2582 0d86 01F4      		brne .L182
 2583               	.LBB94:
 2584               	.LBB95:
  92:AdDemo.c      **** 	return elapsedMillis;
 2585               		.loc 2 92 0
 2586 0d88 8091 0000 		lds r24,elapsedMillis
 2587 0d8c 9091 0000 		lds r25,elapsedMillis+1
 2588 0d90 A091 0000 		lds r26,elapsedMillis+2
 2589 0d94 B091 0000 		lds r27,elapsedMillis+3
 2590               	.LBE95:
 2591               	.LBE94:
 580:AdDemo.c      **** 		}
 581:AdDemo.c      **** 		
 582:AdDemo.c      **** 		if (millis() - MOTOR_1.last_step_time >= MOTOR_1.step_delay){
 2592               		.loc 2 582 0
 2593 0d98 4091 0000 		lds r20,Base+32
 2594 0d9c 5091 0000 		lds r21,Base+32+1
 2595 0da0 6091 0000 		lds r22,Base+32+2
 2596 0da4 7091 0000 		lds r23,Base+32+3
 2597 0da8 841B      		sub r24,r20
 2598 0daa 950B      		sbc r25,r21
 2599 0dac A60B      		sbc r26,r22
 2600 0dae B70B      		sbc r27,r23
 2601 0db0 4091 0000 		lds r20,Base+6
 2602 0db4 5091 0000 		lds r21,Base+6+1
 2603 0db8 6091 0000 		lds r22,Base+6+2
 2604 0dbc 7091 0000 		lds r23,Base+6+3
 2605 0dc0 8417      		cp r24,r20
 2606 0dc2 9507      		cpc r25,r21
GAS LISTING /tmp/ccPqDIXf.s 			page 67


 2607 0dc4 A607      		cpc r26,r22
 2608 0dc6 B707      		cpc r27,r23
 2609 0dc8 00F0      		brlo .L183
 2610               	.LBB96:
 2611               	.LBB97:
  92:AdDemo.c      **** 	return elapsedMillis;
 2612               		.loc 2 92 0
 2613 0dca 8091 0000 		lds r24,elapsedMillis
 2614 0dce 9091 0000 		lds r25,elapsedMillis+1
 2615 0dd2 A091 0000 		lds r26,elapsedMillis+2
 2616 0dd6 B091 0000 		lds r27,elapsedMillis+3
 2617               	.LBE97:
 2618               	.LBE96:
 583:AdDemo.c      **** 			MOTOR_1.last_step_time = millis();
 2619               		.loc 2 583 0
 2620 0dda 8093 0000 		sts Base+32,r24
 2621 0dde 9093 0000 		sts Base+32+1,r25
 2622 0de2 A093 0000 		sts Base+32+2,r26
 2623 0de6 B093 0000 		sts Base+32+3,r27
 584:AdDemo.c      **** 			stepOne(&MOTOR_1,signum(error[0]));
 2624               		.loc 2 584 0
 2625 0dea 8981      		ldd r24,Y+1
 2626 0dec 9A81      		ldd r25,Y+2
 2627               	.LVL230:
 2628               	.LBB98:
 2629               	.LBB99:
  76:AdDemo.c      **** 	return (n < 0) ? -1 : (n > 0) ? +1 : 0; 
 2630               		.loc 2 76 0
 2631 0dee 97FD      		sbrc r25,7
 2632 0df0 00C0      		rjmp .L203
 2633 0df2 61E0      		ldi r22,lo8(1)
 2634 0df4 70E0      		ldi r23,0
 2635 0df6 1816      		cp __zero_reg__,r24
 2636 0df8 1906      		cpc __zero_reg__,r25
 2637 0dfa 04F0      		brlt .L184
 2638 0dfc 60E0      		ldi r22,0
 2639 0dfe 70E0      		ldi r23,0
 2640 0e00 00C0      		rjmp .L184
 2641               	.L203:
 2642 0e02 6FEF      		ldi r22,lo8(-1)
 2643 0e04 7FEF      		ldi r23,lo8(-1)
 2644               	.L184:
 2645               	.LBE99:
 2646               	.LBE98:
 2647               		.loc 2 584 0
 2648 0e06 80E0      		ldi r24,lo8(Base)
 2649 0e08 90E0      		ldi r25,hi8(Base)
 2650               	.LVL231:
 2651 0e0a 0E94 0000 		call stepOne
 2652               	.LVL232:
 2653               	.L183:
 2654               	.LBB100:
 2655               	.LBB101:
  92:AdDemo.c      **** 	return elapsedMillis;
 2656               		.loc 2 92 0
 2657 0e0e 8091 0000 		lds r24,elapsedMillis
 2658 0e12 9091 0000 		lds r25,elapsedMillis+1
GAS LISTING /tmp/ccPqDIXf.s 			page 68


 2659 0e16 A091 0000 		lds r26,elapsedMillis+2
 2660 0e1a B091 0000 		lds r27,elapsedMillis+3
 2661               	.LBE101:
 2662               	.LBE100:
 585:AdDemo.c      **** 		}
 586:AdDemo.c      **** 		if (millis() - MOTOR_2.last_step_time >= MOTOR_2.step_delay){
 2663               		.loc 2 586 0
 2664 0e1e 4091 0000 		lds r20,Shoulder+32
 2665 0e22 5091 0000 		lds r21,Shoulder+32+1
 2666 0e26 6091 0000 		lds r22,Shoulder+32+2
 2667 0e2a 7091 0000 		lds r23,Shoulder+32+3
 2668 0e2e 841B      		sub r24,r20
 2669 0e30 950B      		sbc r25,r21
 2670 0e32 A60B      		sbc r26,r22
 2671 0e34 B70B      		sbc r27,r23
 2672 0e36 4091 0000 		lds r20,Shoulder+6
 2673 0e3a 5091 0000 		lds r21,Shoulder+6+1
 2674 0e3e 6091 0000 		lds r22,Shoulder+6+2
 2675 0e42 7091 0000 		lds r23,Shoulder+6+3
 2676 0e46 8417      		cp r24,r20
 2677 0e48 9507      		cpc r25,r21
 2678 0e4a A607      		cpc r26,r22
 2679 0e4c B707      		cpc r27,r23
 2680 0e4e 00F0      		brlo .L186
 2681               	.LBB102:
 2682               	.LBB103:
  92:AdDemo.c      **** 	return elapsedMillis;
 2683               		.loc 2 92 0
 2684 0e50 8091 0000 		lds r24,elapsedMillis
 2685 0e54 9091 0000 		lds r25,elapsedMillis+1
 2686 0e58 A091 0000 		lds r26,elapsedMillis+2
 2687 0e5c B091 0000 		lds r27,elapsedMillis+3
 2688               	.LBE103:
 2689               	.LBE102:
 587:AdDemo.c      **** 			MOTOR_2.last_step_time = millis();
 2690               		.loc 2 587 0
 2691 0e60 8093 0000 		sts Shoulder+32,r24
 2692 0e64 9093 0000 		sts Shoulder+32+1,r25
 2693 0e68 A093 0000 		sts Shoulder+32+2,r26
 2694 0e6c B093 0000 		sts Shoulder+32+3,r27
 588:AdDemo.c      **** 			stepOne(&MOTOR_2,signum(error[1]));
 2695               		.loc 2 588 0
 2696 0e70 8B81      		ldd r24,Y+3
 2697 0e72 9C81      		ldd r25,Y+4
 2698               	.LVL233:
 2699               	.LBB104:
 2700               	.LBB105:
  76:AdDemo.c      **** 	return (n < 0) ? -1 : (n > 0) ? +1 : 0; 
 2701               		.loc 2 76 0
 2702 0e74 97FD      		sbrc r25,7
 2703 0e76 00C0      		rjmp .L204
 2704 0e78 61E0      		ldi r22,lo8(1)
 2705 0e7a 70E0      		ldi r23,0
 2706 0e7c 1816      		cp __zero_reg__,r24
 2707 0e7e 1906      		cpc __zero_reg__,r25
 2708 0e80 04F0      		brlt .L187
 2709 0e82 60E0      		ldi r22,0
GAS LISTING /tmp/ccPqDIXf.s 			page 69


 2710 0e84 70E0      		ldi r23,0
 2711 0e86 00C0      		rjmp .L187
 2712               	.L204:
 2713 0e88 6FEF      		ldi r22,lo8(-1)
 2714 0e8a 7FEF      		ldi r23,lo8(-1)
 2715               	.L187:
 2716               	.LBE105:
 2717               	.LBE104:
 2718               		.loc 2 588 0
 2719 0e8c 80E0      		ldi r24,lo8(Shoulder)
 2720 0e8e 90E0      		ldi r25,hi8(Shoulder)
 2721               	.LVL234:
 2722 0e90 0E94 0000 		call stepOne
 2723               	.LVL235:
 2724               	.L186:
 2725               	.LBB106:
 2726               	.LBB107:
  92:AdDemo.c      **** 	return elapsedMillis;
 2727               		.loc 2 92 0
 2728 0e94 8091 0000 		lds r24,elapsedMillis
 2729 0e98 9091 0000 		lds r25,elapsedMillis+1
 2730 0e9c A091 0000 		lds r26,elapsedMillis+2
 2731 0ea0 B091 0000 		lds r27,elapsedMillis+3
 2732               	.LBE107:
 2733               	.LBE106:
 589:AdDemo.c      **** 		}
 590:AdDemo.c      **** 		if (millis() - MOTOR_3.last_step_time >= MOTOR_3.step_delay){
 2734               		.loc 2 590 0
 2735 0ea4 4091 0000 		lds r20,Elbow+32
 2736 0ea8 5091 0000 		lds r21,Elbow+32+1
 2737 0eac 6091 0000 		lds r22,Elbow+32+2
 2738 0eb0 7091 0000 		lds r23,Elbow+32+3
 2739 0eb4 841B      		sub r24,r20
 2740 0eb6 950B      		sbc r25,r21
 2741 0eb8 A60B      		sbc r26,r22
 2742 0eba B70B      		sbc r27,r23
 2743 0ebc 4091 0000 		lds r20,Elbow+6
 2744 0ec0 5091 0000 		lds r21,Elbow+6+1
 2745 0ec4 6091 0000 		lds r22,Elbow+6+2
 2746 0ec8 7091 0000 		lds r23,Elbow+6+3
 2747 0ecc 8417      		cp r24,r20
 2748 0ece 9507      		cpc r25,r21
 2749 0ed0 A607      		cpc r26,r22
 2750 0ed2 B707      		cpc r27,r23
 2751 0ed4 00F0      		brlo .L189
 2752               	.LBB108:
 2753               	.LBB109:
  92:AdDemo.c      **** 	return elapsedMillis;
 2754               		.loc 2 92 0
 2755 0ed6 8091 0000 		lds r24,elapsedMillis
 2756 0eda 9091 0000 		lds r25,elapsedMillis+1
 2757 0ede A091 0000 		lds r26,elapsedMillis+2
 2758 0ee2 B091 0000 		lds r27,elapsedMillis+3
 2759               	.LBE109:
 2760               	.LBE108:
 591:AdDemo.c      **** 			MOTOR_3.last_step_time = millis();
 2761               		.loc 2 591 0
GAS LISTING /tmp/ccPqDIXf.s 			page 70


 2762 0ee6 8093 0000 		sts Elbow+32,r24
 2763 0eea 9093 0000 		sts Elbow+32+1,r25
 2764 0eee A093 0000 		sts Elbow+32+2,r26
 2765 0ef2 B093 0000 		sts Elbow+32+3,r27
 592:AdDemo.c      **** 			stepOne(&MOTOR_3,signum(error[2]));
 2766               		.loc 2 592 0
 2767 0ef6 8D81      		ldd r24,Y+5
 2768 0ef8 9E81      		ldd r25,Y+6
 2769               	.LVL236:
 2770               	.LBB110:
 2771               	.LBB111:
  76:AdDemo.c      **** 	return (n < 0) ? -1 : (n > 0) ? +1 : 0; 
 2772               		.loc 2 76 0
 2773 0efa 97FD      		sbrc r25,7
 2774 0efc 00C0      		rjmp .L205
 2775 0efe 61E0      		ldi r22,lo8(1)
 2776 0f00 70E0      		ldi r23,0
 2777 0f02 1816      		cp __zero_reg__,r24
 2778 0f04 1906      		cpc __zero_reg__,r25
 2779 0f06 04F0      		brlt .L190
 2780 0f08 60E0      		ldi r22,0
 2781 0f0a 70E0      		ldi r23,0
 2782 0f0c 00C0      		rjmp .L190
 2783               	.L205:
 2784 0f0e 6FEF      		ldi r22,lo8(-1)
 2785 0f10 7FEF      		ldi r23,lo8(-1)
 2786               	.L190:
 2787               	.LBE111:
 2788               	.LBE110:
 2789               		.loc 2 592 0
 2790 0f12 80E0      		ldi r24,lo8(Elbow)
 2791 0f14 90E0      		ldi r25,hi8(Elbow)
 2792               	.LVL237:
 2793 0f16 0E94 0000 		call stepOne
 2794               	.LVL238:
 2795               	.L189:
 2796               	.LBB112:
 2797               	.LBB113:
  92:AdDemo.c      **** 	return elapsedMillis;
 2798               		.loc 2 92 0
 2799 0f1a 8091 0000 		lds r24,elapsedMillis
 2800 0f1e 9091 0000 		lds r25,elapsedMillis+1
 2801 0f22 A091 0000 		lds r26,elapsedMillis+2
 2802 0f26 B091 0000 		lds r27,elapsedMillis+3
 2803               	.LBE113:
 2804               	.LBE112:
 593:AdDemo.c      **** 		}
 594:AdDemo.c      **** 		if (millis() - MOTOR_4.last_step_time >= MOTOR_4.step_delay){
 2805               		.loc 2 594 0
 2806 0f2a 4091 0000 		lds r20,Right_Wrist+32
 2807 0f2e 5091 0000 		lds r21,Right_Wrist+32+1
 2808 0f32 6091 0000 		lds r22,Right_Wrist+32+2
 2809 0f36 7091 0000 		lds r23,Right_Wrist+32+3
 2810 0f3a 841B      		sub r24,r20
 2811 0f3c 950B      		sbc r25,r21
 2812 0f3e A60B      		sbc r26,r22
 2813 0f40 B70B      		sbc r27,r23
GAS LISTING /tmp/ccPqDIXf.s 			page 71


 2814 0f42 4091 0000 		lds r20,Right_Wrist+6
 2815 0f46 5091 0000 		lds r21,Right_Wrist+6+1
 2816 0f4a 6091 0000 		lds r22,Right_Wrist+6+2
 2817 0f4e 7091 0000 		lds r23,Right_Wrist+6+3
 2818 0f52 8417      		cp r24,r20
 2819 0f54 9507      		cpc r25,r21
 2820 0f56 A607      		cpc r26,r22
 2821 0f58 B707      		cpc r27,r23
 2822 0f5a 00F0      		brlo .L192
 2823               	.LBB114:
 2824               	.LBB115:
  92:AdDemo.c      **** 	return elapsedMillis;
 2825               		.loc 2 92 0
 2826 0f5c 8091 0000 		lds r24,elapsedMillis
 2827 0f60 9091 0000 		lds r25,elapsedMillis+1
 2828 0f64 A091 0000 		lds r26,elapsedMillis+2
 2829 0f68 B091 0000 		lds r27,elapsedMillis+3
 2830               	.LBE115:
 2831               	.LBE114:
 595:AdDemo.c      **** 			MOTOR_4.last_step_time = millis();
 2832               		.loc 2 595 0
 2833 0f6c 8093 0000 		sts Right_Wrist+32,r24
 2834 0f70 9093 0000 		sts Right_Wrist+32+1,r25
 2835 0f74 A093 0000 		sts Right_Wrist+32+2,r26
 2836 0f78 B093 0000 		sts Right_Wrist+32+3,r27
 596:AdDemo.c      **** 			stepOne(&MOTOR_4,signum(error[3]));
 2837               		.loc 2 596 0
 2838 0f7c 8F81      		ldd r24,Y+7
 2839 0f7e 9885      		ldd r25,Y+8
 2840               	.LVL239:
 2841               	.LBB116:
 2842               	.LBB117:
  76:AdDemo.c      **** 	return (n < 0) ? -1 : (n > 0) ? +1 : 0; 
 2843               		.loc 2 76 0
 2844 0f80 97FD      		sbrc r25,7
 2845 0f82 00C0      		rjmp .L206
 2846 0f84 61E0      		ldi r22,lo8(1)
 2847 0f86 70E0      		ldi r23,0
 2848 0f88 1816      		cp __zero_reg__,r24
 2849 0f8a 1906      		cpc __zero_reg__,r25
 2850 0f8c 04F0      		brlt .L193
 2851 0f8e 60E0      		ldi r22,0
 2852 0f90 70E0      		ldi r23,0
 2853 0f92 00C0      		rjmp .L193
 2854               	.L206:
 2855 0f94 6FEF      		ldi r22,lo8(-1)
 2856 0f96 7FEF      		ldi r23,lo8(-1)
 2857               	.L193:
 2858               	.LBE117:
 2859               	.LBE116:
 2860               		.loc 2 596 0
 2861 0f98 80E0      		ldi r24,lo8(Right_Wrist)
 2862 0f9a 90E0      		ldi r25,hi8(Right_Wrist)
 2863               	.LVL240:
 2864 0f9c 0E94 0000 		call stepOne
 2865               	.LVL241:
 2866               	.L192:
GAS LISTING /tmp/ccPqDIXf.s 			page 72


 2867               	.LBB118:
 2868               	.LBB119:
  92:AdDemo.c      **** 	return elapsedMillis;
 2869               		.loc 2 92 0
 2870 0fa0 8091 0000 		lds r24,elapsedMillis
 2871 0fa4 9091 0000 		lds r25,elapsedMillis+1
 2872 0fa8 A091 0000 		lds r26,elapsedMillis+2
 2873 0fac B091 0000 		lds r27,elapsedMillis+3
 2874               	.LBE119:
 2875               	.LBE118:
 597:AdDemo.c      **** 		}
 598:AdDemo.c      **** 		if (millis() - MOTOR_5.last_step_time >= MOTOR_5.step_delay){
 2876               		.loc 2 598 0
 2877 0fb0 4091 0000 		lds r20,Left_Wrist+32
 2878 0fb4 5091 0000 		lds r21,Left_Wrist+32+1
 2879 0fb8 6091 0000 		lds r22,Left_Wrist+32+2
 2880 0fbc 7091 0000 		lds r23,Left_Wrist+32+3
 2881 0fc0 841B      		sub r24,r20
 2882 0fc2 950B      		sbc r25,r21
 2883 0fc4 A60B      		sbc r26,r22
 2884 0fc6 B70B      		sbc r27,r23
 2885 0fc8 4091 0000 		lds r20,Left_Wrist+6
 2886 0fcc 5091 0000 		lds r21,Left_Wrist+6+1
 2887 0fd0 6091 0000 		lds r22,Left_Wrist+6+2
 2888 0fd4 7091 0000 		lds r23,Left_Wrist+6+3
 2889 0fd8 8417      		cp r24,r20
 2890 0fda 9507      		cpc r25,r21
 2891 0fdc A607      		cpc r26,r22
 2892 0fde B707      		cpc r27,r23
 2893 0fe0 00F0      		brlo .L195
 2894               	.LBB120:
 2895               	.LBB121:
  92:AdDemo.c      **** 	return elapsedMillis;
 2896               		.loc 2 92 0
 2897 0fe2 8091 0000 		lds r24,elapsedMillis
 2898 0fe6 9091 0000 		lds r25,elapsedMillis+1
 2899 0fea A091 0000 		lds r26,elapsedMillis+2
 2900 0fee B091 0000 		lds r27,elapsedMillis+3
 2901               	.LBE121:
 2902               	.LBE120:
 599:AdDemo.c      **** 			MOTOR_5.last_step_time = millis();
 2903               		.loc 2 599 0
 2904 0ff2 8093 0000 		sts Left_Wrist+32,r24
 2905 0ff6 9093 0000 		sts Left_Wrist+32+1,r25
 2906 0ffa A093 0000 		sts Left_Wrist+32+2,r26
 2907 0ffe B093 0000 		sts Left_Wrist+32+3,r27
 600:AdDemo.c      **** 			stepOne(&MOTOR_5,signum(error[4]));
 2908               		.loc 2 600 0
 2909 1002 8985      		ldd r24,Y+9
 2910 1004 9A85      		ldd r25,Y+10
 2911               	.LVL242:
 2912               	.LBB122:
 2913               	.LBB123:
  76:AdDemo.c      **** 	return (n < 0) ? -1 : (n > 0) ? +1 : 0; 
 2914               		.loc 2 76 0
 2915 1006 97FD      		sbrc r25,7
 2916 1008 00C0      		rjmp .L207
GAS LISTING /tmp/ccPqDIXf.s 			page 73


 2917 100a 61E0      		ldi r22,lo8(1)
 2918 100c 70E0      		ldi r23,0
 2919 100e 1816      		cp __zero_reg__,r24
 2920 1010 1906      		cpc __zero_reg__,r25
 2921 1012 04F0      		brlt .L196
 2922 1014 60E0      		ldi r22,0
 2923 1016 70E0      		ldi r23,0
 2924 1018 00C0      		rjmp .L196
 2925               	.L207:
 2926 101a 6FEF      		ldi r22,lo8(-1)
 2927 101c 7FEF      		ldi r23,lo8(-1)
 2928               	.L196:
 2929               	.LBE123:
 2930               	.LBE122:
 2931               		.loc 2 600 0
 2932 101e 80E0      		ldi r24,lo8(Left_Wrist)
 2933 1020 90E0      		ldi r25,hi8(Left_Wrist)
 2934               	.LVL243:
 2935 1022 0E94 0000 		call stepOne
 2936               	.LVL244:
 2937               	.L195:
 2938               	.LBB124:
 2939               	.LBB125:
  92:AdDemo.c      **** 	return elapsedMillis;
 2940               		.loc 2 92 0
 2941 1026 8091 0000 		lds r24,elapsedMillis
 2942 102a 9091 0000 		lds r25,elapsedMillis+1
 2943 102e A091 0000 		lds r26,elapsedMillis+2
 2944 1032 B091 0000 		lds r27,elapsedMillis+3
 2945               	.LBE125:
 2946               	.LBE124:
 601:AdDemo.c      **** 		}
 602:AdDemo.c      **** 		if (millis() - MOTOR_6.last_step_time >= MOTOR_6.step_delay){
 2947               		.loc 2 602 0
 2948 1036 4091 0000 		lds r20,Gripper+32
 2949 103a 5091 0000 		lds r21,Gripper+32+1
 2950 103e 6091 0000 		lds r22,Gripper+32+2
 2951 1042 7091 0000 		lds r23,Gripper+32+3
 2952 1046 841B      		sub r24,r20
 2953 1048 950B      		sbc r25,r21
 2954 104a A60B      		sbc r26,r22
 2955 104c B70B      		sbc r27,r23
 2956 104e 4091 0000 		lds r20,Gripper+6
 2957 1052 5091 0000 		lds r21,Gripper+6+1
 2958 1056 6091 0000 		lds r22,Gripper+6+2
 2959 105a 7091 0000 		lds r23,Gripper+6+3
 2960 105e 8417      		cp r24,r20
 2961 1060 9507      		cpc r25,r21
 2962 1062 A607      		cpc r26,r22
 2963 1064 B707      		cpc r27,r23
 2964 1066 00F0      		brlo .L213
 2965               	.LBB126:
 2966               	.LBB127:
  92:AdDemo.c      **** 	return elapsedMillis;
 2967               		.loc 2 92 0
 2968 1068 8091 0000 		lds r24,elapsedMillis
 2969 106c 9091 0000 		lds r25,elapsedMillis+1
GAS LISTING /tmp/ccPqDIXf.s 			page 74


 2970 1070 A091 0000 		lds r26,elapsedMillis+2
 2971 1074 B091 0000 		lds r27,elapsedMillis+3
 2972               	.LBE127:
 2973               	.LBE126:
 603:AdDemo.c      **** 			MOTOR_6.last_step_time = millis();
 2974               		.loc 2 603 0
 2975 1078 8093 0000 		sts Gripper+32,r24
 2976 107c 9093 0000 		sts Gripper+32+1,r25
 2977 1080 A093 0000 		sts Gripper+32+2,r26
 2978 1084 B093 0000 		sts Gripper+32+3,r27
 604:AdDemo.c      **** 			stepOne(&MOTOR_6,signum(error[5]));
 2979               		.loc 2 604 0
 2980 1088 8B85      		ldd r24,Y+11
 2981 108a 9C85      		ldd r25,Y+12
 2982               	.LVL245:
 2983               	.LBB128:
 2984               	.LBB129:
  76:AdDemo.c      **** 	return (n < 0) ? -1 : (n > 0) ? +1 : 0; 
 2985               		.loc 2 76 0
 2986 108c 97FD      		sbrc r25,7
 2987 108e 00C0      		rjmp .L208
 2988 1090 61E0      		ldi r22,lo8(1)
 2989 1092 70E0      		ldi r23,0
 2990 1094 1816      		cp __zero_reg__,r24
 2991 1096 1906      		cpc __zero_reg__,r25
 2992 1098 04F0      		brlt .L199
 2993 109a 60E0      		ldi r22,0
 2994 109c 70E0      		ldi r23,0
 2995 109e 00C0      		rjmp .L199
 2996               	.L208:
 2997 10a0 6FEF      		ldi r22,lo8(-1)
 2998 10a2 7FEF      		ldi r23,lo8(-1)
 2999               	.L199:
 3000               	.LBE129:
 3001               	.LBE128:
 3002               		.loc 2 604 0
 3003 10a4 80E0      		ldi r24,lo8(Gripper)
 3004 10a6 90E0      		ldi r25,hi8(Gripper)
 3005               	.LVL246:
 3006 10a8 0E94 0000 		call stepOne
 3007               	.LVL247:
 3008               	.L213:
 576:AdDemo.c      **** 	while(!compareArray(pose,goal)){
 3009               		.loc 2 576 0 discriminator 1
 3010 10ac 60E0      		ldi r22,lo8(goal)
 3011 10ae 70E0      		ldi r23,hi8(goal)
 3012 10b0 80E0      		ldi r24,lo8(pose)
 3013 10b2 90E0      		ldi r25,hi8(pose)
 3014 10b4 0E94 0000 		call compareArray
 3015               	.LVL248:
 3016 10b8 892B      		or r24,r25
 3017 10ba 01F4      		brne .L176
 3018 10bc E0E0      		ldi r30,lo8(goal)
 3019 10be F0E0      		ldi r31,hi8(goal)
 3020 10c0 20E0      		ldi r18,lo8(pose)
 3021 10c2 30E0      		ldi r19,hi8(pose)
 3022 10c4 BE01      		movw r22,r28
GAS LISTING /tmp/ccPqDIXf.s 			page 75


 3023 10c6 6F5F      		subi r22,-1
 3024 10c8 7F4F      		sbci r23,-1
 3025 10ca 00C0      		rjmp .L182
 3026               	.L176:
 3027               	/* epilogue start */
 605:AdDemo.c      **** 		}
 606:AdDemo.c      **** 	}
 607:AdDemo.c      **** 	
 608:AdDemo.c      **** }
 3028               		.loc 2 608 0
 3029 10cc 6696      		adiw r28,22
 3030 10ce CDBF      		out __SP_L__,r28
 3031 10d0 DEBF      		out __SP_H__,r29
 3032 10d2 DF91      		pop r29
 3033 10d4 CF91      		pop r28
 3034 10d6 1F91      		pop r17
 3035 10d8 0F91      		pop r16
 3036               	.LVL249:
 3037 10da FF90      		pop r15
 3038 10dc EF90      		pop r14
 3039 10de DF90      		pop r13
 3040 10e0 CF90      		pop r12
 3041               	.LVL250:
 3042 10e2 BF90      		pop r11
 3043 10e4 AF90      		pop r10
 3044 10e6 9F90      		pop r9
 3045 10e8 8F90      		pop r8
 3046 10ea 7F90      		pop r7
 3047 10ec 6F90      		pop r6
 3048 10ee 5F90      		pop r5
 3049 10f0 4F90      		pop r4
 3050 10f2 3F90      		pop r3
 3051 10f4 2F90      		pop r2
 3052 10f6 0895      		ret
 3053               	.LFE31:
 3054               		.size	moveToGoal, .-moveToGoal
 3055               	.global	usbUpdate
 3056               		.type	usbUpdate, @function
 3057               	usbUpdate:
 3058               	.LFB32:
 609:AdDemo.c      **** 
 610:AdDemo.c      **** void usbUpdate(void){
 3059               		.loc 2 610 0
 3060               	/* prologue: function */
 3061               	/* frame size = 0 */
 3062               	/* stack size = 0 */
 3063               	.L__stack_usage = 0
 611:AdDemo.c      **** 	if(debugFlag > 3) debugFlag = 0;
 3064               		.loc 2 611 0
 3065 10f8 8091 0000 		lds r24,debugFlag
 3066 10fc 9091 0000 		lds r25,debugFlag+1
 3067 1100 0497      		sbiw r24,4
 3068 1102 04F0      		brlt .L215
 3069               		.loc 2 611 0 is_stmt 0 discriminator 1
 3070 1104 1092 0000 		sts debugFlag,__zero_reg__
 3071 1108 1092 0000 		sts debugFlag+1,__zero_reg__
 3072               	.L215:
GAS LISTING /tmp/ccPqDIXf.s 			page 76


 612:AdDemo.c      **** 	if(debugFlag == 0) changeGoal(-850,-200,-200,-200,-200,0);
 3073               		.loc 2 612 0 is_stmt 1
 3074 110c 8091 0000 		lds r24,debugFlag
 3075 1110 9091 0000 		lds r25,debugFlag+1
 3076 1114 0097      		sbiw r24,0
 3077 1116 01F4      		brne .L216
 3078               	.LVL251:
 3079 1118 00C0      		rjmp .L221
 3080               	.LVL252:
 3081               	.L216:
 613:AdDemo.c      **** 	if(debugFlag == 1) changeGoal(-1700,-400,-400,-400,-400,0);
 3082               		.loc 2 613 0
 3083 111a 8130      		cpi r24,1
 3084 111c 9105      		cpc r25,__zero_reg__
 3085 111e 01F4      		brne .L218
 3086               	.LVL253:
 3087               	.LBB130:
 3088               	.LBB131:
 538:AdDemo.c      **** 	goal[0] = val0;
 3089               		.loc 2 538 0
 3090 1120 8CE5      		ldi r24,lo8(92)
 3091 1122 99EF      		ldi r25,lo8(-7)
 3092 1124 8093 0000 		sts goal,r24
 3093 1128 9093 0000 		sts goal+1,r25
 539:AdDemo.c      **** 	goal[1] = val1;
 3094               		.loc 2 539 0
 3095 112c 80E7      		ldi r24,lo8(112)
 3096 112e 9EEF      		ldi r25,lo8(-2)
 3097 1130 00C0      		rjmp .L222
 3098               	.LVL254:
 3099               	.L218:
 3100               	.LBE131:
 3101               	.LBE130:
 614:AdDemo.c      **** 	if(debugFlag == 2) changeGoal(-850,-200,-200,-200,-200,0);
 3102               		.loc 2 614 0
 3103 1132 8230      		cpi r24,2
 3104 1134 9105      		cpc r25,__zero_reg__
 3105 1136 01F4      		brne .L219
 3106               	.L221:
 3107               	.LVL255:
 3108               	.LBB132:
 3109               	.LBB133:
 538:AdDemo.c      **** 	goal[0] = val0;
 3110               		.loc 2 538 0
 3111 1138 8EEA      		ldi r24,lo8(-82)
 3112 113a 9CEF      		ldi r25,lo8(-4)
 3113 113c 8093 0000 		sts goal,r24
 3114 1140 9093 0000 		sts goal+1,r25
 539:AdDemo.c      **** 	goal[1] = val1;
 3115               		.loc 2 539 0
 3116 1144 88E3      		ldi r24,lo8(56)
 3117 1146 9FEF      		ldi r25,lo8(-1)
 3118               	.LVL256:
 3119               	.L222:
 3120 1148 8093 0000 		sts goal+2,r24
 3121 114c 9093 0000 		sts goal+2+1,r25
 540:AdDemo.c      **** 	goal[2] = val2;
GAS LISTING /tmp/ccPqDIXf.s 			page 77


 3122               		.loc 2 540 0
 3123 1150 8093 0000 		sts goal+4,r24
 3124 1154 9093 0000 		sts goal+4+1,r25
 541:AdDemo.c      **** 	goal[3] = val3;
 3125               		.loc 2 541 0
 3126 1158 8093 0000 		sts goal+6,r24
 3127 115c 9093 0000 		sts goal+6+1,r25
 542:AdDemo.c      **** 	goal[4] = val4;
 3128               		.loc 2 542 0
 3129 1160 8093 0000 		sts goal+8,r24
 3130 1164 9093 0000 		sts goal+8+1,r25
 3131 1168 00C0      		rjmp .L220
 3132               	.L219:
 3133               	.LBE133:
 3134               	.LBE132:
 615:AdDemo.c      **** 	if(debugFlag == 3) changeGoal(0,0,0,0,0,0);
 3135               		.loc 2 615 0
 3136 116a 0397      		sbiw r24,3
 3137 116c 01F4      		brne .L214
 3138               	.LVL257:
 3139               	.LBB134:
 3140               	.LBB135:
 538:AdDemo.c      **** 	goal[0] = val0;
 3141               		.loc 2 538 0
 3142 116e 1092 0000 		sts goal,__zero_reg__
 3143 1172 1092 0000 		sts goal+1,__zero_reg__
 539:AdDemo.c      **** 	goal[1] = val1;
 3144               		.loc 2 539 0
 3145 1176 1092 0000 		sts goal+2,__zero_reg__
 3146 117a 1092 0000 		sts goal+2+1,__zero_reg__
 540:AdDemo.c      **** 	goal[2] = val2;
 3147               		.loc 2 540 0
 3148 117e 1092 0000 		sts goal+4,__zero_reg__
 3149 1182 1092 0000 		sts goal+4+1,__zero_reg__
 541:AdDemo.c      **** 	goal[3] = val3;
 3150               		.loc 2 541 0
 3151 1186 1092 0000 		sts goal+6,__zero_reg__
 3152 118a 1092 0000 		sts goal+6+1,__zero_reg__
 542:AdDemo.c      **** 	goal[4] = val4;
 3153               		.loc 2 542 0
 3154 118e 1092 0000 		sts goal+8,__zero_reg__
 3155 1192 1092 0000 		sts goal+8+1,__zero_reg__
 3156               	.LVL258:
 3157               	.L220:
 543:AdDemo.c      **** 	goal[5] = val5;
 3158               		.loc 2 543 0
 3159 1196 1092 0000 		sts goal+10,__zero_reg__
 3160 119a 1092 0000 		sts goal+10+1,__zero_reg__
 3161               	.L214:
 3162 119e 0895      		ret
 3163               	.LBE135:
 3164               	.LBE134:
 3165               	.LFE32:
 3166               		.size	usbUpdate, .-usbUpdate
 3167               	.global	mainLoop
 3168               		.type	mainLoop, @function
 3169               	mainLoop:
GAS LISTING /tmp/ccPqDIXf.s 			page 78


 3170               	.LFB33:
 616:AdDemo.c      **** 	return;
 617:AdDemo.c      **** }
 618:AdDemo.c      **** 
 619:AdDemo.c      **** // Main Loop, called after init() in main()
 620:AdDemo.c      **** void mainLoop(void){
 3171               		.loc 2 620 0
 3172               	/* prologue: function */
 3173               	/* frame size = 0 */
 3174               	/* stack size = 0 */
 3175               	.L__stack_usage = 0
 621:AdDemo.c      **** 	while(1){
 622:AdDemo.c      **** 		if(state == DEBUG){
 623:AdDemo.c      **** 		} else if(state == INIT){
 624:AdDemo.c      **** 			while((PORTD.IN & _BV(4))){ //Localize Base
 625:AdDemo.c      **** 				break;
 626:AdDemo.c      **** 			}
 627:AdDemo.c      **** 			pose[0]=0;
 628:AdDemo.c      **** 			while((PORTD.IN & _BV(5))){ //Localize Shoulder
 629:AdDemo.c      **** 			
 630:AdDemo.c      **** 				break;
 631:AdDemo.c      **** 			}
 632:AdDemo.c      **** 			pose[1]=0;
 633:AdDemo.c      **** 			/*
 634:AdDemo.c      **** 			while((PORTE.IN & _BV(0))){ //Localize Elbow
 635:AdDemo.c      **** 				break;
 636:AdDemo.c      **** 			}*/
 637:AdDemo.c      **** 			pose[2]=0;
 638:AdDemo.c      **** 			while((PORTE.IN & _BV(1))){ //Localize Wrist Planar Rotation
 639:AdDemo.c      **** 				break;
 640:AdDemo.c      **** 			}
 641:AdDemo.c      **** 			pose[3]=0;
 642:AdDemo.c      **** 			while((PORTE.IN & _BV(2))){ //Localize Wrist Axial Rotation
 643:AdDemo.c      **** 				break;
 644:AdDemo.c      **** 			}
 645:AdDemo.c      **** 			pose[4]=0;
 646:AdDemo.c      **** 			while((PORTE.IN & _BV(3))){ //Localize Gripper
 647:AdDemo.c      **** 				break;
 648:AdDemo.c      **** 			}
 649:AdDemo.c      **** 			pose[5]=0;
 650:AdDemo.c      **** 			state = IDLE;
 651:AdDemo.c      **** 		} else if(state == IDLE){			
 652:AdDemo.c      **** 			usbUpdate();
 653:AdDemo.c      **** 			if(pose!=goal){
 654:AdDemo.c      **** 				state = MOVING;
 655:AdDemo.c      **** 			}
 656:AdDemo.c      **** 		} else if(state == MOVING){
 657:AdDemo.c      **** 			//If we're not there yet
 658:AdDemo.c      **** 			if(!compareArray(pose,goal)){
 659:AdDemo.c      **** 				
 660:AdDemo.c      **** 				moveToGoal();
 661:AdDemo.c      **** 
 662:AdDemo.c      **** 			} else if(compareArray(pose,goal)){ //If we got there
 663:AdDemo.c      **** 					//Send a signal to USB that we got there
 664:AdDemo.c      **** 					state = IDLE;
 3176               		.loc 2 664 0
 3177 11a0 C2E0      		ldi r28,lo8(2)
GAS LISTING /tmp/ccPqDIXf.s 			page 79


 3178 11a2 D0E0      		ldi r29,0
 654:AdDemo.c      **** 				state = MOVING;
 3179               		.loc 2 654 0
 3180 11a4 03E0      		ldi r16,lo8(3)
 3181 11a6 10E0      		ldi r17,0
 3182               	.L233:
 622:AdDemo.c      **** 		if(state == DEBUG){
 3183               		.loc 2 622 0
 3184 11a8 8091 0000 		lds r24,state
 3185 11ac 9091 0000 		lds r25,state+1
 3186 11b0 0097      		sbiw r24,0
 3187 11b2 01F4      		brne .+2
 3188 11b4 00C0      		rjmp .L225
 623:AdDemo.c      **** 		} else if(state == INIT){
 3189               		.loc 2 623 0
 3190 11b6 8130      		cpi r24,1
 3191 11b8 9105      		cpc r25,__zero_reg__
 3192 11ba 01F4      		brne .L226
 624:AdDemo.c      **** 			while((PORTD.IN & _BV(4))){ //Localize Base
 3193               		.loc 2 624 0 discriminator 1
 3194 11bc 8091 6806 		lds r24,1640
 627:AdDemo.c      **** 			pose[0]=0;
 3195               		.loc 2 627 0 discriminator 1
 3196 11c0 1092 0000 		sts pose,__zero_reg__
 3197 11c4 1092 0000 		sts pose+1,__zero_reg__
 628:AdDemo.c      **** 			while((PORTD.IN & _BV(5))){ //Localize Shoulder
 3198               		.loc 2 628 0 discriminator 1
 3199 11c8 8091 6806 		lds r24,1640
 632:AdDemo.c      **** 			pose[1]=0;
 3200               		.loc 2 632 0 discriminator 1
 3201 11cc 1092 0000 		sts pose+2,__zero_reg__
 3202 11d0 1092 0000 		sts pose+2+1,__zero_reg__
 637:AdDemo.c      **** 			pose[2]=0;
 3203               		.loc 2 637 0 discriminator 1
 3204 11d4 1092 0000 		sts pose+4,__zero_reg__
 3205 11d8 1092 0000 		sts pose+4+1,__zero_reg__
 638:AdDemo.c      **** 			while((PORTE.IN & _BV(1))){ //Localize Wrist Planar Rotation
 3206               		.loc 2 638 0 discriminator 1
 3207 11dc 8091 8806 		lds r24,1672
 641:AdDemo.c      **** 			pose[3]=0;
 3208               		.loc 2 641 0 discriminator 1
 3209 11e0 1092 0000 		sts pose+6,__zero_reg__
 3210 11e4 1092 0000 		sts pose+6+1,__zero_reg__
 642:AdDemo.c      **** 			while((PORTE.IN & _BV(2))){ //Localize Wrist Axial Rotation
 3211               		.loc 2 642 0 discriminator 1
 3212 11e8 8091 8806 		lds r24,1672
 645:AdDemo.c      **** 			pose[4]=0;
 3213               		.loc 2 645 0 discriminator 1
 3214 11ec 1092 0000 		sts pose+8,__zero_reg__
 3215 11f0 1092 0000 		sts pose+8+1,__zero_reg__
 646:AdDemo.c      **** 			while((PORTE.IN & _BV(3))){ //Localize Gripper
 3216               		.loc 2 646 0 discriminator 1
 3217 11f4 8091 8806 		lds r24,1672
 649:AdDemo.c      **** 			pose[5]=0;
 3218               		.loc 2 649 0 discriminator 1
 3219 11f8 1092 0000 		sts pose+10,__zero_reg__
 3220 11fc 1092 0000 		sts pose+10+1,__zero_reg__
GAS LISTING /tmp/ccPqDIXf.s 			page 80


 650:AdDemo.c      **** 			state = IDLE;
 3221               		.loc 2 650 0 discriminator 1
 3222 1200 C093 0000 		sts state,r28
 3223 1204 D093 0000 		sts state+1,r29
 3224 1208 00C0      		rjmp .L233
 3225               	.L226:
 651:AdDemo.c      **** 		} else if(state == IDLE){			
 3226               		.loc 2 651 0
 3227 120a 8230      		cpi r24,2
 3228 120c 9105      		cpc r25,__zero_reg__
 3229 120e 01F4      		brne .L228
 652:AdDemo.c      **** 			usbUpdate();
 3230               		.loc 2 652 0
 3231 1210 0E94 0000 		call usbUpdate
 3232               	.LVL259:
 654:AdDemo.c      **** 				state = MOVING;
 3233               		.loc 2 654 0
 3234 1214 0093 0000 		sts state,r16
 3235 1218 1093 0000 		sts state+1,r17
 3236 121c 00C0      		rjmp .L233
 3237               	.L228:
 656:AdDemo.c      **** 		} else if(state == MOVING){
 3238               		.loc 2 656 0
 3239 121e 0397      		sbiw r24,3
 3240 1220 01F4      		brne .L233
 658:AdDemo.c      **** 			if(!compareArray(pose,goal)){
 3241               		.loc 2 658 0
 3242 1222 60E0      		ldi r22,lo8(goal)
 3243 1224 70E0      		ldi r23,hi8(goal)
 3244 1226 80E0      		ldi r24,lo8(pose)
 3245 1228 90E0      		ldi r25,hi8(pose)
 3246 122a 0E94 0000 		call compareArray
 3247               	.LVL260:
 3248 122e 892B      		or r24,r25
 3249 1230 01F4      		brne .L229
 660:AdDemo.c      **** 				moveToGoal();
 3250               		.loc 2 660 0
 3251 1232 0E94 0000 		call moveToGoal
 3252               	.LVL261:
 3253 1236 00C0      		rjmp .L233
 3254               	.L229:
 3255               		.loc 2 664 0
 3256 1238 C093 0000 		sts state,r28
 3257 123c D093 0000 		sts state+1,r29
 665:AdDemo.c      **** 					debugFlag++;
 3258               		.loc 2 665 0
 3259 1240 8091 0000 		lds r24,debugFlag
 3260 1244 9091 0000 		lds r25,debugFlag+1
 3261 1248 0196      		adiw r24,1
 3262 124a 8093 0000 		sts debugFlag,r24
 3263 124e 9093 0000 		sts debugFlag+1,r25
 3264 1252 00C0      		rjmp .L233
 3265               	.L225:
 3266 1254 00C0      		rjmp .L225
 3267               	.LFE33:
 3268               		.size	mainLoop, .-mainLoop
 3269               		.section	.text.startup,"ax",@progbits
GAS LISTING /tmp/ccPqDIXf.s 			page 81


 3270               	.global	main
 3271               		.type	main, @function
 3272               	main:
 3273               	.LFB34:
 666:AdDemo.c      **** 			}
 667:AdDemo.c      **** 		} else if(state == LOST){
 668:AdDemo.c      **** 			
 669:AdDemo.c      **** 		}	
 670:AdDemo.c      **** 	}
 671:AdDemo.c      **** }
 672:AdDemo.c      **** 
 673:AdDemo.c      **** int main (void)
 674:AdDemo.c      **** {
 3274               		.loc 2 674 0
 3275               	/* prologue: function */
 3276               	/* frame size = 0 */
 3277               	/* stack size = 0 */
 3278               	.L__stack_usage = 0
 675:AdDemo.c      **** 	Config32MHzClock();// Set Clock Speed to 32MHz	
 3279               		.loc 2 675 0
 3280 0000 0E94 0000 		call Config32MHzClock
 3281               	.LVL262:
 676:AdDemo.c      **** 	
 677:AdDemo.c      **** 	PORTE.DIRSET |= _BV(0); // DEBUG: Set pin E0 as OUTPUT
 3282               		.loc 2 677 0
 3283 0004 E0E8      		ldi r30,lo8(-128)
 3284 0006 F6E0      		ldi r31,lo8(6)
 3285 0008 8181      		ldd r24,Z+1
 3286 000a 8160      		ori r24,lo8(1)
 3287 000c 8183      		std Z+1,r24
 678:AdDemo.c      **** 	
 679:AdDemo.c      **** 	
 680:AdDemo.c      **** 	/* Timer for keeping track of milliseconds:
 681:AdDemo.c      **** 	 * The result of this triggers the interrupt once per millisecond.
 682:AdDemo.c      **** 	 */
 683:AdDemo.c      **** 	TCC0.PER = 4000;// Set HIGH to 4000 and LOW to 0
 3288               		.loc 2 683 0
 3289 000e A0E0      		ldi r26,0
 3290 0010 B8E0      		ldi r27,lo8(8)
 3291 0012 80EA      		ldi r24,lo8(-96)
 3292 0014 9FE0      		ldi r25,lo8(15)
 3293 0016 9696      		adiw r26,38
 3294 0018 8D93      		st X+,r24
 3295 001a 9C93      		st X,r25
 3296 001c 9797      		sbiw r26,38+1
 684:AdDemo.c      **** 	TCC0.CTRLA = ( TCC0.CTRLA & ~TC0_CLKSEL_gm ) | TC_CLKSEL_DIV8_gc; // Work from CPUCLK/8
 3297               		.loc 2 684 0
 3298 001e 8C91      		ld r24,X
 3299 0020 807F      		andi r24,lo8(-16)
 3300 0022 8460      		ori r24,lo8(4)
 3301 0024 8C93      		st X,r24
 685:AdDemo.c      **** 	TCC0.INTCTRLA = ( TCC0.INTCTRLA & ~TC0_OVFINTLVL_gm ) | TC_OVFINTLVL_HI_gc; // Enable overflow int
 3302               		.loc 2 685 0
 3303 0026 1696      		adiw r26,6
 3304 0028 8C91      		ld r24,X
 3305 002a 1697      		sbiw r26,6
 3306 002c 8360      		ori r24,lo8(3)
GAS LISTING /tmp/ccPqDIXf.s 			page 82


 3307 002e 1696      		adiw r26,6
 3308 0030 8C93      		st X,r24
 686:AdDemo.c      **** 	// Enable low interrupt level in PMIC and enable global interrupts.
 687:AdDemo.c      **** 	PMIC.CTRL |= PMIC_HILVLEN_bm;
 3309               		.loc 2 687 0
 3310 0032 A0EA      		ldi r26,lo8(-96)
 3311 0034 B0E0      		ldi r27,0
 3312 0036 1296      		adiw r26,2
 3313 0038 8C91      		ld r24,X
 3314 003a 1297      		sbiw r26,2
 3315 003c 8460      		ori r24,lo8(4)
 3316 003e 1296      		adiw r26,2
 3317 0040 8C93      		st X,r24
 688:AdDemo.c      **** 	sei();
 3318               		.loc 2 688 0
 3319               	/* #APP */
 3320               	 ;  688 "AdDemo.c" 1
 3321 0042 7894      		sei
 3322               	 ;  0 "" 2
 689:AdDemo.c      **** 
 690:AdDemo.c      **** 
 691:AdDemo.c      **** 	/* Set I/O */
 692:AdDemo.c      **** 	PORTA.DIRSET |= 0XFF;// Set PortA 0-7 to output
 3323               		.loc 2 692 0
 3324               	/* #NOAPP */
 3325 0044 A0E0      		ldi r26,0
 3326 0046 B6E0      		ldi r27,lo8(6)
 3327 0048 1196      		adiw r26,1
 3328 004a 8C91      		ld r24,X
 3329 004c 1197      		sbiw r26,1
 3330 004e 8FEF      		ldi r24,lo8(-1)
 3331 0050 1196      		adiw r26,1
 3332 0052 8C93      		st X,r24
 693:AdDemo.c      **** 	PORTB.DIRSET |= 0xFF;// Set PortB 0-7 to output
 3333               		.loc 2 693 0
 3334 0054 A0E2      		ldi r26,lo8(32)
 3335 0056 B6E0      		ldi r27,lo8(6)
 3336 0058 1196      		adiw r26,1
 3337 005a 9C91      		ld r25,X
 3338 005c 1197      		sbiw r26,1
 3339 005e 1196      		adiw r26,1
 3340 0060 8C93      		st X,r24
 694:AdDemo.c      **** 	PORTC.DIRSET |= 0xFF;// Set PortC 0-7 to output
 3341               		.loc 2 694 0
 3342 0062 A0E4      		ldi r26,lo8(64)
 3343 0064 B6E0      		ldi r27,lo8(6)
 3344 0066 1196      		adiw r26,1
 3345 0068 9C91      		ld r25,X
 3346 006a 1197      		sbiw r26,1
 3347 006c 1196      		adiw r26,1
 3348 006e 8C93      		st X,r24
 695:AdDemo.c      **** 	PORTD.DIRSET |= 0x0F;// Set PortD pins 0-3 to output
 3349               		.loc 2 695 0
 3350 0070 A0E6      		ldi r26,lo8(96)
 3351 0072 B6E0      		ldi r27,lo8(6)
 3352 0074 1196      		adiw r26,1
 3353 0076 8C91      		ld r24,X
GAS LISTING /tmp/ccPqDIXf.s 			page 83


 3354 0078 1197      		sbiw r26,1
 3355 007a 8F60      		ori r24,lo8(15)
 3356 007c 1196      		adiw r26,1
 3357 007e 8C93      		st X,r24
 3358 0080 1197      		sbiw r26,1
 696:AdDemo.c      **** 
 697:AdDemo.c      **** 	PORTD.PIN4CTRL = PORT_OPC_PULLUP_gc; //Set pin D4 as INPUT and as a pullup (Detect when pulled LOW
 3359               		.loc 2 697 0
 3360 0082 88E1      		ldi r24,lo8(24)
 3361 0084 5496      		adiw r26,20
 3362 0086 8C93      		st X,r24
 3363 0088 5497      		sbiw r26,20
 698:AdDemo.c      **** 	PORTD.PIN5CTRL = PORT_OPC_PULLUP_gc; //Set pin D5 as INPUT and as a pullup (Detect when pulled LOW
 3364               		.loc 2 698 0
 3365 008a 5596      		adiw r26,21
 3366 008c 8C93      		st X,r24
 699:AdDemo.c      **** //	PORTE.PIN0CTRL = PORT_OPC_PULLUP_gc; //Set pin E0 as INPUT and as a pullup (Detect when pulled L
 700:AdDemo.c      **** 	PORTE.PIN1CTRL = PORT_OPC_PULLUP_gc; //Set pin E1 as INPUT and as a pullup (Detect when pulled LOW
 3367               		.loc 2 700 0
 3368 008e 818B      		std Z+17,r24
 701:AdDemo.c      **** 	PORTE.PIN2CTRL = PORT_OPC_PULLUP_gc; //Set pin E2 as INPUT and as a pullup (Detect when pulled LOW
 3369               		.loc 2 701 0
 3370 0090 828B      		std Z+18,r24
 702:AdDemo.c      **** 	PORTE.PIN3CTRL = PORT_OPC_PULLUP_gc; //Set pin E3 as INPUT and as a pullup (Detect when pulled LOW
 3371               		.loc 2 702 0
 3372 0092 838B      		std Z+19,r24
 703:AdDemo.c      **** 	
 704:AdDemo.c      **** 	mainLoop();
 3373               		.loc 2 704 0
 3374 0094 0E94 0000 		call mainLoop
 3375               	.LVL263:
 3376               	.LFE34:
 3377               		.size	main, .-main
 3378               	.global	Gripper
 3379               		.data
 3380               		.type	Gripper, @object
 3381               		.size	Gripper, 36
 3382               	Gripper:
 3383 0000 0600      		.word	6
 3384 0002 0100      		.word	1
 3385 0004 2800      		.word	40
 3386 0006 0A        		.byte	10
 3387 0007 00        		.byte	0
 3388 0008 00        		.byte	0
 3389 0009 00        		.byte	0
 3390 000a C800      		.word	200
 3391 000c 0400      		.word	4
 3392 000e 0000      		.word	0
 3393 0010 0000      		.word	0
 3394 0012 2003      		.word	800
 3395 0014 44        		.byte	68
 3396 0015 0000      		.word	0
 3397 0017 44        		.byte	68
 3398 0018 0100      		.word	1
 3399 001a 44        		.byte	68
 3400 001b 0200      		.word	2
 3401 001d 44        		.byte	68
GAS LISTING /tmp/ccPqDIXf.s 			page 84


 3402 001e 0300      		.word	3
 3403 0020 0000 0000 		.zero	4
 3404               	.global	Right_Wrist
 3405               		.type	Right_Wrist, @object
 3406               		.size	Right_Wrist, 36
 3407               	Right_Wrist:
 3408 0024 0400      		.word	4
 3409 0026 0100      		.word	1
 3410 0028 2800      		.word	40
 3411 002a 0A        		.byte	10
 3412 002b 00        		.byte	0
 3413 002c 00        		.byte	0
 3414 002d 00        		.byte	0
 3415 002e C800      		.word	200
 3416 0030 0400      		.word	4
 3417 0032 0000      		.word	0
 3418 0034 C800      		.word	200
 3419 0036 38FF      		.word	-200
 3420 0038 43        		.byte	67
 3421 0039 0000      		.word	0
 3422 003b 43        		.byte	67
 3423 003c 0100      		.word	1
 3424 003e 43        		.byte	67
 3425 003f 0200      		.word	2
 3426 0041 43        		.byte	67
 3427 0042 0300      		.word	3
 3428 0044 0000 0000 		.zero	4
 3429               	.global	Left_Wrist
 3430               		.type	Left_Wrist, @object
 3431               		.size	Left_Wrist, 36
 3432               	Left_Wrist:
 3433 0048 0500      		.word	5
 3434 004a 0100      		.word	1
 3435 004c 2800      		.word	40
 3436 004e 0A        		.byte	10
 3437 004f 00        		.byte	0
 3438 0050 00        		.byte	0
 3439 0051 00        		.byte	0
 3440 0052 C800      		.word	200
 3441 0054 0400      		.word	4
 3442 0056 0000      		.word	0
 3443 0058 38FF      		.word	-200
 3444 005a C800      		.word	200
 3445 005c 43        		.byte	67
 3446 005d 0400      		.word	4
 3447 005f 43        		.byte	67
 3448 0060 0500      		.word	5
 3449 0062 43        		.byte	67
 3450 0063 0600      		.word	6
 3451 0065 43        		.byte	67
 3452 0066 0700      		.word	7
 3453 0068 0000 0000 		.zero	4
 3454               	.global	Elbow
 3455               		.type	Elbow, @object
 3456               		.size	Elbow, 36
 3457               	Elbow:
 3458 006c 0300      		.word	3
GAS LISTING /tmp/ccPqDIXf.s 			page 85


 3459 006e 0100      		.word	1
 3460 0070 2800      		.word	40
 3461 0072 0A        		.byte	10
 3462 0073 00        		.byte	0
 3463 0074 00        		.byte	0
 3464 0075 00        		.byte	0
 3465 0076 C800      		.word	200
 3466 0078 0400      		.word	4
 3467 007a 0000      		.word	0
 3468 007c 0000      		.word	0
 3469 007e AA05      		.word	1450
 3470 0080 42        		.byte	66
 3471 0081 0000      		.word	0
 3472 0083 42        		.byte	66
 3473 0084 0100      		.word	1
 3474 0086 42        		.byte	66
 3475 0087 0200      		.word	2
 3476 0089 42        		.byte	66
 3477 008a 0300      		.word	3
 3478 008c 0000 0000 		.zero	4
 3479               	.global	Shoulder
 3480               		.type	Shoulder, @object
 3481               		.size	Shoulder, 36
 3482               	Shoulder:
 3483 0090 0200      		.word	2
 3484 0092 0100      		.word	1
 3485 0094 2800      		.word	40
 3486 0096 0A        		.byte	10
 3487 0097 00        		.byte	0
 3488 0098 00        		.byte	0
 3489 0099 00        		.byte	0
 3490 009a C800      		.word	200
 3491 009c 0400      		.word	4
 3492 009e 0000      		.word	0
 3493 00a0 0000      		.word	0
 3494 00a2 56FA      		.word	-1450
 3495 00a4 41        		.byte	65
 3496 00a5 0400      		.word	4
 3497 00a7 41        		.byte	65
 3498 00a8 0500      		.word	5
 3499 00aa 41        		.byte	65
 3500 00ab 0600      		.word	6
 3501 00ad 41        		.byte	65
 3502 00ae 0700      		.word	7
 3503 00b0 0000 0000 		.zero	4
 3504               	.global	Base
 3505               		.type	Base, @object
 3506               		.size	Base, 36
 3507               	Base:
 3508 00b4 0100      		.word	1
 3509 00b6 0100      		.word	1
 3510 00b8 2800      		.word	40
 3511 00ba 0A        		.byte	10
 3512 00bb 00        		.byte	0
 3513 00bc 00        		.byte	0
 3514 00bd 00        		.byte	0
 3515 00be C800      		.word	200
GAS LISTING /tmp/ccPqDIXf.s 			page 86


 3516 00c0 0400      		.word	4
 3517 00c2 0000      		.word	0
 3518 00c4 AEFC      		.word	-850
 3519 00c6 5203      		.word	850
 3520 00c8 41        		.byte	65
 3521 00c9 0000      		.word	0
 3522 00cb 41        		.byte	65
 3523 00cc 0100      		.word	1
 3524 00ce 41        		.byte	65
 3525 00cf 0200      		.word	2
 3526 00d1 41        		.byte	65
 3527 00d2 0300      		.word	3
 3528 00d4 0000 0000 		.zero	4
 3529               	.global	elapsedMillis
 3530               		.section .bss
 3531               		.type	elapsedMillis, @object
 3532               		.size	elapsedMillis, 4
 3533               	elapsedMillis:
 3534 0000 0000 0000 		.zero	4
 3535               	.global	pose
 3536               		.type	pose, @object
 3537               		.size	pose, 12
 3538               	pose:
 3539 0004 0000 0000 		.zero	12
 3539      0000 0000 
 3539      0000 0000 
 3540               	.global	goal
 3541               		.type	goal, @object
 3542               		.size	goal, 12
 3543               	goal:
 3544 0010 0000 0000 		.zero	12
 3544      0000 0000 
 3544      0000 0000 
 3545               	.global	debugFlag
 3546               		.type	debugFlag, @object
 3547               		.size	debugFlag, 2
 3548               	debugFlag:
 3549 001c 0000      		.zero	2
 3550               	.global	state
 3551               		.data
 3552               		.type	state, @object
 3553               		.size	state, 2
 3554               	state:
 3555 00d8 0100      		.word	1
 3556               		.section	.debug_frame,"",@progbits
 3557               	.Lframe0:
 3558 0000 1000 0000 		.long	.LECIE0-.LSCIE0
 3559               	.LSCIE0:
 3560 0004 FFFF FFFF 		.long	0xffffffff
 3561 0008 01        		.byte	0x1
 3562 0009 00        		.string	""
 3563 000a 01        		.uleb128 0x1
 3564 000b 7F        		.sleb128 -1
 3565 000c 24        		.byte	0x24
 3566 000d 0C        		.byte	0xc
 3567 000e 20        		.uleb128 0x20
 3568 000f 02        		.uleb128 0x2
GAS LISTING /tmp/ccPqDIXf.s 			page 87


 3569 0010 A4        		.byte	0xa4
 3570 0011 01        		.uleb128 0x1
 3571 0012 0000      		.p2align	2
 3572               	.LECIE0:
 3573               	.LSFDE0:
 3574 0014 2400 0000 		.long	.LEFDE0-.LASFDE0
 3575               	.LASFDE0:
 3576 0018 0000 0000 		.long	.Lframe0
 3577 001c 0000 0000 		.long	.LFB7
 3578 0020 2A00 0000 		.long	.LFE7-.LFB7
 3579 0024 42        		.byte	0x4
 3580               		.long	.LCFI0-.LFB7
 3581 0025 0E        		.byte	0xe
 3582 0026 03        		.uleb128 0x3
 3583 0027 90        		.byte	0x90
 3584 0028 02        		.uleb128 0x2
 3585 0029 42        		.byte	0x4
 3586               		.long	.LCFI1-.LCFI0
 3587 002a 0E        		.byte	0xe
 3588 002b 04        		.uleb128 0x4
 3589 002c 9C        		.byte	0x9c
 3590 002d 03        		.uleb128 0x3
 3591 002e 42        		.byte	0x4
 3592               		.long	.LCFI2-.LCFI1
 3593 002f 0E        		.byte	0xe
 3594 0030 05        		.uleb128 0x5
 3595 0031 9D        		.byte	0x9d
 3596 0032 04        		.uleb128 0x4
 3597 0033 42        		.byte	0x4
 3598               		.long	.LCFI3-.LCFI2
 3599 0034 0E        		.byte	0xe
 3600 0035 06        		.uleb128 0x6
 3601 0036 44        		.byte	0x4
 3602               		.long	.LCFI4-.LCFI3
 3603 0037 0D        		.byte	0xd
 3604 0038 1C        		.uleb128 0x1c
 3605 0039 0000 00   		.p2align	2
 3606               	.LEFDE0:
 3607               	.LSFDE2:
 3608 003c 0C00 0000 		.long	.LEFDE2-.LASFDE2
 3609               	.LASFDE2:
 3610 0040 0000 0000 		.long	.Lframe0
 3611 0044 0000 0000 		.long	.LFB8
 3612 0048 1400 0000 		.long	.LFE8-.LFB8
 3613               		.p2align	2
 3614               	.LEFDE2:
 3615               	.LSFDE4:
 3616 004c 0C00 0000 		.long	.LEFDE4-.LASFDE4
 3617               	.LASFDE4:
 3618 0050 0000 0000 		.long	.Lframe0
 3619 0054 0000 0000 		.long	.LFB9
 3620 0058 0C00 0000 		.long	.LFE9-.LFB9
 3621               		.p2align	2
 3622               	.LEFDE4:
 3623               	.LSFDE6:
 3624 005c 0C00 0000 		.long	.LEFDE6-.LASFDE6
 3625               	.LASFDE6:
GAS LISTING /tmp/ccPqDIXf.s 			page 88


 3626 0060 0000 0000 		.long	.Lframe0
 3627 0064 0000 0000 		.long	.LFB10
 3628 0068 1400 0000 		.long	.LFE10-.LFB10
 3629               		.p2align	2
 3630               	.LEFDE6:
 3631               	.LSFDE8:
 3632 006c 0C00 0000 		.long	.LEFDE8-.LASFDE8
 3633               	.LASFDE8:
 3634 0070 0000 0000 		.long	.Lframe0
 3635 0074 0000 0000 		.long	.LFB11
 3636 0078 0A00 0000 		.long	.LFE11-.LFB11
 3637               		.p2align	2
 3638               	.LEFDE8:
 3639               	.LSFDE10:
 3640 007c 1C00 0000 		.long	.LEFDE10-.LASFDE10
 3641               	.LASFDE10:
 3642 0080 0000 0000 		.long	.Lframe0
 3643 0084 0000 0000 		.long	.LFB12
 3644 0088 2600 0000 		.long	.LFE12-.LFB12
 3645 008c 42        		.byte	0x4
 3646               		.long	.LCFI5-.LFB12
 3647 008d 0E        		.byte	0xe
 3648 008e 03        		.uleb128 0x3
 3649 008f 91        		.byte	0x91
 3650 0090 02        		.uleb128 0x2
 3651 0091 42        		.byte	0x4
 3652               		.long	.LCFI6-.LCFI5
 3653 0092 0E        		.byte	0xe
 3654 0093 04        		.uleb128 0x4
 3655 0094 9C        		.byte	0x9c
 3656 0095 03        		.uleb128 0x3
 3657 0096 42        		.byte	0x4
 3658               		.long	.LCFI7-.LCFI6
 3659 0097 0E        		.byte	0xe
 3660 0098 05        		.uleb128 0x5
 3661 0099 9D        		.byte	0x9d
 3662 009a 04        		.uleb128 0x4
 3663 009b 00        		.p2align	2
 3664               	.LEFDE10:
 3665               	.LSFDE12:
 3666 009c 0C00 0000 		.long	.LEFDE12-.LASFDE12
 3667               	.LASFDE12:
 3668 00a0 0000 0000 		.long	.Lframe0
 3669 00a4 0000 0000 		.long	.LFB13
 3670 00a8 1000 0000 		.long	.LFE13-.LFB13
 3671               		.p2align	2
 3672               	.LEFDE12:
 3673               	.LSFDE14:
 3674 00ac 0C00 0000 		.long	.LEFDE14-.LASFDE14
 3675               	.LASFDE14:
 3676 00b0 0000 0000 		.long	.Lframe0
 3677 00b4 0000 0000 		.long	.LFB14
 3678 00b8 3800 0000 		.long	.LFE14-.LFB14
 3679               		.p2align	2
 3680               	.LEFDE14:
 3681               	.LSFDE16:
 3682 00bc 0C00 0000 		.long	.LEFDE16-.LASFDE16
GAS LISTING /tmp/ccPqDIXf.s 			page 89


 3683               	.LASFDE16:
 3684 00c0 0000 0000 		.long	.Lframe0
 3685 00c4 0000 0000 		.long	.LFB15
 3686 00c8 0A00 0000 		.long	.LFE15-.LFB15
 3687               		.p2align	2
 3688               	.LEFDE16:
 3689               	.LSFDE18:
 3690 00cc 0C00 0000 		.long	.LEFDE18-.LASFDE18
 3691               	.LASFDE18:
 3692 00d0 0000 0000 		.long	.Lframe0
 3693 00d4 0000 0000 		.long	.LFB16
 3694 00d8 0A00 0000 		.long	.LFE16-.LFB16
 3695               		.p2align	2
 3696               	.LEFDE18:
 3697               	.LSFDE20:
 3698 00dc 2C00 0000 		.long	.LEFDE20-.LASFDE20
 3699               	.LASFDE20:
 3700 00e0 0000 0000 		.long	.Lframe0
 3701 00e4 0000 0000 		.long	.LFB17
 3702 00e8 4A00 0000 		.long	.LFE17-.LFB17
 3703 00ec 42        		.byte	0x4
 3704               		.long	.LCFI8-.LFB17
 3705 00ed 0E        		.byte	0xe
 3706 00ee 03        		.uleb128 0x3
 3707 00ef 81        		.byte	0x81
 3708 00f0 02        		.uleb128 0x2
 3709 00f1 42        		.byte	0x4
 3710               		.long	.LCFI9-.LCFI8
 3711 00f2 0E        		.byte	0xe
 3712 00f3 04        		.uleb128 0x4
 3713 00f4 80        		.byte	0x80
 3714 00f5 03        		.uleb128 0x3
 3715 00f6 48        		.byte	0x4
 3716               		.long	.LCFI10-.LCFI9
 3717 00f7 0E        		.byte	0xe
 3718 00f8 05        		.uleb128 0x5
 3719 00f9 98        		.byte	0x98
 3720 00fa 04        		.uleb128 0x4
 3721 00fb 42        		.byte	0x4
 3722               		.long	.LCFI11-.LCFI10
 3723 00fc 0E        		.byte	0xe
 3724 00fd 06        		.uleb128 0x6
 3725 00fe 99        		.byte	0x99
 3726 00ff 05        		.uleb128 0x5
 3727 0100 42        		.byte	0x4
 3728               		.long	.LCFI12-.LCFI11
 3729 0101 0E        		.byte	0xe
 3730 0102 07        		.uleb128 0x7
 3731 0103 9A        		.byte	0x9a
 3732 0104 06        		.uleb128 0x6
 3733 0105 42        		.byte	0x4
 3734               		.long	.LCFI13-.LCFI12
 3735 0106 0E        		.byte	0xe
 3736 0107 08        		.uleb128 0x8
 3737 0108 9B        		.byte	0x9b
 3738 0109 07        		.uleb128 0x7
 3739 010a 0000      		.p2align	2
GAS LISTING /tmp/ccPqDIXf.s 			page 90


 3740               	.LEFDE20:
 3741               	.LSFDE22:
 3742 010c 0C00 0000 		.long	.LEFDE22-.LASFDE22
 3743               	.LASFDE22:
 3744 0110 0000 0000 		.long	.Lframe0
 3745 0114 0000 0000 		.long	.LFB18
 3746 0118 1C00 0000 		.long	.LFE18-.LFB18
 3747               		.p2align	2
 3748               	.LEFDE22:
 3749               	.LSFDE24:
 3750 011c 0C00 0000 		.long	.LEFDE24-.LASFDE24
 3751               	.LASFDE24:
 3752 0120 0000 0000 		.long	.Lframe0
 3753 0124 0000 0000 		.long	.LFB19
 3754 0128 7A00 0000 		.long	.LFE19-.LFB19
 3755               		.p2align	2
 3756               	.LEFDE24:
 3757               	.LSFDE26:
 3758 012c 0C00 0000 		.long	.LEFDE26-.LASFDE26
 3759               	.LASFDE26:
 3760 0130 0000 0000 		.long	.Lframe0
 3761 0134 0000 0000 		.long	.LFB20
 3762 0138 1C00 0000 		.long	.LFE20-.LFB20
 3763               		.p2align	2
 3764               	.LEFDE26:
 3765               	.LSFDE28:
 3766 013c 0C00 0000 		.long	.LEFDE28-.LASFDE28
 3767               	.LASFDE28:
 3768 0140 0000 0000 		.long	.Lframe0
 3769 0144 0000 0000 		.long	.LFB21
 3770 0148 1E00 0000 		.long	.LFE21-.LFB21
 3771               		.p2align	2
 3772               	.LEFDE28:
 3773               	.LSFDE30:
 3774 014c 1800 0000 		.long	.LEFDE30-.LASFDE30
 3775               	.LASFDE30:
 3776 0150 0000 0000 		.long	.Lframe0
 3777 0154 0000 0000 		.long	.LFB22
 3778 0158 1E00 0000 		.long	.LFE22-.LFB22
 3779 015c 42        		.byte	0x4
 3780               		.long	.LCFI14-.LFB22
 3781 015d 0E        		.byte	0xe
 3782 015e 03        		.uleb128 0x3
 3783 015f 90        		.byte	0x90
 3784 0160 02        		.uleb128 0x2
 3785 0161 42        		.byte	0x4
 3786               		.long	.LCFI15-.LCFI14
 3787 0162 0E        		.byte	0xe
 3788 0163 04        		.uleb128 0x4
 3789 0164 91        		.byte	0x91
 3790 0165 03        		.uleb128 0x3
 3791 0166 0000      		.p2align	2
 3792               	.LEFDE30:
 3793               	.LSFDE32:
 3794 0168 2800 0000 		.long	.LEFDE32-.LASFDE32
 3795               	.LASFDE32:
 3796 016c 0000 0000 		.long	.Lframe0
GAS LISTING /tmp/ccPqDIXf.s 			page 91


 3797 0170 0000 0000 		.long	.LFB23
 3798 0174 2C00 0000 		.long	.LFE23-.LFB23
 3799 0178 42        		.byte	0x4
 3800               		.long	.LCFI16-.LFB23
 3801 0179 0E        		.byte	0xe
 3802 017a 03        		.uleb128 0x3
 3803 017b 8F        		.byte	0x8f
 3804 017c 02        		.uleb128 0x2
 3805 017d 42        		.byte	0x4
 3806               		.long	.LCFI17-.LCFI16
 3807 017e 0E        		.byte	0xe
 3808 017f 04        		.uleb128 0x4
 3809 0180 90        		.byte	0x90
 3810 0181 03        		.uleb128 0x3
 3811 0182 42        		.byte	0x4
 3812               		.long	.LCFI18-.LCFI17
 3813 0183 0E        		.byte	0xe
 3814 0184 05        		.uleb128 0x5
 3815 0185 91        		.byte	0x91
 3816 0186 04        		.uleb128 0x4
 3817 0187 42        		.byte	0x4
 3818               		.long	.LCFI19-.LCFI18
 3819 0188 0E        		.byte	0xe
 3820 0189 06        		.uleb128 0x6
 3821 018a 9C        		.byte	0x9c
 3822 018b 05        		.uleb128 0x5
 3823 018c 42        		.byte	0x4
 3824               		.long	.LCFI20-.LCFI19
 3825 018d 0E        		.byte	0xe
 3826 018e 07        		.uleb128 0x7
 3827 018f 9D        		.byte	0x9d
 3828 0190 06        		.uleb128 0x6
 3829 0191 0000 00   		.p2align	2
 3830               	.LEFDE32:
 3831               	.LSFDE34:
 3832 0194 0C00 0000 		.long	.LEFDE34-.LASFDE34
 3833               	.LASFDE34:
 3834 0198 0000 0000 		.long	.Lframe0
 3835 019c 0000 0000 		.long	.LFB24
 3836 01a0 2001 0000 		.long	.LFE24-.LFB24
 3837               		.p2align	2
 3838               	.LEFDE34:
 3839               	.LSFDE36:
 3840 01a4 0C00 0000 		.long	.LEFDE36-.LASFDE36
 3841               	.LASFDE36:
 3842 01a8 0000 0000 		.long	.Lframe0
 3843 01ac 0000 0000 		.long	.LFB25
 3844 01b0 2001 0000 		.long	.LFE25-.LFB25
 3845               		.p2align	2
 3846               	.LEFDE36:
 3847               	.LSFDE38:
 3848 01b4 2C00 0000 		.long	.LEFDE38-.LASFDE38
 3849               	.LASFDE38:
 3850 01b8 0000 0000 		.long	.Lframe0
 3851 01bc 0000 0000 		.long	.LFB26
 3852 01c0 4C00 0000 		.long	.LFE26-.LFB26
 3853 01c4 42        		.byte	0x4
GAS LISTING /tmp/ccPqDIXf.s 			page 92


 3854               		.long	.LCFI21-.LFB26
 3855 01c5 0E        		.byte	0xe
 3856 01c6 03        		.uleb128 0x3
 3857 01c7 8C        		.byte	0x8c
 3858 01c8 02        		.uleb128 0x2
 3859 01c9 42        		.byte	0x4
 3860               		.long	.LCFI22-.LCFI21
 3861 01ca 0E        		.byte	0xe
 3862 01cb 04        		.uleb128 0x4
 3863 01cc 8D        		.byte	0x8d
 3864 01cd 03        		.uleb128 0x3
 3865 01ce 42        		.byte	0x4
 3866               		.long	.LCFI23-.LCFI22
 3867 01cf 0E        		.byte	0xe
 3868 01d0 05        		.uleb128 0x5
 3869 01d1 8E        		.byte	0x8e
 3870 01d2 04        		.uleb128 0x4
 3871 01d3 42        		.byte	0x4
 3872               		.long	.LCFI24-.LCFI23
 3873 01d4 0E        		.byte	0xe
 3874 01d5 06        		.uleb128 0x6
 3875 01d6 8F        		.byte	0x8f
 3876 01d7 05        		.uleb128 0x5
 3877 01d8 42        		.byte	0x4
 3878               		.long	.LCFI25-.LCFI24
 3879 01d9 0E        		.byte	0xe
 3880 01da 07        		.uleb128 0x7
 3881 01db 9C        		.byte	0x9c
 3882 01dc 06        		.uleb128 0x6
 3883 01dd 42        		.byte	0x4
 3884               		.long	.LCFI26-.LCFI25
 3885 01de 0E        		.byte	0xe
 3886 01df 08        		.uleb128 0x8
 3887 01e0 9D        		.byte	0x9d
 3888 01e1 07        		.uleb128 0x7
 3889 01e2 0000      		.p2align	2
 3890               	.LEFDE38:
 3891               	.LSFDE40:
 3892 01e4 4800 0000 		.long	.LEFDE40-.LASFDE40
 3893               	.LASFDE40:
 3894 01e8 0000 0000 		.long	.Lframe0
 3895 01ec 0000 0000 		.long	.LFB27
 3896 01f0 3C01 0000 		.long	.LFE27-.LFB27
 3897 01f4 42        		.byte	0x4
 3898               		.long	.LCFI27-.LFB27
 3899 01f5 0E        		.byte	0xe
 3900 01f6 03        		.uleb128 0x3
 3901 01f7 89        		.byte	0x89
 3902 01f8 02        		.uleb128 0x2
 3903 01f9 42        		.byte	0x4
 3904               		.long	.LCFI28-.LCFI27
 3905 01fa 0E        		.byte	0xe
 3906 01fb 04        		.uleb128 0x4
 3907 01fc 8A        		.byte	0x8a
 3908 01fd 03        		.uleb128 0x3
 3909 01fe 42        		.byte	0x4
 3910               		.long	.LCFI29-.LCFI28
GAS LISTING /tmp/ccPqDIXf.s 			page 93


 3911 01ff 0E        		.byte	0xe
 3912 0200 05        		.uleb128 0x5
 3913 0201 8B        		.byte	0x8b
 3914 0202 04        		.uleb128 0x4
 3915 0203 42        		.byte	0x4
 3916               		.long	.LCFI30-.LCFI29
 3917 0204 0E        		.byte	0xe
 3918 0205 06        		.uleb128 0x6
 3919 0206 8C        		.byte	0x8c
 3920 0207 05        		.uleb128 0x5
 3921 0208 42        		.byte	0x4
 3922               		.long	.LCFI31-.LCFI30
 3923 0209 0E        		.byte	0xe
 3924 020a 07        		.uleb128 0x7
 3925 020b 8D        		.byte	0x8d
 3926 020c 06        		.uleb128 0x6
 3927 020d 42        		.byte	0x4
 3928               		.long	.LCFI32-.LCFI31
 3929 020e 0E        		.byte	0xe
 3930 020f 08        		.uleb128 0x8
 3931 0210 8E        		.byte	0x8e
 3932 0211 07        		.uleb128 0x7
 3933 0212 42        		.byte	0x4
 3934               		.long	.LCFI33-.LCFI32
 3935 0213 0E        		.byte	0xe
 3936 0214 09        		.uleb128 0x9
 3937 0215 8F        		.byte	0x8f
 3938 0216 08        		.uleb128 0x8
 3939 0217 42        		.byte	0x4
 3940               		.long	.LCFI34-.LCFI33
 3941 0218 0E        		.byte	0xe
 3942 0219 0A        		.uleb128 0xa
 3943 021a 90        		.byte	0x90
 3944 021b 09        		.uleb128 0x9
 3945 021c 42        		.byte	0x4
 3946               		.long	.LCFI35-.LCFI34
 3947 021d 0E        		.byte	0xe
 3948 021e 0B        		.uleb128 0xb
 3949 021f 91        		.byte	0x91
 3950 0220 0A        		.uleb128 0xa
 3951 0221 42        		.byte	0x4
 3952               		.long	.LCFI36-.LCFI35
 3953 0222 0E        		.byte	0xe
 3954 0223 0C        		.uleb128 0xc
 3955 0224 9C        		.byte	0x9c
 3956 0225 0B        		.uleb128 0xb
 3957 0226 42        		.byte	0x4
 3958               		.long	.LCFI37-.LCFI36
 3959 0227 0E        		.byte	0xe
 3960 0228 0D        		.uleb128 0xd
 3961 0229 9D        		.byte	0x9d
 3962 022a 0C        		.uleb128 0xc
 3963 022b 44        		.byte	0x4
 3964               		.long	.LCFI38-.LCFI37
 3965 022c 0D        		.byte	0xd
 3966 022d 1C        		.uleb128 0x1c
 3967 022e 0000      		.p2align	2
GAS LISTING /tmp/ccPqDIXf.s 			page 94


 3968               	.LEFDE40:
 3969               	.LSFDE42:
 3970 0230 6800 0000 		.long	.LEFDE42-.LASFDE42
 3971               	.LASFDE42:
 3972 0234 0000 0000 		.long	.Lframe0
 3973 0238 0000 0000 		.long	.LFB28
 3974 023c 0802 0000 		.long	.LFE28-.LFB28
 3975 0240 42        		.byte	0x4
 3976               		.long	.LCFI39-.LFB28
 3977 0241 0E        		.byte	0xe
 3978 0242 03        		.uleb128 0x3
 3979 0243 87        		.byte	0x87
 3980 0244 02        		.uleb128 0x2
 3981 0245 42        		.byte	0x4
 3982               		.long	.LCFI40-.LCFI39
 3983 0246 0E        		.byte	0xe
 3984 0247 04        		.uleb128 0x4
 3985 0248 88        		.byte	0x88
 3986 0249 03        		.uleb128 0x3
 3987 024a 42        		.byte	0x4
 3988               		.long	.LCFI41-.LCFI40
 3989 024b 0E        		.byte	0xe
 3990 024c 05        		.uleb128 0x5
 3991 024d 89        		.byte	0x89
 3992 024e 04        		.uleb128 0x4
 3993 024f 42        		.byte	0x4
 3994               		.long	.LCFI42-.LCFI41
 3995 0250 0E        		.byte	0xe
 3996 0251 06        		.uleb128 0x6
 3997 0252 8A        		.byte	0x8a
 3998 0253 05        		.uleb128 0x5
 3999 0254 42        		.byte	0x4
 4000               		.long	.LCFI43-.LCFI42
 4001 0255 0E        		.byte	0xe
 4002 0256 07        		.uleb128 0x7
 4003 0257 8B        		.byte	0x8b
 4004 0258 06        		.uleb128 0x6
 4005 0259 42        		.byte	0x4
 4006               		.long	.LCFI44-.LCFI43
 4007 025a 0E        		.byte	0xe
 4008 025b 08        		.uleb128 0x8
 4009 025c 8C        		.byte	0x8c
 4010 025d 07        		.uleb128 0x7
 4011 025e 42        		.byte	0x4
 4012               		.long	.LCFI45-.LCFI44
 4013 025f 0E        		.byte	0xe
 4014 0260 09        		.uleb128 0x9
 4015 0261 8D        		.byte	0x8d
 4016 0262 08        		.uleb128 0x8
 4017 0263 42        		.byte	0x4
 4018               		.long	.LCFI46-.LCFI45
 4019 0264 0E        		.byte	0xe
 4020 0265 0A        		.uleb128 0xa
 4021 0266 8E        		.byte	0x8e
 4022 0267 09        		.uleb128 0x9
 4023 0268 42        		.byte	0x4
 4024               		.long	.LCFI47-.LCFI46
GAS LISTING /tmp/ccPqDIXf.s 			page 95


 4025 0269 0E        		.byte	0xe
 4026 026a 0B        		.uleb128 0xb
 4027 026b 8F        		.byte	0x8f
 4028 026c 0A        		.uleb128 0xa
 4029 026d 42        		.byte	0x4
 4030               		.long	.LCFI48-.LCFI47
 4031 026e 0E        		.byte	0xe
 4032 026f 0C        		.uleb128 0xc
 4033 0270 90        		.byte	0x90
 4034 0271 0B        		.uleb128 0xb
 4035 0272 42        		.byte	0x4
 4036               		.long	.LCFI49-.LCFI48
 4037 0273 0E        		.byte	0xe
 4038 0274 0D        		.uleb128 0xd
 4039 0275 91        		.byte	0x91
 4040 0276 0C        		.uleb128 0xc
 4041 0277 42        		.byte	0x4
 4042               		.long	.LCFI50-.LCFI49
 4043 0278 0E        		.byte	0xe
 4044 0279 0E        		.uleb128 0xe
 4045 027a 9C        		.byte	0x9c
 4046 027b 0D        		.uleb128 0xd
 4047 027c 42        		.byte	0x4
 4048               		.long	.LCFI51-.LCFI50
 4049 027d 0E        		.byte	0xe
 4050 027e 0F        		.uleb128 0xf
 4051 027f 9D        		.byte	0x9d
 4052 0280 0E        		.uleb128 0xe
 4053 0281 02        		.byte	0x4
 4054 0282 E2        		.long	.LCFI52-.LCFI51
 4055 0283 0E        		.byte	0xe
 4056 0284 10        		.uleb128 0x10
 4057 0285 42        		.byte	0x4
 4058               		.long	.LCFI53-.LCFI52
 4059 0286 0E        		.byte	0xe
 4060 0287 11        		.uleb128 0x11
 4061 0288 4A        		.byte	0x4
 4062               		.long	.LCFI54-.LCFI53
 4063 0289 0E        		.byte	0xe
 4064 028a 35        		.uleb128 0x35
 4065 028b 60        		.byte	0x4
 4066               		.long	.LCFI55-.LCFI54
 4067 028c 0E        		.byte	0xe
 4068 028d 0F        		.uleb128 0xf
 4069 028e 02        		.byte	0x4
 4070 028f 82        		.long	.LCFI56-.LCFI55
 4071 0290 0E        		.byte	0xe
 4072 0291 10        		.uleb128 0x10
 4073 0292 42        		.byte	0x4
 4074               		.long	.LCFI57-.LCFI56
 4075 0293 0E        		.byte	0xe
 4076 0294 11        		.uleb128 0x11
 4077 0295 4A        		.byte	0x4
 4078               		.long	.LCFI58-.LCFI57
 4079 0296 0E        		.byte	0xe
 4080 0297 35        		.uleb128 0x35
 4081 0298 62        		.byte	0x4
GAS LISTING /tmp/ccPqDIXf.s 			page 96


 4082               		.long	.LCFI59-.LCFI58
 4083 0299 0E        		.byte	0xe
 4084 029a 0F        		.uleb128 0xf
 4085 029b 00        		.p2align	2
 4086               	.LEFDE42:
 4087               	.LSFDE44:
 4088 029c 3000 0000 		.long	.LEFDE44-.LASFDE44
 4089               	.LASFDE44:
 4090 02a0 0000 0000 		.long	.Lframe0
 4091 02a4 0000 0000 		.long	.LFB29
 4092 02a8 6C01 0000 		.long	.LFE29-.LFB29
 4093 02ac 42        		.byte	0x4
 4094               		.long	.LCFI60-.LFB29
 4095 02ad 0E        		.byte	0xe
 4096 02ae 03        		.uleb128 0x3
 4097 02af 9C        		.byte	0x9c
 4098 02b0 02        		.uleb128 0x2
 4099 02b1 42        		.byte	0x4
 4100               		.long	.LCFI61-.LCFI60
 4101 02b2 0E        		.byte	0xe
 4102 02b3 04        		.uleb128 0x4
 4103 02b4 9D        		.byte	0x9d
 4104 02b5 03        		.uleb128 0x3
 4105 02b6 02        		.byte	0x4
 4106 02b7 7C        		.long	.LCFI62-.LCFI61
 4107 02b8 0E        		.byte	0xe
 4108 02b9 05        		.uleb128 0x5
 4109 02ba 42        		.byte	0x4
 4110               		.long	.LCFI63-.LCFI62
 4111 02bb 0E        		.byte	0xe
 4112 02bc 06        		.uleb128 0x6
 4113 02bd 4A        		.byte	0x4
 4114               		.long	.LCFI64-.LCFI63
 4115 02be 0E        		.byte	0xe
 4116 02bf 2A        		.uleb128 0x2a
 4117 02c0 60        		.byte	0x4
 4118               		.long	.LCFI65-.LCFI64
 4119 02c1 0E        		.byte	0xe
 4120 02c2 04        		.uleb128 0x4
 4121 02c3 02        		.byte	0x4
 4122 02c4 8C        		.long	.LCFI66-.LCFI65
 4123 02c5 0E        		.byte	0xe
 4124 02c6 05        		.uleb128 0x5
 4125 02c7 42        		.byte	0x4
 4126               		.long	.LCFI67-.LCFI66
 4127 02c8 0E        		.byte	0xe
 4128 02c9 06        		.uleb128 0x6
 4129 02ca 4A        		.byte	0x4
 4130               		.long	.LCFI68-.LCFI67
 4131 02cb 0E        		.byte	0xe
 4132 02cc 2A        		.uleb128 0x2a
 4133 02cd 62        		.byte	0x4
 4134               		.long	.LCFI69-.LCFI68
 4135 02ce 0E        		.byte	0xe
 4136 02cf 04        		.uleb128 0x4
 4137               		.p2align	2
 4138               	.LEFDE44:
GAS LISTING /tmp/ccPqDIXf.s 			page 97


 4139               	.LSFDE46:
 4140 02d0 2000 0000 		.long	.LEFDE46-.LASFDE46
 4141               	.LASFDE46:
 4142 02d4 0000 0000 		.long	.Lframe0
 4143 02d8 0000 0000 		.long	.LFB30
 4144 02dc 4200 0000 		.long	.LFE30-.LFB30
 4145 02e0 42        		.byte	0x4
 4146               		.long	.LCFI70-.LFB30
 4147 02e1 0E        		.byte	0xe
 4148 02e2 03        		.uleb128 0x3
 4149 02e3 8E        		.byte	0x8e
 4150 02e4 02        		.uleb128 0x2
 4151 02e5 42        		.byte	0x4
 4152               		.long	.LCFI71-.LCFI70
 4153 02e6 0E        		.byte	0xe
 4154 02e7 04        		.uleb128 0x4
 4155 02e8 8F        		.byte	0x8f
 4156 02e9 03        		.uleb128 0x3
 4157 02ea 42        		.byte	0x4
 4158               		.long	.LCFI72-.LCFI71
 4159 02eb 0E        		.byte	0xe
 4160 02ec 05        		.uleb128 0x5
 4161 02ed 90        		.byte	0x90
 4162 02ee 04        		.uleb128 0x4
 4163 02ef 42        		.byte	0x4
 4164               		.long	.LCFI73-.LCFI72
 4165 02f0 0E        		.byte	0xe
 4166 02f1 06        		.uleb128 0x6
 4167 02f2 91        		.byte	0x91
 4168 02f3 05        		.uleb128 0x5
 4169               		.p2align	2
 4170               	.LEFDE46:
 4171               	.LSFDE48:
 4172 02f4 6C00 0000 		.long	.LEFDE48-.LASFDE48
 4173               	.LASFDE48:
 4174 02f8 0000 0000 		.long	.Lframe0
 4175 02fc 0000 0000 		.long	.LFB31
 4176 0300 2C07 0000 		.long	.LFE31-.LFB31
 4177 0304 42        		.byte	0x4
 4178               		.long	.LCFI74-.LFB31
 4179 0305 0E        		.byte	0xe
 4180 0306 03        		.uleb128 0x3
 4181 0307 82        		.byte	0x82
 4182 0308 02        		.uleb128 0x2
 4183 0309 42        		.byte	0x4
 4184               		.long	.LCFI75-.LCFI74
 4185 030a 0E        		.byte	0xe
 4186 030b 04        		.uleb128 0x4
 4187 030c 83        		.byte	0x83
 4188 030d 03        		.uleb128 0x3
 4189 030e 42        		.byte	0x4
 4190               		.long	.LCFI76-.LCFI75
 4191 030f 0E        		.byte	0xe
 4192 0310 05        		.uleb128 0x5
 4193 0311 84        		.byte	0x84
 4194 0312 04        		.uleb128 0x4
 4195 0313 42        		.byte	0x4
GAS LISTING /tmp/ccPqDIXf.s 			page 98


 4196               		.long	.LCFI77-.LCFI76
 4197 0314 0E        		.byte	0xe
 4198 0315 06        		.uleb128 0x6
 4199 0316 85        		.byte	0x85
 4200 0317 05        		.uleb128 0x5
 4201 0318 42        		.byte	0x4
 4202               		.long	.LCFI78-.LCFI77
 4203 0319 0E        		.byte	0xe
 4204 031a 07        		.uleb128 0x7
 4205 031b 86        		.byte	0x86
 4206 031c 06        		.uleb128 0x6
 4207 031d 42        		.byte	0x4
 4208               		.long	.LCFI79-.LCFI78
 4209 031e 0E        		.byte	0xe
 4210 031f 08        		.uleb128 0x8
 4211 0320 87        		.byte	0x87
 4212 0321 07        		.uleb128 0x7
 4213 0322 42        		.byte	0x4
 4214               		.long	.LCFI80-.LCFI79
 4215 0323 0E        		.byte	0xe
 4216 0324 09        		.uleb128 0x9
 4217 0325 88        		.byte	0x88
 4218 0326 08        		.uleb128 0x8
 4219 0327 42        		.byte	0x4
 4220               		.long	.LCFI81-.LCFI80
 4221 0328 0E        		.byte	0xe
 4222 0329 0A        		.uleb128 0xa
 4223 032a 89        		.byte	0x89
 4224 032b 09        		.uleb128 0x9
 4225 032c 42        		.byte	0x4
 4226               		.long	.LCFI82-.LCFI81
 4227 032d 0E        		.byte	0xe
 4228 032e 0B        		.uleb128 0xb
 4229 032f 8A        		.byte	0x8a
 4230 0330 0A        		.uleb128 0xa
 4231 0331 42        		.byte	0x4
 4232               		.long	.LCFI83-.LCFI82
 4233 0332 0E        		.byte	0xe
 4234 0333 0C        		.uleb128 0xc
 4235 0334 8B        		.byte	0x8b
 4236 0335 0B        		.uleb128 0xb
 4237 0336 42        		.byte	0x4
 4238               		.long	.LCFI84-.LCFI83
 4239 0337 0E        		.byte	0xe
 4240 0338 0D        		.uleb128 0xd
 4241 0339 8C        		.byte	0x8c
 4242 033a 0C        		.uleb128 0xc
 4243 033b 42        		.byte	0x4
 4244               		.long	.LCFI85-.LCFI84
 4245 033c 0E        		.byte	0xe
 4246 033d 0E        		.uleb128 0xe
 4247 033e 8D        		.byte	0x8d
 4248 033f 0D        		.uleb128 0xd
 4249 0340 42        		.byte	0x4
 4250               		.long	.LCFI86-.LCFI85
 4251 0341 0E        		.byte	0xe
 4252 0342 0F        		.uleb128 0xf
GAS LISTING /tmp/ccPqDIXf.s 			page 99


 4253 0343 8E        		.byte	0x8e
 4254 0344 0E        		.uleb128 0xe
 4255 0345 42        		.byte	0x4
 4256               		.long	.LCFI87-.LCFI86
 4257 0346 0E        		.byte	0xe
 4258 0347 10        		.uleb128 0x10
 4259 0348 8F        		.byte	0x8f
 4260 0349 0F        		.uleb128 0xf
 4261 034a 42        		.byte	0x4
 4262               		.long	.LCFI88-.LCFI87
 4263 034b 0E        		.byte	0xe
 4264 034c 11        		.uleb128 0x11
 4265 034d 90        		.byte	0x90
 4266 034e 10        		.uleb128 0x10
 4267 034f 42        		.byte	0x4
 4268               		.long	.LCFI89-.LCFI88
 4269 0350 0E        		.byte	0xe
 4270 0351 12        		.uleb128 0x12
 4271 0352 91        		.byte	0x91
 4272 0353 11        		.uleb128 0x11
 4273 0354 42        		.byte	0x4
 4274               		.long	.LCFI90-.LCFI89
 4275 0355 0E        		.byte	0xe
 4276 0356 13        		.uleb128 0x13
 4277 0357 9C        		.byte	0x9c
 4278 0358 12        		.uleb128 0x12
 4279 0359 42        		.byte	0x4
 4280               		.long	.LCFI91-.LCFI90
 4281 035a 0E        		.byte	0xe
 4282 035b 14        		.uleb128 0x14
 4283 035c 9D        		.byte	0x9d
 4284 035d 13        		.uleb128 0x13
 4285 035e 44        		.byte	0x4
 4286               		.long	.LCFI92-.LCFI91
 4287 035f 0D        		.byte	0xd
 4288 0360 1C        		.uleb128 0x1c
 4289 0361 42        		.byte	0x4
 4290               		.long	.LCFI93-.LCFI92
 4291 0362 0E        		.byte	0xe
 4292 0363 2A        		.uleb128 0x2a
 4293               		.p2align	2
 4294               	.LEFDE48:
 4295               	.LSFDE50:
 4296 0364 0C00 0000 		.long	.LEFDE50-.LASFDE50
 4297               	.LASFDE50:
 4298 0368 0000 0000 		.long	.Lframe0
 4299 036c 0000 0000 		.long	.LFB32
 4300 0370 A800 0000 		.long	.LFE32-.LFB32
 4301               		.p2align	2
 4302               	.LEFDE50:
 4303               	.LSFDE52:
 4304 0374 0C00 0000 		.long	.LEFDE52-.LASFDE52
 4305               	.LASFDE52:
 4306 0378 0000 0000 		.long	.Lframe0
 4307 037c 0000 0000 		.long	.LFB33
 4308 0380 B600 0000 		.long	.LFE33-.LFB33
 4309               		.p2align	2
GAS LISTING /tmp/ccPqDIXf.s 			page 100


 4310               	.LEFDE52:
 4311               	.LSFDE54:
 4312 0384 0C00 0000 		.long	.LEFDE54-.LASFDE54
 4313               	.LASFDE54:
 4314 0388 0000 0000 		.long	.Lframe0
 4315 038c 0000 0000 		.long	.LFB34
 4316 0390 9800 0000 		.long	.LFE34-.LFB34
 4317               		.p2align	2
 4318               	.LEFDE54:
 4319               		.text
 4320               	.Letext0:
 4321               		.file 4 "/usr/lib/gcc/avr/4.7.0/../../../avr/include/stdint.h"
 4322               		.file 5 "/usr/lib/gcc/avr/4.7.0/../../../avr/include/avr/iox16a4.h"
 4323               		.section	.debug_info,"",@progbits
 4324               	.Ldebug_info0:
 4325 0000 201B 0000 		.long	0x1b20
 4326 0004 0200      		.word	0x2
 4327 0006 0000 0000 		.long	.Ldebug_abbrev0
 4328 000a 04        		.byte	0x4
 4329 000b 01        		.uleb128 0x1
 4330 000c 0000 0000 		.long	.LASF311
 4331 0010 01        		.byte	0x1
 4332 0011 0000 0000 		.long	.LASF312
 4333 0015 0000 0000 		.long	.LASF313
 4334 0019 0000 0000 		.long	.Ldebug_ranges0+0x90
 4335 001d 0000 0000 		.long	0
 4336 0021 0000 0000 		.long	0
 4337 0025 0000 0000 		.long	.Ldebug_line0
 4338 0029 02        		.uleb128 0x2
 4339 002a 04        		.byte	0x4
 4340 002b 04        		.byte	0x4
 4341 002c 0000 0000 		.long	.LASF0
 4342 0030 03        		.uleb128 0x3
 4343 0031 02        		.byte	0x2
 4344 0032 05        		.byte	0x5
 4345 0033 696E 7400 		.string	"int"
 4346 0037 02        		.uleb128 0x2
 4347 0038 01        		.byte	0x1
 4348 0039 06        		.byte	0x6
 4349 003a 0000 0000 		.long	.LASF1
 4350 003e 04        		.uleb128 0x4
 4351 003f 0000 0000 		.long	.LASF3
 4352 0043 04        		.byte	0x4
 4353 0044 7A        		.byte	0x7a
 4354 0045 4900 0000 		.long	0x49
 4355 0049 02        		.uleb128 0x2
 4356 004a 01        		.byte	0x1
 4357 004b 08        		.byte	0x8
 4358 004c 0000 0000 		.long	.LASF2
 4359 0050 04        		.uleb128 0x4
 4360 0051 0000 0000 		.long	.LASF4
 4361 0055 04        		.byte	0x4
 4362 0056 7C        		.byte	0x7c
 4363 0057 5B00 0000 		.long	0x5b
 4364 005b 02        		.uleb128 0x2
 4365 005c 02        		.byte	0x2
 4366 005d 07        		.byte	0x7
GAS LISTING /tmp/ccPqDIXf.s 			page 101


 4367 005e 0000 0000 		.long	.LASF5
 4368 0062 02        		.uleb128 0x2
 4369 0063 04        		.byte	0x4
 4370 0064 05        		.byte	0x5
 4371 0065 0000 0000 		.long	.LASF6
 4372 0069 04        		.uleb128 0x4
 4373 006a 0000 0000 		.long	.LASF7
 4374 006e 04        		.byte	0x4
 4375 006f 7E        		.byte	0x7e
 4376 0070 7400 0000 		.long	0x74
 4377 0074 02        		.uleb128 0x2
 4378 0075 04        		.byte	0x4
 4379 0076 07        		.byte	0x7
 4380 0077 0000 0000 		.long	.LASF8
 4381 007b 02        		.uleb128 0x2
 4382 007c 08        		.byte	0x8
 4383 007d 05        		.byte	0x5
 4384 007e 0000 0000 		.long	.LASF9
 4385 0082 02        		.uleb128 0x2
 4386 0083 08        		.byte	0x8
 4387 0084 07        		.byte	0x7
 4388 0085 0000 0000 		.long	.LASF10
 4389 0089 04        		.uleb128 0x4
 4390 008a 0000 0000 		.long	.LASF11
 4391 008e 05        		.byte	0x5
 4392 008f 68        		.byte	0x68
 4393 0090 9400 0000 		.long	0x94
 4394 0094 05        		.uleb128 0x5
 4395 0095 3E00 0000 		.long	0x3e
 4396 0099 04        		.uleb128 0x4
 4397 009a 0000 0000 		.long	.LASF12
 4398 009e 05        		.byte	0x5
 4399 009f 69        		.byte	0x69
 4400 00a0 A400 0000 		.long	0xa4
 4401 00a4 05        		.uleb128 0x5
 4402 00a5 5000 0000 		.long	0x50
 4403 00a9 06        		.uleb128 0x6
 4404 00aa 0000 0000 		.long	.LASF20
 4405 00ae 01        		.byte	0x1
 4406 00af 05        		.byte	0x5
 4407 00b0 A2        		.byte	0xa2
 4408 00b1 C400 0000 		.long	0xc4
 4409 00b5 07        		.uleb128 0x7
 4410 00b6 0000 0000 		.long	.LASF13
 4411 00ba 9D01      		.sleb128 157
 4412 00bc 07        		.uleb128 0x7
 4413 00bd 0000 0000 		.long	.LASF14
 4414 00c1 D801      		.sleb128 216
 4415 00c3 00        		.byte	0
 4416 00c4 08        		.uleb128 0x8
 4417 00c5 0000 0000 		.long	.LASF52
 4418 00c9 04        		.byte	0x4
 4419 00ca 05        		.byte	0x5
 4420 00cb B0        		.byte	0xb0
 4421 00cc 0901 0000 		.long	0x109
 4422 00d0 09        		.uleb128 0x9
 4423 00d1 0000 0000 		.long	.LASF15
GAS LISTING /tmp/ccPqDIXf.s 			page 102


 4424 00d5 05        		.byte	0x5
 4425 00d6 B2        		.byte	0xb2
 4426 00d7 8900 0000 		.long	0x89
 4427 00db 02        		.byte	0x2
 4428 00dc 23        		.byte	0x23
 4429 00dd 00        		.uleb128 0
 4430 00de 09        		.uleb128 0x9
 4431 00df 0000 0000 		.long	.LASF16
 4432 00e3 05        		.byte	0x5
 4433 00e4 B3        		.byte	0xb3
 4434 00e5 8900 0000 		.long	0x89
 4435 00e9 02        		.byte	0x2
 4436 00ea 23        		.byte	0x23
 4437 00eb 01        		.uleb128 0x1
 4438 00ec 09        		.uleb128 0x9
 4439 00ed 0000 0000 		.long	.LASF17
 4440 00f1 05        		.byte	0x5
 4441 00f2 B4        		.byte	0xb4
 4442 00f3 8900 0000 		.long	0x89
 4443 00f7 02        		.byte	0x2
 4444 00f8 23        		.byte	0x23
 4445 00f9 02        		.uleb128 0x2
 4446 00fa 09        		.uleb128 0x9
 4447 00fb 0000 0000 		.long	.LASF18
 4448 00ff 05        		.byte	0x5
 4449 0100 B5        		.byte	0xb5
 4450 0101 8900 0000 		.long	0x89
 4451 0105 02        		.byte	0x2
 4452 0106 23        		.byte	0x23
 4453 0107 03        		.uleb128 0x3
 4454 0108 00        		.byte	0
 4455 0109 04        		.uleb128 0x4
 4456 010a 0000 0000 		.long	.LASF19
 4457 010e 05        		.byte	0x5
 4458 010f B6        		.byte	0xb6
 4459 0110 C400 0000 		.long	0xc4
 4460 0114 06        		.uleb128 0x6
 4461 0115 0000 0000 		.long	.LASF21
 4462 0119 01        		.byte	0x1
 4463 011a 05        		.byte	0x5
 4464 011b CB        		.byte	0xcb
 4465 011c 3F01 0000 		.long	0x13f
 4466 0120 07        		.uleb128 0x7
 4467 0121 0000 0000 		.long	.LASF22
 4468 0125 00        		.sleb128 0
 4469 0126 07        		.uleb128 0x7
 4470 0127 0000 0000 		.long	.LASF23
 4471 012b 01        		.sleb128 1
 4472 012c 07        		.uleb128 0x7
 4473 012d 0000 0000 		.long	.LASF24
 4474 0131 02        		.sleb128 2
 4475 0132 07        		.uleb128 0x7
 4476 0133 0000 0000 		.long	.LASF25
 4477 0137 03        		.sleb128 3
 4478 0138 07        		.uleb128 0x7
 4479 0139 0000 0000 		.long	.LASF26
 4480 013d 04        		.sleb128 4
GAS LISTING /tmp/ccPqDIXf.s 			page 103


 4481 013e 00        		.byte	0
 4482 013f 04        		.uleb128 0x4
 4483 0140 0000 0000 		.long	.LASF27
 4484 0144 05        		.byte	0x5
 4485 0145 D2        		.byte	0xd2
 4486 0146 1401 0000 		.long	0x114
 4487 014a 06        		.uleb128 0x6
 4488 014b 0000 0000 		.long	.LASF28
 4489 014f 01        		.byte	0x1
 4490 0150 05        		.byte	0x5
 4491 0151 D5        		.byte	0xd5
 4492 0152 9401 0000 		.long	0x194
 4493 0156 07        		.uleb128 0x7
 4494 0157 0000 0000 		.long	.LASF29
 4495 015b 00        		.sleb128 0
 4496 015c 07        		.uleb128 0x7
 4497 015d 0000 0000 		.long	.LASF30
 4498 0161 04        		.sleb128 4
 4499 0162 07        		.uleb128 0x7
 4500 0163 0000 0000 		.long	.LASF31
 4501 0167 0C        		.sleb128 12
 4502 0168 07        		.uleb128 0x7
 4503 0169 0000 0000 		.long	.LASF32
 4504 016d 14        		.sleb128 20
 4505 016e 07        		.uleb128 0x7
 4506 016f 0000 0000 		.long	.LASF33
 4507 0173 1C        		.sleb128 28
 4508 0174 07        		.uleb128 0x7
 4509 0175 0000 0000 		.long	.LASF34
 4510 0179 24        		.sleb128 36
 4511 017a 07        		.uleb128 0x7
 4512 017b 0000 0000 		.long	.LASF35
 4513 017f 2C        		.sleb128 44
 4514 0180 07        		.uleb128 0x7
 4515 0181 0000 0000 		.long	.LASF36
 4516 0185 34        		.sleb128 52
 4517 0186 07        		.uleb128 0x7
 4518 0187 0000 0000 		.long	.LASF37
 4519 018b 3C        		.sleb128 60
 4520 018c 07        		.uleb128 0x7
 4521 018d 0000 0000 		.long	.LASF38
 4522 0191 C400      		.sleb128 68
 4523 0193 00        		.byte	0
 4524 0194 04        		.uleb128 0x4
 4525 0195 0000 0000 		.long	.LASF39
 4526 0199 05        		.byte	0x5
 4527 019a E1        		.byte	0xe1
 4528 019b 4A01 0000 		.long	0x14a
 4529 019f 06        		.uleb128 0x6
 4530 01a0 0000 0000 		.long	.LASF40
 4531 01a4 01        		.byte	0x1
 4532 01a5 05        		.byte	0x5
 4533 01a6 E4        		.byte	0xe4
 4534 01a7 C401 0000 		.long	0x1c4
 4535 01ab 07        		.uleb128 0x7
 4536 01ac 0000 0000 		.long	.LASF41
 4537 01b0 00        		.sleb128 0
GAS LISTING /tmp/ccPqDIXf.s 			page 104


 4538 01b1 07        		.uleb128 0x7
 4539 01b2 0000 0000 		.long	.LASF42
 4540 01b6 01        		.sleb128 1
 4541 01b7 07        		.uleb128 0x7
 4542 01b8 0000 0000 		.long	.LASF43
 4543 01bc 02        		.sleb128 2
 4544 01bd 07        		.uleb128 0x7
 4545 01be 0000 0000 		.long	.LASF44
 4546 01c2 03        		.sleb128 3
 4547 01c3 00        		.byte	0
 4548 01c4 04        		.uleb128 0x4
 4549 01c5 0000 0000 		.long	.LASF45
 4550 01c9 05        		.byte	0x5
 4551 01ca EA        		.byte	0xea
 4552 01cb 9F01 0000 		.long	0x19f
 4553 01cf 06        		.uleb128 0x6
 4554 01d0 0000 0000 		.long	.LASF46
 4555 01d4 01        		.byte	0x1
 4556 01d5 05        		.byte	0x5
 4557 01d6 ED        		.byte	0xed
 4558 01d7 F401 0000 		.long	0x1f4
 4559 01db 07        		.uleb128 0x7
 4560 01dc 0000 0000 		.long	.LASF47
 4561 01e0 00        		.sleb128 0
 4562 01e1 07        		.uleb128 0x7
 4563 01e2 0000 0000 		.long	.LASF48
 4564 01e6 02        		.sleb128 2
 4565 01e7 07        		.uleb128 0x7
 4566 01e8 0000 0000 		.long	.LASF49
 4567 01ec 04        		.sleb128 4
 4568 01ed 07        		.uleb128 0x7
 4569 01ee 0000 0000 		.long	.LASF50
 4570 01f2 0A        		.sleb128 10
 4571 01f3 00        		.byte	0
 4572 01f4 04        		.uleb128 0x4
 4573 01f5 0000 0000 		.long	.LASF51
 4574 01f9 05        		.byte	0x5
 4575 01fa F3        		.byte	0xf3
 4576 01fb CF01 0000 		.long	0x1cf
 4577 01ff 0A        		.uleb128 0xa
 4578 0200 0000 0000 		.long	.LASF53
 4579 0204 07        		.byte	0x7
 4580 0205 05        		.byte	0x5
 4581 0206 1401      		.word	0x114
 4582 0208 7602 0000 		.long	0x276
 4583 020c 0B        		.uleb128 0xb
 4584 020d 0000 0000 		.long	.LASF15
 4585 0211 05        		.byte	0x5
 4586 0212 1601      		.word	0x116
 4587 0214 8900 0000 		.long	0x89
 4588 0218 02        		.byte	0x2
 4589 0219 23        		.byte	0x23
 4590 021a 00        		.uleb128 0
 4591 021b 0B        		.uleb128 0xb
 4592 021c 0000 0000 		.long	.LASF54
 4593 0220 05        		.byte	0x5
 4594 0221 1701      		.word	0x117
GAS LISTING /tmp/ccPqDIXf.s 			page 105


 4595 0223 8900 0000 		.long	0x89
 4596 0227 02        		.byte	0x2
 4597 0228 23        		.byte	0x23
 4598 0229 01        		.uleb128 0x1
 4599 022a 0B        		.uleb128 0xb
 4600 022b 0000 0000 		.long	.LASF55
 4601 022f 05        		.byte	0x5
 4602 0230 1801      		.word	0x118
 4603 0232 8900 0000 		.long	0x89
 4604 0236 02        		.byte	0x2
 4605 0237 23        		.byte	0x23
 4606 0238 02        		.uleb128 0x2
 4607 0239 0B        		.uleb128 0xb
 4608 023a 0000 0000 		.long	.LASF56
 4609 023e 05        		.byte	0x5
 4610 023f 1901      		.word	0x119
 4611 0241 8900 0000 		.long	0x89
 4612 0245 02        		.byte	0x2
 4613 0246 23        		.byte	0x23
 4614 0247 03        		.uleb128 0x3
 4615 0248 0B        		.uleb128 0xb
 4616 0249 0000 0000 		.long	.LASF57
 4617 024d 05        		.byte	0x5
 4618 024e 1A01      		.word	0x11a
 4619 0250 8900 0000 		.long	0x89
 4620 0254 02        		.byte	0x2
 4621 0255 23        		.byte	0x23
 4622 0256 04        		.uleb128 0x4
 4623 0257 0B        		.uleb128 0xb
 4624 0258 0000 0000 		.long	.LASF58
 4625 025c 05        		.byte	0x5
 4626 025d 1B01      		.word	0x11b
 4627 025f 8900 0000 		.long	0x89
 4628 0263 02        		.byte	0x2
 4629 0264 23        		.byte	0x23
 4630 0265 05        		.uleb128 0x5
 4631 0266 0B        		.uleb128 0xb
 4632 0267 0000 0000 		.long	.LASF59
 4633 026b 05        		.byte	0x5
 4634 026c 1C01      		.word	0x11c
 4635 026e 8900 0000 		.long	0x89
 4636 0272 02        		.byte	0x2
 4637 0273 23        		.byte	0x23
 4638 0274 06        		.uleb128 0x6
 4639 0275 00        		.byte	0
 4640 0276 0C        		.uleb128 0xc
 4641 0277 0000 0000 		.long	.LASF60
 4642 027b 05        		.byte	0x5
 4643 027c 1D01      		.word	0x11d
 4644 027e FF01 0000 		.long	0x1ff
 4645 0282 0D        		.uleb128 0xd
 4646 0283 0000 0000 		.long	.LASF61
 4647 0287 01        		.byte	0x1
 4648 0288 05        		.byte	0x5
 4649 0289 2001      		.word	0x120
 4650 028b AB02 0000 		.long	0x2ab
 4651 028f 07        		.uleb128 0x7
GAS LISTING /tmp/ccPqDIXf.s 			page 106


 4652 0290 0000 0000 		.long	.LASF62
 4653 0294 00        		.sleb128 0
 4654 0295 07        		.uleb128 0x7
 4655 0296 0000 0000 		.long	.LASF63
 4656 029a C000      		.sleb128 64
 4657 029c 07        		.uleb128 0x7
 4658 029d 0000 0000 		.long	.LASF64
 4659 02a1 8001      		.sleb128 128
 4660 02a3 07        		.uleb128 0x7
 4661 02a4 0000 0000 		.long	.LASF65
 4662 02a8 C001      		.sleb128 192
 4663 02aa 00        		.byte	0
 4664 02ab 0C        		.uleb128 0xc
 4665 02ac 0000 0000 		.long	.LASF66
 4666 02b0 05        		.byte	0x5
 4667 02b1 2601      		.word	0x126
 4668 02b3 8202 0000 		.long	0x282
 4669 02b7 0D        		.uleb128 0xd
 4670 02b8 0000 0000 		.long	.LASF67
 4671 02bc 01        		.byte	0x1
 4672 02bd 05        		.byte	0x5
 4673 02be 2901      		.word	0x129
 4674 02c0 E302 0000 		.long	0x2e3
 4675 02c4 07        		.uleb128 0x7
 4676 02c5 0000 0000 		.long	.LASF68
 4677 02c9 00        		.sleb128 0
 4678 02ca 07        		.uleb128 0x7
 4679 02cb 0000 0000 		.long	.LASF69
 4680 02cf 02        		.sleb128 2
 4681 02d0 07        		.uleb128 0x7
 4682 02d1 0000 0000 		.long	.LASF70
 4683 02d5 03        		.sleb128 3
 4684 02d6 07        		.uleb128 0x7
 4685 02d7 0000 0000 		.long	.LASF71
 4686 02db 07        		.sleb128 7
 4687 02dc 07        		.uleb128 0x7
 4688 02dd 0000 0000 		.long	.LASF72
 4689 02e1 0B        		.sleb128 11
 4690 02e2 00        		.byte	0
 4691 02e3 0C        		.uleb128 0xc
 4692 02e4 0000 0000 		.long	.LASF73
 4693 02e8 05        		.byte	0x5
 4694 02e9 3001      		.word	0x130
 4695 02eb B702 0000 		.long	0x2b7
 4696 02ef 0D        		.uleb128 0xd
 4697 02f0 0000 0000 		.long	.LASF74
 4698 02f4 01        		.byte	0x1
 4699 02f5 05        		.byte	0x5
 4700 02f6 3301      		.word	0x133
 4701 02f8 1103 0000 		.long	0x311
 4702 02fc 07        		.uleb128 0x7
 4703 02fd 0000 0000 		.long	.LASF75
 4704 0301 00        		.sleb128 0
 4705 0302 07        		.uleb128 0x7
 4706 0303 0000 0000 		.long	.LASF76
 4707 0307 8001      		.sleb128 128
 4708 0309 07        		.uleb128 0x7
GAS LISTING /tmp/ccPqDIXf.s 			page 107


 4709 030a 0000 0000 		.long	.LASF77
 4710 030e C001      		.sleb128 192
 4711 0310 00        		.byte	0
 4712 0311 0C        		.uleb128 0xc
 4713 0312 0000 0000 		.long	.LASF78
 4714 0316 05        		.byte	0x5
 4715 0317 3801      		.word	0x138
 4716 0319 EF02 0000 		.long	0x2ef
 4717 031d 0A        		.uleb128 0xa
 4718 031e 0000 0000 		.long	.LASF79
 4719 0322 08        		.byte	0x8
 4720 0323 05        		.byte	0x5
 4721 0324 4201      		.word	0x142
 4722 0326 A303 0000 		.long	0x3a3
 4723 032a 0B        		.uleb128 0xb
 4724 032b 0000 0000 		.long	.LASF15
 4725 032f 05        		.byte	0x5
 4726 0330 4401      		.word	0x144
 4727 0332 8900 0000 		.long	0x89
 4728 0336 02        		.byte	0x2
 4729 0337 23        		.byte	0x23
 4730 0338 00        		.uleb128 0
 4731 0339 0B        		.uleb128 0xb
 4732 033a 0000 0000 		.long	.LASF80
 4733 033e 05        		.byte	0x5
 4734 033f 4501      		.word	0x145
 4735 0341 8900 0000 		.long	0x89
 4736 0345 02        		.byte	0x2
 4737 0346 23        		.byte	0x23
 4738 0347 01        		.uleb128 0x1
 4739 0348 0B        		.uleb128 0xb
 4740 0349 0000 0000 		.long	.LASF81
 4741 034d 05        		.byte	0x5
 4742 034e 4601      		.word	0x146
 4743 0350 8900 0000 		.long	0x89
 4744 0354 02        		.byte	0x2
 4745 0355 23        		.byte	0x23
 4746 0356 02        		.uleb128 0x2
 4747 0357 0B        		.uleb128 0xb
 4748 0358 0000 0000 		.long	.LASF82
 4749 035c 05        		.byte	0x5
 4750 035d 4701      		.word	0x147
 4751 035f 8900 0000 		.long	0x89
 4752 0363 02        		.byte	0x2
 4753 0364 23        		.byte	0x23
 4754 0365 03        		.uleb128 0x3
 4755 0366 0B        		.uleb128 0xb
 4756 0367 0000 0000 		.long	.LASF83
 4757 036b 05        		.byte	0x5
 4758 036c 4801      		.word	0x148
 4759 036e 8900 0000 		.long	0x89
 4760 0372 02        		.byte	0x2
 4761 0373 23        		.byte	0x23
 4762 0374 04        		.uleb128 0x4
 4763 0375 0B        		.uleb128 0xb
 4764 0376 0000 0000 		.long	.LASF84
 4765 037a 05        		.byte	0x5
GAS LISTING /tmp/ccPqDIXf.s 			page 108


 4766 037b 4901      		.word	0x149
 4767 037d 8900 0000 		.long	0x89
 4768 0381 02        		.byte	0x2
 4769 0382 23        		.byte	0x23
 4770 0383 05        		.uleb128 0x5
 4771 0384 0B        		.uleb128 0xb
 4772 0385 0000 0000 		.long	.LASF85
 4773 0389 05        		.byte	0x5
 4774 038a 4A01      		.word	0x14a
 4775 038c 8900 0000 		.long	0x89
 4776 0390 02        		.byte	0x2
 4777 0391 23        		.byte	0x23
 4778 0392 06        		.uleb128 0x6
 4779 0393 0B        		.uleb128 0xb
 4780 0394 0000 0000 		.long	.LASF86
 4781 0398 05        		.byte	0x5
 4782 0399 4B01      		.word	0x14b
 4783 039b 8900 0000 		.long	0x89
 4784 039f 02        		.byte	0x2
 4785 03a0 23        		.byte	0x23
 4786 03a1 07        		.uleb128 0x7
 4787 03a2 00        		.byte	0
 4788 03a3 0C        		.uleb128 0xc
 4789 03a4 0000 0000 		.long	.LASF87
 4790 03a8 05        		.byte	0x5
 4791 03a9 4C01      		.word	0x14c
 4792 03ab 1D03 0000 		.long	0x31d
 4793 03af 0A        		.uleb128 0xa
 4794 03b0 0000 0000 		.long	.LASF88
 4795 03b4 03        		.byte	0x3
 4796 03b5 05        		.byte	0x5
 4797 03b6 AB01      		.word	0x1ab
 4798 03b8 EA03 0000 		.long	0x3ea
 4799 03bc 0B        		.uleb128 0xb
 4800 03bd 0000 0000 		.long	.LASF54
 4801 03c1 05        		.byte	0x5
 4802 03c2 AD01      		.word	0x1ad
 4803 03c4 8900 0000 		.long	0x89
 4804 03c8 02        		.byte	0x2
 4805 03c9 23        		.byte	0x23
 4806 03ca 00        		.uleb128 0
 4807 03cb 0B        		.uleb128 0xb
 4808 03cc 0000 0000 		.long	.LASF89
 4809 03d0 05        		.byte	0x5
 4810 03d1 AE01      		.word	0x1ae
 4811 03d3 8900 0000 		.long	0x89
 4812 03d7 02        		.byte	0x2
 4813 03d8 23        		.byte	0x23
 4814 03d9 01        		.uleb128 0x1
 4815 03da 0B        		.uleb128 0xb
 4816 03db 0000 0000 		.long	.LASF15
 4817 03df 05        		.byte	0x5
 4818 03e0 AF01      		.word	0x1af
 4819 03e2 8900 0000 		.long	0x89
 4820 03e6 02        		.byte	0x2
 4821 03e7 23        		.byte	0x23
 4822 03e8 02        		.uleb128 0x2
GAS LISTING /tmp/ccPqDIXf.s 			page 109


 4823 03e9 00        		.byte	0
 4824 03ea 0C        		.uleb128 0xc
 4825 03eb 0000 0000 		.long	.LASF90
 4826 03ef 05        		.byte	0x5
 4827 03f0 B001      		.word	0x1b0
 4828 03f2 AF03 0000 		.long	0x3af
 4829 03f6 0A        		.uleb128 0xa
 4830 03f7 0000 0000 		.long	.LASF91
 4831 03fb 18        		.byte	0x18
 4832 03fc 05        		.byte	0x5
 4833 03fd 6E07      		.word	0x76e
 4834 03ff 6B05 0000 		.long	0x56b
 4835 0403 0E        		.uleb128 0xe
 4836 0404 4449 5200 		.string	"DIR"
 4837 0408 05        		.byte	0x5
 4838 0409 7007      		.word	0x770
 4839 040b 8900 0000 		.long	0x89
 4840 040f 02        		.byte	0x2
 4841 0410 23        		.byte	0x23
 4842 0411 00        		.uleb128 0
 4843 0412 0B        		.uleb128 0xb
 4844 0413 0000 0000 		.long	.LASF92
 4845 0417 05        		.byte	0x5
 4846 0418 7107      		.word	0x771
 4847 041a 8900 0000 		.long	0x89
 4848 041e 02        		.byte	0x2
 4849 041f 23        		.byte	0x23
 4850 0420 01        		.uleb128 0x1
 4851 0421 0B        		.uleb128 0xb
 4852 0422 0000 0000 		.long	.LASF93
 4853 0426 05        		.byte	0x5
 4854 0427 7207      		.word	0x772
 4855 0429 8900 0000 		.long	0x89
 4856 042d 02        		.byte	0x2
 4857 042e 23        		.byte	0x23
 4858 042f 02        		.uleb128 0x2
 4859 0430 0B        		.uleb128 0xb
 4860 0431 0000 0000 		.long	.LASF94
 4861 0435 05        		.byte	0x5
 4862 0436 7307      		.word	0x773
 4863 0438 8900 0000 		.long	0x89
 4864 043c 02        		.byte	0x2
 4865 043d 23        		.byte	0x23
 4866 043e 03        		.uleb128 0x3
 4867 043f 0E        		.uleb128 0xe
 4868 0440 4F55 5400 		.string	"OUT"
 4869 0444 05        		.byte	0x5
 4870 0445 7407      		.word	0x774
 4871 0447 8900 0000 		.long	0x89
 4872 044b 02        		.byte	0x2
 4873 044c 23        		.byte	0x23
 4874 044d 04        		.uleb128 0x4
 4875 044e 0B        		.uleb128 0xb
 4876 044f 0000 0000 		.long	.LASF95
 4877 0453 05        		.byte	0x5
 4878 0454 7507      		.word	0x775
 4879 0456 8900 0000 		.long	0x89
GAS LISTING /tmp/ccPqDIXf.s 			page 110


 4880 045a 02        		.byte	0x2
 4881 045b 23        		.byte	0x23
 4882 045c 05        		.uleb128 0x5
 4883 045d 0B        		.uleb128 0xb
 4884 045e 0000 0000 		.long	.LASF96
 4885 0462 05        		.byte	0x5
 4886 0463 7607      		.word	0x776
 4887 0465 8900 0000 		.long	0x89
 4888 0469 02        		.byte	0x2
 4889 046a 23        		.byte	0x23
 4890 046b 06        		.uleb128 0x6
 4891 046c 0B        		.uleb128 0xb
 4892 046d 0000 0000 		.long	.LASF97
 4893 0471 05        		.byte	0x5
 4894 0472 7707      		.word	0x777
 4895 0474 8900 0000 		.long	0x89
 4896 0478 02        		.byte	0x2
 4897 0479 23        		.byte	0x23
 4898 047a 07        		.uleb128 0x7
 4899 047b 0E        		.uleb128 0xe
 4900 047c 494E 00   		.string	"IN"
 4901 047f 05        		.byte	0x5
 4902 0480 7807      		.word	0x778
 4903 0482 8900 0000 		.long	0x89
 4904 0486 02        		.byte	0x2
 4905 0487 23        		.byte	0x23
 4906 0488 08        		.uleb128 0x8
 4907 0489 0B        		.uleb128 0xb
 4908 048a 0000 0000 		.long	.LASF98
 4909 048e 05        		.byte	0x5
 4910 048f 7907      		.word	0x779
 4911 0491 8900 0000 		.long	0x89
 4912 0495 02        		.byte	0x2
 4913 0496 23        		.byte	0x23
 4914 0497 09        		.uleb128 0x9
 4915 0498 0B        		.uleb128 0xb
 4916 0499 0000 0000 		.long	.LASF99
 4917 049d 05        		.byte	0x5
 4918 049e 7A07      		.word	0x77a
 4919 04a0 8900 0000 		.long	0x89
 4920 04a4 02        		.byte	0x2
 4921 04a5 23        		.byte	0x23
 4922 04a6 0A        		.uleb128 0xa
 4923 04a7 0B        		.uleb128 0xb
 4924 04a8 0000 0000 		.long	.LASF100
 4925 04ac 05        		.byte	0x5
 4926 04ad 7B07      		.word	0x77b
 4927 04af 8900 0000 		.long	0x89
 4928 04b3 02        		.byte	0x2
 4929 04b4 23        		.byte	0x23
 4930 04b5 0B        		.uleb128 0xb
 4931 04b6 0B        		.uleb128 0xb
 4932 04b7 0000 0000 		.long	.LASF101
 4933 04bb 05        		.byte	0x5
 4934 04bc 7C07      		.word	0x77c
 4935 04be 8900 0000 		.long	0x89
 4936 04c2 02        		.byte	0x2
GAS LISTING /tmp/ccPqDIXf.s 			page 111


 4937 04c3 23        		.byte	0x23
 4938 04c4 0C        		.uleb128 0xc
 4939 04c5 0B        		.uleb128 0xb
 4940 04c6 0000 0000 		.long	.LASF102
 4941 04ca 05        		.byte	0x5
 4942 04cb 7D07      		.word	0x77d
 4943 04cd 8900 0000 		.long	0x89
 4944 04d1 02        		.byte	0x2
 4945 04d2 23        		.byte	0x23
 4946 04d3 0D        		.uleb128 0xd
 4947 04d4 0B        		.uleb128 0xb
 4948 04d5 0000 0000 		.long	.LASF103
 4949 04d9 05        		.byte	0x5
 4950 04da 7E07      		.word	0x77e
 4951 04dc 8900 0000 		.long	0x89
 4952 04e0 02        		.byte	0x2
 4953 04e1 23        		.byte	0x23
 4954 04e2 0E        		.uleb128 0xe
 4955 04e3 0B        		.uleb128 0xb
 4956 04e4 0000 0000 		.long	.LASF104
 4957 04e8 05        		.byte	0x5
 4958 04e9 7F07      		.word	0x77f
 4959 04eb 8900 0000 		.long	0x89
 4960 04ef 02        		.byte	0x2
 4961 04f0 23        		.byte	0x23
 4962 04f1 0F        		.uleb128 0xf
 4963 04f2 0B        		.uleb128 0xb
 4964 04f3 0000 0000 		.long	.LASF105
 4965 04f7 05        		.byte	0x5
 4966 04f8 8007      		.word	0x780
 4967 04fa 8900 0000 		.long	0x89
 4968 04fe 02        		.byte	0x2
 4969 04ff 23        		.byte	0x23
 4970 0500 10        		.uleb128 0x10
 4971 0501 0B        		.uleb128 0xb
 4972 0502 0000 0000 		.long	.LASF106
 4973 0506 05        		.byte	0x5
 4974 0507 8107      		.word	0x781
 4975 0509 8900 0000 		.long	0x89
 4976 050d 02        		.byte	0x2
 4977 050e 23        		.byte	0x23
 4978 050f 11        		.uleb128 0x11
 4979 0510 0B        		.uleb128 0xb
 4980 0511 0000 0000 		.long	.LASF107
 4981 0515 05        		.byte	0x5
 4982 0516 8207      		.word	0x782
 4983 0518 8900 0000 		.long	0x89
 4984 051c 02        		.byte	0x2
 4985 051d 23        		.byte	0x23
 4986 051e 12        		.uleb128 0x12
 4987 051f 0B        		.uleb128 0xb
 4988 0520 0000 0000 		.long	.LASF108
 4989 0524 05        		.byte	0x5
 4990 0525 8307      		.word	0x783
 4991 0527 8900 0000 		.long	0x89
 4992 052b 02        		.byte	0x2
 4993 052c 23        		.byte	0x23
GAS LISTING /tmp/ccPqDIXf.s 			page 112


 4994 052d 13        		.uleb128 0x13
 4995 052e 0B        		.uleb128 0xb
 4996 052f 0000 0000 		.long	.LASF109
 4997 0533 05        		.byte	0x5
 4998 0534 8407      		.word	0x784
 4999 0536 8900 0000 		.long	0x89
 5000 053a 02        		.byte	0x2
 5001 053b 23        		.byte	0x23
 5002 053c 14        		.uleb128 0x14
 5003 053d 0B        		.uleb128 0xb
 5004 053e 0000 0000 		.long	.LASF110
 5005 0542 05        		.byte	0x5
 5006 0543 8507      		.word	0x785
 5007 0545 8900 0000 		.long	0x89
 5008 0549 02        		.byte	0x2
 5009 054a 23        		.byte	0x23
 5010 054b 15        		.uleb128 0x15
 5011 054c 0B        		.uleb128 0xb
 5012 054d 0000 0000 		.long	.LASF111
 5013 0551 05        		.byte	0x5
 5014 0552 8607      		.word	0x786
 5015 0554 8900 0000 		.long	0x89
 5016 0558 02        		.byte	0x2
 5017 0559 23        		.byte	0x23
 5018 055a 16        		.uleb128 0x16
 5019 055b 0B        		.uleb128 0xb
 5020 055c 0000 0000 		.long	.LASF112
 5021 0560 05        		.byte	0x5
 5022 0561 8707      		.word	0x787
 5023 0563 8900 0000 		.long	0x89
 5024 0567 02        		.byte	0x2
 5025 0568 23        		.byte	0x23
 5026 0569 17        		.uleb128 0x17
 5027 056a 00        		.byte	0
 5028 056b 0C        		.uleb128 0xc
 5029 056c 0000 0000 		.long	.LASF113
 5030 0570 05        		.byte	0x5
 5031 0571 8807      		.word	0x788
 5032 0573 F603 0000 		.long	0x3f6
 5033 0577 0D        		.uleb128 0xd
 5034 0578 0000 0000 		.long	.LASF114
 5035 057c 01        		.byte	0x1
 5036 057d 05        		.byte	0x5
 5037 057e 0308      		.word	0x803
 5038 0580 B505 0000 		.long	0x5b5
 5039 0584 07        		.uleb128 0x7
 5040 0585 0000 0000 		.long	.LASF115
 5041 0589 00        		.sleb128 0
 5042 058a 07        		.uleb128 0x7
 5043 058b 0000 0000 		.long	.LASF116
 5044 058f 08        		.sleb128 8
 5045 0590 07        		.uleb128 0x7
 5046 0591 0000 0000 		.long	.LASF117
 5047 0595 10        		.sleb128 16
 5048 0596 07        		.uleb128 0x7
 5049 0597 0000 0000 		.long	.LASF118
 5050 059b 18        		.sleb128 24
GAS LISTING /tmp/ccPqDIXf.s 			page 113


 5051 059c 07        		.uleb128 0x7
 5052 059d 0000 0000 		.long	.LASF119
 5053 05a1 20        		.sleb128 32
 5054 05a2 07        		.uleb128 0x7
 5055 05a3 0000 0000 		.long	.LASF120
 5056 05a7 28        		.sleb128 40
 5057 05a8 07        		.uleb128 0x7
 5058 05a9 0000 0000 		.long	.LASF121
 5059 05ad 30        		.sleb128 48
 5060 05ae 07        		.uleb128 0x7
 5061 05af 0000 0000 		.long	.LASF122
 5062 05b3 38        		.sleb128 56
 5063 05b4 00        		.byte	0
 5064 05b5 0F        		.uleb128 0xf
 5065 05b6 02        		.byte	0x2
 5066 05b7 05        		.byte	0x5
 5067 05b8 4308      		.word	0x843
 5068 05ba DD05 0000 		.long	0x5dd
 5069 05be 0B        		.uleb128 0xb
 5070 05bf 0000 0000 		.long	.LASF123
 5071 05c3 05        		.byte	0x5
 5072 05c4 4308      		.word	0x843
 5073 05c6 8900 0000 		.long	0x89
 5074 05ca 02        		.byte	0x2
 5075 05cb 23        		.byte	0x23
 5076 05cc 00        		.uleb128 0
 5077 05cd 0B        		.uleb128 0xb
 5078 05ce 0000 0000 		.long	.LASF124
 5079 05d2 05        		.byte	0x5
 5080 05d3 4308      		.word	0x843
 5081 05d5 8900 0000 		.long	0x89
 5082 05d9 02        		.byte	0x2
 5083 05da 23        		.byte	0x23
 5084 05db 01        		.uleb128 0x1
 5085 05dc 00        		.byte	0
 5086 05dd 10        		.uleb128 0x10
 5087 05de 02        		.byte	0x2
 5088 05df 05        		.byte	0x5
 5089 05e0 4308      		.word	0x843
 5090 05e2 F805 0000 		.long	0x5f8
 5091 05e6 11        		.uleb128 0x11
 5092 05e7 434E 5400 		.string	"CNT"
 5093 05eb 05        		.byte	0x5
 5094 05ec 4308      		.word	0x843
 5095 05ee 9900 0000 		.long	0x99
 5096 05f2 12        		.uleb128 0x12
 5097 05f3 B505 0000 		.long	0x5b5
 5098 05f7 00        		.byte	0
 5099 05f8 0F        		.uleb128 0xf
 5100 05f9 02        		.byte	0x2
 5101 05fa 05        		.byte	0x5
 5102 05fb 4808      		.word	0x848
 5103 05fd 2006 0000 		.long	0x620
 5104 0601 0B        		.uleb128 0xb
 5105 0602 0000 0000 		.long	.LASF125
 5106 0606 05        		.byte	0x5
 5107 0607 4808      		.word	0x848
GAS LISTING /tmp/ccPqDIXf.s 			page 114


 5108 0609 8900 0000 		.long	0x89
 5109 060d 02        		.byte	0x2
 5110 060e 23        		.byte	0x23
 5111 060f 00        		.uleb128 0
 5112 0610 0B        		.uleb128 0xb
 5113 0611 0000 0000 		.long	.LASF126
 5114 0615 05        		.byte	0x5
 5115 0616 4808      		.word	0x848
 5116 0618 8900 0000 		.long	0x89
 5117 061c 02        		.byte	0x2
 5118 061d 23        		.byte	0x23
 5119 061e 01        		.uleb128 0x1
 5120 061f 00        		.byte	0
 5121 0620 10        		.uleb128 0x10
 5122 0621 02        		.byte	0x2
 5123 0622 05        		.byte	0x5
 5124 0623 4808      		.word	0x848
 5125 0625 3B06 0000 		.long	0x63b
 5126 0629 11        		.uleb128 0x11
 5127 062a 5045 5200 		.string	"PER"
 5128 062e 05        		.byte	0x5
 5129 062f 4808      		.word	0x848
 5130 0631 9900 0000 		.long	0x99
 5131 0635 12        		.uleb128 0x12
 5132 0636 F805 0000 		.long	0x5f8
 5133 063a 00        		.byte	0
 5134 063b 0F        		.uleb128 0xf
 5135 063c 02        		.byte	0x2
 5136 063d 05        		.byte	0x5
 5137 063e 4908      		.word	0x849
 5138 0640 6306 0000 		.long	0x663
 5139 0644 0B        		.uleb128 0xb
 5140 0645 0000 0000 		.long	.LASF127
 5141 0649 05        		.byte	0x5
 5142 064a 4908      		.word	0x849
 5143 064c 8900 0000 		.long	0x89
 5144 0650 02        		.byte	0x2
 5145 0651 23        		.byte	0x23
 5146 0652 00        		.uleb128 0
 5147 0653 0B        		.uleb128 0xb
 5148 0654 0000 0000 		.long	.LASF128
 5149 0658 05        		.byte	0x5
 5150 0659 4908      		.word	0x849
 5151 065b 8900 0000 		.long	0x89
 5152 065f 02        		.byte	0x2
 5153 0660 23        		.byte	0x23
 5154 0661 01        		.uleb128 0x1
 5155 0662 00        		.byte	0
 5156 0663 10        		.uleb128 0x10
 5157 0664 02        		.byte	0x2
 5158 0665 05        		.byte	0x5
 5159 0666 4908      		.word	0x849
 5160 0668 7E06 0000 		.long	0x67e
 5161 066c 11        		.uleb128 0x11
 5162 066d 4343 4100 		.string	"CCA"
 5163 0671 05        		.byte	0x5
 5164 0672 4908      		.word	0x849
GAS LISTING /tmp/ccPqDIXf.s 			page 115


 5165 0674 9900 0000 		.long	0x99
 5166 0678 12        		.uleb128 0x12
 5167 0679 3B06 0000 		.long	0x63b
 5168 067d 00        		.byte	0
 5169 067e 0F        		.uleb128 0xf
 5170 067f 02        		.byte	0x2
 5171 0680 05        		.byte	0x5
 5172 0681 4A08      		.word	0x84a
 5173 0683 A606 0000 		.long	0x6a6
 5174 0687 0B        		.uleb128 0xb
 5175 0688 0000 0000 		.long	.LASF129
 5176 068c 05        		.byte	0x5
 5177 068d 4A08      		.word	0x84a
 5178 068f 8900 0000 		.long	0x89
 5179 0693 02        		.byte	0x2
 5180 0694 23        		.byte	0x23
 5181 0695 00        		.uleb128 0
 5182 0696 0B        		.uleb128 0xb
 5183 0697 0000 0000 		.long	.LASF130
 5184 069b 05        		.byte	0x5
 5185 069c 4A08      		.word	0x84a
 5186 069e 8900 0000 		.long	0x89
 5187 06a2 02        		.byte	0x2
 5188 06a3 23        		.byte	0x23
 5189 06a4 01        		.uleb128 0x1
 5190 06a5 00        		.byte	0
 5191 06a6 10        		.uleb128 0x10
 5192 06a7 02        		.byte	0x2
 5193 06a8 05        		.byte	0x5
 5194 06a9 4A08      		.word	0x84a
 5195 06ab C106 0000 		.long	0x6c1
 5196 06af 11        		.uleb128 0x11
 5197 06b0 4343 4200 		.string	"CCB"
 5198 06b4 05        		.byte	0x5
 5199 06b5 4A08      		.word	0x84a
 5200 06b7 9900 0000 		.long	0x99
 5201 06bb 12        		.uleb128 0x12
 5202 06bc 7E06 0000 		.long	0x67e
 5203 06c0 00        		.byte	0
 5204 06c1 0F        		.uleb128 0xf
 5205 06c2 02        		.byte	0x2
 5206 06c3 05        		.byte	0x5
 5207 06c4 4B08      		.word	0x84b
 5208 06c6 E906 0000 		.long	0x6e9
 5209 06ca 0B        		.uleb128 0xb
 5210 06cb 0000 0000 		.long	.LASF131
 5211 06cf 05        		.byte	0x5
 5212 06d0 4B08      		.word	0x84b
 5213 06d2 8900 0000 		.long	0x89
 5214 06d6 02        		.byte	0x2
 5215 06d7 23        		.byte	0x23
 5216 06d8 00        		.uleb128 0
 5217 06d9 0B        		.uleb128 0xb
 5218 06da 0000 0000 		.long	.LASF132
 5219 06de 05        		.byte	0x5
 5220 06df 4B08      		.word	0x84b
 5221 06e1 8900 0000 		.long	0x89
GAS LISTING /tmp/ccPqDIXf.s 			page 116


 5222 06e5 02        		.byte	0x2
 5223 06e6 23        		.byte	0x23
 5224 06e7 01        		.uleb128 0x1
 5225 06e8 00        		.byte	0
 5226 06e9 10        		.uleb128 0x10
 5227 06ea 02        		.byte	0x2
 5228 06eb 05        		.byte	0x5
 5229 06ec 4B08      		.word	0x84b
 5230 06ee 0407 0000 		.long	0x704
 5231 06f2 11        		.uleb128 0x11
 5232 06f3 4343 4300 		.string	"CCC"
 5233 06f7 05        		.byte	0x5
 5234 06f8 4B08      		.word	0x84b
 5235 06fa 9900 0000 		.long	0x99
 5236 06fe 12        		.uleb128 0x12
 5237 06ff C106 0000 		.long	0x6c1
 5238 0703 00        		.byte	0
 5239 0704 0F        		.uleb128 0xf
 5240 0705 02        		.byte	0x2
 5241 0706 05        		.byte	0x5
 5242 0707 4C08      		.word	0x84c
 5243 0709 2C07 0000 		.long	0x72c
 5244 070d 0B        		.uleb128 0xb
 5245 070e 0000 0000 		.long	.LASF133
 5246 0712 05        		.byte	0x5
 5247 0713 4C08      		.word	0x84c
 5248 0715 8900 0000 		.long	0x89
 5249 0719 02        		.byte	0x2
 5250 071a 23        		.byte	0x23
 5251 071b 00        		.uleb128 0
 5252 071c 0B        		.uleb128 0xb
 5253 071d 0000 0000 		.long	.LASF134
 5254 0721 05        		.byte	0x5
 5255 0722 4C08      		.word	0x84c
 5256 0724 8900 0000 		.long	0x89
 5257 0728 02        		.byte	0x2
 5258 0729 23        		.byte	0x23
 5259 072a 01        		.uleb128 0x1
 5260 072b 00        		.byte	0
 5261 072c 10        		.uleb128 0x10
 5262 072d 02        		.byte	0x2
 5263 072e 05        		.byte	0x5
 5264 072f 4C08      		.word	0x84c
 5265 0731 4707 0000 		.long	0x747
 5266 0735 11        		.uleb128 0x11
 5267 0736 4343 4400 		.string	"CCD"
 5268 073a 05        		.byte	0x5
 5269 073b 4C08      		.word	0x84c
 5270 073d 9900 0000 		.long	0x99
 5271 0741 12        		.uleb128 0x12
 5272 0742 0407 0000 		.long	0x704
 5273 0746 00        		.byte	0
 5274 0747 0F        		.uleb128 0xf
 5275 0748 02        		.byte	0x2
 5276 0749 05        		.byte	0x5
 5277 074a 5308      		.word	0x853
 5278 074c 6F07 0000 		.long	0x76f
GAS LISTING /tmp/ccPqDIXf.s 			page 117


 5279 0750 0B        		.uleb128 0xb
 5280 0751 0000 0000 		.long	.LASF135
 5281 0755 05        		.byte	0x5
 5282 0756 5308      		.word	0x853
 5283 0758 8900 0000 		.long	0x89
 5284 075c 02        		.byte	0x2
 5285 075d 23        		.byte	0x23
 5286 075e 00        		.uleb128 0
 5287 075f 0B        		.uleb128 0xb
 5288 0760 0000 0000 		.long	.LASF136
 5289 0764 05        		.byte	0x5
 5290 0765 5308      		.word	0x853
 5291 0767 8900 0000 		.long	0x89
 5292 076b 02        		.byte	0x2
 5293 076c 23        		.byte	0x23
 5294 076d 01        		.uleb128 0x1
 5295 076e 00        		.byte	0
 5296 076f 10        		.uleb128 0x10
 5297 0770 02        		.byte	0x2
 5298 0771 05        		.byte	0x5
 5299 0772 5308      		.word	0x853
 5300 0774 8A07 0000 		.long	0x78a
 5301 0778 13        		.uleb128 0x13
 5302 0779 0000 0000 		.long	.LASF137
 5303 077d 05        		.byte	0x5
 5304 077e 5308      		.word	0x853
 5305 0780 9900 0000 		.long	0x99
 5306 0784 12        		.uleb128 0x12
 5307 0785 4707 0000 		.long	0x747
 5308 0789 00        		.byte	0
 5309 078a 0F        		.uleb128 0xf
 5310 078b 02        		.byte	0x2
 5311 078c 05        		.byte	0x5
 5312 078d 5408      		.word	0x854
 5313 078f B207 0000 		.long	0x7b2
 5314 0793 0B        		.uleb128 0xb
 5315 0794 0000 0000 		.long	.LASF138
 5316 0798 05        		.byte	0x5
 5317 0799 5408      		.word	0x854
 5318 079b 8900 0000 		.long	0x89
 5319 079f 02        		.byte	0x2
 5320 07a0 23        		.byte	0x23
 5321 07a1 00        		.uleb128 0
 5322 07a2 0B        		.uleb128 0xb
 5323 07a3 0000 0000 		.long	.LASF139
 5324 07a7 05        		.byte	0x5
 5325 07a8 5408      		.word	0x854
 5326 07aa 8900 0000 		.long	0x89
 5327 07ae 02        		.byte	0x2
 5328 07af 23        		.byte	0x23
 5329 07b0 01        		.uleb128 0x1
 5330 07b1 00        		.byte	0
 5331 07b2 10        		.uleb128 0x10
 5332 07b3 02        		.byte	0x2
 5333 07b4 05        		.byte	0x5
 5334 07b5 5408      		.word	0x854
 5335 07b7 CD07 0000 		.long	0x7cd
GAS LISTING /tmp/ccPqDIXf.s 			page 118


 5336 07bb 13        		.uleb128 0x13
 5337 07bc 0000 0000 		.long	.LASF140
 5338 07c0 05        		.byte	0x5
 5339 07c1 5408      		.word	0x854
 5340 07c3 9900 0000 		.long	0x99
 5341 07c7 12        		.uleb128 0x12
 5342 07c8 8A07 0000 		.long	0x78a
 5343 07cc 00        		.byte	0
 5344 07cd 0F        		.uleb128 0xf
 5345 07ce 02        		.byte	0x2
 5346 07cf 05        		.byte	0x5
 5347 07d0 5508      		.word	0x855
 5348 07d2 F507 0000 		.long	0x7f5
 5349 07d6 0B        		.uleb128 0xb
 5350 07d7 0000 0000 		.long	.LASF141
 5351 07db 05        		.byte	0x5
 5352 07dc 5508      		.word	0x855
 5353 07de 8900 0000 		.long	0x89
 5354 07e2 02        		.byte	0x2
 5355 07e3 23        		.byte	0x23
 5356 07e4 00        		.uleb128 0
 5357 07e5 0B        		.uleb128 0xb
 5358 07e6 0000 0000 		.long	.LASF142
 5359 07ea 05        		.byte	0x5
 5360 07eb 5508      		.word	0x855
 5361 07ed 8900 0000 		.long	0x89
 5362 07f1 02        		.byte	0x2
 5363 07f2 23        		.byte	0x23
 5364 07f3 01        		.uleb128 0x1
 5365 07f4 00        		.byte	0
 5366 07f5 10        		.uleb128 0x10
 5367 07f6 02        		.byte	0x2
 5368 07f7 05        		.byte	0x5
 5369 07f8 5508      		.word	0x855
 5370 07fa 1008 0000 		.long	0x810
 5371 07fe 13        		.uleb128 0x13
 5372 07ff 0000 0000 		.long	.LASF143
 5373 0803 05        		.byte	0x5
 5374 0804 5508      		.word	0x855
 5375 0806 9900 0000 		.long	0x99
 5376 080a 12        		.uleb128 0x12
 5377 080b CD07 0000 		.long	0x7cd
 5378 080f 00        		.byte	0
 5379 0810 0F        		.uleb128 0xf
 5380 0811 02        		.byte	0x2
 5381 0812 05        		.byte	0x5
 5382 0813 5608      		.word	0x856
 5383 0815 3808 0000 		.long	0x838
 5384 0819 0B        		.uleb128 0xb
 5385 081a 0000 0000 		.long	.LASF144
 5386 081e 05        		.byte	0x5
 5387 081f 5608      		.word	0x856
 5388 0821 8900 0000 		.long	0x89
 5389 0825 02        		.byte	0x2
 5390 0826 23        		.byte	0x23
 5391 0827 00        		.uleb128 0
 5392 0828 0B        		.uleb128 0xb
GAS LISTING /tmp/ccPqDIXf.s 			page 119


 5393 0829 0000 0000 		.long	.LASF145
 5394 082d 05        		.byte	0x5
 5395 082e 5608      		.word	0x856
 5396 0830 8900 0000 		.long	0x89
 5397 0834 02        		.byte	0x2
 5398 0835 23        		.byte	0x23
 5399 0836 01        		.uleb128 0x1
 5400 0837 00        		.byte	0
 5401 0838 10        		.uleb128 0x10
 5402 0839 02        		.byte	0x2
 5403 083a 05        		.byte	0x5
 5404 083b 5608      		.word	0x856
 5405 083d 5308 0000 		.long	0x853
 5406 0841 13        		.uleb128 0x13
 5407 0842 0000 0000 		.long	.LASF146
 5408 0846 05        		.byte	0x5
 5409 0847 5608      		.word	0x856
 5410 0849 9900 0000 		.long	0x99
 5411 084d 12        		.uleb128 0x12
 5412 084e 1008 0000 		.long	0x810
 5413 0852 00        		.byte	0
 5414 0853 0F        		.uleb128 0xf
 5415 0854 02        		.byte	0x2
 5416 0855 05        		.byte	0x5
 5417 0856 5708      		.word	0x857
 5418 0858 7B08 0000 		.long	0x87b
 5419 085c 0B        		.uleb128 0xb
 5420 085d 0000 0000 		.long	.LASF147
 5421 0861 05        		.byte	0x5
 5422 0862 5708      		.word	0x857
 5423 0864 8900 0000 		.long	0x89
 5424 0868 02        		.byte	0x2
 5425 0869 23        		.byte	0x23
 5426 086a 00        		.uleb128 0
 5427 086b 0B        		.uleb128 0xb
 5428 086c 0000 0000 		.long	.LASF148
 5429 0870 05        		.byte	0x5
 5430 0871 5708      		.word	0x857
 5431 0873 8900 0000 		.long	0x89
 5432 0877 02        		.byte	0x2
 5433 0878 23        		.byte	0x23
 5434 0879 01        		.uleb128 0x1
 5435 087a 00        		.byte	0
 5436 087b 10        		.uleb128 0x10
 5437 087c 02        		.byte	0x2
 5438 087d 05        		.byte	0x5
 5439 087e 5708      		.word	0x857
 5440 0880 9608 0000 		.long	0x896
 5441 0884 13        		.uleb128 0x13
 5442 0885 0000 0000 		.long	.LASF149
 5443 0889 05        		.byte	0x5
 5444 088a 5708      		.word	0x857
 5445 088c 9900 0000 		.long	0x99
 5446 0890 12        		.uleb128 0x12
 5447 0891 5308 0000 		.long	0x853
 5448 0895 00        		.byte	0
 5449 0896 0A        		.uleb128 0xa
GAS LISTING /tmp/ccPqDIXf.s 			page 120


 5450 0897 0000 0000 		.long	.LASF150
 5451 089b 40        		.byte	0x40
 5452 089c 05        		.byte	0x5
 5453 089d 2108      		.word	0x821
 5454 089f 720B 0000 		.long	0xb72
 5455 08a3 0B        		.uleb128 0xb
 5456 08a4 0000 0000 		.long	.LASF151
 5457 08a8 05        		.byte	0x5
 5458 08a9 2308      		.word	0x823
 5459 08ab 8900 0000 		.long	0x89
 5460 08af 02        		.byte	0x2
 5461 08b0 23        		.byte	0x23
 5462 08b1 00        		.uleb128 0
 5463 08b2 0B        		.uleb128 0xb
 5464 08b3 0000 0000 		.long	.LASF152
 5465 08b7 05        		.byte	0x5
 5466 08b8 2408      		.word	0x824
 5467 08ba 8900 0000 		.long	0x89
 5468 08be 02        		.byte	0x2
 5469 08bf 23        		.byte	0x23
 5470 08c0 01        		.uleb128 0x1
 5471 08c1 0B        		.uleb128 0xb
 5472 08c2 0000 0000 		.long	.LASF153
 5473 08c6 05        		.byte	0x5
 5474 08c7 2508      		.word	0x825
 5475 08c9 8900 0000 		.long	0x89
 5476 08cd 02        		.byte	0x2
 5477 08ce 23        		.byte	0x23
 5478 08cf 02        		.uleb128 0x2
 5479 08d0 0B        		.uleb128 0xb
 5480 08d1 0000 0000 		.long	.LASF154
 5481 08d5 05        		.byte	0x5
 5482 08d6 2608      		.word	0x826
 5483 08d8 8900 0000 		.long	0x89
 5484 08dc 02        		.byte	0x2
 5485 08dd 23        		.byte	0x23
 5486 08de 03        		.uleb128 0x3
 5487 08df 0B        		.uleb128 0xb
 5488 08e0 0000 0000 		.long	.LASF155
 5489 08e4 05        		.byte	0x5
 5490 08e5 2708      		.word	0x827
 5491 08e7 8900 0000 		.long	0x89
 5492 08eb 02        		.byte	0x2
 5493 08ec 23        		.byte	0x23
 5494 08ed 04        		.uleb128 0x4
 5495 08ee 0B        		.uleb128 0xb
 5496 08ef 0000 0000 		.long	.LASF156
 5497 08f3 05        		.byte	0x5
 5498 08f4 2808      		.word	0x828
 5499 08f6 8900 0000 		.long	0x89
 5500 08fa 02        		.byte	0x2
 5501 08fb 23        		.byte	0x23
 5502 08fc 05        		.uleb128 0x5
 5503 08fd 0B        		.uleb128 0xb
 5504 08fe 0000 0000 		.long	.LASF157
 5505 0902 05        		.byte	0x5
 5506 0903 2908      		.word	0x829
GAS LISTING /tmp/ccPqDIXf.s 			page 121


 5507 0905 8900 0000 		.long	0x89
 5508 0909 02        		.byte	0x2
 5509 090a 23        		.byte	0x23
 5510 090b 06        		.uleb128 0x6
 5511 090c 0B        		.uleb128 0xb
 5512 090d 0000 0000 		.long	.LASF158
 5513 0911 05        		.byte	0x5
 5514 0912 2A08      		.word	0x82a
 5515 0914 8900 0000 		.long	0x89
 5516 0918 02        		.byte	0x2
 5517 0919 23        		.byte	0x23
 5518 091a 07        		.uleb128 0x7
 5519 091b 0B        		.uleb128 0xb
 5520 091c 0000 0000 		.long	.LASF159
 5521 0920 05        		.byte	0x5
 5522 0921 2B08      		.word	0x82b
 5523 0923 8900 0000 		.long	0x89
 5524 0927 02        		.byte	0x2
 5525 0928 23        		.byte	0x23
 5526 0929 08        		.uleb128 0x8
 5527 092a 0B        		.uleb128 0xb
 5528 092b 0000 0000 		.long	.LASF160
 5529 092f 05        		.byte	0x5
 5530 0930 2C08      		.word	0x82c
 5531 0932 8900 0000 		.long	0x89
 5532 0936 02        		.byte	0x2
 5533 0937 23        		.byte	0x23
 5534 0938 09        		.uleb128 0x9
 5535 0939 0B        		.uleb128 0xb
 5536 093a 0000 0000 		.long	.LASF161
 5537 093e 05        		.byte	0x5
 5538 093f 2D08      		.word	0x82d
 5539 0941 8900 0000 		.long	0x89
 5540 0945 02        		.byte	0x2
 5541 0946 23        		.byte	0x23
 5542 0947 0A        		.uleb128 0xa
 5543 0948 0B        		.uleb128 0xb
 5544 0949 0000 0000 		.long	.LASF162
 5545 094d 05        		.byte	0x5
 5546 094e 2E08      		.word	0x82e
 5547 0950 8900 0000 		.long	0x89
 5548 0954 02        		.byte	0x2
 5549 0955 23        		.byte	0x23
 5550 0956 0B        		.uleb128 0xb
 5551 0957 0B        		.uleb128 0xb
 5552 0958 0000 0000 		.long	.LASF101
 5553 095c 05        		.byte	0x5
 5554 095d 2F08      		.word	0x82f
 5555 095f 8900 0000 		.long	0x89
 5556 0963 02        		.byte	0x2
 5557 0964 23        		.byte	0x23
 5558 0965 0C        		.uleb128 0xc
 5559 0966 0B        		.uleb128 0xb
 5560 0967 0000 0000 		.long	.LASF102
 5561 096b 05        		.byte	0x5
 5562 096c 3008      		.word	0x830
 5563 096e 8900 0000 		.long	0x89
GAS LISTING /tmp/ccPqDIXf.s 			page 122


 5564 0972 02        		.byte	0x2
 5565 0973 23        		.byte	0x23
 5566 0974 0D        		.uleb128 0xd
 5567 0975 0B        		.uleb128 0xb
 5568 0976 0000 0000 		.long	.LASF103
 5569 097a 05        		.byte	0x5
 5570 097b 3108      		.word	0x831
 5571 097d 8900 0000 		.long	0x89
 5572 0981 02        		.byte	0x2
 5573 0982 23        		.byte	0x23
 5574 0983 0E        		.uleb128 0xe
 5575 0984 0B        		.uleb128 0xb
 5576 0985 0000 0000 		.long	.LASF163
 5577 0989 05        		.byte	0x5
 5578 098a 3208      		.word	0x832
 5579 098c 8900 0000 		.long	0x89
 5580 0990 02        		.byte	0x2
 5581 0991 23        		.byte	0x23
 5582 0992 0F        		.uleb128 0xf
 5583 0993 0B        		.uleb128 0xb
 5584 0994 0000 0000 		.long	.LASF164
 5585 0998 05        		.byte	0x5
 5586 0999 3308      		.word	0x833
 5587 099b 8900 0000 		.long	0x89
 5588 099f 02        		.byte	0x2
 5589 09a0 23        		.byte	0x23
 5590 09a1 10        		.uleb128 0x10
 5591 09a2 0B        		.uleb128 0xb
 5592 09a3 0000 0000 		.long	.LASF165
 5593 09a7 05        		.byte	0x5
 5594 09a8 3408      		.word	0x834
 5595 09aa 8900 0000 		.long	0x89
 5596 09ae 02        		.byte	0x2
 5597 09af 23        		.byte	0x23
 5598 09b0 11        		.uleb128 0x11
 5599 09b1 0B        		.uleb128 0xb
 5600 09b2 0000 0000 		.long	.LASF166
 5601 09b6 05        		.byte	0x5
 5602 09b7 3508      		.word	0x835
 5603 09b9 8900 0000 		.long	0x89
 5604 09bd 02        		.byte	0x2
 5605 09be 23        		.byte	0x23
 5606 09bf 12        		.uleb128 0x12
 5607 09c0 0B        		.uleb128 0xb
 5608 09c1 0000 0000 		.long	.LASF167
 5609 09c5 05        		.byte	0x5
 5610 09c6 3608      		.word	0x836
 5611 09c8 8900 0000 		.long	0x89
 5612 09cc 02        		.byte	0x2
 5613 09cd 23        		.byte	0x23
 5614 09ce 13        		.uleb128 0x13
 5615 09cf 0B        		.uleb128 0xb
 5616 09d0 0000 0000 		.long	.LASF168
 5617 09d4 05        		.byte	0x5
 5618 09d5 3708      		.word	0x837
 5619 09d7 8900 0000 		.long	0x89
 5620 09db 02        		.byte	0x2
GAS LISTING /tmp/ccPqDIXf.s 			page 123


 5621 09dc 23        		.byte	0x23
 5622 09dd 14        		.uleb128 0x14
 5623 09de 0B        		.uleb128 0xb
 5624 09df 0000 0000 		.long	.LASF169
 5625 09e3 05        		.byte	0x5
 5626 09e4 3808      		.word	0x838
 5627 09e6 8900 0000 		.long	0x89
 5628 09ea 02        		.byte	0x2
 5629 09eb 23        		.byte	0x23
 5630 09ec 15        		.uleb128 0x15
 5631 09ed 0B        		.uleb128 0xb
 5632 09ee 0000 0000 		.long	.LASF170
 5633 09f2 05        		.byte	0x5
 5634 09f3 3908      		.word	0x839
 5635 09f5 8900 0000 		.long	0x89
 5636 09f9 02        		.byte	0x2
 5637 09fa 23        		.byte	0x23
 5638 09fb 16        		.uleb128 0x16
 5639 09fc 0B        		.uleb128 0xb
 5640 09fd 0000 0000 		.long	.LASF171
 5641 0a01 05        		.byte	0x5
 5642 0a02 3A08      		.word	0x83a
 5643 0a04 8900 0000 		.long	0x89
 5644 0a08 02        		.byte	0x2
 5645 0a09 23        		.byte	0x23
 5646 0a0a 17        		.uleb128 0x17
 5647 0a0b 0B        		.uleb128 0xb
 5648 0a0c 0000 0000 		.long	.LASF172
 5649 0a10 05        		.byte	0x5
 5650 0a11 3B08      		.word	0x83b
 5651 0a13 8900 0000 		.long	0x89
 5652 0a17 02        		.byte	0x2
 5653 0a18 23        		.byte	0x23
 5654 0a19 18        		.uleb128 0x18
 5655 0a1a 0B        		.uleb128 0xb
 5656 0a1b 0000 0000 		.long	.LASF173
 5657 0a1f 05        		.byte	0x5
 5658 0a20 3C08      		.word	0x83c
 5659 0a22 8900 0000 		.long	0x89
 5660 0a26 02        		.byte	0x2
 5661 0a27 23        		.byte	0x23
 5662 0a28 19        		.uleb128 0x19
 5663 0a29 0B        		.uleb128 0xb
 5664 0a2a 0000 0000 		.long	.LASF174
 5665 0a2e 05        		.byte	0x5
 5666 0a2f 3D08      		.word	0x83d
 5667 0a31 8900 0000 		.long	0x89
 5668 0a35 02        		.byte	0x2
 5669 0a36 23        		.byte	0x23
 5670 0a37 1A        		.uleb128 0x1a
 5671 0a38 0B        		.uleb128 0xb
 5672 0a39 0000 0000 		.long	.LASF175
 5673 0a3d 05        		.byte	0x5
 5674 0a3e 3E08      		.word	0x83e
 5675 0a40 8900 0000 		.long	0x89
 5676 0a44 02        		.byte	0x2
 5677 0a45 23        		.byte	0x23
GAS LISTING /tmp/ccPqDIXf.s 			page 124


 5678 0a46 1B        		.uleb128 0x1b
 5679 0a47 0B        		.uleb128 0xb
 5680 0a48 0000 0000 		.long	.LASF176
 5681 0a4c 05        		.byte	0x5
 5682 0a4d 3F08      		.word	0x83f
 5683 0a4f 8900 0000 		.long	0x89
 5684 0a53 02        		.byte	0x2
 5685 0a54 23        		.byte	0x23
 5686 0a55 1C        		.uleb128 0x1c
 5687 0a56 0B        		.uleb128 0xb
 5688 0a57 0000 0000 		.long	.LASF177
 5689 0a5b 05        		.byte	0x5
 5690 0a5c 4008      		.word	0x840
 5691 0a5e 8900 0000 		.long	0x89
 5692 0a62 02        		.byte	0x2
 5693 0a63 23        		.byte	0x23
 5694 0a64 1D        		.uleb128 0x1d
 5695 0a65 0B        		.uleb128 0xb
 5696 0a66 0000 0000 		.long	.LASF178
 5697 0a6a 05        		.byte	0x5
 5698 0a6b 4108      		.word	0x841
 5699 0a6d 8900 0000 		.long	0x89
 5700 0a71 02        		.byte	0x2
 5701 0a72 23        		.byte	0x23
 5702 0a73 1E        		.uleb128 0x1e
 5703 0a74 0B        		.uleb128 0xb
 5704 0a75 0000 0000 		.long	.LASF179
 5705 0a79 05        		.byte	0x5
 5706 0a7a 4208      		.word	0x842
 5707 0a7c 8900 0000 		.long	0x89
 5708 0a80 02        		.byte	0x2
 5709 0a81 23        		.byte	0x23
 5710 0a82 1F        		.uleb128 0x1f
 5711 0a83 14        		.uleb128 0x14
 5712 0a84 DD05 0000 		.long	0x5dd
 5713 0a88 02        		.byte	0x2
 5714 0a89 23        		.byte	0x23
 5715 0a8a 20        		.uleb128 0x20
 5716 0a8b 0B        		.uleb128 0xb
 5717 0a8c 0000 0000 		.long	.LASF180
 5718 0a90 05        		.byte	0x5
 5719 0a91 4408      		.word	0x844
 5720 0a93 8900 0000 		.long	0x89
 5721 0a97 02        		.byte	0x2
 5722 0a98 23        		.byte	0x23
 5723 0a99 22        		.uleb128 0x22
 5724 0a9a 0B        		.uleb128 0xb
 5725 0a9b 0000 0000 		.long	.LASF181
 5726 0a9f 05        		.byte	0x5
 5727 0aa0 4508      		.word	0x845
 5728 0aa2 8900 0000 		.long	0x89
 5729 0aa6 02        		.byte	0x2
 5730 0aa7 23        		.byte	0x23
 5731 0aa8 23        		.uleb128 0x23
 5732 0aa9 0B        		.uleb128 0xb
 5733 0aaa 0000 0000 		.long	.LASF182
 5734 0aae 05        		.byte	0x5
GAS LISTING /tmp/ccPqDIXf.s 			page 125


 5735 0aaf 4608      		.word	0x846
 5736 0ab1 8900 0000 		.long	0x89
 5737 0ab5 02        		.byte	0x2
 5738 0ab6 23        		.byte	0x23
 5739 0ab7 24        		.uleb128 0x24
 5740 0ab8 0B        		.uleb128 0xb
 5741 0ab9 0000 0000 		.long	.LASF183
 5742 0abd 05        		.byte	0x5
 5743 0abe 4708      		.word	0x847
 5744 0ac0 8900 0000 		.long	0x89
 5745 0ac4 02        		.byte	0x2
 5746 0ac5 23        		.byte	0x23
 5747 0ac6 25        		.uleb128 0x25
 5748 0ac7 14        		.uleb128 0x14
 5749 0ac8 2006 0000 		.long	0x620
 5750 0acc 02        		.byte	0x2
 5751 0acd 23        		.byte	0x23
 5752 0ace 26        		.uleb128 0x26
 5753 0acf 14        		.uleb128 0x14
 5754 0ad0 6306 0000 		.long	0x663
 5755 0ad4 02        		.byte	0x2
 5756 0ad5 23        		.byte	0x23
 5757 0ad6 28        		.uleb128 0x28
 5758 0ad7 14        		.uleb128 0x14
 5759 0ad8 A606 0000 		.long	0x6a6
 5760 0adc 02        		.byte	0x2
 5761 0add 23        		.byte	0x23
 5762 0ade 2A        		.uleb128 0x2a
 5763 0adf 14        		.uleb128 0x14
 5764 0ae0 E906 0000 		.long	0x6e9
 5765 0ae4 02        		.byte	0x2
 5766 0ae5 23        		.byte	0x23
 5767 0ae6 2C        		.uleb128 0x2c
 5768 0ae7 14        		.uleb128 0x14
 5769 0ae8 2C07 0000 		.long	0x72c
 5770 0aec 02        		.byte	0x2
 5771 0aed 23        		.byte	0x23
 5772 0aee 2E        		.uleb128 0x2e
 5773 0aef 0B        		.uleb128 0xb
 5774 0af0 0000 0000 		.long	.LASF184
 5775 0af4 05        		.byte	0x5
 5776 0af5 4D08      		.word	0x84d
 5777 0af7 8900 0000 		.long	0x89
 5778 0afb 02        		.byte	0x2
 5779 0afc 23        		.byte	0x23
 5780 0afd 30        		.uleb128 0x30
 5781 0afe 0B        		.uleb128 0xb
 5782 0aff 0000 0000 		.long	.LASF185
 5783 0b03 05        		.byte	0x5
 5784 0b04 4E08      		.word	0x84e
 5785 0b06 8900 0000 		.long	0x89
 5786 0b0a 02        		.byte	0x2
 5787 0b0b 23        		.byte	0x23
 5788 0b0c 31        		.uleb128 0x31
 5789 0b0d 0B        		.uleb128 0xb
 5790 0b0e 0000 0000 		.long	.LASF186
 5791 0b12 05        		.byte	0x5
GAS LISTING /tmp/ccPqDIXf.s 			page 126


 5792 0b13 4F08      		.word	0x84f
 5793 0b15 8900 0000 		.long	0x89
 5794 0b19 02        		.byte	0x2
 5795 0b1a 23        		.byte	0x23
 5796 0b1b 32        		.uleb128 0x32
 5797 0b1c 0B        		.uleb128 0xb
 5798 0b1d 0000 0000 		.long	.LASF187
 5799 0b21 05        		.byte	0x5
 5800 0b22 5008      		.word	0x850
 5801 0b24 8900 0000 		.long	0x89
 5802 0b28 02        		.byte	0x2
 5803 0b29 23        		.byte	0x23
 5804 0b2a 33        		.uleb128 0x33
 5805 0b2b 0B        		.uleb128 0xb
 5806 0b2c 0000 0000 		.long	.LASF188
 5807 0b30 05        		.byte	0x5
 5808 0b31 5108      		.word	0x851
 5809 0b33 8900 0000 		.long	0x89
 5810 0b37 02        		.byte	0x2
 5811 0b38 23        		.byte	0x23
 5812 0b39 34        		.uleb128 0x34
 5813 0b3a 0B        		.uleb128 0xb
 5814 0b3b 0000 0000 		.long	.LASF189
 5815 0b3f 05        		.byte	0x5
 5816 0b40 5208      		.word	0x852
 5817 0b42 8900 0000 		.long	0x89
 5818 0b46 02        		.byte	0x2
 5819 0b47 23        		.byte	0x23
 5820 0b48 35        		.uleb128 0x35
 5821 0b49 14        		.uleb128 0x14
 5822 0b4a 6F07 0000 		.long	0x76f
 5823 0b4e 02        		.byte	0x2
 5824 0b4f 23        		.byte	0x23
 5825 0b50 36        		.uleb128 0x36
 5826 0b51 14        		.uleb128 0x14
 5827 0b52 B207 0000 		.long	0x7b2
 5828 0b56 02        		.byte	0x2
 5829 0b57 23        		.byte	0x23
 5830 0b58 38        		.uleb128 0x38
 5831 0b59 14        		.uleb128 0x14
 5832 0b5a F507 0000 		.long	0x7f5
 5833 0b5e 02        		.byte	0x2
 5834 0b5f 23        		.byte	0x23
 5835 0b60 3A        		.uleb128 0x3a
 5836 0b61 14        		.uleb128 0x14
 5837 0b62 3808 0000 		.long	0x838
 5838 0b66 02        		.byte	0x2
 5839 0b67 23        		.byte	0x23
 5840 0b68 3C        		.uleb128 0x3c
 5841 0b69 14        		.uleb128 0x14
 5842 0b6a 7B08 0000 		.long	0x87b
 5843 0b6e 02        		.byte	0x2
 5844 0b6f 23        		.byte	0x23
 5845 0b70 3E        		.uleb128 0x3e
 5846 0b71 00        		.byte	0
 5847 0b72 0C        		.uleb128 0xc
 5848 0b73 0000 0000 		.long	.LASF190
GAS LISTING /tmp/ccPqDIXf.s 			page 127


 5849 0b77 05        		.byte	0x5
 5850 0b78 5808      		.word	0x858
 5851 0b7a 9608 0000 		.long	0x896
 5852 0b7e 0D        		.uleb128 0xd
 5853 0b7f 0000 0000 		.long	.LASF191
 5854 0b83 01        		.byte	0x1
 5855 0b84 05        		.byte	0x5
 5856 0b85 BF08      		.word	0x8bf
 5857 0b87 EC0B 0000 		.long	0xbec
 5858 0b8b 07        		.uleb128 0x7
 5859 0b8c 0000 0000 		.long	.LASF192
 5860 0b90 00        		.sleb128 0
 5861 0b91 07        		.uleb128 0x7
 5862 0b92 0000 0000 		.long	.LASF193
 5863 0b96 01        		.sleb128 1
 5864 0b97 07        		.uleb128 0x7
 5865 0b98 0000 0000 		.long	.LASF194
 5866 0b9c 02        		.sleb128 2
 5867 0b9d 07        		.uleb128 0x7
 5868 0b9e 0000 0000 		.long	.LASF195
 5869 0ba2 03        		.sleb128 3
 5870 0ba3 07        		.uleb128 0x7
 5871 0ba4 0000 0000 		.long	.LASF196
 5872 0ba8 04        		.sleb128 4
 5873 0ba9 07        		.uleb128 0x7
 5874 0baa 0000 0000 		.long	.LASF197
 5875 0bae 05        		.sleb128 5
 5876 0baf 07        		.uleb128 0x7
 5877 0bb0 0000 0000 		.long	.LASF198
 5878 0bb4 06        		.sleb128 6
 5879 0bb5 07        		.uleb128 0x7
 5880 0bb6 0000 0000 		.long	.LASF199
 5881 0bba 07        		.sleb128 7
 5882 0bbb 07        		.uleb128 0x7
 5883 0bbc 0000 0000 		.long	.LASF200
 5884 0bc0 08        		.sleb128 8
 5885 0bc1 07        		.uleb128 0x7
 5886 0bc2 0000 0000 		.long	.LASF201
 5887 0bc6 09        		.sleb128 9
 5888 0bc7 07        		.uleb128 0x7
 5889 0bc8 0000 0000 		.long	.LASF202
 5890 0bcc 0A        		.sleb128 10
 5891 0bcd 07        		.uleb128 0x7
 5892 0bce 0000 0000 		.long	.LASF203
 5893 0bd2 0B        		.sleb128 11
 5894 0bd3 07        		.uleb128 0x7
 5895 0bd4 0000 0000 		.long	.LASF204
 5896 0bd8 0C        		.sleb128 12
 5897 0bd9 07        		.uleb128 0x7
 5898 0bda 0000 0000 		.long	.LASF205
 5899 0bde 0D        		.sleb128 13
 5900 0bdf 07        		.uleb128 0x7
 5901 0be0 0000 0000 		.long	.LASF206
 5902 0be4 0E        		.sleb128 14
 5903 0be5 07        		.uleb128 0x7
 5904 0be6 0000 0000 		.long	.LASF207
 5905 0bea 0F        		.sleb128 15
GAS LISTING /tmp/ccPqDIXf.s 			page 128


 5906 0beb 00        		.byte	0
 5907 0bec 0D        		.uleb128 0xd
 5908 0bed 0000 0000 		.long	.LASF208
 5909 0bf1 01        		.byte	0x1
 5910 0bf2 05        		.byte	0x5
 5911 0bf3 0209      		.word	0x902
 5912 0bf5 120C 0000 		.long	0xc12
 5913 0bf9 07        		.uleb128 0x7
 5914 0bfa 0000 0000 		.long	.LASF209
 5915 0bfe 00        		.sleb128 0
 5916 0bff 07        		.uleb128 0x7
 5917 0c00 0000 0000 		.long	.LASF210
 5918 0c04 01        		.sleb128 1
 5919 0c05 07        		.uleb128 0x7
 5920 0c06 0000 0000 		.long	.LASF211
 5921 0c0a 02        		.sleb128 2
 5922 0c0b 07        		.uleb128 0x7
 5923 0c0c 0000 0000 		.long	.LASF212
 5924 0c10 03        		.sleb128 3
 5925 0c11 00        		.byte	0
 5926 0c12 02        		.uleb128 0x2
 5927 0c13 02        		.byte	0x2
 5928 0c14 07        		.byte	0x7
 5929 0c15 0000 0000 		.long	.LASF213
 5930 0c19 08        		.uleb128 0x8
 5931 0c1a 0000 0000 		.long	.LASF214
 5932 0c1e 24        		.byte	0x24
 5933 0c1f 02        		.byte	0x2
 5934 0c20 D5        		.byte	0xd5
 5935 0c21 220D 0000 		.long	0xd22
 5936 0c25 09        		.uleb128 0x9
 5937 0c26 0000 0000 		.long	.LASF215
 5938 0c2a 02        		.byte	0x2
 5939 0c2b D6        		.byte	0xd6
 5940 0c2c 3000 0000 		.long	0x30
 5941 0c30 02        		.byte	0x2
 5942 0c31 23        		.byte	0x23
 5943 0c32 00        		.uleb128 0
 5944 0c33 09        		.uleb128 0x9
 5945 0c34 0000 0000 		.long	.LASF216
 5946 0c38 02        		.byte	0x2
 5947 0c39 D7        		.byte	0xd7
 5948 0c3a 3000 0000 		.long	0x30
 5949 0c3e 02        		.byte	0x2
 5950 0c3f 23        		.byte	0x23
 5951 0c40 02        		.uleb128 0x2
 5952 0c41 09        		.uleb128 0x9
 5953 0c42 0000 0000 		.long	.LASF217
 5954 0c46 02        		.byte	0x2
 5955 0c47 D8        		.byte	0xd8
 5956 0c48 3000 0000 		.long	0x30
 5957 0c4c 02        		.byte	0x2
 5958 0c4d 23        		.byte	0x23
 5959 0c4e 04        		.uleb128 0x4
 5960 0c4f 09        		.uleb128 0x9
 5961 0c50 0000 0000 		.long	.LASF218
 5962 0c54 02        		.byte	0x2
GAS LISTING /tmp/ccPqDIXf.s 			page 129


 5963 0c55 D9        		.byte	0xd9
 5964 0c56 7400 0000 		.long	0x74
 5965 0c5a 02        		.byte	0x2
 5966 0c5b 23        		.byte	0x23
 5967 0c5c 06        		.uleb128 0x6
 5968 0c5d 09        		.uleb128 0x9
 5969 0c5e 0000 0000 		.long	.LASF219
 5970 0c62 02        		.byte	0x2
 5971 0c63 DA        		.byte	0xda
 5972 0c64 3000 0000 		.long	0x30
 5973 0c68 02        		.byte	0x2
 5974 0c69 23        		.byte	0x23
 5975 0c6a 0A        		.uleb128 0xa
 5976 0c6b 09        		.uleb128 0x9
 5977 0c6c 0000 0000 		.long	.LASF220
 5978 0c70 02        		.byte	0x2
 5979 0c71 DB        		.byte	0xdb
 5980 0c72 3000 0000 		.long	0x30
 5981 0c76 02        		.byte	0x2
 5982 0c77 23        		.byte	0x23
 5983 0c78 0C        		.uleb128 0xc
 5984 0c79 09        		.uleb128 0x9
 5985 0c7a 0000 0000 		.long	.LASF221
 5986 0c7e 02        		.byte	0x2
 5987 0c7f DC        		.byte	0xdc
 5988 0c80 3000 0000 		.long	0x30
 5989 0c84 02        		.byte	0x2
 5990 0c85 23        		.byte	0x23
 5991 0c86 0E        		.uleb128 0xe
 5992 0c87 09        		.uleb128 0x9
 5993 0c88 0000 0000 		.long	.LASF222
 5994 0c8c 02        		.byte	0x2
 5995 0c8d DD        		.byte	0xdd
 5996 0c8e 3000 0000 		.long	0x30
 5997 0c92 02        		.byte	0x2
 5998 0c93 23        		.byte	0x23
 5999 0c94 10        		.uleb128 0x10
 6000 0c95 09        		.uleb128 0x9
 6001 0c96 0000 0000 		.long	.LASF223
 6002 0c9a 02        		.byte	0x2
 6003 0c9b DE        		.byte	0xde
 6004 0c9c 3000 0000 		.long	0x30
 6005 0ca0 02        		.byte	0x2
 6006 0ca1 23        		.byte	0x23
 6007 0ca2 12        		.uleb128 0x12
 6008 0ca3 09        		.uleb128 0x9
 6009 0ca4 0000 0000 		.long	.LASF224
 6010 0ca8 02        		.byte	0x2
 6011 0ca9 E2        		.byte	0xe2
 6012 0caa 220D 0000 		.long	0xd22
 6013 0cae 02        		.byte	0x2
 6014 0caf 23        		.byte	0x23
 6015 0cb0 14        		.uleb128 0x14
 6016 0cb1 09        		.uleb128 0x9
 6017 0cb2 0000 0000 		.long	.LASF225
 6018 0cb6 02        		.byte	0x2
 6019 0cb7 E3        		.byte	0xe3
GAS LISTING /tmp/ccPqDIXf.s 			page 130


 6020 0cb8 3000 0000 		.long	0x30
 6021 0cbc 02        		.byte	0x2
 6022 0cbd 23        		.byte	0x23
 6023 0cbe 15        		.uleb128 0x15
 6024 0cbf 09        		.uleb128 0x9
 6025 0cc0 0000 0000 		.long	.LASF226
 6026 0cc4 02        		.byte	0x2
 6027 0cc5 E4        		.byte	0xe4
 6028 0cc6 220D 0000 		.long	0xd22
 6029 0cca 02        		.byte	0x2
 6030 0ccb 23        		.byte	0x23
 6031 0ccc 17        		.uleb128 0x17
 6032 0ccd 09        		.uleb128 0x9
 6033 0cce 0000 0000 		.long	.LASF227
 6034 0cd2 02        		.byte	0x2
 6035 0cd3 E5        		.byte	0xe5
 6036 0cd4 3000 0000 		.long	0x30
 6037 0cd8 02        		.byte	0x2
 6038 0cd9 23        		.byte	0x23
 6039 0cda 18        		.uleb128 0x18
 6040 0cdb 09        		.uleb128 0x9
 6041 0cdc 0000 0000 		.long	.LASF228
 6042 0ce0 02        		.byte	0x2
 6043 0ce1 E6        		.byte	0xe6
 6044 0ce2 220D 0000 		.long	0xd22
 6045 0ce6 02        		.byte	0x2
 6046 0ce7 23        		.byte	0x23
 6047 0ce8 1A        		.uleb128 0x1a
 6048 0ce9 09        		.uleb128 0x9
 6049 0cea 0000 0000 		.long	.LASF229
 6050 0cee 02        		.byte	0x2
 6051 0cef E7        		.byte	0xe7
 6052 0cf0 3000 0000 		.long	0x30
 6053 0cf4 02        		.byte	0x2
 6054 0cf5 23        		.byte	0x23
 6055 0cf6 1B        		.uleb128 0x1b
 6056 0cf7 09        		.uleb128 0x9
 6057 0cf8 0000 0000 		.long	.LASF230
 6058 0cfc 02        		.byte	0x2
 6059 0cfd E8        		.byte	0xe8
 6060 0cfe 220D 0000 		.long	0xd22
 6061 0d02 02        		.byte	0x2
 6062 0d03 23        		.byte	0x23
 6063 0d04 1D        		.uleb128 0x1d
 6064 0d05 09        		.uleb128 0x9
 6065 0d06 0000 0000 		.long	.LASF231
 6066 0d0a 02        		.byte	0x2
 6067 0d0b E9        		.byte	0xe9
 6068 0d0c 3000 0000 		.long	0x30
 6069 0d10 02        		.byte	0x2
 6070 0d11 23        		.byte	0x23
 6071 0d12 1E        		.uleb128 0x1e
 6072 0d13 09        		.uleb128 0x9
 6073 0d14 0000 0000 		.long	.LASF232
 6074 0d18 02        		.byte	0x2
 6075 0d19 EB        		.byte	0xeb
 6076 0d1a 6200 0000 		.long	0x62
GAS LISTING /tmp/ccPqDIXf.s 			page 131


 6077 0d1e 02        		.byte	0x2
 6078 0d1f 23        		.byte	0x23
 6079 0d20 20        		.uleb128 0x20
 6080 0d21 00        		.byte	0
 6081 0d22 02        		.uleb128 0x2
 6082 0d23 01        		.byte	0x1
 6083 0d24 08        		.byte	0x8
 6084 0d25 0000 0000 		.long	.LASF233
 6085 0d29 15        		.uleb128 0x15
 6086 0d2a 0000 0000 		.long	.LASF314
 6087 0d2e 03        		.byte	0x3
 6088 0d2f E0        		.byte	0xe0
 6089 0d30 01        		.byte	0x1
 6090 0d31 03        		.byte	0x3
 6091 0d32 730D 0000 		.long	0xd73
 6092 0d36 16        		.uleb128 0x16
 6093 0d37 0000 0000 		.long	.LASF238
 6094 0d3b 03        		.byte	0x3
 6095 0d3c E0        		.byte	0xe0
 6096 0d3d 730D 0000 		.long	0xd73
 6097 0d41 17        		.uleb128 0x17
 6098 0d42 0000 0000 		.long	.LASF234
 6099 0d46 03        		.byte	0x3
 6100 0d47 E2        		.byte	0xe2
 6101 0d48 3E00 0000 		.long	0x3e
 6102 0d4c 17        		.uleb128 0x17
 6103 0d4d 0000 0000 		.long	.LASF235
 6104 0d51 03        		.byte	0x3
 6105 0d52 E3        		.byte	0xe3
 6106 0d53 730D 0000 		.long	0xd73
 6107 0d57 17        		.uleb128 0x17
 6108 0d58 0000 0000 		.long	.LASF236
 6109 0d5c 03        		.byte	0x3
 6110 0d5d E7        		.byte	0xe7
 6111 0d5e 6900 0000 		.long	0x69
 6112 0d62 18        		.uleb128 0x18
 6113 0d63 01        		.byte	0x1
 6114 0d64 0000 0000 		.long	.LASF315
 6115 0d68 03        		.byte	0x3
 6116 0d69 E8        		.byte	0xe8
 6117 0d6a 01        		.byte	0x1
 6118 0d6b 01        		.byte	0x1
 6119 0d6c 19        		.uleb128 0x19
 6120 0d6d 7400 0000 		.long	0x74
 6121 0d71 00        		.byte	0
 6122 0d72 00        		.byte	0
 6123 0d73 02        		.uleb128 0x2
 6124 0d74 04        		.byte	0x4
 6125 0d75 04        		.byte	0x4
 6126 0d76 0000 0000 		.long	.LASF237
 6127 0d7a 1A        		.uleb128 0x1a
 6128 0d7b 01        		.byte	0x1
 6129 0d7c 0000 0000 		.long	.LASF316
 6130 0d80 02        		.byte	0x2
 6131 0d81 5B        		.byte	0x5b
 6132 0d82 01        		.byte	0x1
 6133 0d83 6200 0000 		.long	0x62
GAS LISTING /tmp/ccPqDIXf.s 			page 132


 6134 0d87 01        		.byte	0x1
 6135 0d88 1B        		.uleb128 0x1b
 6136 0d89 01        		.byte	0x1
 6137 0d8a 0000 0000 		.long	.LASF241
 6138 0d8e 02        		.byte	0x2
 6139 0d8f 7101      		.word	0x171
 6140 0d91 01        		.byte	0x1
 6141 0d92 01        		.byte	0x1
 6142 0d93 B00D 0000 		.long	0xdb0
 6143 0d97 1C        		.uleb128 0x1c
 6144 0d98 0000 0000 		.long	.LASF239
 6145 0d9c 02        		.byte	0x2
 6146 0d9d 7101      		.word	0x171
 6147 0d9f B00D 0000 		.long	0xdb0
 6148 0da3 1C        		.uleb128 0x1c
 6149 0da4 0000 0000 		.long	.LASF240
 6150 0da8 02        		.byte	0x2
 6151 0da9 7101      		.word	0x171
 6152 0dab 6200 0000 		.long	0x62
 6153 0daf 00        		.byte	0
 6154 0db0 1D        		.uleb128 0x1d
 6155 0db1 02        		.byte	0x2
 6156 0db2 190C 0000 		.long	0xc19
 6157 0db6 1E        		.uleb128 0x1e
 6158 0db7 01        		.byte	0x1
 6159 0db8 0000 0000 		.long	.LASF317
 6160 0dbc 02        		.byte	0x2
 6161 0dbd 4B        		.byte	0x4b
 6162 0dbe 01        		.byte	0x1
 6163 0dbf 3000 0000 		.long	0x30
 6164 0dc3 01        		.byte	0x1
 6165 0dc4 D20D 0000 		.long	0xdd2
 6166 0dc8 1F        		.uleb128 0x1f
 6167 0dc9 6E00      		.string	"n"
 6168 0dcb 02        		.byte	0x2
 6169 0dcc 4B        		.byte	0x4b
 6170 0dcd 3000 0000 		.long	0x30
 6171 0dd1 00        		.byte	0
 6172 0dd2 1B        		.uleb128 0x1b
 6173 0dd3 01        		.byte	0x1
 6174 0dd4 0000 0000 		.long	.LASF242
 6175 0dd8 02        		.byte	0x2
 6176 0dd9 1902      		.word	0x219
 6177 0ddb 01        		.byte	0x1
 6178 0ddc 01        		.byte	0x1
 6179 0ddd 2A0E 0000 		.long	0xe2a
 6180 0de1 1C        		.uleb128 0x1c
 6181 0de2 0000 0000 		.long	.LASF243
 6182 0de6 02        		.byte	0x2
 6183 0de7 1902      		.word	0x219
 6184 0de9 3000 0000 		.long	0x30
 6185 0ded 1C        		.uleb128 0x1c
 6186 0dee 0000 0000 		.long	.LASF244
 6187 0df2 02        		.byte	0x2
 6188 0df3 1902      		.word	0x219
 6189 0df5 3000 0000 		.long	0x30
 6190 0df9 1C        		.uleb128 0x1c
GAS LISTING /tmp/ccPqDIXf.s 			page 133


 6191 0dfa 0000 0000 		.long	.LASF245
 6192 0dfe 02        		.byte	0x2
 6193 0dff 1902      		.word	0x219
 6194 0e01 3000 0000 		.long	0x30
 6195 0e05 1C        		.uleb128 0x1c
 6196 0e06 0000 0000 		.long	.LASF246
 6197 0e0a 02        		.byte	0x2
 6198 0e0b 1902      		.word	0x219
 6199 0e0d 3000 0000 		.long	0x30
 6200 0e11 1C        		.uleb128 0x1c
 6201 0e12 0000 0000 		.long	.LASF247
 6202 0e16 02        		.byte	0x2
 6203 0e17 1902      		.word	0x219
 6204 0e19 3000 0000 		.long	0x30
 6205 0e1d 1C        		.uleb128 0x1c
 6206 0e1e 0000 0000 		.long	.LASF248
 6207 0e22 02        		.byte	0x2
 6208 0e23 1902      		.word	0x219
 6209 0e25 3000 0000 		.long	0x30
 6210 0e29 00        		.byte	0
 6211 0e2a 20        		.uleb128 0x20
 6212 0e2b 01        		.byte	0x1
 6213 0e2c 0000 0000 		.long	.LASF253
 6214 0e30 01        		.byte	0x1
 6215 0e31 4D        		.byte	0x4d
 6216 0e32 01        		.byte	0x1
 6217 0e33 0000 0000 		.long	.LFB7
 6218 0e37 0000 0000 		.long	.LFE7
 6219 0e3b 0000 0000 		.long	.LLST0
 6220 0e3f 01        		.byte	0x1
 6221 0e40 7D0E 0000 		.long	0xe7d
 6222 0e44 21        		.uleb128 0x21
 6223 0e45 0000 0000 		.long	.LASF249
 6224 0e49 01        		.byte	0x1
 6225 0e4a 4D        		.byte	0x4d
 6226 0e4b 7D0E 0000 		.long	0xe7d
 6227 0e4f 0000 0000 		.long	.LLST1
 6228 0e53 22        		.uleb128 0x22
 6229 0e54 0000 0000 		.long	.LASF250
 6230 0e58 01        		.byte	0x1
 6231 0e59 4D        		.byte	0x4d
 6232 0e5a 3E00 0000 		.long	0x3e
 6233 0e5e 01        		.byte	0x1
 6234 0e5f 66        		.byte	0x66
 6235 0e60 23        		.uleb128 0x23
 6236 0e61 0000 0000 		.long	.LASF251
 6237 0e65 01        		.byte	0x1
 6238 0e66 6C        		.byte	0x6c
 6239 0e67 9400 0000 		.long	0x94
 6240 0e6b 01        		.byte	0x1
 6241 0e6c 62        		.byte	0x62
 6242 0e6d 24        		.uleb128 0x24
 6243 0e6e 0000 0000 		.long	.LASF252
 6244 0e72 01        		.byte	0x1
 6245 0e73 6D        		.byte	0x6d
 6246 0e74 7D0E 0000 		.long	0xe7d
 6247 0e78 0000 0000 		.long	.LLST2
GAS LISTING /tmp/ccPqDIXf.s 			page 134


 6248 0e7c 00        		.byte	0
 6249 0e7d 1D        		.uleb128 0x1d
 6250 0e7e 02        		.byte	0x2
 6251 0e7f 9400 0000 		.long	0x94
 6252 0e83 25        		.uleb128 0x25
 6253 0e84 01        		.byte	0x1
 6254 0e85 0000 0000 		.long	.LASF254
 6255 0e89 01        		.byte	0x1
 6256 0e8a 8D        		.byte	0x8d
 6257 0e8b 01        		.byte	0x1
 6258 0e8c 0000 0000 		.long	.LFB8
 6259 0e90 0000 0000 		.long	.LFE8
 6260 0e94 03        		.byte	0x3
 6261 0e95 92        		.byte	0x92
 6262 0e96 20        		.uleb128 0x20
 6263 0e97 02        		.sleb128 2
 6264 0e98 01        		.byte	0x1
 6265 0e99 C70E 0000 		.long	0xec7
 6266 0e9d 21        		.uleb128 0x21
 6267 0e9e 0000 0000 		.long	.LASF255
 6268 0ea2 01        		.byte	0x1
 6269 0ea3 8D        		.byte	0x8d
 6270 0ea4 AB02 0000 		.long	0x2ab
 6271 0ea8 0000 0000 		.long	.LLST3
 6272 0eac 22        		.uleb128 0x22
 6273 0ead 0000 0000 		.long	.LASF256
 6274 0eb1 01        		.byte	0x1
 6275 0eb2 8E        		.byte	0x8e
 6276 0eb3 C70E 0000 		.long	0xec7
 6277 0eb7 01        		.byte	0x1
 6278 0eb8 66        		.byte	0x66
 6279 0eb9 22        		.uleb128 0x22
 6280 0eba 0000 0000 		.long	.LASF257
 6281 0ebe 01        		.byte	0x1
 6282 0ebf 8F        		.byte	0x8f
 6283 0ec0 E302 0000 		.long	0x2e3
 6284 0ec4 01        		.byte	0x1
 6285 0ec5 64        		.byte	0x64
 6286 0ec6 00        		.byte	0
 6287 0ec7 02        		.uleb128 0x2
 6288 0ec8 01        		.byte	0x1
 6289 0ec9 02        		.byte	0x2
 6290 0eca 0000 0000 		.long	.LASF258
 6291 0ece 25        		.uleb128 0x25
 6292 0ecf 01        		.byte	0x1
 6293 0ed0 0000 0000 		.long	.LASF259
 6294 0ed4 01        		.byte	0x1
 6295 0ed5 A7        		.byte	0xa7
 6296 0ed6 01        		.byte	0x1
 6297 0ed7 0000 0000 		.long	.LFB9
 6298 0edb 0000 0000 		.long	.LFE9
 6299 0edf 03        		.byte	0x3
 6300 0ee0 92        		.byte	0x92
 6301 0ee1 20        		.uleb128 0x20
 6302 0ee2 02        		.sleb128 2
 6303 0ee3 01        		.byte	0x1
 6304 0ee4 050F 0000 		.long	0xf05
GAS LISTING /tmp/ccPqDIXf.s 			page 135


 6305 0ee8 22        		.uleb128 0x22
 6306 0ee9 0000 0000 		.long	.LASF260
 6307 0eed 01        		.byte	0x1
 6308 0eee A7        		.byte	0xa7
 6309 0eef 1103 0000 		.long	0x311
 6310 0ef3 01        		.byte	0x1
 6311 0ef4 68        		.byte	0x68
 6312 0ef5 21        		.uleb128 0x21
 6313 0ef6 0000 0000 		.long	.LASF261
 6314 0efa 01        		.byte	0x1
 6315 0efb A7        		.byte	0xa7
 6316 0efc 3E00 0000 		.long	0x3e
 6317 0f00 0000 0000 		.long	.LLST4
 6318 0f04 00        		.byte	0
 6319 0f05 26        		.uleb128 0x26
 6320 0f06 01        		.byte	0x1
 6321 0f07 0000 0000 		.long	.LASF268
 6322 0f0b 01        		.byte	0x1
 6323 0f0c BB        		.byte	0xbb
 6324 0f0d 01        		.byte	0x1
 6325 0f0e 3E00 0000 		.long	0x3e
 6326 0f12 0000 0000 		.long	.LFB10
 6327 0f16 0000 0000 		.long	.LFE10
 6328 0f1a 03        		.byte	0x3
 6329 0f1b 92        		.byte	0x92
 6330 0f1c 20        		.uleb128 0x20
 6331 0f1d 02        		.sleb128 2
 6332 0f1e 01        		.byte	0x1
 6333 0f1f 420F 0000 		.long	0xf42
 6334 0f23 21        		.uleb128 0x21
 6335 0f24 0000 0000 		.long	.LASF262
 6336 0f28 01        		.byte	0x1
 6337 0f29 BB        		.byte	0xbb
 6338 0f2a 3E00 0000 		.long	0x3e
 6339 0f2e 0000 0000 		.long	.LLST5
 6340 0f32 24        		.uleb128 0x24
 6341 0f33 0000 0000 		.long	.LASF263
 6342 0f37 01        		.byte	0x1
 6343 0f38 BE        		.byte	0xbe
 6344 0f39 3E00 0000 		.long	0x3e
 6345 0f3d 0000 0000 		.long	.LLST6
 6346 0f41 00        		.byte	0
 6347 0f42 25        		.uleb128 0x25
 6348 0f43 01        		.byte	0x1
 6349 0f44 0000 0000 		.long	.LASF264
 6350 0f48 01        		.byte	0x1
 6351 0f49 CE        		.byte	0xce
 6352 0f4a 01        		.byte	0x1
 6353 0f4b 0000 0000 		.long	.LFB11
 6354 0f4f 0000 0000 		.long	.LFE11
 6355 0f53 03        		.byte	0x3
 6356 0f54 92        		.byte	0x92
 6357 0f55 20        		.uleb128 0x20
 6358 0f56 02        		.sleb128 2
 6359 0f57 01        		.byte	0x1
 6360 0f58 AB0F 0000 		.long	0xfab
 6361 0f5c 21        		.uleb128 0x21
GAS LISTING /tmp/ccPqDIXf.s 			page 136


 6362 0f5d 0000 0000 		.long	.LASF265
 6363 0f61 01        		.byte	0x1
 6364 0f62 CE        		.byte	0xce
 6365 0f63 9401 0000 		.long	0x194
 6366 0f67 0000 0000 		.long	.LLST7
 6367 0f6b 21        		.uleb128 0x21
 6368 0f6c 0000 0000 		.long	.LASF266
 6369 0f70 01        		.byte	0x1
 6370 0f71 CF        		.byte	0xcf
 6371 0f72 C401 0000 		.long	0x1c4
 6372 0f76 0000 0000 		.long	.LLST8
 6373 0f7a 24        		.uleb128 0x24
 6374 0f7b 0000 0000 		.long	.LASF267
 6375 0f7f 01        		.byte	0x1
 6376 0f80 D1        		.byte	0xd1
 6377 0f81 3E00 0000 		.long	0x3e
 6378 0f85 0000 0000 		.long	.LLST9
 6379 0f89 27        		.uleb128 0x27
 6380 0f8a 0000 0000 		.long	.LVL15
 6381 0f8e 01        		.byte	0x1
 6382 0f8f 2A0E 0000 		.long	0xe2a
 6383 0f93 28        		.uleb128 0x28
 6384 0f94 06        		.byte	0x6
 6385 0f95 68        		.byte	0x68
 6386 0f96 93        		.byte	0x93
 6387 0f97 01        		.uleb128 0x1
 6388 0f98 69        		.byte	0x69
 6389 0f99 93        		.byte	0x93
 6390 0f9a 01        		.uleb128 0x1
 6391 0f9b 02        		.byte	0x2
 6392 0f9c 08        		.byte	0x8
 6393 0f9d 41        		.byte	0x41
 6394 0f9e 28        		.uleb128 0x28
 6395 0f9f 01        		.byte	0x1
 6396 0fa0 66        		.byte	0x66
 6397 0fa1 07        		.byte	0x7
 6398 0fa2 F3        		.byte	0xf3
 6399 0fa3 01        		.uleb128 0x1
 6400 0fa4 66        		.byte	0x66
 6401 0fa5 F3        		.byte	0xf3
 6402 0fa6 01        		.uleb128 0x1
 6403 0fa7 68        		.byte	0x68
 6404 0fa8 21        		.byte	0x21
 6405 0fa9 00        		.byte	0
 6406 0faa 00        		.byte	0
 6407 0fab 29        		.uleb128 0x29
 6408 0fac 01        		.byte	0x1
 6409 0fad 0000 0000 		.long	.LASF269
 6410 0fb1 01        		.byte	0x1
 6411 0fb2 E1        		.byte	0xe1
 6412 0fb3 01        		.byte	0x1
 6413 0fb4 3E00 0000 		.long	0x3e
 6414 0fb8 0000 0000 		.long	.LFB12
 6415 0fbc 0000 0000 		.long	.LFE12
 6416 0fc0 0000 0000 		.long	.LLST10
 6417 0fc4 01        		.byte	0x1
 6418 0fc5 FD0F 0000 		.long	0xffd
GAS LISTING /tmp/ccPqDIXf.s 			page 137


 6419 0fc9 21        		.uleb128 0x21
 6420 0fca 0000 0000 		.long	.LASF260
 6421 0fce 01        		.byte	0x1
 6422 0fcf E1        		.byte	0xe1
 6423 0fd0 3F01 0000 		.long	0x13f
 6424 0fd4 0000 0000 		.long	.LLST11
 6425 0fd8 24        		.uleb128 0x24
 6426 0fd9 0000 0000 		.long	.LASF270
 6427 0fdd 01        		.byte	0x1
 6428 0fde E3        		.byte	0xe3
 6429 0fdf 3E00 0000 		.long	0x3e
 6430 0fe3 0000 0000 		.long	.LLST12
 6431 0fe7 2A        		.uleb128 0x2a
 6432 0fe8 0000 0000 		.long	.LVL21
 6433 0fec 2A0E 0000 		.long	0xe2a
 6434 0ff0 28        		.uleb128 0x28
 6435 0ff1 06        		.byte	0x6
 6436 0ff2 68        		.byte	0x68
 6437 0ff3 93        		.byte	0x93
 6438 0ff4 01        		.uleb128 0x1
 6439 0ff5 69        		.byte	0x69
 6440 0ff6 93        		.byte	0x93
 6441 0ff7 01        		.uleb128 0x1
 6442 0ff8 02        		.byte	0x2
 6443 0ff9 8C        		.byte	0x8c
 6444 0ffa 00        		.sleb128 0
 6445 0ffb 00        		.byte	0
 6446 0ffc 00        		.byte	0
 6447 0ffd 25        		.uleb128 0x25
 6448 0ffe 01        		.byte	0x1
 6449 0fff 0000 0000 		.long	.LASF271
 6450 1003 01        		.byte	0x1
 6451 1004 F1        		.byte	0xf1
 6452 1005 01        		.byte	0x1
 6453 1006 0000 0000 		.long	.LFB13
 6454 100a 0000 0000 		.long	.LFE13
 6455 100e 03        		.byte	0x3
 6456 100f 92        		.byte	0x92
 6457 1010 20        		.uleb128 0x20
 6458 1011 02        		.sleb128 2
 6459 1012 01        		.byte	0x1
 6460 1013 2510 0000 		.long	0x1025
 6461 1017 22        		.uleb128 0x22
 6462 1018 0000 0000 		.long	.LASF260
 6463 101c 01        		.byte	0x1
 6464 101d F1        		.byte	0xf1
 6465 101e F401 0000 		.long	0x1f4
 6466 1022 01        		.byte	0x1
 6467 1023 68        		.byte	0x68
 6468 1024 00        		.byte	0
 6469 1025 2B        		.uleb128 0x2b
 6470 1026 01        		.byte	0x1
 6471 1027 0000 0000 		.long	.LASF272
 6472 102b 01        		.byte	0x1
 6473 102c 0401      		.word	0x104
 6474 102e 01        		.byte	0x1
 6475 102f 0000 0000 		.long	.LFB14
GAS LISTING /tmp/ccPqDIXf.s 			page 138


 6476 1033 0000 0000 		.long	.LFE14
 6477 1037 03        		.byte	0x3
 6478 1038 92        		.byte	0x92
 6479 1039 20        		.uleb128 0x20
 6480 103a 02        		.sleb128 2
 6481 103b 01        		.byte	0x1
 6482 103c 5F10 0000 		.long	0x105f
 6483 1040 2C        		.uleb128 0x2c
 6484 1041 0000 0000 		.long	.LASF273
 6485 1045 01        		.byte	0x1
 6486 1046 0401      		.word	0x104
 6487 1048 3E00 0000 		.long	0x3e
 6488 104c 0000 0000 		.long	.LLST13
 6489 1050 2D        		.uleb128 0x2d
 6490 1051 0000 0000 		.long	.LASF274
 6491 1055 01        		.byte	0x1
 6492 1056 0401      		.word	0x104
 6493 1058 C70E 0000 		.long	0xec7
 6494 105c 01        		.byte	0x1
 6495 105d 66        		.byte	0x66
 6496 105e 00        		.byte	0
 6497 105f 2B        		.uleb128 0x2b
 6498 1060 01        		.byte	0x1
 6499 1061 0000 0000 		.long	.LASF275
 6500 1065 01        		.byte	0x1
 6501 1066 1801      		.word	0x118
 6502 1068 01        		.byte	0x1
 6503 1069 0000 0000 		.long	.LFB15
 6504 106d 0000 0000 		.long	.LFE15
 6505 1071 03        		.byte	0x3
 6506 1072 92        		.byte	0x92
 6507 1073 20        		.uleb128 0x20
 6508 1074 02        		.sleb128 2
 6509 1075 01        		.byte	0x1
 6510 1076 9610 0000 		.long	0x1096
 6511 107a 27        		.uleb128 0x27
 6512 107b 0000 0000 		.long	.LVL30
 6513 107f 01        		.byte	0x1
 6514 1080 2A0E 0000 		.long	0xe2a
 6515 1084 28        		.uleb128 0x28
 6516 1085 06        		.byte	0x6
 6517 1086 68        		.byte	0x68
 6518 1087 93        		.byte	0x93
 6519 1088 01        		.uleb128 0x1
 6520 1089 69        		.byte	0x69
 6521 108a 93        		.byte	0x93
 6522 108b 01        		.uleb128 0x1
 6523 108c 02        		.byte	0x2
 6524 108d 08        		.byte	0x8
 6525 108e 53        		.byte	0x53
 6526 108f 28        		.uleb128 0x28
 6527 1090 01        		.byte	0x1
 6528 1091 66        		.byte	0x66
 6529 1092 01        		.byte	0x1
 6530 1093 33        		.byte	0x33
 6531 1094 00        		.byte	0
 6532 1095 00        		.byte	0
GAS LISTING /tmp/ccPqDIXf.s 			page 139


 6533 1096 2B        		.uleb128 0x2b
 6534 1097 01        		.byte	0x1
 6535 1098 0000 0000 		.long	.LASF276
 6536 109c 01        		.byte	0x1
 6537 109d 2401      		.word	0x124
 6538 109f 01        		.byte	0x1
 6539 10a0 0000 0000 		.long	.LFB16
 6540 10a4 0000 0000 		.long	.LFE16
 6541 10a8 03        		.byte	0x3
 6542 10a9 92        		.byte	0x92
 6543 10aa 20        		.uleb128 0x20
 6544 10ab 02        		.sleb128 2
 6545 10ac 01        		.byte	0x1
 6546 10ad CD10 0000 		.long	0x10cd
 6547 10b1 27        		.uleb128 0x27
 6548 10b2 0000 0000 		.long	.LVL31
 6549 10b6 01        		.byte	0x1
 6550 10b7 2A0E 0000 		.long	0xe2a
 6551 10bb 28        		.uleb128 0x28
 6552 10bc 06        		.byte	0x6
 6553 10bd 68        		.byte	0x68
 6554 10be 93        		.byte	0x93
 6555 10bf 01        		.uleb128 0x1
 6556 10c0 69        		.byte	0x69
 6557 10c1 93        		.byte	0x93
 6558 10c2 01        		.uleb128 0x1
 6559 10c3 02        		.byte	0x2
 6560 10c4 08        		.byte	0x8
 6561 10c5 42        		.byte	0x42
 6562 10c6 28        		.uleb128 0x28
 6563 10c7 01        		.byte	0x1
 6564 10c8 66        		.byte	0x66
 6565 10c9 01        		.byte	0x1
 6566 10ca 31        		.byte	0x31
 6567 10cb 00        		.byte	0
 6568 10cc 00        		.byte	0
 6569 10cd 2E        		.uleb128 0x2e
 6570 10ce 01        		.byte	0x1
 6571 10cf 0000 0000 		.long	.LASF279
 6572 10d3 02        		.byte	0x2
 6573 10d4 35        		.byte	0x35
 6574 10d5 01        		.byte	0x1
 6575 10d6 0000 0000 		.long	.LFB17
 6576 10da 0000 0000 		.long	.LFE17
 6577 10de 0000 0000 		.long	.LLST14
 6578 10e2 01        		.byte	0x1
 6579 10e3 25        		.uleb128 0x25
 6580 10e4 01        		.byte	0x1
 6581 10e5 0000 0000 		.long	.LASF277
 6582 10e9 02        		.byte	0x2
 6583 10ea 3A        		.byte	0x3a
 6584 10eb 01        		.byte	0x1
 6585 10ec 0000 0000 		.long	.LFB18
 6586 10f0 0000 0000 		.long	.LFE18
 6587 10f4 03        		.byte	0x3
 6588 10f5 92        		.byte	0x92
 6589 10f6 20        		.uleb128 0x20
GAS LISTING /tmp/ccPqDIXf.s 			page 140


 6590 10f7 02        		.sleb128 2
 6591 10f8 01        		.byte	0x1
 6592 10f9 4611 0000 		.long	0x1146
 6593 10fd 2F        		.uleb128 0x2f
 6594 10fe 6D73 00   		.string	"ms"
 6595 1101 02        		.byte	0x2
 6596 1102 3A        		.byte	0x3a
 6597 1103 3000 0000 		.long	0x30
 6598 1107 0000 0000 		.long	.LLST15
 6599 110b 30        		.uleb128 0x30
 6600 110c 290D 0000 		.long	0xd29
 6601 1110 0000 0000 		.long	.LBB64
 6602 1114 0000 0000 		.long	.LBE64
 6603 1118 02        		.byte	0x2
 6604 1119 3D        		.byte	0x3d
 6605 111a 31        		.uleb128 0x31
 6606 111b 360D 0000 		.long	0xd36
 6607 111f 0000 0000 		.long	.LLST16
 6608 1123 32        		.uleb128 0x32
 6609 1124 0000 0000 		.long	.LBB65
 6610 1128 0000 0000 		.long	.LBE65
 6611 112c 33        		.uleb128 0x33
 6612 112d 410D 0000 		.long	0xd41
 6613 1131 34        		.uleb128 0x34
 6614 1132 4C0D 0000 		.long	0xd4c
 6615 1136 0000 0000 		.long	.LLST17
 6616 113a 34        		.uleb128 0x34
 6617 113b 570D 0000 		.long	0xd57
 6618 113f 0000 0000 		.long	.LLST18
 6619 1143 00        		.byte	0
 6620 1144 00        		.byte	0
 6621 1145 00        		.byte	0
 6622 1146 26        		.uleb128 0x26
 6623 1147 01        		.byte	0x1
 6624 1148 0000 0000 		.long	.LASF278
 6625 114c 02        		.byte	0x2
 6626 114d 41        		.byte	0x41
 6627 114e 01        		.byte	0x1
 6628 114f 3000 0000 		.long	0x30
 6629 1153 0000 0000 		.long	.LFB19
 6630 1157 0000 0000 		.long	.LFE19
 6631 115b 03        		.byte	0x3
 6632 115c 92        		.byte	0x92
 6633 115d 20        		.uleb128 0x20
 6634 115e 02        		.sleb128 2
 6635 115f 01        		.byte	0x1
 6636 1160 8211 0000 		.long	0x1182
 6637 1164 2F        		.uleb128 0x2f
 6638 1165 6100      		.string	"a"
 6639 1167 02        		.byte	0x2
 6640 1168 41        		.byte	0x41
 6641 1169 8211 0000 		.long	0x1182
 6642 116d 0000 0000 		.long	.LLST19
 6643 1171 35        		.uleb128 0x35
 6644 1172 6200      		.string	"b"
 6645 1174 02        		.byte	0x2
 6646 1175 41        		.byte	0x41
GAS LISTING /tmp/ccPqDIXf.s 			page 141


 6647 1176 8211 0000 		.long	0x1182
 6648 117a 06        		.byte	0x6
 6649 117b 66        		.byte	0x66
 6650 117c 93        		.byte	0x93
 6651 117d 01        		.uleb128 0x1
 6652 117e 67        		.byte	0x67
 6653 117f 93        		.byte	0x93
 6654 1180 01        		.uleb128 0x1
 6655 1181 00        		.byte	0
 6656 1182 1D        		.uleb128 0x1d
 6657 1183 02        		.byte	0x2
 6658 1184 3000 0000 		.long	0x30
 6659 1188 36        		.uleb128 0x36
 6660 1189 B60D 0000 		.long	0xdb6
 6661 118d 0000 0000 		.long	.LFB20
 6662 1191 0000 0000 		.long	.LFE20
 6663 1195 03        		.byte	0x3
 6664 1196 92        		.byte	0x92
 6665 1197 20        		.uleb128 0x20
 6666 1198 02        		.sleb128 2
 6667 1199 01        		.byte	0x1
 6668 119a A811 0000 		.long	0x11a8
 6669 119e 31        		.uleb128 0x31
 6670 119f C80D 0000 		.long	0xdc8
 6671 11a3 0000 0000 		.long	.LLST20
 6672 11a7 00        		.byte	0
 6673 11a8 37        		.uleb128 0x37
 6674 11a9 01        		.byte	0x1
 6675 11aa 0000 0000 		.long	.LASF280
 6676 11ae 02        		.byte	0x2
 6677 11af 50        		.byte	0x50
 6678 11b0 01        		.byte	0x1
 6679 11b1 0000 0000 		.long	.LFB21
 6680 11b5 0000 0000 		.long	.LFE21
 6681 11b9 03        		.byte	0x3
 6682 11ba 92        		.byte	0x92
 6683 11bb 20        		.uleb128 0x20
 6684 11bc 02        		.sleb128 2
 6685 11bd 01        		.byte	0x1
 6686 11be 38        		.uleb128 0x38
 6687 11bf 7A0D 0000 		.long	0xd7a
 6688 11c3 0000 0000 		.long	.LFB22
 6689 11c7 0000 0000 		.long	.LFE22
 6690 11cb 0000 0000 		.long	.LLST21
 6691 11cf 01        		.byte	0x1
 6692 11d0 20        		.uleb128 0x20
 6693 11d1 01        		.byte	0x1
 6694 11d2 0000 0000 		.long	.LASF281
 6695 11d6 02        		.byte	0x2
 6696 11d7 5F        		.byte	0x5f
 6697 11d8 01        		.byte	0x1
 6698 11d9 0000 0000 		.long	.LFB23
 6699 11dd 0000 0000 		.long	.LFE23
 6700 11e1 0000 0000 		.long	.LLST22
 6701 11e5 01        		.byte	0x1
 6702 11e6 2A12 0000 		.long	0x122a
 6703 11ea 21        		.uleb128 0x21
GAS LISTING /tmp/ccPqDIXf.s 			page 142


 6704 11eb 0000 0000 		.long	.LASF282
 6705 11ef 02        		.byte	0x2
 6706 11f0 5F        		.byte	0x5f
 6707 11f1 3000 0000 		.long	0x30
 6708 11f5 0000 0000 		.long	.LLST23
 6709 11f9 39        		.uleb128 0x39
 6710 11fa 0000 0000 		.long	.LVL40
 6711 11fe E310 0000 		.long	0x10e3
 6712 1202 1212 0000 		.long	0x1212
 6713 1206 28        		.uleb128 0x28
 6714 1207 06        		.byte	0x6
 6715 1208 68        		.byte	0x68
 6716 1209 93        		.byte	0x93
 6717 120a 01        		.uleb128 0x1
 6718 120b 69        		.byte	0x69
 6719 120c 93        		.byte	0x93
 6720 120d 01        		.uleb128 0x1
 6721 120e 02        		.byte	0x2
 6722 120f 80        		.byte	0x80
 6723 1210 00        		.sleb128 0
 6724 1211 00        		.byte	0
 6725 1212 27        		.uleb128 0x27
 6726 1213 0000 0000 		.long	.LVL42
 6727 1217 01        		.byte	0x1
 6728 1218 E310 0000 		.long	0x10e3
 6729 121c 28        		.uleb128 0x28
 6730 121d 06        		.byte	0x6
 6731 121e 68        		.byte	0x68
 6732 121f 93        		.byte	0x93
 6733 1220 01        		.uleb128 0x1
 6734 1221 69        		.byte	0x69
 6735 1222 93        		.byte	0x93
 6736 1223 01        		.uleb128 0x1
 6737 1224 03        		.byte	0x3
 6738 1225 F3        		.byte	0xf3
 6739 1226 01        		.uleb128 0x1
 6740 1227 68        		.byte	0x68
 6741 1228 00        		.byte	0
 6742 1229 00        		.byte	0
 6743 122a 25        		.uleb128 0x25
 6744 122b 01        		.byte	0x1
 6745 122c 0000 0000 		.long	.LASF283
 6746 1230 02        		.byte	0x2
 6747 1231 68        		.byte	0x68
 6748 1232 01        		.byte	0x1
 6749 1233 0000 0000 		.long	.LFB24
 6750 1237 0000 0000 		.long	.LFE24
 6751 123b 03        		.byte	0x3
 6752 123c 92        		.byte	0x92
 6753 123d 20        		.uleb128 0x20
 6754 123e 02        		.sleb128 2
 6755 123f 01        		.byte	0x1
 6756 1240 6612 0000 		.long	0x1266
 6757 1244 21        		.uleb128 0x21
 6758 1245 0000 0000 		.long	.LASF284
 6759 1249 02        		.byte	0x2
 6760 124a 68        		.byte	0x68
GAS LISTING /tmp/ccPqDIXf.s 			page 143


 6761 124b 220D 0000 		.long	0xd22
 6762 124f 0000 0000 		.long	.LLST24
 6763 1253 22        		.uleb128 0x22
 6764 1254 0000 0000 		.long	.LASF285
 6765 1258 02        		.byte	0x2
 6766 1259 68        		.byte	0x68
 6767 125a 3000 0000 		.long	0x30
 6768 125e 06        		.byte	0x6
 6769 125f 66        		.byte	0x66
 6770 1260 93        		.byte	0x93
 6771 1261 01        		.uleb128 0x1
 6772 1262 67        		.byte	0x67
 6773 1263 93        		.byte	0x93
 6774 1264 01        		.uleb128 0x1
 6775 1265 00        		.byte	0
 6776 1266 25        		.uleb128 0x25
 6777 1267 01        		.byte	0x1
 6778 1268 0000 0000 		.long	.LASF286
 6779 126c 02        		.byte	0x2
 6780 126d 9F        		.byte	0x9f
 6781 126e 01        		.byte	0x1
 6782 126f 0000 0000 		.long	.LFB25
 6783 1273 0000 0000 		.long	.LFE25
 6784 1277 03        		.byte	0x3
 6785 1278 92        		.byte	0x92
 6786 1279 20        		.uleb128 0x20
 6787 127a 02        		.sleb128 2
 6788 127b 01        		.byte	0x1
 6789 127c A212 0000 		.long	0x12a2
 6790 1280 21        		.uleb128 0x21
 6791 1281 0000 0000 		.long	.LASF284
 6792 1285 02        		.byte	0x2
 6793 1286 9F        		.byte	0x9f
 6794 1287 220D 0000 		.long	0xd22
 6795 128b 0000 0000 		.long	.LLST25
 6796 128f 22        		.uleb128 0x22
 6797 1290 0000 0000 		.long	.LASF285
 6798 1294 02        		.byte	0x2
 6799 1295 9F        		.byte	0x9f
 6800 1296 3000 0000 		.long	0x30
 6801 129a 06        		.byte	0x6
 6802 129b 66        		.byte	0x66
 6803 129c 93        		.byte	0x93
 6804 129d 01        		.uleb128 0x1
 6805 129e 67        		.byte	0x67
 6806 129f 93        		.byte	0x93
 6807 12a0 01        		.uleb128 0x1
 6808 12a1 00        		.byte	0
 6809 12a2 3A        		.uleb128 0x3a
 6810 12a3 880D 0000 		.long	0xd88
 6811 12a7 0000 0000 		.long	.LFB26
 6812 12ab 0000 0000 		.long	.LFE26
 6813 12af 0000 0000 		.long	.LLST26
 6814 12b3 01        		.byte	0x1
 6815 12b4 D712 0000 		.long	0x12d7
 6816 12b8 3B        		.uleb128 0x3b
 6817 12b9 970D 0000 		.long	0xd97
GAS LISTING /tmp/ccPqDIXf.s 			page 144


 6818 12bd 06        		.byte	0x6
 6819 12be 68        		.byte	0x68
 6820 12bf 93        		.byte	0x93
 6821 12c0 01        		.uleb128 0x1
 6822 12c1 69        		.byte	0x69
 6823 12c2 93        		.byte	0x93
 6824 12c3 01        		.uleb128 0x1
 6825 12c4 3B        		.uleb128 0x3b
 6826 12c5 A30D 0000 		.long	0xda3
 6827 12c9 0C        		.byte	0xc
 6828 12ca 64        		.byte	0x64
 6829 12cb 93        		.byte	0x93
 6830 12cc 01        		.uleb128 0x1
 6831 12cd 65        		.byte	0x65
 6832 12ce 93        		.byte	0x93
 6833 12cf 01        		.uleb128 0x1
 6834 12d0 66        		.byte	0x66
 6835 12d1 93        		.byte	0x93
 6836 12d2 01        		.uleb128 0x1
 6837 12d3 67        		.byte	0x67
 6838 12d4 93        		.byte	0x93
 6839 12d5 01        		.uleb128 0x1
 6840 12d6 00        		.byte	0
 6841 12d7 3C        		.uleb128 0x3c
 6842 12d8 01        		.byte	0x1
 6843 12d9 0000 0000 		.long	.LASF287
 6844 12dd 02        		.byte	0x2
 6845 12de 7601      		.word	0x176
 6846 12e0 01        		.byte	0x1
 6847 12e1 0000 0000 		.long	.LFB27
 6848 12e5 0000 0000 		.long	.LFE27
 6849 12e9 0000 0000 		.long	.LLST27
 6850 12ed 01        		.byte	0x1
 6851 12ee 2914 0000 		.long	0x1429
 6852 12f2 2C        		.uleb128 0x2c
 6853 12f3 0000 0000 		.long	.LASF239
 6854 12f7 02        		.byte	0x2
 6855 12f8 7601      		.word	0x176
 6856 12fa 190C 0000 		.long	0xc19
 6857 12fe 0000 0000 		.long	.LLST28
 6858 1302 2C        		.uleb128 0x2c
 6859 1303 0000 0000 		.long	.LASF288
 6860 1307 02        		.byte	0x2
 6861 1308 7601      		.word	0x176
 6862 130a 3000 0000 		.long	0x30
 6863 130e 0000 0000 		.long	.LLST29
 6864 1312 3D        		.uleb128 0x3d
 6865 1313 0000 0000 		.long	.LVL150
 6866 1317 6612 0000 		.long	0x1266
 6867 131b 3D        		.uleb128 0x3d
 6868 131c 0000 0000 		.long	.LVL152
 6869 1320 2A12 0000 		.long	0x122a
 6870 1324 3D        		.uleb128 0x3d
 6871 1325 0000 0000 		.long	.LVL154
 6872 1329 2A12 0000 		.long	0x122a
 6873 132d 3D        		.uleb128 0x3d
 6874 132e 0000 0000 		.long	.LVL156
GAS LISTING /tmp/ccPqDIXf.s 			page 145


 6875 1332 6612 0000 		.long	0x1266
 6876 1336 3D        		.uleb128 0x3d
 6877 1337 0000 0000 		.long	.LVL158
 6878 133b 2A12 0000 		.long	0x122a
 6879 133f 39        		.uleb128 0x39
 6880 1340 0000 0000 		.long	.LVL159
 6881 1344 6612 0000 		.long	0x1266
 6882 1348 5E13 0000 		.long	0x135e
 6883 134c 28        		.uleb128 0x28
 6884 134d 01        		.byte	0x1
 6885 134e 68        		.byte	0x68
 6886 134f 02        		.byte	0x2
 6887 1350 7B        		.byte	0x7b
 6888 1351 00        		.sleb128 0
 6889 1352 28        		.uleb128 0x28
 6890 1353 06        		.byte	0x6
 6891 1354 66        		.byte	0x66
 6892 1355 93        		.byte	0x93
 6893 1356 01        		.uleb128 0x1
 6894 1357 67        		.byte	0x67
 6895 1358 93        		.byte	0x93
 6896 1359 01        		.uleb128 0x1
 6897 135a 02        		.byte	0x2
 6898 135b 80        		.byte	0x80
 6899 135c 00        		.sleb128 0
 6900 135d 00        		.byte	0
 6901 135e 3D        		.uleb128 0x3d
 6902 135f 0000 0000 		.long	.LVL161
 6903 1363 6612 0000 		.long	0x1266
 6904 1367 39        		.uleb128 0x39
 6905 1368 0000 0000 		.long	.LVL162
 6906 136c 2A12 0000 		.long	0x122a
 6907 1370 8613 0000 		.long	0x1386
 6908 1374 28        		.uleb128 0x28
 6909 1375 01        		.byte	0x1
 6910 1376 68        		.byte	0x68
 6911 1377 02        		.byte	0x2
 6912 1378 7B        		.byte	0x7b
 6913 1379 00        		.sleb128 0
 6914 137a 28        		.uleb128 0x28
 6915 137b 06        		.byte	0x6
 6916 137c 66        		.byte	0x66
 6917 137d 93        		.byte	0x93
 6918 137e 01        		.uleb128 0x1
 6919 137f 67        		.byte	0x67
 6920 1380 93        		.byte	0x93
 6921 1381 01        		.uleb128 0x1
 6922 1382 02        		.byte	0x2
 6923 1383 80        		.byte	0x80
 6924 1384 00        		.sleb128 0
 6925 1385 00        		.byte	0
 6926 1386 39        		.uleb128 0x39
 6927 1387 0000 0000 		.long	.LVL163
 6928 138b 2A12 0000 		.long	0x122a
 6929 138f A513 0000 		.long	0x13a5
 6930 1393 28        		.uleb128 0x28
 6931 1394 01        		.byte	0x1
GAS LISTING /tmp/ccPqDIXf.s 			page 146


 6932 1395 68        		.byte	0x68
 6933 1396 02        		.byte	0x2
 6934 1397 79        		.byte	0x79
 6935 1398 00        		.sleb128 0
 6936 1399 28        		.uleb128 0x28
 6937 139a 06        		.byte	0x6
 6938 139b 66        		.byte	0x66
 6939 139c 93        		.byte	0x93
 6940 139d 01        		.uleb128 0x1
 6941 139e 67        		.byte	0x67
 6942 139f 93        		.byte	0x93
 6943 13a0 01        		.uleb128 0x1
 6944 13a1 02        		.byte	0x2
 6945 13a2 7C        		.byte	0x7c
 6946 13a3 00        		.sleb128 0
 6947 13a4 00        		.byte	0
 6948 13a5 3E        		.uleb128 0x3e
 6949 13a6 0000 0000 		.long	.LVL170
 6950 13aa 01        		.byte	0x1
 6951 13ab 6612 0000 		.long	0x1266
 6952 13af 3D        		.uleb128 0x3d
 6953 13b0 0000 0000 		.long	.LVL171
 6954 13b4 6612 0000 		.long	0x1266
 6955 13b8 39        		.uleb128 0x39
 6956 13b9 0000 0000 		.long	.LVL172
 6957 13bd 2A12 0000 		.long	0x122a
 6958 13c1 D713 0000 		.long	0x13d7
 6959 13c5 28        		.uleb128 0x28
 6960 13c6 01        		.byte	0x1
 6961 13c7 68        		.byte	0x68
 6962 13c8 02        		.byte	0x2
 6963 13c9 7B        		.byte	0x7b
 6964 13ca 00        		.sleb128 0
 6965 13cb 28        		.uleb128 0x28
 6966 13cc 06        		.byte	0x6
 6967 13cd 66        		.byte	0x66
 6968 13ce 93        		.byte	0x93
 6969 13cf 01        		.uleb128 0x1
 6970 13d0 67        		.byte	0x67
 6971 13d1 93        		.byte	0x93
 6972 13d2 01        		.uleb128 0x1
 6973 13d3 02        		.byte	0x2
 6974 13d4 80        		.byte	0x80
 6975 13d5 00        		.sleb128 0
 6976 13d6 00        		.byte	0
 6977 13d7 3D        		.uleb128 0x3d
 6978 13d8 0000 0000 		.long	.LVL174
 6979 13dc 2A12 0000 		.long	0x122a
 6980 13e0 39        		.uleb128 0x39
 6981 13e1 0000 0000 		.long	.LVL175
 6982 13e5 6612 0000 		.long	0x1266
 6983 13e9 FF13 0000 		.long	0x13ff
 6984 13ed 28        		.uleb128 0x28
 6985 13ee 01        		.byte	0x1
 6986 13ef 68        		.byte	0x68
 6987 13f0 02        		.byte	0x2
 6988 13f1 7B        		.byte	0x7b
GAS LISTING /tmp/ccPqDIXf.s 			page 147


 6989 13f2 00        		.sleb128 0
 6990 13f3 28        		.uleb128 0x28
 6991 13f4 06        		.byte	0x6
 6992 13f5 66        		.byte	0x66
 6993 13f6 93        		.byte	0x93
 6994 13f7 01        		.uleb128 0x1
 6995 13f8 67        		.byte	0x67
 6996 13f9 93        		.byte	0x93
 6997 13fa 01        		.uleb128 0x1
 6998 13fb 02        		.byte	0x2
 6999 13fc 80        		.byte	0x80
 7000 13fd 00        		.sleb128 0
 7001 13fe 00        		.byte	0
 7002 13ff 39        		.uleb128 0x39
 7003 1400 0000 0000 		.long	.LVL176
 7004 1404 6612 0000 		.long	0x1266
 7005 1408 1E14 0000 		.long	0x141e
 7006 140c 28        		.uleb128 0x28
 7007 140d 01        		.byte	0x1
 7008 140e 68        		.byte	0x68
 7009 140f 02        		.byte	0x2
 7010 1410 79        		.byte	0x79
 7011 1411 00        		.sleb128 0
 7012 1412 28        		.uleb128 0x28
 7013 1413 06        		.byte	0x6
 7014 1414 66        		.byte	0x66
 7015 1415 93        		.byte	0x93
 7016 1416 01        		.uleb128 0x1
 7017 1417 67        		.byte	0x67
 7018 1418 93        		.byte	0x93
 7019 1419 01        		.uleb128 0x1
 7020 141a 02        		.byte	0x2
 7021 141b 7C        		.byte	0x7c
 7022 141c 00        		.sleb128 0
 7023 141d 00        		.byte	0
 7024 141e 3E        		.uleb128 0x3e
 7025 141f 0000 0000 		.long	.LVL183
 7026 1423 01        		.byte	0x1
 7027 1424 2A12 0000 		.long	0x122a
 7028 1428 00        		.byte	0
 7029 1429 3F        		.uleb128 0x3f
 7030 142a 01        		.byte	0x1
 7031 142b 0000 0000 		.long	.LASF289
 7032 142f 02        		.byte	0x2
 7033 1430 AA01      		.word	0x1aa
 7034 1432 01        		.byte	0x1
 7035 1433 0000 0000 		.long	.LFB28
 7036 1437 0000 0000 		.long	.LFE28
 7037 143b 0000 0000 		.long	.LLST30
 7038 143f 01        		.byte	0x1
 7039 1440 9E14 0000 		.long	0x149e
 7040 1444 2D        		.uleb128 0x2d
 7041 1445 0000 0000 		.long	.LASF239
 7042 1449 02        		.byte	0x2
 7043 144a AA01      		.word	0x1aa
 7044 144c B00D 0000 		.long	0xdb0
 7045 1450 06        		.byte	0x6
GAS LISTING /tmp/ccPqDIXf.s 			page 148


 7046 1451 6C        		.byte	0x6c
 7047 1452 93        		.byte	0x93
 7048 1453 01        		.uleb128 0x1
 7049 1454 6D        		.byte	0x6d
 7050 1455 93        		.byte	0x93
 7051 1456 01        		.uleb128 0x1
 7052 1457 2D        		.uleb128 0x2d
 7053 1458 0000 0000 		.long	.LASF290
 7054 145c 02        		.byte	0x2
 7055 145d AA01      		.word	0x1aa
 7056 145f 3000 0000 		.long	0x30
 7057 1463 06        		.byte	0x6
 7058 1464 66        		.byte	0x66
 7059 1465 93        		.byte	0x93
 7060 1466 01        		.uleb128 0x1
 7061 1467 67        		.byte	0x67
 7062 1468 93        		.byte	0x93
 7063 1469 01        		.uleb128 0x1
 7064 146a 40        		.uleb128 0x40
 7065 146b 0000 0000 		.long	.LASF291
 7066 146f 02        		.byte	0x2
 7067 1470 AB01      		.word	0x1ab
 7068 1472 3000 0000 		.long	0x30
 7069 1476 06        		.byte	0x6
 7070 1477 5A        		.byte	0x5a
 7071 1478 93        		.byte	0x93
 7072 1479 01        		.uleb128 0x1
 7073 147a 5B        		.byte	0x5b
 7074 147b 93        		.byte	0x93
 7075 147c 01        		.uleb128 0x1
 7076 147d 41        		.uleb128 0x41
 7077 147e 7A0D 0000 		.long	0xd7a
 7078 1482 0000 0000 		.long	.LBB66
 7079 1486 0000 0000 		.long	.LBE66
 7080 148a 02        		.byte	0x2
 7081 148b B801      		.word	0x1b8
 7082 148d 41        		.uleb128 0x41
 7083 148e 7A0D 0000 		.long	0xd7a
 7084 1492 0000 0000 		.long	.LBB68
 7085 1496 0000 0000 		.long	.LBE68
 7086 149a 02        		.byte	0x2
 7087 149b BA01      		.word	0x1ba
 7088 149d 00        		.byte	0
 7089 149e 3F        		.uleb128 0x3f
 7090 149f 01        		.byte	0x1
 7091 14a0 0000 0000 		.long	.LASF292
 7092 14a4 02        		.byte	0x2
 7093 14a5 EB01      		.word	0x1eb
 7094 14a7 01        		.byte	0x1
 7095 14a8 0000 0000 		.long	.LFB29
 7096 14ac 0000 0000 		.long	.LFE29
 7097 14b0 0000 0000 		.long	.LLST31
 7098 14b4 01        		.byte	0x1
 7099 14b5 E014 0000 		.long	0x14e0
 7100 14b9 2D        		.uleb128 0x2d
 7101 14ba 0000 0000 		.long	.LASF239
 7102 14be 02        		.byte	0x2
GAS LISTING /tmp/ccPqDIXf.s 			page 149


 7103 14bf EB01      		.word	0x1eb
 7104 14c1 B00D 0000 		.long	0xdb0
 7105 14c5 06        		.byte	0x6
 7106 14c6 6C        		.byte	0x6c
 7107 14c7 93        		.byte	0x93
 7108 14c8 01        		.uleb128 0x1
 7109 14c9 6D        		.byte	0x6d
 7110 14ca 93        		.byte	0x93
 7111 14cb 01        		.uleb128 0x1
 7112 14cc 2D        		.uleb128 0x2d
 7113 14cd 0000 0000 		.long	.LASF293
 7114 14d1 02        		.byte	0x2
 7115 14d2 EB01      		.word	0x1eb
 7116 14d4 3000 0000 		.long	0x30
 7117 14d8 06        		.byte	0x6
 7118 14d9 66        		.byte	0x66
 7119 14da 93        		.byte	0x93
 7120 14db 01        		.uleb128 0x1
 7121 14dc 67        		.byte	0x67
 7122 14dd 93        		.byte	0x93
 7123 14de 01        		.uleb128 0x1
 7124 14df 00        		.byte	0
 7125 14e0 3A        		.uleb128 0x3a
 7126 14e1 D20D 0000 		.long	0xdd2
 7127 14e5 0000 0000 		.long	.LFB30
 7128 14e9 0000 0000 		.long	.LFE30
 7129 14ed 0000 0000 		.long	.LLST32
 7130 14f1 01        		.byte	0x1
 7131 14f2 3915 0000 		.long	0x1539
 7132 14f6 3B        		.uleb128 0x3b
 7133 14f7 E10D 0000 		.long	0xde1
 7134 14fb 06        		.byte	0x6
 7135 14fc 68        		.byte	0x68
 7136 14fd 93        		.byte	0x93
 7137 14fe 01        		.uleb128 0x1
 7138 14ff 69        		.byte	0x69
 7139 1500 93        		.byte	0x93
 7140 1501 01        		.uleb128 0x1
 7141 1502 3B        		.uleb128 0x3b
 7142 1503 ED0D 0000 		.long	0xded
 7143 1507 06        		.byte	0x6
 7144 1508 66        		.byte	0x66
 7145 1509 93        		.byte	0x93
 7146 150a 01        		.uleb128 0x1
 7147 150b 67        		.byte	0x67
 7148 150c 93        		.byte	0x93
 7149 150d 01        		.uleb128 0x1
 7150 150e 3B        		.uleb128 0x3b
 7151 150f F90D 0000 		.long	0xdf9
 7152 1513 06        		.byte	0x6
 7153 1514 64        		.byte	0x64
 7154 1515 93        		.byte	0x93
 7155 1516 01        		.uleb128 0x1
 7156 1517 65        		.byte	0x65
 7157 1518 93        		.byte	0x93
 7158 1519 01        		.uleb128 0x1
 7159 151a 3B        		.uleb128 0x3b
GAS LISTING /tmp/ccPqDIXf.s 			page 150


 7160 151b 050E 0000 		.long	0xe05
 7161 151f 06        		.byte	0x6
 7162 1520 62        		.byte	0x62
 7163 1521 93        		.byte	0x93
 7164 1522 01        		.uleb128 0x1
 7165 1523 63        		.byte	0x63
 7166 1524 93        		.byte	0x93
 7167 1525 01        		.uleb128 0x1
 7168 1526 31        		.uleb128 0x31
 7169 1527 110E 0000 		.long	0xe11
 7170 152b 0000 0000 		.long	.LLST33
 7171 152f 31        		.uleb128 0x31
 7172 1530 1D0E 0000 		.long	0xe1d
 7173 1534 0000 0000 		.long	.LLST34
 7174 1538 00        		.byte	0
 7175 1539 3F        		.uleb128 0x3f
 7176 153a 01        		.byte	0x1
 7177 153b 0000 0000 		.long	.LASF294
 7178 153f 02        		.byte	0x2
 7179 1540 2202      		.word	0x222
 7180 1542 01        		.byte	0x1
 7181 1543 0000 0000 		.long	.LFB31
 7182 1547 0000 0000 		.long	.LFE31
 7183 154b 0000 0000 		.long	.LLST35
 7184 154f 01        		.byte	0x1
 7185 1550 C018 0000 		.long	0x18c0
 7186 1554 40        		.uleb128 0x40
 7187 1555 0000 0000 		.long	.LASF295
 7188 1559 02        		.byte	0x2
 7189 155a 2402      		.word	0x224
 7190 155c C018 0000 		.long	0x18c0
 7191 1560 02        		.byte	0x2
 7192 1561 8C        		.byte	0x8c
 7193 1562 01        		.sleb128 1
 7194 1563 42        		.uleb128 0x42
 7195 1564 0000 0000 		.long	.LASF296
 7196 1568 02        		.byte	0x2
 7197 1569 2E02      		.word	0x22e
 7198 156b 3000 0000 		.long	0x30
 7199 156f 0000 0000 		.long	.LLST36
 7200 1573 43        		.uleb128 0x43
 7201 1574 6900      		.string	"i"
 7202 1576 02        		.byte	0x2
 7203 1577 2F02      		.word	0x22f
 7204 1579 3000 0000 		.long	0x30
 7205 157d 0000 0000 		.long	.LLST37
 7206 1581 44        		.uleb128 0x44
 7207 1582 880D 0000 		.long	0xd88
 7208 1586 0000 0000 		.long	.LBB70
 7209 158a 0000 0000 		.long	.Ldebug_ranges0+0
 7210 158e 02        		.byte	0x2
 7211 158f 3802      		.word	0x238
 7212 1591 AB15 0000 		.long	0x15ab
 7213 1595 31        		.uleb128 0x31
 7214 1596 A30D 0000 		.long	0xda3
 7215 159a 0000 0000 		.long	.LLST38
 7216 159e 3B        		.uleb128 0x3b
GAS LISTING /tmp/ccPqDIXf.s 			page 151


 7217 159f 970D 0000 		.long	0xd97
 7218 15a3 06        		.byte	0x6
 7219 15a4 03        		.byte	0x3
 7220 15a5 0000 0000 		.long	Base
 7221 15a9 9F        		.byte	0x9f
 7222 15aa 00        		.byte	0
 7223 15ab 44        		.uleb128 0x44
 7224 15ac 880D 0000 		.long	0xd88
 7225 15b0 0000 0000 		.long	.LBB74
 7226 15b4 0000 0000 		.long	.Ldebug_ranges0+0x18
 7227 15b8 02        		.byte	0x2
 7228 15b9 3902      		.word	0x239
 7229 15bb D515 0000 		.long	0x15d5
 7230 15bf 31        		.uleb128 0x31
 7231 15c0 A30D 0000 		.long	0xda3
 7232 15c4 0000 0000 		.long	.LLST39
 7233 15c8 3B        		.uleb128 0x3b
 7234 15c9 970D 0000 		.long	0xd97
 7235 15cd 06        		.byte	0x6
 7236 15ce 03        		.byte	0x3
 7237 15cf 0000 0000 		.long	Shoulder
 7238 15d3 9F        		.byte	0x9f
 7239 15d4 00        		.byte	0
 7240 15d5 44        		.uleb128 0x44
 7241 15d6 880D 0000 		.long	0xd88
 7242 15da 0000 0000 		.long	.LBB78
 7243 15de 0000 0000 		.long	.Ldebug_ranges0+0x30
 7244 15e2 02        		.byte	0x2
 7245 15e3 3A02      		.word	0x23a
 7246 15e5 FF15 0000 		.long	0x15ff
 7247 15e9 31        		.uleb128 0x31
 7248 15ea A30D 0000 		.long	0xda3
 7249 15ee 0000 0000 		.long	.LLST40
 7250 15f2 3B        		.uleb128 0x3b
 7251 15f3 970D 0000 		.long	0xd97
 7252 15f7 06        		.byte	0x6
 7253 15f8 03        		.byte	0x3
 7254 15f9 0000 0000 		.long	Elbow
 7255 15fd 9F        		.byte	0x9f
 7256 15fe 00        		.byte	0
 7257 15ff 44        		.uleb128 0x44
 7258 1600 880D 0000 		.long	0xd88
 7259 1604 0000 0000 		.long	.LBB82
 7260 1608 0000 0000 		.long	.Ldebug_ranges0+0x48
 7261 160c 02        		.byte	0x2
 7262 160d 3B02      		.word	0x23b
 7263 160f 2916 0000 		.long	0x1629
 7264 1613 31        		.uleb128 0x31
 7265 1614 A30D 0000 		.long	0xda3
 7266 1618 0000 0000 		.long	.LLST41
 7267 161c 3B        		.uleb128 0x3b
 7268 161d 970D 0000 		.long	0xd97
 7269 1621 06        		.byte	0x6
 7270 1622 03        		.byte	0x3
 7271 1623 0000 0000 		.long	Right_Wrist
 7272 1627 9F        		.byte	0x9f
 7273 1628 00        		.byte	0
GAS LISTING /tmp/ccPqDIXf.s 			page 152


 7274 1629 44        		.uleb128 0x44
 7275 162a 880D 0000 		.long	0xd88
 7276 162e 0000 0000 		.long	.LBB86
 7277 1632 0000 0000 		.long	.Ldebug_ranges0+0x60
 7278 1636 02        		.byte	0x2
 7279 1637 3C02      		.word	0x23c
 7280 1639 5316 0000 		.long	0x1653
 7281 163d 31        		.uleb128 0x31
 7282 163e A30D 0000 		.long	0xda3
 7283 1642 0000 0000 		.long	.LLST42
 7284 1646 3B        		.uleb128 0x3b
 7285 1647 970D 0000 		.long	0xd97
 7286 164b 06        		.byte	0x6
 7287 164c 03        		.byte	0x3
 7288 164d 0000 0000 		.long	Left_Wrist
 7289 1651 9F        		.byte	0x9f
 7290 1652 00        		.byte	0
 7291 1653 44        		.uleb128 0x44
 7292 1654 880D 0000 		.long	0xd88
 7293 1658 0000 0000 		.long	.LBB90
 7294 165c 0000 0000 		.long	.Ldebug_ranges0+0x78
 7295 1660 02        		.byte	0x2
 7296 1661 3D02      		.word	0x23d
 7297 1663 7D16 0000 		.long	0x167d
 7298 1667 31        		.uleb128 0x31
 7299 1668 A30D 0000 		.long	0xda3
 7300 166c 0000 0000 		.long	.LLST43
 7301 1670 3B        		.uleb128 0x3b
 7302 1671 970D 0000 		.long	0xd97
 7303 1675 06        		.byte	0x6
 7304 1676 03        		.byte	0x3
 7305 1677 0000 0000 		.long	Gripper
 7306 167b 9F        		.byte	0x9f
 7307 167c 00        		.byte	0
 7308 167d 41        		.uleb128 0x41
 7309 167e 7A0D 0000 		.long	0xd7a
 7310 1682 0000 0000 		.long	.LBB94
 7311 1686 0000 0000 		.long	.LBE94
 7312 168a 02        		.byte	0x2
 7313 168b 4602      		.word	0x246
 7314 168d 41        		.uleb128 0x41
 7315 168e 7A0D 0000 		.long	0xd7a
 7316 1692 0000 0000 		.long	.LBB96
 7317 1696 0000 0000 		.long	.LBE96
 7318 169a 02        		.byte	0x2
 7319 169b 4702      		.word	0x247
 7320 169d 45        		.uleb128 0x45
 7321 169e B60D 0000 		.long	0xdb6
 7322 16a2 0000 0000 		.long	.LBB98
 7323 16a6 0000 0000 		.long	.LBE98
 7324 16aa 02        		.byte	0x2
 7325 16ab 4802      		.word	0x248
 7326 16ad BB16 0000 		.long	0x16bb
 7327 16b1 31        		.uleb128 0x31
 7328 16b2 C80D 0000 		.long	0xdc8
 7329 16b6 0000 0000 		.long	.LLST44
 7330 16ba 00        		.byte	0
GAS LISTING /tmp/ccPqDIXf.s 			page 153


 7331 16bb 41        		.uleb128 0x41
 7332 16bc 7A0D 0000 		.long	0xd7a
 7333 16c0 0000 0000 		.long	.LBB100
 7334 16c4 0000 0000 		.long	.LBE100
 7335 16c8 02        		.byte	0x2
 7336 16c9 4A02      		.word	0x24a
 7337 16cb 41        		.uleb128 0x41
 7338 16cc 7A0D 0000 		.long	0xd7a
 7339 16d0 0000 0000 		.long	.LBB102
 7340 16d4 0000 0000 		.long	.LBE102
 7341 16d8 02        		.byte	0x2
 7342 16d9 4B02      		.word	0x24b
 7343 16db 45        		.uleb128 0x45
 7344 16dc B60D 0000 		.long	0xdb6
 7345 16e0 0000 0000 		.long	.LBB104
 7346 16e4 0000 0000 		.long	.LBE104
 7347 16e8 02        		.byte	0x2
 7348 16e9 4C02      		.word	0x24c
 7349 16eb F916 0000 		.long	0x16f9
 7350 16ef 31        		.uleb128 0x31
 7351 16f0 C80D 0000 		.long	0xdc8
 7352 16f4 0000 0000 		.long	.LLST45
 7353 16f8 00        		.byte	0
 7354 16f9 41        		.uleb128 0x41
 7355 16fa 7A0D 0000 		.long	0xd7a
 7356 16fe 0000 0000 		.long	.LBB106
 7357 1702 0000 0000 		.long	.LBE106
 7358 1706 02        		.byte	0x2
 7359 1707 4E02      		.word	0x24e
 7360 1709 41        		.uleb128 0x41
 7361 170a 7A0D 0000 		.long	0xd7a
 7362 170e 0000 0000 		.long	.LBB108
 7363 1712 0000 0000 		.long	.LBE108
 7364 1716 02        		.byte	0x2
 7365 1717 4F02      		.word	0x24f
 7366 1719 45        		.uleb128 0x45
 7367 171a B60D 0000 		.long	0xdb6
 7368 171e 0000 0000 		.long	.LBB110
 7369 1722 0000 0000 		.long	.LBE110
 7370 1726 02        		.byte	0x2
 7371 1727 5002      		.word	0x250
 7372 1729 3717 0000 		.long	0x1737
 7373 172d 31        		.uleb128 0x31
 7374 172e C80D 0000 		.long	0xdc8
 7375 1732 0000 0000 		.long	.LLST46
 7376 1736 00        		.byte	0
 7377 1737 41        		.uleb128 0x41
 7378 1738 7A0D 0000 		.long	0xd7a
 7379 173c 0000 0000 		.long	.LBB112
 7380 1740 0000 0000 		.long	.LBE112
 7381 1744 02        		.byte	0x2
 7382 1745 5202      		.word	0x252
 7383 1747 41        		.uleb128 0x41
 7384 1748 7A0D 0000 		.long	0xd7a
 7385 174c 0000 0000 		.long	.LBB114
 7386 1750 0000 0000 		.long	.LBE114
 7387 1754 02        		.byte	0x2
GAS LISTING /tmp/ccPqDIXf.s 			page 154


 7388 1755 5302      		.word	0x253
 7389 1757 45        		.uleb128 0x45
 7390 1758 B60D 0000 		.long	0xdb6
 7391 175c 0000 0000 		.long	.LBB116
 7392 1760 0000 0000 		.long	.LBE116
 7393 1764 02        		.byte	0x2
 7394 1765 5402      		.word	0x254
 7395 1767 7517 0000 		.long	0x1775
 7396 176b 31        		.uleb128 0x31
 7397 176c C80D 0000 		.long	0xdc8
 7398 1770 0000 0000 		.long	.LLST47
 7399 1774 00        		.byte	0
 7400 1775 41        		.uleb128 0x41
 7401 1776 7A0D 0000 		.long	0xd7a
 7402 177a 0000 0000 		.long	.LBB118
 7403 177e 0000 0000 		.long	.LBE118
 7404 1782 02        		.byte	0x2
 7405 1783 5602      		.word	0x256
 7406 1785 41        		.uleb128 0x41
 7407 1786 7A0D 0000 		.long	0xd7a
 7408 178a 0000 0000 		.long	.LBB120
 7409 178e 0000 0000 		.long	.LBE120
 7410 1792 02        		.byte	0x2
 7411 1793 5702      		.word	0x257
 7412 1795 45        		.uleb128 0x45
 7413 1796 B60D 0000 		.long	0xdb6
 7414 179a 0000 0000 		.long	.LBB122
 7415 179e 0000 0000 		.long	.LBE122
 7416 17a2 02        		.byte	0x2
 7417 17a3 5802      		.word	0x258
 7418 17a5 B317 0000 		.long	0x17b3
 7419 17a9 31        		.uleb128 0x31
 7420 17aa C80D 0000 		.long	0xdc8
 7421 17ae 0000 0000 		.long	.LLST48
 7422 17b2 00        		.byte	0
 7423 17b3 41        		.uleb128 0x41
 7424 17b4 7A0D 0000 		.long	0xd7a
 7425 17b8 0000 0000 		.long	.LBB124
 7426 17bc 0000 0000 		.long	.LBE124
 7427 17c0 02        		.byte	0x2
 7428 17c1 5A02      		.word	0x25a
 7429 17c3 41        		.uleb128 0x41
 7430 17c4 7A0D 0000 		.long	0xd7a
 7431 17c8 0000 0000 		.long	.LBB126
 7432 17cc 0000 0000 		.long	.LBE126
 7433 17d0 02        		.byte	0x2
 7434 17d1 5B02      		.word	0x25b
 7435 17d3 45        		.uleb128 0x45
 7436 17d4 B60D 0000 		.long	0xdb6
 7437 17d8 0000 0000 		.long	.LBB128
 7438 17dc 0000 0000 		.long	.LBE128
 7439 17e0 02        		.byte	0x2
 7440 17e1 5C02      		.word	0x25c
 7441 17e3 F117 0000 		.long	0x17f1
 7442 17e7 31        		.uleb128 0x31
 7443 17e8 C80D 0000 		.long	0xdc8
 7444 17ec 0000 0000 		.long	.LLST49
GAS LISTING /tmp/ccPqDIXf.s 			page 155


 7445 17f0 00        		.byte	0
 7446 17f1 39        		.uleb128 0x39
 7447 17f2 0000 0000 		.long	.LVL232
 7448 17f6 9E14 0000 		.long	0x149e
 7449 17fa 0D18 0000 		.long	0x180d
 7450 17fe 28        		.uleb128 0x28
 7451 17ff 06        		.byte	0x6
 7452 1800 68        		.byte	0x68
 7453 1801 93        		.byte	0x93
 7454 1802 01        		.uleb128 0x1
 7455 1803 69        		.byte	0x69
 7456 1804 93        		.byte	0x93
 7457 1805 01        		.uleb128 0x1
 7458 1806 05        		.byte	0x5
 7459 1807 03        		.byte	0x3
 7460 1808 0000 0000 		.long	Base
 7461 180c 00        		.byte	0
 7462 180d 39        		.uleb128 0x39
 7463 180e 0000 0000 		.long	.LVL235
 7464 1812 9E14 0000 		.long	0x149e
 7465 1816 2918 0000 		.long	0x1829
 7466 181a 28        		.uleb128 0x28
 7467 181b 06        		.byte	0x6
 7468 181c 68        		.byte	0x68
 7469 181d 93        		.byte	0x93
 7470 181e 01        		.uleb128 0x1
 7471 181f 69        		.byte	0x69
 7472 1820 93        		.byte	0x93
 7473 1821 01        		.uleb128 0x1
 7474 1822 05        		.byte	0x5
 7475 1823 03        		.byte	0x3
 7476 1824 0000 0000 		.long	Shoulder
 7477 1828 00        		.byte	0
 7478 1829 39        		.uleb128 0x39
 7479 182a 0000 0000 		.long	.LVL238
 7480 182e 9E14 0000 		.long	0x149e
 7481 1832 4518 0000 		.long	0x1845
 7482 1836 28        		.uleb128 0x28
 7483 1837 06        		.byte	0x6
 7484 1838 68        		.byte	0x68
 7485 1839 93        		.byte	0x93
 7486 183a 01        		.uleb128 0x1
 7487 183b 69        		.byte	0x69
 7488 183c 93        		.byte	0x93
 7489 183d 01        		.uleb128 0x1
 7490 183e 05        		.byte	0x5
 7491 183f 03        		.byte	0x3
 7492 1840 0000 0000 		.long	Elbow
 7493 1844 00        		.byte	0
 7494 1845 39        		.uleb128 0x39
 7495 1846 0000 0000 		.long	.LVL241
 7496 184a 9E14 0000 		.long	0x149e
 7497 184e 6118 0000 		.long	0x1861
 7498 1852 28        		.uleb128 0x28
 7499 1853 06        		.byte	0x6
 7500 1854 68        		.byte	0x68
 7501 1855 93        		.byte	0x93
GAS LISTING /tmp/ccPqDIXf.s 			page 156


 7502 1856 01        		.uleb128 0x1
 7503 1857 69        		.byte	0x69
 7504 1858 93        		.byte	0x93
 7505 1859 01        		.uleb128 0x1
 7506 185a 05        		.byte	0x5
 7507 185b 03        		.byte	0x3
 7508 185c 0000 0000 		.long	Right_Wrist
 7509 1860 00        		.byte	0
 7510 1861 39        		.uleb128 0x39
 7511 1862 0000 0000 		.long	.LVL244
 7512 1866 9E14 0000 		.long	0x149e
 7513 186a 7D18 0000 		.long	0x187d
 7514 186e 28        		.uleb128 0x28
 7515 186f 06        		.byte	0x6
 7516 1870 68        		.byte	0x68
 7517 1871 93        		.byte	0x93
 7518 1872 01        		.uleb128 0x1
 7519 1873 69        		.byte	0x69
 7520 1874 93        		.byte	0x93
 7521 1875 01        		.uleb128 0x1
 7522 1876 05        		.byte	0x5
 7523 1877 03        		.byte	0x3
 7524 1878 0000 0000 		.long	Left_Wrist
 7525 187c 00        		.byte	0
 7526 187d 39        		.uleb128 0x39
 7527 187e 0000 0000 		.long	.LVL247
 7528 1882 9E14 0000 		.long	0x149e
 7529 1886 9918 0000 		.long	0x1899
 7530 188a 28        		.uleb128 0x28
 7531 188b 06        		.byte	0x6
 7532 188c 68        		.byte	0x68
 7533 188d 93        		.byte	0x93
 7534 188e 01        		.uleb128 0x1
 7535 188f 69        		.byte	0x69
 7536 1890 93        		.byte	0x93
 7537 1891 01        		.uleb128 0x1
 7538 1892 05        		.byte	0x5
 7539 1893 03        		.byte	0x3
 7540 1894 0000 0000 		.long	Gripper
 7541 1898 00        		.byte	0
 7542 1899 2A        		.uleb128 0x2a
 7543 189a 0000 0000 		.long	.LVL248
 7544 189e 4611 0000 		.long	0x1146
 7545 18a2 28        		.uleb128 0x28
 7546 18a3 06        		.byte	0x6
 7547 18a4 68        		.byte	0x68
 7548 18a5 93        		.byte	0x93
 7549 18a6 01        		.uleb128 0x1
 7550 18a7 69        		.byte	0x69
 7551 18a8 93        		.byte	0x93
 7552 18a9 01        		.uleb128 0x1
 7553 18aa 05        		.byte	0x5
 7554 18ab 03        		.byte	0x3
 7555 18ac 0000 0000 		.long	pose
 7556 18b0 28        		.uleb128 0x28
 7557 18b1 06        		.byte	0x6
 7558 18b2 66        		.byte	0x66
GAS LISTING /tmp/ccPqDIXf.s 			page 157


 7559 18b3 93        		.byte	0x93
 7560 18b4 01        		.uleb128 0x1
 7561 18b5 67        		.byte	0x67
 7562 18b6 93        		.byte	0x93
 7563 18b7 01        		.uleb128 0x1
 7564 18b8 05        		.byte	0x5
 7565 18b9 03        		.byte	0x3
 7566 18ba 0000 0000 		.long	goal
 7567 18be 00        		.byte	0
 7568 18bf 00        		.byte	0
 7569 18c0 46        		.uleb128 0x46
 7570 18c1 3000 0000 		.long	0x30
 7571 18c5 D018 0000 		.long	0x18d0
 7572 18c9 47        		.uleb128 0x47
 7573 18ca 120C 0000 		.long	0xc12
 7574 18ce 05        		.byte	0x5
 7575 18cf 00        		.byte	0
 7576 18d0 2B        		.uleb128 0x2b
 7577 18d1 01        		.byte	0x1
 7578 18d2 0000 0000 		.long	.LASF297
 7579 18d6 02        		.byte	0x2
 7580 18d7 6202      		.word	0x262
 7581 18d9 01        		.byte	0x1
 7582 18da 0000 0000 		.long	.LFB32
 7583 18de 0000 0000 		.long	.LFE32
 7584 18e2 03        		.byte	0x3
 7585 18e3 92        		.byte	0x92
 7586 18e4 20        		.uleb128 0x20
 7587 18e5 02        		.sleb128 2
 7588 18e6 01        		.byte	0x1
 7589 18e7 C919 0000 		.long	0x19c9
 7590 18eb 45        		.uleb128 0x45
 7591 18ec D20D 0000 		.long	0xdd2
 7592 18f0 0000 0000 		.long	.LBB130
 7593 18f4 0000 0000 		.long	.LBE130
 7594 18f8 02        		.byte	0x2
 7595 18f9 6502      		.word	0x265
 7596 18fb 3619 0000 		.long	0x1936
 7597 18ff 31        		.uleb128 0x31
 7598 1900 1D0E 0000 		.long	0xe1d
 7599 1904 0000 0000 		.long	.LLST50
 7600 1908 31        		.uleb128 0x31
 7601 1909 110E 0000 		.long	0xe11
 7602 190d 0000 0000 		.long	.LLST51
 7603 1911 31        		.uleb128 0x31
 7604 1912 050E 0000 		.long	0xe05
 7605 1916 0000 0000 		.long	.LLST51
 7606 191a 31        		.uleb128 0x31
 7607 191b F90D 0000 		.long	0xdf9
 7608 191f 0000 0000 		.long	.LLST51
 7609 1923 31        		.uleb128 0x31
 7610 1924 ED0D 0000 		.long	0xded
 7611 1928 0000 0000 		.long	.LLST51
 7612 192c 31        		.uleb128 0x31
 7613 192d E10D 0000 		.long	0xde1
 7614 1931 0000 0000 		.long	.LLST55
 7615 1935 00        		.byte	0
GAS LISTING /tmp/ccPqDIXf.s 			page 158


 7616 1936 45        		.uleb128 0x45
 7617 1937 D20D 0000 		.long	0xdd2
 7618 193b 0000 0000 		.long	.LBB132
 7619 193f 0000 0000 		.long	.LBE132
 7620 1943 02        		.byte	0x2
 7621 1944 6602      		.word	0x266
 7622 1946 8119 0000 		.long	0x1981
 7623 194a 31        		.uleb128 0x31
 7624 194b 1D0E 0000 		.long	0xe1d
 7625 194f 0000 0000 		.long	.LLST56
 7626 1953 31        		.uleb128 0x31
 7627 1954 110E 0000 		.long	0xe11
 7628 1958 0000 0000 		.long	.LLST57
 7629 195c 31        		.uleb128 0x31
 7630 195d 050E 0000 		.long	0xe05
 7631 1961 0000 0000 		.long	.LLST57
 7632 1965 31        		.uleb128 0x31
 7633 1966 F90D 0000 		.long	0xdf9
 7634 196a 0000 0000 		.long	.LLST57
 7635 196e 31        		.uleb128 0x31
 7636 196f ED0D 0000 		.long	0xded
 7637 1973 0000 0000 		.long	.LLST57
 7638 1977 31        		.uleb128 0x31
 7639 1978 E10D 0000 		.long	0xde1
 7640 197c 0000 0000 		.long	.LLST61
 7641 1980 00        		.byte	0
 7642 1981 48        		.uleb128 0x48
 7643 1982 D20D 0000 		.long	0xdd2
 7644 1986 0000 0000 		.long	.LBB134
 7645 198a 0000 0000 		.long	.LBE134
 7646 198e 02        		.byte	0x2
 7647 198f 6702      		.word	0x267
 7648 1991 31        		.uleb128 0x31
 7649 1992 1D0E 0000 		.long	0xe1d
 7650 1996 0000 0000 		.long	.LLST62
 7651 199a 31        		.uleb128 0x31
 7652 199b 110E 0000 		.long	0xe11
 7653 199f 0000 0000 		.long	.LLST62
 7654 19a3 31        		.uleb128 0x31
 7655 19a4 050E 0000 		.long	0xe05
 7656 19a8 0000 0000 		.long	.LLST62
 7657 19ac 31        		.uleb128 0x31
 7658 19ad F90D 0000 		.long	0xdf9
 7659 19b1 0000 0000 		.long	.LLST62
 7660 19b5 31        		.uleb128 0x31
 7661 19b6 ED0D 0000 		.long	0xded
 7662 19ba 0000 0000 		.long	.LLST62
 7663 19be 31        		.uleb128 0x31
 7664 19bf E10D 0000 		.long	0xde1
 7665 19c3 0000 0000 		.long	.LLST62
 7666 19c7 00        		.byte	0
 7667 19c8 00        		.byte	0
 7668 19c9 2B        		.uleb128 0x2b
 7669 19ca 01        		.byte	0x1
 7670 19cb 0000 0000 		.long	.LASF298
 7671 19cf 02        		.byte	0x2
 7672 19d0 6C02      		.word	0x26c
GAS LISTING /tmp/ccPqDIXf.s 			page 159


 7673 19d2 01        		.byte	0x1
 7674 19d3 0000 0000 		.long	.LFB33
 7675 19d7 0000 0000 		.long	.LFE33
 7676 19db 03        		.byte	0x3
 7677 19dc 92        		.byte	0x92
 7678 19dd 20        		.uleb128 0x20
 7679 19de 02        		.sleb128 2
 7680 19df 01        		.byte	0x1
 7681 19e0 211A 0000 		.long	0x1a21
 7682 19e4 3D        		.uleb128 0x3d
 7683 19e5 0000 0000 		.long	.LVL259
 7684 19e9 D018 0000 		.long	0x18d0
 7685 19ed 39        		.uleb128 0x39
 7686 19ee 0000 0000 		.long	.LVL260
 7687 19f2 4611 0000 		.long	0x1146
 7688 19f6 171A 0000 		.long	0x1a17
 7689 19fa 28        		.uleb128 0x28
 7690 19fb 06        		.byte	0x6
 7691 19fc 68        		.byte	0x68
 7692 19fd 93        		.byte	0x93
 7693 19fe 01        		.uleb128 0x1
 7694 19ff 69        		.byte	0x69
 7695 1a00 93        		.byte	0x93
 7696 1a01 01        		.uleb128 0x1
 7697 1a02 05        		.byte	0x5
 7698 1a03 03        		.byte	0x3
 7699 1a04 0000 0000 		.long	pose
 7700 1a08 28        		.uleb128 0x28
 7701 1a09 06        		.byte	0x6
 7702 1a0a 66        		.byte	0x66
 7703 1a0b 93        		.byte	0x93
 7704 1a0c 01        		.uleb128 0x1
 7705 1a0d 67        		.byte	0x67
 7706 1a0e 93        		.byte	0x93
 7707 1a0f 01        		.uleb128 0x1
 7708 1a10 05        		.byte	0x5
 7709 1a11 03        		.byte	0x3
 7710 1a12 0000 0000 		.long	goal
 7711 1a16 00        		.byte	0
 7712 1a17 3D        		.uleb128 0x3d
 7713 1a18 0000 0000 		.long	.LVL261
 7714 1a1c 3915 0000 		.long	0x1539
 7715 1a20 00        		.byte	0
 7716 1a21 49        		.uleb128 0x49
 7717 1a22 01        		.byte	0x1
 7718 1a23 0000 0000 		.long	.LASF299
 7719 1a27 02        		.byte	0x2
 7720 1a28 A102      		.word	0x2a1
 7721 1a2a 01        		.byte	0x1
 7722 1a2b 3000 0000 		.long	0x30
 7723 1a2f 0000 0000 		.long	.LFB34
 7724 1a33 0000 0000 		.long	.LFE34
 7725 1a37 03        		.byte	0x3
 7726 1a38 92        		.byte	0x92
 7727 1a39 20        		.uleb128 0x20
 7728 1a3a 02        		.sleb128 2
 7729 1a3b 01        		.byte	0x1
GAS LISTING /tmp/ccPqDIXf.s 			page 160


 7730 1a3c 531A 0000 		.long	0x1a53
 7731 1a40 3D        		.uleb128 0x3d
 7732 1a41 0000 0000 		.long	.LVL262
 7733 1a45 A811 0000 		.long	0x11a8
 7734 1a49 3D        		.uleb128 0x3d
 7735 1a4a 0000 0000 		.long	.LVL263
 7736 1a4e C919 0000 		.long	0x19c9
 7737 1a52 00        		.byte	0
 7738 1a53 4A        		.uleb128 0x4a
 7739 1a54 0000 0000 		.long	.LASF300
 7740 1a58 02        		.byte	0x2
 7741 1a59 2E        		.byte	0x2e
 7742 1a5a 3000 0000 		.long	0x30
 7743 1a5e 01        		.byte	0x1
 7744 1a5f 05        		.byte	0x5
 7745 1a60 03        		.byte	0x3
 7746 1a61 0000 0000 		.long	state
 7747 1a65 4A        		.uleb128 0x4a
 7748 1a66 0000 0000 		.long	.LASF301
 7749 1a6a 02        		.byte	0x2
 7750 1a6b 2F        		.byte	0x2f
 7751 1a6c 3000 0000 		.long	0x30
 7752 1a70 01        		.byte	0x1
 7753 1a71 05        		.byte	0x5
 7754 1a72 03        		.byte	0x3
 7755 1a73 0000 0000 		.long	debugFlag
 7756 1a77 4A        		.uleb128 0x4a
 7757 1a78 0000 0000 		.long	.LASF302
 7758 1a7c 02        		.byte	0x2
 7759 1a7d 30        		.byte	0x30
 7760 1a7e C018 0000 		.long	0x18c0
 7761 1a82 01        		.byte	0x1
 7762 1a83 05        		.byte	0x5
 7763 1a84 03        		.byte	0x3
 7764 1a85 0000 0000 		.long	goal
 7765 1a89 4A        		.uleb128 0x4a
 7766 1a8a 0000 0000 		.long	.LASF303
 7767 1a8e 02        		.byte	0x2
 7768 1a8f 31        		.byte	0x31
 7769 1a90 C018 0000 		.long	0x18c0
 7770 1a94 01        		.byte	0x1
 7771 1a95 05        		.byte	0x5
 7772 1a96 03        		.byte	0x3
 7773 1a97 0000 0000 		.long	pose
 7774 1a9b 4A        		.uleb128 0x4a
 7775 1a9c 0000 0000 		.long	.LASF304
 7776 1aa0 02        		.byte	0x2
 7777 1aa1 32        		.byte	0x32
 7778 1aa2 AD1A 0000 		.long	0x1aad
 7779 1aa6 01        		.byte	0x1
 7780 1aa7 05        		.byte	0x5
 7781 1aa8 03        		.byte	0x3
 7782 1aa9 0000 0000 		.long	elapsedMillis
 7783 1aad 05        		.uleb128 0x5
 7784 1aae 7400 0000 		.long	0x74
 7785 1ab2 4A        		.uleb128 0x4a
 7786 1ab3 0000 0000 		.long	.LASF305
GAS LISTING /tmp/ccPqDIXf.s 			page 161


 7787 1ab7 02        		.byte	0x2
 7788 1ab8 F9        		.byte	0xf9
 7789 1ab9 190C 0000 		.long	0xc19
 7790 1abd 01        		.byte	0x1
 7791 1abe 05        		.byte	0x5
 7792 1abf 03        		.byte	0x3
 7793 1ac0 0000 0000 		.long	Base
 7794 1ac4 4B        		.uleb128 0x4b
 7795 1ac5 0000 0000 		.long	.LASF306
 7796 1ac9 02        		.byte	0x2
 7797 1aca 0D01      		.word	0x10d
 7798 1acc 190C 0000 		.long	0xc19
 7799 1ad0 01        		.byte	0x1
 7800 1ad1 05        		.byte	0x5
 7801 1ad2 03        		.byte	0x3
 7802 1ad3 0000 0000 		.long	Shoulder
 7803 1ad7 4B        		.uleb128 0x4b
 7804 1ad8 0000 0000 		.long	.LASF307
 7805 1adc 02        		.byte	0x2
 7806 1add 2001      		.word	0x120
 7807 1adf 190C 0000 		.long	0xc19
 7808 1ae3 01        		.byte	0x1
 7809 1ae4 05        		.byte	0x5
 7810 1ae5 03        		.byte	0x3
 7811 1ae6 0000 0000 		.long	Elbow
 7812 1aea 4B        		.uleb128 0x4b
 7813 1aeb 0000 0000 		.long	.LASF308
 7814 1aef 02        		.byte	0x2
 7815 1af0 4601      		.word	0x146
 7816 1af2 190C 0000 		.long	0xc19
 7817 1af6 01        		.byte	0x1
 7818 1af7 05        		.byte	0x5
 7819 1af8 03        		.byte	0x3
 7820 1af9 0000 0000 		.long	Left_Wrist
 7821 1afd 4B        		.uleb128 0x4b
 7822 1afe 0000 0000 		.long	.LASF309
 7823 1b02 02        		.byte	0x2
 7824 1b03 3301      		.word	0x133
 7825 1b05 190C 0000 		.long	0xc19
 7826 1b09 01        		.byte	0x1
 7827 1b0a 05        		.byte	0x5
 7828 1b0b 03        		.byte	0x3
 7829 1b0c 0000 0000 		.long	Right_Wrist
 7830 1b10 4B        		.uleb128 0x4b
 7831 1b11 0000 0000 		.long	.LASF310
 7832 1b15 02        		.byte	0x2
 7833 1b16 5A01      		.word	0x15a
 7834 1b18 190C 0000 		.long	0xc19
 7835 1b1c 01        		.byte	0x1
 7836 1b1d 05        		.byte	0x5
 7837 1b1e 03        		.byte	0x3
 7838 1b1f 0000 0000 		.long	Gripper
 7839 1b23 00        		.byte	0
 7840               		.section	.debug_abbrev,"",@progbits
 7841               	.Ldebug_abbrev0:
 7842 0000 01        		.uleb128 0x1
 7843 0001 11        		.uleb128 0x11
GAS LISTING /tmp/ccPqDIXf.s 			page 162


 7844 0002 01        		.byte	0x1
 7845 0003 25        		.uleb128 0x25
 7846 0004 0E        		.uleb128 0xe
 7847 0005 13        		.uleb128 0x13
 7848 0006 0B        		.uleb128 0xb
 7849 0007 03        		.uleb128 0x3
 7850 0008 0E        		.uleb128 0xe
 7851 0009 1B        		.uleb128 0x1b
 7852 000a 0E        		.uleb128 0xe
 7853 000b 55        		.uleb128 0x55
 7854 000c 06        		.uleb128 0x6
 7855 000d 11        		.uleb128 0x11
 7856 000e 01        		.uleb128 0x1
 7857 000f 52        		.uleb128 0x52
 7858 0010 01        		.uleb128 0x1
 7859 0011 10        		.uleb128 0x10
 7860 0012 06        		.uleb128 0x6
 7861 0013 00        		.byte	0
 7862 0014 00        		.byte	0
 7863 0015 02        		.uleb128 0x2
 7864 0016 24        		.uleb128 0x24
 7865 0017 00        		.byte	0
 7866 0018 0B        		.uleb128 0xb
 7867 0019 0B        		.uleb128 0xb
 7868 001a 3E        		.uleb128 0x3e
 7869 001b 0B        		.uleb128 0xb
 7870 001c 03        		.uleb128 0x3
 7871 001d 0E        		.uleb128 0xe
 7872 001e 00        		.byte	0
 7873 001f 00        		.byte	0
 7874 0020 03        		.uleb128 0x3
 7875 0021 24        		.uleb128 0x24
 7876 0022 00        		.byte	0
 7877 0023 0B        		.uleb128 0xb
 7878 0024 0B        		.uleb128 0xb
 7879 0025 3E        		.uleb128 0x3e
 7880 0026 0B        		.uleb128 0xb
 7881 0027 03        		.uleb128 0x3
 7882 0028 08        		.uleb128 0x8
 7883 0029 00        		.byte	0
 7884 002a 00        		.byte	0
 7885 002b 04        		.uleb128 0x4
 7886 002c 16        		.uleb128 0x16
 7887 002d 00        		.byte	0
 7888 002e 03        		.uleb128 0x3
 7889 002f 0E        		.uleb128 0xe
 7890 0030 3A        		.uleb128 0x3a
 7891 0031 0B        		.uleb128 0xb
 7892 0032 3B        		.uleb128 0x3b
 7893 0033 0B        		.uleb128 0xb
 7894 0034 49        		.uleb128 0x49
 7895 0035 13        		.uleb128 0x13
 7896 0036 00        		.byte	0
 7897 0037 00        		.byte	0
 7898 0038 05        		.uleb128 0x5
 7899 0039 35        		.uleb128 0x35
 7900 003a 00        		.byte	0
GAS LISTING /tmp/ccPqDIXf.s 			page 163


 7901 003b 49        		.uleb128 0x49
 7902 003c 13        		.uleb128 0x13
 7903 003d 00        		.byte	0
 7904 003e 00        		.byte	0
 7905 003f 06        		.uleb128 0x6
 7906 0040 04        		.uleb128 0x4
 7907 0041 01        		.byte	0x1
 7908 0042 03        		.uleb128 0x3
 7909 0043 0E        		.uleb128 0xe
 7910 0044 0B        		.uleb128 0xb
 7911 0045 0B        		.uleb128 0xb
 7912 0046 3A        		.uleb128 0x3a
 7913 0047 0B        		.uleb128 0xb
 7914 0048 3B        		.uleb128 0x3b
 7915 0049 0B        		.uleb128 0xb
 7916 004a 01        		.uleb128 0x1
 7917 004b 13        		.uleb128 0x13
 7918 004c 00        		.byte	0
 7919 004d 00        		.byte	0
 7920 004e 07        		.uleb128 0x7
 7921 004f 28        		.uleb128 0x28
 7922 0050 00        		.byte	0
 7923 0051 03        		.uleb128 0x3
 7924 0052 0E        		.uleb128 0xe
 7925 0053 1C        		.uleb128 0x1c
 7926 0054 0D        		.uleb128 0xd
 7927 0055 00        		.byte	0
 7928 0056 00        		.byte	0
 7929 0057 08        		.uleb128 0x8
 7930 0058 13        		.uleb128 0x13
 7931 0059 01        		.byte	0x1
 7932 005a 03        		.uleb128 0x3
 7933 005b 0E        		.uleb128 0xe
 7934 005c 0B        		.uleb128 0xb
 7935 005d 0B        		.uleb128 0xb
 7936 005e 3A        		.uleb128 0x3a
 7937 005f 0B        		.uleb128 0xb
 7938 0060 3B        		.uleb128 0x3b
 7939 0061 0B        		.uleb128 0xb
 7940 0062 01        		.uleb128 0x1
 7941 0063 13        		.uleb128 0x13
 7942 0064 00        		.byte	0
 7943 0065 00        		.byte	0
 7944 0066 09        		.uleb128 0x9
 7945 0067 0D        		.uleb128 0xd
 7946 0068 00        		.byte	0
 7947 0069 03        		.uleb128 0x3
 7948 006a 0E        		.uleb128 0xe
 7949 006b 3A        		.uleb128 0x3a
 7950 006c 0B        		.uleb128 0xb
 7951 006d 3B        		.uleb128 0x3b
 7952 006e 0B        		.uleb128 0xb
 7953 006f 49        		.uleb128 0x49
 7954 0070 13        		.uleb128 0x13
 7955 0071 38        		.uleb128 0x38
 7956 0072 0A        		.uleb128 0xa
 7957 0073 00        		.byte	0
GAS LISTING /tmp/ccPqDIXf.s 			page 164


 7958 0074 00        		.byte	0
 7959 0075 0A        		.uleb128 0xa
 7960 0076 13        		.uleb128 0x13
 7961 0077 01        		.byte	0x1
 7962 0078 03        		.uleb128 0x3
 7963 0079 0E        		.uleb128 0xe
 7964 007a 0B        		.uleb128 0xb
 7965 007b 0B        		.uleb128 0xb
 7966 007c 3A        		.uleb128 0x3a
 7967 007d 0B        		.uleb128 0xb
 7968 007e 3B        		.uleb128 0x3b
 7969 007f 05        		.uleb128 0x5
 7970 0080 01        		.uleb128 0x1
 7971 0081 13        		.uleb128 0x13
 7972 0082 00        		.byte	0
 7973 0083 00        		.byte	0
 7974 0084 0B        		.uleb128 0xb
 7975 0085 0D        		.uleb128 0xd
 7976 0086 00        		.byte	0
 7977 0087 03        		.uleb128 0x3
 7978 0088 0E        		.uleb128 0xe
 7979 0089 3A        		.uleb128 0x3a
 7980 008a 0B        		.uleb128 0xb
 7981 008b 3B        		.uleb128 0x3b
 7982 008c 05        		.uleb128 0x5
 7983 008d 49        		.uleb128 0x49
 7984 008e 13        		.uleb128 0x13
 7985 008f 38        		.uleb128 0x38
 7986 0090 0A        		.uleb128 0xa
 7987 0091 00        		.byte	0
 7988 0092 00        		.byte	0
 7989 0093 0C        		.uleb128 0xc
 7990 0094 16        		.uleb128 0x16
 7991 0095 00        		.byte	0
 7992 0096 03        		.uleb128 0x3
 7993 0097 0E        		.uleb128 0xe
 7994 0098 3A        		.uleb128 0x3a
 7995 0099 0B        		.uleb128 0xb
 7996 009a 3B        		.uleb128 0x3b
 7997 009b 05        		.uleb128 0x5
 7998 009c 49        		.uleb128 0x49
 7999 009d 13        		.uleb128 0x13
 8000 009e 00        		.byte	0
 8001 009f 00        		.byte	0
 8002 00a0 0D        		.uleb128 0xd
 8003 00a1 04        		.uleb128 0x4
 8004 00a2 01        		.byte	0x1
 8005 00a3 03        		.uleb128 0x3
 8006 00a4 0E        		.uleb128 0xe
 8007 00a5 0B        		.uleb128 0xb
 8008 00a6 0B        		.uleb128 0xb
 8009 00a7 3A        		.uleb128 0x3a
 8010 00a8 0B        		.uleb128 0xb
 8011 00a9 3B        		.uleb128 0x3b
 8012 00aa 05        		.uleb128 0x5
 8013 00ab 01        		.uleb128 0x1
 8014 00ac 13        		.uleb128 0x13
GAS LISTING /tmp/ccPqDIXf.s 			page 165


 8015 00ad 00        		.byte	0
 8016 00ae 00        		.byte	0
 8017 00af 0E        		.uleb128 0xe
 8018 00b0 0D        		.uleb128 0xd
 8019 00b1 00        		.byte	0
 8020 00b2 03        		.uleb128 0x3
 8021 00b3 08        		.uleb128 0x8
 8022 00b4 3A        		.uleb128 0x3a
 8023 00b5 0B        		.uleb128 0xb
 8024 00b6 3B        		.uleb128 0x3b
 8025 00b7 05        		.uleb128 0x5
 8026 00b8 49        		.uleb128 0x49
 8027 00b9 13        		.uleb128 0x13
 8028 00ba 38        		.uleb128 0x38
 8029 00bb 0A        		.uleb128 0xa
 8030 00bc 00        		.byte	0
 8031 00bd 00        		.byte	0
 8032 00be 0F        		.uleb128 0xf
 8033 00bf 13        		.uleb128 0x13
 8034 00c0 01        		.byte	0x1
 8035 00c1 0B        		.uleb128 0xb
 8036 00c2 0B        		.uleb128 0xb
 8037 00c3 3A        		.uleb128 0x3a
 8038 00c4 0B        		.uleb128 0xb
 8039 00c5 3B        		.uleb128 0x3b
 8040 00c6 05        		.uleb128 0x5
 8041 00c7 01        		.uleb128 0x1
 8042 00c8 13        		.uleb128 0x13
 8043 00c9 00        		.byte	0
 8044 00ca 00        		.byte	0
 8045 00cb 10        		.uleb128 0x10
 8046 00cc 17        		.uleb128 0x17
 8047 00cd 01        		.byte	0x1
 8048 00ce 0B        		.uleb128 0xb
 8049 00cf 0B        		.uleb128 0xb
 8050 00d0 3A        		.uleb128 0x3a
 8051 00d1 0B        		.uleb128 0xb
 8052 00d2 3B        		.uleb128 0x3b
 8053 00d3 05        		.uleb128 0x5
 8054 00d4 01        		.uleb128 0x1
 8055 00d5 13        		.uleb128 0x13
 8056 00d6 00        		.byte	0
 8057 00d7 00        		.byte	0
 8058 00d8 11        		.uleb128 0x11
 8059 00d9 0D        		.uleb128 0xd
 8060 00da 00        		.byte	0
 8061 00db 03        		.uleb128 0x3
 8062 00dc 08        		.uleb128 0x8
 8063 00dd 3A        		.uleb128 0x3a
 8064 00de 0B        		.uleb128 0xb
 8065 00df 3B        		.uleb128 0x3b
 8066 00e0 05        		.uleb128 0x5
 8067 00e1 49        		.uleb128 0x49
 8068 00e2 13        		.uleb128 0x13
 8069 00e3 00        		.byte	0
 8070 00e4 00        		.byte	0
 8071 00e5 12        		.uleb128 0x12
GAS LISTING /tmp/ccPqDIXf.s 			page 166


 8072 00e6 0D        		.uleb128 0xd
 8073 00e7 00        		.byte	0
 8074 00e8 49        		.uleb128 0x49
 8075 00e9 13        		.uleb128 0x13
 8076 00ea 00        		.byte	0
 8077 00eb 00        		.byte	0
 8078 00ec 13        		.uleb128 0x13
 8079 00ed 0D        		.uleb128 0xd
 8080 00ee 00        		.byte	0
 8081 00ef 03        		.uleb128 0x3
 8082 00f0 0E        		.uleb128 0xe
 8083 00f1 3A        		.uleb128 0x3a
 8084 00f2 0B        		.uleb128 0xb
 8085 00f3 3B        		.uleb128 0x3b
 8086 00f4 05        		.uleb128 0x5
 8087 00f5 49        		.uleb128 0x49
 8088 00f6 13        		.uleb128 0x13
 8089 00f7 00        		.byte	0
 8090 00f8 00        		.byte	0
 8091 00f9 14        		.uleb128 0x14
 8092 00fa 0D        		.uleb128 0xd
 8093 00fb 00        		.byte	0
 8094 00fc 49        		.uleb128 0x49
 8095 00fd 13        		.uleb128 0x13
 8096 00fe 38        		.uleb128 0x38
 8097 00ff 0A        		.uleb128 0xa
 8098 0100 00        		.byte	0
 8099 0101 00        		.byte	0
 8100 0102 15        		.uleb128 0x15
 8101 0103 2E        		.uleb128 0x2e
 8102 0104 01        		.byte	0x1
 8103 0105 03        		.uleb128 0x3
 8104 0106 0E        		.uleb128 0xe
 8105 0107 3A        		.uleb128 0x3a
 8106 0108 0B        		.uleb128 0xb
 8107 0109 3B        		.uleb128 0x3b
 8108 010a 0B        		.uleb128 0xb
 8109 010b 27        		.uleb128 0x27
 8110 010c 0C        		.uleb128 0xc
 8111 010d 20        		.uleb128 0x20
 8112 010e 0B        		.uleb128 0xb
 8113 010f 01        		.uleb128 0x1
 8114 0110 13        		.uleb128 0x13
 8115 0111 00        		.byte	0
 8116 0112 00        		.byte	0
 8117 0113 16        		.uleb128 0x16
 8118 0114 05        		.uleb128 0x5
 8119 0115 00        		.byte	0
 8120 0116 03        		.uleb128 0x3
 8121 0117 0E        		.uleb128 0xe
 8122 0118 3A        		.uleb128 0x3a
 8123 0119 0B        		.uleb128 0xb
 8124 011a 3B        		.uleb128 0x3b
 8125 011b 0B        		.uleb128 0xb
 8126 011c 49        		.uleb128 0x49
 8127 011d 13        		.uleb128 0x13
 8128 011e 00        		.byte	0
GAS LISTING /tmp/ccPqDIXf.s 			page 167


 8129 011f 00        		.byte	0
 8130 0120 17        		.uleb128 0x17
 8131 0121 34        		.uleb128 0x34
 8132 0122 00        		.byte	0
 8133 0123 03        		.uleb128 0x3
 8134 0124 0E        		.uleb128 0xe
 8135 0125 3A        		.uleb128 0x3a
 8136 0126 0B        		.uleb128 0xb
 8137 0127 3B        		.uleb128 0x3b
 8138 0128 0B        		.uleb128 0xb
 8139 0129 49        		.uleb128 0x49
 8140 012a 13        		.uleb128 0x13
 8141 012b 00        		.byte	0
 8142 012c 00        		.byte	0
 8143 012d 18        		.uleb128 0x18
 8144 012e 2E        		.uleb128 0x2e
 8145 012f 01        		.byte	0x1
 8146 0130 3F        		.uleb128 0x3f
 8147 0131 0C        		.uleb128 0xc
 8148 0132 03        		.uleb128 0x3
 8149 0133 0E        		.uleb128 0xe
 8150 0134 3A        		.uleb128 0x3a
 8151 0135 0B        		.uleb128 0xb
 8152 0136 3B        		.uleb128 0x3b
 8153 0137 0B        		.uleb128 0xb
 8154 0138 27        		.uleb128 0x27
 8155 0139 0C        		.uleb128 0xc
 8156 013a 3C        		.uleb128 0x3c
 8157 013b 0C        		.uleb128 0xc
 8158 013c 00        		.byte	0
 8159 013d 00        		.byte	0
 8160 013e 19        		.uleb128 0x19
 8161 013f 05        		.uleb128 0x5
 8162 0140 00        		.byte	0
 8163 0141 49        		.uleb128 0x49
 8164 0142 13        		.uleb128 0x13
 8165 0143 00        		.byte	0
 8166 0144 00        		.byte	0
 8167 0145 1A        		.uleb128 0x1a
 8168 0146 2E        		.uleb128 0x2e
 8169 0147 00        		.byte	0
 8170 0148 3F        		.uleb128 0x3f
 8171 0149 0C        		.uleb128 0xc
 8172 014a 03        		.uleb128 0x3
 8173 014b 0E        		.uleb128 0xe
 8174 014c 3A        		.uleb128 0x3a
 8175 014d 0B        		.uleb128 0xb
 8176 014e 3B        		.uleb128 0x3b
 8177 014f 0B        		.uleb128 0xb
 8178 0150 27        		.uleb128 0x27
 8179 0151 0C        		.uleb128 0xc
 8180 0152 49        		.uleb128 0x49
 8181 0153 13        		.uleb128 0x13
 8182 0154 20        		.uleb128 0x20
 8183 0155 0B        		.uleb128 0xb
 8184 0156 00        		.byte	0
 8185 0157 00        		.byte	0
GAS LISTING /tmp/ccPqDIXf.s 			page 168


 8186 0158 1B        		.uleb128 0x1b
 8187 0159 2E        		.uleb128 0x2e
 8188 015a 01        		.byte	0x1
 8189 015b 3F        		.uleb128 0x3f
 8190 015c 0C        		.uleb128 0xc
 8191 015d 03        		.uleb128 0x3
 8192 015e 0E        		.uleb128 0xe
 8193 015f 3A        		.uleb128 0x3a
 8194 0160 0B        		.uleb128 0xb
 8195 0161 3B        		.uleb128 0x3b
 8196 0162 05        		.uleb128 0x5
 8197 0163 27        		.uleb128 0x27
 8198 0164 0C        		.uleb128 0xc
 8199 0165 20        		.uleb128 0x20
 8200 0166 0B        		.uleb128 0xb
 8201 0167 01        		.uleb128 0x1
 8202 0168 13        		.uleb128 0x13
 8203 0169 00        		.byte	0
 8204 016a 00        		.byte	0
 8205 016b 1C        		.uleb128 0x1c
 8206 016c 05        		.uleb128 0x5
 8207 016d 00        		.byte	0
 8208 016e 03        		.uleb128 0x3
 8209 016f 0E        		.uleb128 0xe
 8210 0170 3A        		.uleb128 0x3a
 8211 0171 0B        		.uleb128 0xb
 8212 0172 3B        		.uleb128 0x3b
 8213 0173 05        		.uleb128 0x5
 8214 0174 49        		.uleb128 0x49
 8215 0175 13        		.uleb128 0x13
 8216 0176 00        		.byte	0
 8217 0177 00        		.byte	0
 8218 0178 1D        		.uleb128 0x1d
 8219 0179 0F        		.uleb128 0xf
 8220 017a 00        		.byte	0
 8221 017b 0B        		.uleb128 0xb
 8222 017c 0B        		.uleb128 0xb
 8223 017d 49        		.uleb128 0x49
 8224 017e 13        		.uleb128 0x13
 8225 017f 00        		.byte	0
 8226 0180 00        		.byte	0
 8227 0181 1E        		.uleb128 0x1e
 8228 0182 2E        		.uleb128 0x2e
 8229 0183 01        		.byte	0x1
 8230 0184 3F        		.uleb128 0x3f
 8231 0185 0C        		.uleb128 0xc
 8232 0186 03        		.uleb128 0x3
 8233 0187 0E        		.uleb128 0xe
 8234 0188 3A        		.uleb128 0x3a
 8235 0189 0B        		.uleb128 0xb
 8236 018a 3B        		.uleb128 0x3b
 8237 018b 0B        		.uleb128 0xb
 8238 018c 27        		.uleb128 0x27
 8239 018d 0C        		.uleb128 0xc
 8240 018e 49        		.uleb128 0x49
 8241 018f 13        		.uleb128 0x13
 8242 0190 20        		.uleb128 0x20
GAS LISTING /tmp/ccPqDIXf.s 			page 169


 8243 0191 0B        		.uleb128 0xb
 8244 0192 01        		.uleb128 0x1
 8245 0193 13        		.uleb128 0x13
 8246 0194 00        		.byte	0
 8247 0195 00        		.byte	0
 8248 0196 1F        		.uleb128 0x1f
 8249 0197 05        		.uleb128 0x5
 8250 0198 00        		.byte	0
 8251 0199 03        		.uleb128 0x3
 8252 019a 08        		.uleb128 0x8
 8253 019b 3A        		.uleb128 0x3a
 8254 019c 0B        		.uleb128 0xb
 8255 019d 3B        		.uleb128 0x3b
 8256 019e 0B        		.uleb128 0xb
 8257 019f 49        		.uleb128 0x49
 8258 01a0 13        		.uleb128 0x13
 8259 01a1 00        		.byte	0
 8260 01a2 00        		.byte	0
 8261 01a3 20        		.uleb128 0x20
 8262 01a4 2E        		.uleb128 0x2e
 8263 01a5 01        		.byte	0x1
 8264 01a6 3F        		.uleb128 0x3f
 8265 01a7 0C        		.uleb128 0xc
 8266 01a8 03        		.uleb128 0x3
 8267 01a9 0E        		.uleb128 0xe
 8268 01aa 3A        		.uleb128 0x3a
 8269 01ab 0B        		.uleb128 0xb
 8270 01ac 3B        		.uleb128 0x3b
 8271 01ad 0B        		.uleb128 0xb
 8272 01ae 27        		.uleb128 0x27
 8273 01af 0C        		.uleb128 0xc
 8274 01b0 11        		.uleb128 0x11
 8275 01b1 01        		.uleb128 0x1
 8276 01b2 12        		.uleb128 0x12
 8277 01b3 01        		.uleb128 0x1
 8278 01b4 40        		.uleb128 0x40
 8279 01b5 06        		.uleb128 0x6
 8280 01b6 9742      		.uleb128 0x2117
 8281 01b8 0C        		.uleb128 0xc
 8282 01b9 01        		.uleb128 0x1
 8283 01ba 13        		.uleb128 0x13
 8284 01bb 00        		.byte	0
 8285 01bc 00        		.byte	0
 8286 01bd 21        		.uleb128 0x21
 8287 01be 05        		.uleb128 0x5
 8288 01bf 00        		.byte	0
 8289 01c0 03        		.uleb128 0x3
 8290 01c1 0E        		.uleb128 0xe
 8291 01c2 3A        		.uleb128 0x3a
 8292 01c3 0B        		.uleb128 0xb
 8293 01c4 3B        		.uleb128 0x3b
 8294 01c5 0B        		.uleb128 0xb
 8295 01c6 49        		.uleb128 0x49
 8296 01c7 13        		.uleb128 0x13
 8297 01c8 02        		.uleb128 0x2
 8298 01c9 06        		.uleb128 0x6
 8299 01ca 00        		.byte	0
GAS LISTING /tmp/ccPqDIXf.s 			page 170


 8300 01cb 00        		.byte	0
 8301 01cc 22        		.uleb128 0x22
 8302 01cd 05        		.uleb128 0x5
 8303 01ce 00        		.byte	0
 8304 01cf 03        		.uleb128 0x3
 8305 01d0 0E        		.uleb128 0xe
 8306 01d1 3A        		.uleb128 0x3a
 8307 01d2 0B        		.uleb128 0xb
 8308 01d3 3B        		.uleb128 0x3b
 8309 01d4 0B        		.uleb128 0xb
 8310 01d5 49        		.uleb128 0x49
 8311 01d6 13        		.uleb128 0x13
 8312 01d7 02        		.uleb128 0x2
 8313 01d8 0A        		.uleb128 0xa
 8314 01d9 00        		.byte	0
 8315 01da 00        		.byte	0
 8316 01db 23        		.uleb128 0x23
 8317 01dc 34        		.uleb128 0x34
 8318 01dd 00        		.byte	0
 8319 01de 03        		.uleb128 0x3
 8320 01df 0E        		.uleb128 0xe
 8321 01e0 3A        		.uleb128 0x3a
 8322 01e1 0B        		.uleb128 0xb
 8323 01e2 3B        		.uleb128 0x3b
 8324 01e3 0B        		.uleb128 0xb
 8325 01e4 49        		.uleb128 0x49
 8326 01e5 13        		.uleb128 0x13
 8327 01e6 02        		.uleb128 0x2
 8328 01e7 0A        		.uleb128 0xa
 8329 01e8 00        		.byte	0
 8330 01e9 00        		.byte	0
 8331 01ea 24        		.uleb128 0x24
 8332 01eb 34        		.uleb128 0x34
 8333 01ec 00        		.byte	0
 8334 01ed 03        		.uleb128 0x3
 8335 01ee 0E        		.uleb128 0xe
 8336 01ef 3A        		.uleb128 0x3a
 8337 01f0 0B        		.uleb128 0xb
 8338 01f1 3B        		.uleb128 0x3b
 8339 01f2 0B        		.uleb128 0xb
 8340 01f3 49        		.uleb128 0x49
 8341 01f4 13        		.uleb128 0x13
 8342 01f5 02        		.uleb128 0x2
 8343 01f6 06        		.uleb128 0x6
 8344 01f7 00        		.byte	0
 8345 01f8 00        		.byte	0
 8346 01f9 25        		.uleb128 0x25
 8347 01fa 2E        		.uleb128 0x2e
 8348 01fb 01        		.byte	0x1
 8349 01fc 3F        		.uleb128 0x3f
 8350 01fd 0C        		.uleb128 0xc
 8351 01fe 03        		.uleb128 0x3
 8352 01ff 0E        		.uleb128 0xe
 8353 0200 3A        		.uleb128 0x3a
 8354 0201 0B        		.uleb128 0xb
 8355 0202 3B        		.uleb128 0x3b
 8356 0203 0B        		.uleb128 0xb
GAS LISTING /tmp/ccPqDIXf.s 			page 171


 8357 0204 27        		.uleb128 0x27
 8358 0205 0C        		.uleb128 0xc
 8359 0206 11        		.uleb128 0x11
 8360 0207 01        		.uleb128 0x1
 8361 0208 12        		.uleb128 0x12
 8362 0209 01        		.uleb128 0x1
 8363 020a 40        		.uleb128 0x40
 8364 020b 0A        		.uleb128 0xa
 8365 020c 9742      		.uleb128 0x2117
 8366 020e 0C        		.uleb128 0xc
 8367 020f 01        		.uleb128 0x1
 8368 0210 13        		.uleb128 0x13
 8369 0211 00        		.byte	0
 8370 0212 00        		.byte	0
 8371 0213 26        		.uleb128 0x26
 8372 0214 2E        		.uleb128 0x2e
 8373 0215 01        		.byte	0x1
 8374 0216 3F        		.uleb128 0x3f
 8375 0217 0C        		.uleb128 0xc
 8376 0218 03        		.uleb128 0x3
 8377 0219 0E        		.uleb128 0xe
 8378 021a 3A        		.uleb128 0x3a
 8379 021b 0B        		.uleb128 0xb
 8380 021c 3B        		.uleb128 0x3b
 8381 021d 0B        		.uleb128 0xb
 8382 021e 27        		.uleb128 0x27
 8383 021f 0C        		.uleb128 0xc
 8384 0220 49        		.uleb128 0x49
 8385 0221 13        		.uleb128 0x13
 8386 0222 11        		.uleb128 0x11
 8387 0223 01        		.uleb128 0x1
 8388 0224 12        		.uleb128 0x12
 8389 0225 01        		.uleb128 0x1
 8390 0226 40        		.uleb128 0x40
 8391 0227 0A        		.uleb128 0xa
 8392 0228 9742      		.uleb128 0x2117
 8393 022a 0C        		.uleb128 0xc
 8394 022b 01        		.uleb128 0x1
 8395 022c 13        		.uleb128 0x13
 8396 022d 00        		.byte	0
 8397 022e 00        		.byte	0
 8398 022f 27        		.uleb128 0x27
 8399 0230 8982 01   		.uleb128 0x4109
 8400 0233 01        		.byte	0x1
 8401 0234 11        		.uleb128 0x11
 8402 0235 01        		.uleb128 0x1
 8403 0236 9542      		.uleb128 0x2115
 8404 0238 0C        		.uleb128 0xc
 8405 0239 31        		.uleb128 0x31
 8406 023a 13        		.uleb128 0x13
 8407 023b 00        		.byte	0
 8408 023c 00        		.byte	0
 8409 023d 28        		.uleb128 0x28
 8410 023e 8A82 01   		.uleb128 0x410a
 8411 0241 00        		.byte	0
 8412 0242 02        		.uleb128 0x2
 8413 0243 0A        		.uleb128 0xa
GAS LISTING /tmp/ccPqDIXf.s 			page 172


 8414 0244 9142      		.uleb128 0x2111
 8415 0246 0A        		.uleb128 0xa
 8416 0247 00        		.byte	0
 8417 0248 00        		.byte	0
 8418 0249 29        		.uleb128 0x29
 8419 024a 2E        		.uleb128 0x2e
 8420 024b 01        		.byte	0x1
 8421 024c 3F        		.uleb128 0x3f
 8422 024d 0C        		.uleb128 0xc
 8423 024e 03        		.uleb128 0x3
 8424 024f 0E        		.uleb128 0xe
 8425 0250 3A        		.uleb128 0x3a
 8426 0251 0B        		.uleb128 0xb
 8427 0252 3B        		.uleb128 0x3b
 8428 0253 0B        		.uleb128 0xb
 8429 0254 27        		.uleb128 0x27
 8430 0255 0C        		.uleb128 0xc
 8431 0256 49        		.uleb128 0x49
 8432 0257 13        		.uleb128 0x13
 8433 0258 11        		.uleb128 0x11
 8434 0259 01        		.uleb128 0x1
 8435 025a 12        		.uleb128 0x12
 8436 025b 01        		.uleb128 0x1
 8437 025c 40        		.uleb128 0x40
 8438 025d 06        		.uleb128 0x6
 8439 025e 9742      		.uleb128 0x2117
 8440 0260 0C        		.uleb128 0xc
 8441 0261 01        		.uleb128 0x1
 8442 0262 13        		.uleb128 0x13
 8443 0263 00        		.byte	0
 8444 0264 00        		.byte	0
 8445 0265 2A        		.uleb128 0x2a
 8446 0266 8982 01   		.uleb128 0x4109
 8447 0269 01        		.byte	0x1
 8448 026a 11        		.uleb128 0x11
 8449 026b 01        		.uleb128 0x1
 8450 026c 31        		.uleb128 0x31
 8451 026d 13        		.uleb128 0x13
 8452 026e 00        		.byte	0
 8453 026f 00        		.byte	0
 8454 0270 2B        		.uleb128 0x2b
 8455 0271 2E        		.uleb128 0x2e
 8456 0272 01        		.byte	0x1
 8457 0273 3F        		.uleb128 0x3f
 8458 0274 0C        		.uleb128 0xc
 8459 0275 03        		.uleb128 0x3
 8460 0276 0E        		.uleb128 0xe
 8461 0277 3A        		.uleb128 0x3a
 8462 0278 0B        		.uleb128 0xb
 8463 0279 3B        		.uleb128 0x3b
 8464 027a 05        		.uleb128 0x5
 8465 027b 27        		.uleb128 0x27
 8466 027c 0C        		.uleb128 0xc
 8467 027d 11        		.uleb128 0x11
 8468 027e 01        		.uleb128 0x1
 8469 027f 12        		.uleb128 0x12
 8470 0280 01        		.uleb128 0x1
GAS LISTING /tmp/ccPqDIXf.s 			page 173


 8471 0281 40        		.uleb128 0x40
 8472 0282 0A        		.uleb128 0xa
 8473 0283 9742      		.uleb128 0x2117
 8474 0285 0C        		.uleb128 0xc
 8475 0286 01        		.uleb128 0x1
 8476 0287 13        		.uleb128 0x13
 8477 0288 00        		.byte	0
 8478 0289 00        		.byte	0
 8479 028a 2C        		.uleb128 0x2c
 8480 028b 05        		.uleb128 0x5
 8481 028c 00        		.byte	0
 8482 028d 03        		.uleb128 0x3
 8483 028e 0E        		.uleb128 0xe
 8484 028f 3A        		.uleb128 0x3a
 8485 0290 0B        		.uleb128 0xb
 8486 0291 3B        		.uleb128 0x3b
 8487 0292 05        		.uleb128 0x5
 8488 0293 49        		.uleb128 0x49
 8489 0294 13        		.uleb128 0x13
 8490 0295 02        		.uleb128 0x2
 8491 0296 06        		.uleb128 0x6
 8492 0297 00        		.byte	0
 8493 0298 00        		.byte	0
 8494 0299 2D        		.uleb128 0x2d
 8495 029a 05        		.uleb128 0x5
 8496 029b 00        		.byte	0
 8497 029c 03        		.uleb128 0x3
 8498 029d 0E        		.uleb128 0xe
 8499 029e 3A        		.uleb128 0x3a
 8500 029f 0B        		.uleb128 0xb
 8501 02a0 3B        		.uleb128 0x3b
 8502 02a1 05        		.uleb128 0x5
 8503 02a2 49        		.uleb128 0x49
 8504 02a3 13        		.uleb128 0x13
 8505 02a4 02        		.uleb128 0x2
 8506 02a5 0A        		.uleb128 0xa
 8507 02a6 00        		.byte	0
 8508 02a7 00        		.byte	0
 8509 02a8 2E        		.uleb128 0x2e
 8510 02a9 2E        		.uleb128 0x2e
 8511 02aa 00        		.byte	0
 8512 02ab 3F        		.uleb128 0x3f
 8513 02ac 0C        		.uleb128 0xc
 8514 02ad 03        		.uleb128 0x3
 8515 02ae 0E        		.uleb128 0xe
 8516 02af 3A        		.uleb128 0x3a
 8517 02b0 0B        		.uleb128 0xb
 8518 02b1 3B        		.uleb128 0x3b
 8519 02b2 0B        		.uleb128 0xb
 8520 02b3 27        		.uleb128 0x27
 8521 02b4 0C        		.uleb128 0xc
 8522 02b5 11        		.uleb128 0x11
 8523 02b6 01        		.uleb128 0x1
 8524 02b7 12        		.uleb128 0x12
 8525 02b8 01        		.uleb128 0x1
 8526 02b9 40        		.uleb128 0x40
 8527 02ba 06        		.uleb128 0x6
GAS LISTING /tmp/ccPqDIXf.s 			page 174


 8528 02bb 9742      		.uleb128 0x2117
 8529 02bd 0C        		.uleb128 0xc
 8530 02be 00        		.byte	0
 8531 02bf 00        		.byte	0
 8532 02c0 2F        		.uleb128 0x2f
 8533 02c1 05        		.uleb128 0x5
 8534 02c2 00        		.byte	0
 8535 02c3 03        		.uleb128 0x3
 8536 02c4 08        		.uleb128 0x8
 8537 02c5 3A        		.uleb128 0x3a
 8538 02c6 0B        		.uleb128 0xb
 8539 02c7 3B        		.uleb128 0x3b
 8540 02c8 0B        		.uleb128 0xb
 8541 02c9 49        		.uleb128 0x49
 8542 02ca 13        		.uleb128 0x13
 8543 02cb 02        		.uleb128 0x2
 8544 02cc 06        		.uleb128 0x6
 8545 02cd 00        		.byte	0
 8546 02ce 00        		.byte	0
 8547 02cf 30        		.uleb128 0x30
 8548 02d0 1D        		.uleb128 0x1d
 8549 02d1 01        		.byte	0x1
 8550 02d2 31        		.uleb128 0x31
 8551 02d3 13        		.uleb128 0x13
 8552 02d4 11        		.uleb128 0x11
 8553 02d5 01        		.uleb128 0x1
 8554 02d6 12        		.uleb128 0x12
 8555 02d7 01        		.uleb128 0x1
 8556 02d8 58        		.uleb128 0x58
 8557 02d9 0B        		.uleb128 0xb
 8558 02da 59        		.uleb128 0x59
 8559 02db 0B        		.uleb128 0xb
 8560 02dc 00        		.byte	0
 8561 02dd 00        		.byte	0
 8562 02de 31        		.uleb128 0x31
 8563 02df 05        		.uleb128 0x5
 8564 02e0 00        		.byte	0
 8565 02e1 31        		.uleb128 0x31
 8566 02e2 13        		.uleb128 0x13
 8567 02e3 02        		.uleb128 0x2
 8568 02e4 06        		.uleb128 0x6
 8569 02e5 00        		.byte	0
 8570 02e6 00        		.byte	0
 8571 02e7 32        		.uleb128 0x32
 8572 02e8 0B        		.uleb128 0xb
 8573 02e9 01        		.byte	0x1
 8574 02ea 11        		.uleb128 0x11
 8575 02eb 01        		.uleb128 0x1
 8576 02ec 12        		.uleb128 0x12
 8577 02ed 01        		.uleb128 0x1
 8578 02ee 00        		.byte	0
 8579 02ef 00        		.byte	0
 8580 02f0 33        		.uleb128 0x33
 8581 02f1 34        		.uleb128 0x34
 8582 02f2 00        		.byte	0
 8583 02f3 31        		.uleb128 0x31
 8584 02f4 13        		.uleb128 0x13
GAS LISTING /tmp/ccPqDIXf.s 			page 175


 8585 02f5 00        		.byte	0
 8586 02f6 00        		.byte	0
 8587 02f7 34        		.uleb128 0x34
 8588 02f8 34        		.uleb128 0x34
 8589 02f9 00        		.byte	0
 8590 02fa 31        		.uleb128 0x31
 8591 02fb 13        		.uleb128 0x13
 8592 02fc 02        		.uleb128 0x2
 8593 02fd 06        		.uleb128 0x6
 8594 02fe 00        		.byte	0
 8595 02ff 00        		.byte	0
 8596 0300 35        		.uleb128 0x35
 8597 0301 05        		.uleb128 0x5
 8598 0302 00        		.byte	0
 8599 0303 03        		.uleb128 0x3
 8600 0304 08        		.uleb128 0x8
 8601 0305 3A        		.uleb128 0x3a
 8602 0306 0B        		.uleb128 0xb
 8603 0307 3B        		.uleb128 0x3b
 8604 0308 0B        		.uleb128 0xb
 8605 0309 49        		.uleb128 0x49
 8606 030a 13        		.uleb128 0x13
 8607 030b 02        		.uleb128 0x2
 8608 030c 0A        		.uleb128 0xa
 8609 030d 00        		.byte	0
 8610 030e 00        		.byte	0
 8611 030f 36        		.uleb128 0x36
 8612 0310 2E        		.uleb128 0x2e
 8613 0311 01        		.byte	0x1
 8614 0312 31        		.uleb128 0x31
 8615 0313 13        		.uleb128 0x13
 8616 0314 11        		.uleb128 0x11
 8617 0315 01        		.uleb128 0x1
 8618 0316 12        		.uleb128 0x12
 8619 0317 01        		.uleb128 0x1
 8620 0318 40        		.uleb128 0x40
 8621 0319 0A        		.uleb128 0xa
 8622 031a 9742      		.uleb128 0x2117
 8623 031c 0C        		.uleb128 0xc
 8624 031d 01        		.uleb128 0x1
 8625 031e 13        		.uleb128 0x13
 8626 031f 00        		.byte	0
 8627 0320 00        		.byte	0
 8628 0321 37        		.uleb128 0x37
 8629 0322 2E        		.uleb128 0x2e
 8630 0323 00        		.byte	0
 8631 0324 3F        		.uleb128 0x3f
 8632 0325 0C        		.uleb128 0xc
 8633 0326 03        		.uleb128 0x3
 8634 0327 0E        		.uleb128 0xe
 8635 0328 3A        		.uleb128 0x3a
 8636 0329 0B        		.uleb128 0xb
 8637 032a 3B        		.uleb128 0x3b
 8638 032b 0B        		.uleb128 0xb
 8639 032c 27        		.uleb128 0x27
 8640 032d 0C        		.uleb128 0xc
 8641 032e 11        		.uleb128 0x11
GAS LISTING /tmp/ccPqDIXf.s 			page 176


 8642 032f 01        		.uleb128 0x1
 8643 0330 12        		.uleb128 0x12
 8644 0331 01        		.uleb128 0x1
 8645 0332 40        		.uleb128 0x40
 8646 0333 0A        		.uleb128 0xa
 8647 0334 9742      		.uleb128 0x2117
 8648 0336 0C        		.uleb128 0xc
 8649 0337 00        		.byte	0
 8650 0338 00        		.byte	0
 8651 0339 38        		.uleb128 0x38
 8652 033a 2E        		.uleb128 0x2e
 8653 033b 00        		.byte	0
 8654 033c 31        		.uleb128 0x31
 8655 033d 13        		.uleb128 0x13
 8656 033e 11        		.uleb128 0x11
 8657 033f 01        		.uleb128 0x1
 8658 0340 12        		.uleb128 0x12
 8659 0341 01        		.uleb128 0x1
 8660 0342 40        		.uleb128 0x40
 8661 0343 06        		.uleb128 0x6
 8662 0344 9742      		.uleb128 0x2117
 8663 0346 0C        		.uleb128 0xc
 8664 0347 00        		.byte	0
 8665 0348 00        		.byte	0
 8666 0349 39        		.uleb128 0x39
 8667 034a 8982 01   		.uleb128 0x4109
 8668 034d 01        		.byte	0x1
 8669 034e 11        		.uleb128 0x11
 8670 034f 01        		.uleb128 0x1
 8671 0350 31        		.uleb128 0x31
 8672 0351 13        		.uleb128 0x13
 8673 0352 01        		.uleb128 0x1
 8674 0353 13        		.uleb128 0x13
 8675 0354 00        		.byte	0
 8676 0355 00        		.byte	0
 8677 0356 3A        		.uleb128 0x3a
 8678 0357 2E        		.uleb128 0x2e
 8679 0358 01        		.byte	0x1
 8680 0359 31        		.uleb128 0x31
 8681 035a 13        		.uleb128 0x13
 8682 035b 11        		.uleb128 0x11
 8683 035c 01        		.uleb128 0x1
 8684 035d 12        		.uleb128 0x12
 8685 035e 01        		.uleb128 0x1
 8686 035f 40        		.uleb128 0x40
 8687 0360 06        		.uleb128 0x6
 8688 0361 9742      		.uleb128 0x2117
 8689 0363 0C        		.uleb128 0xc
 8690 0364 01        		.uleb128 0x1
 8691 0365 13        		.uleb128 0x13
 8692 0366 00        		.byte	0
 8693 0367 00        		.byte	0
 8694 0368 3B        		.uleb128 0x3b
 8695 0369 05        		.uleb128 0x5
 8696 036a 00        		.byte	0
 8697 036b 31        		.uleb128 0x31
 8698 036c 13        		.uleb128 0x13
GAS LISTING /tmp/ccPqDIXf.s 			page 177


 8699 036d 02        		.uleb128 0x2
 8700 036e 0A        		.uleb128 0xa
 8701 036f 00        		.byte	0
 8702 0370 00        		.byte	0
 8703 0371 3C        		.uleb128 0x3c
 8704 0372 2E        		.uleb128 0x2e
 8705 0373 01        		.byte	0x1
 8706 0374 3F        		.uleb128 0x3f
 8707 0375 0C        		.uleb128 0xc
 8708 0376 03        		.uleb128 0x3
 8709 0377 0E        		.uleb128 0xe
 8710 0378 3A        		.uleb128 0x3a
 8711 0379 0B        		.uleb128 0xb
 8712 037a 3B        		.uleb128 0x3b
 8713 037b 05        		.uleb128 0x5
 8714 037c 27        		.uleb128 0x27
 8715 037d 0C        		.uleb128 0xc
 8716 037e 11        		.uleb128 0x11
 8717 037f 01        		.uleb128 0x1
 8718 0380 12        		.uleb128 0x12
 8719 0381 01        		.uleb128 0x1
 8720 0382 40        		.uleb128 0x40
 8721 0383 06        		.uleb128 0x6
 8722 0384 9742      		.uleb128 0x2117
 8723 0386 0C        		.uleb128 0xc
 8724 0387 01        		.uleb128 0x1
 8725 0388 13        		.uleb128 0x13
 8726 0389 00        		.byte	0
 8727 038a 00        		.byte	0
 8728 038b 3D        		.uleb128 0x3d
 8729 038c 8982 01   		.uleb128 0x4109
 8730 038f 00        		.byte	0
 8731 0390 11        		.uleb128 0x11
 8732 0391 01        		.uleb128 0x1
 8733 0392 31        		.uleb128 0x31
 8734 0393 13        		.uleb128 0x13
 8735 0394 00        		.byte	0
 8736 0395 00        		.byte	0
 8737 0396 3E        		.uleb128 0x3e
 8738 0397 8982 01   		.uleb128 0x4109
 8739 039a 00        		.byte	0
 8740 039b 11        		.uleb128 0x11
 8741 039c 01        		.uleb128 0x1
 8742 039d 9542      		.uleb128 0x2115
 8743 039f 0C        		.uleb128 0xc
 8744 03a0 31        		.uleb128 0x31
 8745 03a1 13        		.uleb128 0x13
 8746 03a2 00        		.byte	0
 8747 03a3 00        		.byte	0
 8748 03a4 3F        		.uleb128 0x3f
 8749 03a5 2E        		.uleb128 0x2e
 8750 03a6 01        		.byte	0x1
 8751 03a7 3F        		.uleb128 0x3f
 8752 03a8 0C        		.uleb128 0xc
 8753 03a9 03        		.uleb128 0x3
 8754 03aa 0E        		.uleb128 0xe
 8755 03ab 3A        		.uleb128 0x3a
GAS LISTING /tmp/ccPqDIXf.s 			page 178


 8756 03ac 0B        		.uleb128 0xb
 8757 03ad 3B        		.uleb128 0x3b
 8758 03ae 05        		.uleb128 0x5
 8759 03af 27        		.uleb128 0x27
 8760 03b0 0C        		.uleb128 0xc
 8761 03b1 11        		.uleb128 0x11
 8762 03b2 01        		.uleb128 0x1
 8763 03b3 12        		.uleb128 0x12
 8764 03b4 01        		.uleb128 0x1
 8765 03b5 40        		.uleb128 0x40
 8766 03b6 06        		.uleb128 0x6
 8767 03b7 9642      		.uleb128 0x2116
 8768 03b9 0C        		.uleb128 0xc
 8769 03ba 01        		.uleb128 0x1
 8770 03bb 13        		.uleb128 0x13
 8771 03bc 00        		.byte	0
 8772 03bd 00        		.byte	0
 8773 03be 40        		.uleb128 0x40
 8774 03bf 34        		.uleb128 0x34
 8775 03c0 00        		.byte	0
 8776 03c1 03        		.uleb128 0x3
 8777 03c2 0E        		.uleb128 0xe
 8778 03c3 3A        		.uleb128 0x3a
 8779 03c4 0B        		.uleb128 0xb
 8780 03c5 3B        		.uleb128 0x3b
 8781 03c6 05        		.uleb128 0x5
 8782 03c7 49        		.uleb128 0x49
 8783 03c8 13        		.uleb128 0x13
 8784 03c9 02        		.uleb128 0x2
 8785 03ca 0A        		.uleb128 0xa
 8786 03cb 00        		.byte	0
 8787 03cc 00        		.byte	0
 8788 03cd 41        		.uleb128 0x41
 8789 03ce 1D        		.uleb128 0x1d
 8790 03cf 00        		.byte	0
 8791 03d0 31        		.uleb128 0x31
 8792 03d1 13        		.uleb128 0x13
 8793 03d2 11        		.uleb128 0x11
 8794 03d3 01        		.uleb128 0x1
 8795 03d4 12        		.uleb128 0x12
 8796 03d5 01        		.uleb128 0x1
 8797 03d6 58        		.uleb128 0x58
 8798 03d7 0B        		.uleb128 0xb
 8799 03d8 59        		.uleb128 0x59
 8800 03d9 05        		.uleb128 0x5
 8801 03da 00        		.byte	0
 8802 03db 00        		.byte	0
 8803 03dc 42        		.uleb128 0x42
 8804 03dd 34        		.uleb128 0x34
 8805 03de 00        		.byte	0
 8806 03df 03        		.uleb128 0x3
 8807 03e0 0E        		.uleb128 0xe
 8808 03e1 3A        		.uleb128 0x3a
 8809 03e2 0B        		.uleb128 0xb
 8810 03e3 3B        		.uleb128 0x3b
 8811 03e4 05        		.uleb128 0x5
 8812 03e5 49        		.uleb128 0x49
GAS LISTING /tmp/ccPqDIXf.s 			page 179


 8813 03e6 13        		.uleb128 0x13
 8814 03e7 02        		.uleb128 0x2
 8815 03e8 06        		.uleb128 0x6
 8816 03e9 00        		.byte	0
 8817 03ea 00        		.byte	0
 8818 03eb 43        		.uleb128 0x43
 8819 03ec 34        		.uleb128 0x34
 8820 03ed 00        		.byte	0
 8821 03ee 03        		.uleb128 0x3
 8822 03ef 08        		.uleb128 0x8
 8823 03f0 3A        		.uleb128 0x3a
 8824 03f1 0B        		.uleb128 0xb
 8825 03f2 3B        		.uleb128 0x3b
 8826 03f3 05        		.uleb128 0x5
 8827 03f4 49        		.uleb128 0x49
 8828 03f5 13        		.uleb128 0x13
 8829 03f6 02        		.uleb128 0x2
 8830 03f7 06        		.uleb128 0x6
 8831 03f8 00        		.byte	0
 8832 03f9 00        		.byte	0
 8833 03fa 44        		.uleb128 0x44
 8834 03fb 1D        		.uleb128 0x1d
 8835 03fc 01        		.byte	0x1
 8836 03fd 31        		.uleb128 0x31
 8837 03fe 13        		.uleb128 0x13
 8838 03ff 52        		.uleb128 0x52
 8839 0400 01        		.uleb128 0x1
 8840 0401 55        		.uleb128 0x55
 8841 0402 06        		.uleb128 0x6
 8842 0403 58        		.uleb128 0x58
 8843 0404 0B        		.uleb128 0xb
 8844 0405 59        		.uleb128 0x59
 8845 0406 05        		.uleb128 0x5
 8846 0407 01        		.uleb128 0x1
 8847 0408 13        		.uleb128 0x13
 8848 0409 00        		.byte	0
 8849 040a 00        		.byte	0
 8850 040b 45        		.uleb128 0x45
 8851 040c 1D        		.uleb128 0x1d
 8852 040d 01        		.byte	0x1
 8853 040e 31        		.uleb128 0x31
 8854 040f 13        		.uleb128 0x13
 8855 0410 11        		.uleb128 0x11
 8856 0411 01        		.uleb128 0x1
 8857 0412 12        		.uleb128 0x12
 8858 0413 01        		.uleb128 0x1
 8859 0414 58        		.uleb128 0x58
 8860 0415 0B        		.uleb128 0xb
 8861 0416 59        		.uleb128 0x59
 8862 0417 05        		.uleb128 0x5
 8863 0418 01        		.uleb128 0x1
 8864 0419 13        		.uleb128 0x13
 8865 041a 00        		.byte	0
 8866 041b 00        		.byte	0
 8867 041c 46        		.uleb128 0x46
 8868 041d 01        		.uleb128 0x1
 8869 041e 01        		.byte	0x1
GAS LISTING /tmp/ccPqDIXf.s 			page 180


 8870 041f 49        		.uleb128 0x49
 8871 0420 13        		.uleb128 0x13
 8872 0421 01        		.uleb128 0x1
 8873 0422 13        		.uleb128 0x13
 8874 0423 00        		.byte	0
 8875 0424 00        		.byte	0
 8876 0425 47        		.uleb128 0x47
 8877 0426 21        		.uleb128 0x21
 8878 0427 00        		.byte	0
 8879 0428 49        		.uleb128 0x49
 8880 0429 13        		.uleb128 0x13
 8881 042a 2F        		.uleb128 0x2f
 8882 042b 0B        		.uleb128 0xb
 8883 042c 00        		.byte	0
 8884 042d 00        		.byte	0
 8885 042e 48        		.uleb128 0x48
 8886 042f 1D        		.uleb128 0x1d
 8887 0430 01        		.byte	0x1
 8888 0431 31        		.uleb128 0x31
 8889 0432 13        		.uleb128 0x13
 8890 0433 11        		.uleb128 0x11
 8891 0434 01        		.uleb128 0x1
 8892 0435 12        		.uleb128 0x12
 8893 0436 01        		.uleb128 0x1
 8894 0437 58        		.uleb128 0x58
 8895 0438 0B        		.uleb128 0xb
 8896 0439 59        		.uleb128 0x59
 8897 043a 05        		.uleb128 0x5
 8898 043b 00        		.byte	0
 8899 043c 00        		.byte	0
 8900 043d 49        		.uleb128 0x49
 8901 043e 2E        		.uleb128 0x2e
 8902 043f 01        		.byte	0x1
 8903 0440 3F        		.uleb128 0x3f
 8904 0441 0C        		.uleb128 0xc
 8905 0442 03        		.uleb128 0x3
 8906 0443 0E        		.uleb128 0xe
 8907 0444 3A        		.uleb128 0x3a
 8908 0445 0B        		.uleb128 0xb
 8909 0446 3B        		.uleb128 0x3b
 8910 0447 05        		.uleb128 0x5
 8911 0448 27        		.uleb128 0x27
 8912 0449 0C        		.uleb128 0xc
 8913 044a 49        		.uleb128 0x49
 8914 044b 13        		.uleb128 0x13
 8915 044c 11        		.uleb128 0x11
 8916 044d 01        		.uleb128 0x1
 8917 044e 12        		.uleb128 0x12
 8918 044f 01        		.uleb128 0x1
 8919 0450 40        		.uleb128 0x40
 8920 0451 0A        		.uleb128 0xa
 8921 0452 9742      		.uleb128 0x2117
 8922 0454 0C        		.uleb128 0xc
 8923 0455 01        		.uleb128 0x1
 8924 0456 13        		.uleb128 0x13
 8925 0457 00        		.byte	0
 8926 0458 00        		.byte	0
GAS LISTING /tmp/ccPqDIXf.s 			page 181


 8927 0459 4A        		.uleb128 0x4a
 8928 045a 34        		.uleb128 0x34
 8929 045b 00        		.byte	0
 8930 045c 03        		.uleb128 0x3
 8931 045d 0E        		.uleb128 0xe
 8932 045e 3A        		.uleb128 0x3a
 8933 045f 0B        		.uleb128 0xb
 8934 0460 3B        		.uleb128 0x3b
 8935 0461 0B        		.uleb128 0xb
 8936 0462 49        		.uleb128 0x49
 8937 0463 13        		.uleb128 0x13
 8938 0464 3F        		.uleb128 0x3f
 8939 0465 0C        		.uleb128 0xc
 8940 0466 02        		.uleb128 0x2
 8941 0467 0A        		.uleb128 0xa
 8942 0468 00        		.byte	0
 8943 0469 00        		.byte	0
 8944 046a 4B        		.uleb128 0x4b
 8945 046b 34        		.uleb128 0x34
 8946 046c 00        		.byte	0
 8947 046d 03        		.uleb128 0x3
 8948 046e 0E        		.uleb128 0xe
 8949 046f 3A        		.uleb128 0x3a
 8950 0470 0B        		.uleb128 0xb
 8951 0471 3B        		.uleb128 0x3b
 8952 0472 05        		.uleb128 0x5
 8953 0473 49        		.uleb128 0x49
 8954 0474 13        		.uleb128 0x13
 8955 0475 3F        		.uleb128 0x3f
 8956 0476 0C        		.uleb128 0xc
 8957 0477 02        		.uleb128 0x2
 8958 0478 0A        		.uleb128 0xa
 8959 0479 00        		.byte	0
 8960 047a 00        		.byte	0
 8961 047b 00        		.byte	0
 8962               		.section	.debug_loc,"",@progbits
 8963               	.Ldebug_loc0:
 8964               	.LLST0:
 8965 0000 0000 0000 		.long	.LFB7
 8966 0004 0000 0000 		.long	.LCFI0
 8967 0008 0300      		.word	0x3
 8968 000a 92        		.byte	0x92
 8969 000b 20        		.uleb128 0x20
 8970 000c 02        		.sleb128 2
 8971 000d 0000 0000 		.long	.LCFI0
 8972 0011 0000 0000 		.long	.LCFI1
 8973 0015 0300      		.word	0x3
 8974 0017 92        		.byte	0x92
 8975 0018 20        		.uleb128 0x20
 8976 0019 03        		.sleb128 3
 8977 001a 0000 0000 		.long	.LCFI1
 8978 001e 0000 0000 		.long	.LCFI2
 8979 0022 0300      		.word	0x3
 8980 0024 92        		.byte	0x92
 8981 0025 20        		.uleb128 0x20
 8982 0026 04        		.sleb128 4
 8983 0027 0000 0000 		.long	.LCFI2
GAS LISTING /tmp/ccPqDIXf.s 			page 182


 8984 002b 0000 0000 		.long	.LCFI3
 8985 002f 0300      		.word	0x3
 8986 0031 92        		.byte	0x92
 8987 0032 20        		.uleb128 0x20
 8988 0033 05        		.sleb128 5
 8989 0034 0000 0000 		.long	.LCFI3
 8990 0038 0000 0000 		.long	.LCFI4
 8991 003c 0300      		.word	0x3
 8992 003e 92        		.byte	0x92
 8993 003f 20        		.uleb128 0x20
 8994 0040 06        		.sleb128 6
 8995 0041 0000 0000 		.long	.LCFI4
 8996 0045 0000 0000 		.long	.LFE7
 8997 0049 0200      		.word	0x2
 8998 004b 8C        		.byte	0x8c
 8999 004c 06        		.sleb128 6
 9000 004d 0000 0000 		.long	0
 9001 0051 0000 0000 		.long	0
 9002               	.LLST1:
 9003 0055 0000 0000 		.long	.LVL0
 9004 0059 0000 0000 		.long	.LVL3
 9005 005d 0600      		.word	0x6
 9006 005f 68        		.byte	0x68
 9007 0060 93        		.byte	0x93
 9008 0061 01        		.uleb128 0x1
 9009 0062 69        		.byte	0x69
 9010 0063 93        		.byte	0x93
 9011 0064 01        		.uleb128 0x1
 9012 0065 0000 0000 		.long	.LVL3
 9013 0069 0000 0000 		.long	.LFE7
 9014 006d 0400      		.word	0x4
 9015 006f F3        		.byte	0xf3
 9016 0070 01        		.uleb128 0x1
 9017 0071 68        		.byte	0x68
 9018 0072 9F        		.byte	0x9f
 9019 0073 0000 0000 		.long	0
 9020 0077 0000 0000 		.long	0
 9021               	.LLST2:
 9022 007b 0000 0000 		.long	.LVL2
 9023 007f 0000 0000 		.long	.LVL3
 9024 0083 0600      		.word	0x6
 9025 0085 68        		.byte	0x68
 9026 0086 93        		.byte	0x93
 9027 0087 01        		.uleb128 0x1
 9028 0088 69        		.byte	0x69
 9029 0089 93        		.byte	0x93
 9030 008a 01        		.uleb128 0x1
 9031 008b 0000 0000 		.long	.LVL3
 9032 008f 0000 0000 		.long	.LFE7
 9033 0093 0400      		.word	0x4
 9034 0095 F3        		.byte	0xf3
 9035 0096 01        		.uleb128 0x1
 9036 0097 68        		.byte	0x68
 9037 0098 9F        		.byte	0x9f
 9038 0099 0000 0000 		.long	0
 9039 009d 0000 0000 		.long	0
 9040               	.LLST3:
GAS LISTING /tmp/ccPqDIXf.s 			page 183


 9041 00a1 0000 0000 		.long	.LVL4
 9042 00a5 0000 0000 		.long	.LVL5
 9043 00a9 0100      		.word	0x1
 9044 00ab 68        		.byte	0x68
 9045 00ac 0000 0000 		.long	.LVL5
 9046 00b0 0000 0000 		.long	.LFE8
 9047 00b4 0400      		.word	0x4
 9048 00b6 F3        		.byte	0xf3
 9049 00b7 01        		.uleb128 0x1
 9050 00b8 68        		.byte	0x68
 9051 00b9 9F        		.byte	0x9f
 9052 00ba 0000 0000 		.long	0
 9053 00be 0000 0000 		.long	0
 9054               	.LLST4:
 9055 00c2 0000 0000 		.long	.LVL6
 9056 00c6 0000 0000 		.long	.LVL6
 9057 00ca 0100      		.word	0x1
 9058 00cc 66        		.byte	0x66
 9059 00cd 0000 0000 		.long	.LVL6
 9060 00d1 0000 0000 		.long	.LVL7
 9061 00d5 0500      		.word	0x5
 9062 00d7 86        		.byte	0x86
 9063 00d8 00        		.sleb128 0
 9064 00d9 4F        		.byte	0x4f
 9065 00da 1A        		.byte	0x1a
 9066 00db 9F        		.byte	0x9f
 9067 00dc 0000 0000 		.long	.LVL7
 9068 00e0 0000 0000 		.long	.LVL8
 9069 00e4 0100      		.word	0x1
 9070 00e6 66        		.byte	0x66
 9071 00e7 0000 0000 		.long	.LVL8
 9072 00eb 0000 0000 		.long	.LFE9
 9073 00ef 0600      		.word	0x6
 9074 00f1 F3        		.byte	0xf3
 9075 00f2 01        		.uleb128 0x1
 9076 00f3 66        		.byte	0x66
 9077 00f4 4F        		.byte	0x4f
 9078 00f5 1A        		.byte	0x1a
 9079 00f6 9F        		.byte	0x9f
 9080 00f7 0000 0000 		.long	0
 9081 00fb 0000 0000 		.long	0
 9082               	.LLST5:
 9083 00ff 0000 0000 		.long	.LVL9
 9084 0103 0000 0000 		.long	.LVL11
 9085 0107 0100      		.word	0x1
 9086 0109 68        		.byte	0x68
 9087 010a 0000 0000 		.long	.LVL11
 9088 010e 0000 0000 		.long	.LFE10
 9089 0112 0400      		.word	0x4
 9090 0114 F3        		.byte	0xf3
 9091 0115 01        		.uleb128 0x1
 9092 0116 68        		.byte	0x68
 9093 0117 9F        		.byte	0x9f
 9094 0118 0000 0000 		.long	0
 9095 011c 0000 0000 		.long	0
 9096               	.LLST6:
 9097 0120 0000 0000 		.long	.LVL10
GAS LISTING /tmp/ccPqDIXf.s 			page 184


 9098 0124 0000 0000 		.long	.LVL11
 9099 0128 0600      		.word	0x6
 9100 012a 88        		.byte	0x88
 9101 012b 00        		.sleb128 0
 9102 012c 89        		.byte	0x89
 9103 012d 00        		.sleb128 0
 9104 012e 1A        		.byte	0x1a
 9105 012f 9F        		.byte	0x9f
 9106 0130 0000 0000 		.long	.LVL11
 9107 0134 0000 0000 		.long	.LFE10
 9108 0138 0100      		.word	0x1
 9109 013a 68        		.byte	0x68
 9110 013b 0000 0000 		.long	0
 9111 013f 0000 0000 		.long	0
 9112               	.LLST7:
 9113 0143 0000 0000 		.long	.LVL12
 9114 0147 0000 0000 		.long	.LVL14
 9115 014b 0100      		.word	0x1
 9116 014d 68        		.byte	0x68
 9117 014e 0000 0000 		.long	.LVL14
 9118 0152 0000 0000 		.long	.LFE11
 9119 0156 0400      		.word	0x4
 9120 0158 F3        		.byte	0xf3
 9121 0159 01        		.uleb128 0x1
 9122 015a 68        		.byte	0x68
 9123 015b 9F        		.byte	0x9f
 9124 015c 0000 0000 		.long	0
 9125 0160 0000 0000 		.long	0
 9126               	.LLST8:
 9127 0164 0000 0000 		.long	.LVL12
 9128 0168 0000 0000 		.long	.LVL13
 9129 016c 0100      		.word	0x1
 9130 016e 66        		.byte	0x66
 9131 016f 0000 0000 		.long	.LVL13
 9132 0173 0000 0000 		.long	.LFE11
 9133 0177 0400      		.word	0x4
 9134 0179 F3        		.byte	0xf3
 9135 017a 01        		.uleb128 0x1
 9136 017b 66        		.byte	0x66
 9137 017c 9F        		.byte	0x9f
 9138 017d 0000 0000 		.long	0
 9139 0181 0000 0000 		.long	0
 9140               	.LLST9:
 9141 0185 0000 0000 		.long	.LVL12
 9142 0189 0000 0000 		.long	.LVL13
 9143 018d 0600      		.word	0x6
 9144 018f 86        		.byte	0x86
 9145 0190 00        		.sleb128 0
 9146 0191 88        		.byte	0x88
 9147 0192 00        		.sleb128 0
 9148 0193 21        		.byte	0x21
 9149 0194 9F        		.byte	0x9f
 9150 0195 0000 0000 		.long	.LVL13
 9151 0199 0000 0000 		.long	.LVL15-1
 9152 019d 0100      		.word	0x1
 9153 019f 66        		.byte	0x66
 9154 01a0 0000 0000 		.long	.LVL15-1
GAS LISTING /tmp/ccPqDIXf.s 			page 185


 9155 01a4 0000 0000 		.long	.LFE11
 9156 01a8 0800      		.word	0x8
 9157 01aa F3        		.byte	0xf3
 9158 01ab 01        		.uleb128 0x1
 9159 01ac 66        		.byte	0x66
 9160 01ad F3        		.byte	0xf3
 9161 01ae 01        		.uleb128 0x1
 9162 01af 68        		.byte	0x68
 9163 01b0 21        		.byte	0x21
 9164 01b1 9F        		.byte	0x9f
 9165 01b2 0000 0000 		.long	0
 9166 01b6 0000 0000 		.long	0
 9167               	.LLST10:
 9168 01ba 0000 0000 		.long	.LFB12
 9169 01be 0000 0000 		.long	.LCFI5
 9170 01c2 0300      		.word	0x3
 9171 01c4 92        		.byte	0x92
 9172 01c5 20        		.uleb128 0x20
 9173 01c6 02        		.sleb128 2
 9174 01c7 0000 0000 		.long	.LCFI5
 9175 01cb 0000 0000 		.long	.LCFI6
 9176 01cf 0300      		.word	0x3
 9177 01d1 92        		.byte	0x92
 9178 01d2 20        		.uleb128 0x20
 9179 01d3 03        		.sleb128 3
 9180 01d4 0000 0000 		.long	.LCFI6
 9181 01d8 0000 0000 		.long	.LCFI7
 9182 01dc 0300      		.word	0x3
 9183 01de 92        		.byte	0x92
 9184 01df 20        		.uleb128 0x20
 9185 01e0 04        		.sleb128 4
 9186 01e1 0000 0000 		.long	.LCFI7
 9187 01e5 0000 0000 		.long	.LFE12
 9188 01e9 0300      		.word	0x3
 9189 01eb 92        		.byte	0x92
 9190 01ec 20        		.uleb128 0x20
 9191 01ed 05        		.sleb128 5
 9192 01ee 0000 0000 		.long	0
 9193 01f2 0000 0000 		.long	0
 9194               	.LLST11:
 9195 01f6 0000 0000 		.long	.LVL16
 9196 01fa 0000 0000 		.long	.LVL20
 9197 01fe 0100      		.word	0x1
 9198 0200 68        		.byte	0x68
 9199 0201 0000 0000 		.long	.LVL20
 9200 0205 0000 0000 		.long	.LVL24
 9201 0209 0100      		.word	0x1
 9202 020b 61        		.byte	0x61
 9203 020c 0000 0000 		.long	.LVL24
 9204 0210 0000 0000 		.long	.LFE12
 9205 0214 0400      		.word	0x4
 9206 0216 F3        		.byte	0xf3
 9207 0217 01        		.uleb128 0x1
 9208 0218 68        		.byte	0x68
 9209 0219 9F        		.byte	0x9f
 9210 021a 0000 0000 		.long	0
 9211 021e 0000 0000 		.long	0
GAS LISTING /tmp/ccPqDIXf.s 			page 186


 9212               	.LLST12:
 9213 0222 0000 0000 		.long	.LVL17
 9214 0226 0000 0000 		.long	.LVL18
 9215 022a 0900      		.word	0x9
 9216 022c 86        		.byte	0x86
 9217 022d 00        		.sleb128 0
 9218 022e 09        		.byte	0x9
 9219 022f F8        		.byte	0xf8
 9220 0230 1A        		.byte	0x1a
 9221 0231 88        		.byte	0x88
 9222 0232 00        		.sleb128 0
 9223 0233 21        		.byte	0x21
 9224 0234 9F        		.byte	0x9f
 9225 0235 0000 0000 		.long	.LVL19
 9226 0239 0000 0000 		.long	.LVL21-1
 9227 023d 0100      		.word	0x1
 9228 023f 66        		.byte	0x66
 9229 0240 0000 0000 		.long	.LVL22
 9230 0244 0000 0000 		.long	.LVL23
 9231 0248 0600      		.word	0x6
 9232 024a 81        		.byte	0x81
 9233 024b 00        		.sleb128 0
 9234 024c 88        		.byte	0x88
 9235 024d 00        		.sleb128 0
 9236 024e 1A        		.byte	0x1a
 9237 024f 9F        		.byte	0x9f
 9238 0250 0000 0000 		.long	.LVL23
 9239 0254 0000 0000 		.long	.LFE12
 9240 0258 0100      		.word	0x1
 9241 025a 68        		.byte	0x68
 9242 025b 0000 0000 		.long	0
 9243 025f 0000 0000 		.long	0
 9244               	.LLST13:
 9245 0263 0000 0000 		.long	.LVL26
 9246 0267 0000 0000 		.long	.LVL27
 9247 026b 0100      		.word	0x1
 9248 026d 68        		.byte	0x68
 9249 026e 0000 0000 		.long	.LVL27
 9250 0272 0000 0000 		.long	.LVL28
 9251 0276 0400      		.word	0x4
 9252 0278 F3        		.byte	0xf3
 9253 0279 01        		.uleb128 0x1
 9254 027a 68        		.byte	0x68
 9255 027b 9F        		.byte	0x9f
 9256 027c 0000 0000 		.long	.LVL28
 9257 0280 0000 0000 		.long	.LVL29
 9258 0284 0100      		.word	0x1
 9259 0286 68        		.byte	0x68
 9260 0287 0000 0000 		.long	.LVL29
 9261 028b 0000 0000 		.long	.LFE14
 9262 028f 0400      		.word	0x4
 9263 0291 F3        		.byte	0xf3
 9264 0292 01        		.uleb128 0x1
 9265 0293 68        		.byte	0x68
 9266 0294 9F        		.byte	0x9f
 9267 0295 0000 0000 		.long	0
 9268 0299 0000 0000 		.long	0
GAS LISTING /tmp/ccPqDIXf.s 			page 187


 9269               	.LLST14:
 9270 029d 0000 0000 		.long	.LFB17
 9271 02a1 0000 0000 		.long	.LCFI8
 9272 02a5 0300      		.word	0x3
 9273 02a7 92        		.byte	0x92
 9274 02a8 20        		.uleb128 0x20
 9275 02a9 02        		.sleb128 2
 9276 02aa 0000 0000 		.long	.LCFI8
 9277 02ae 0000 0000 		.long	.LCFI9
 9278 02b2 0300      		.word	0x3
 9279 02b4 92        		.byte	0x92
 9280 02b5 20        		.uleb128 0x20
 9281 02b6 03        		.sleb128 3
 9282 02b7 0000 0000 		.long	.LCFI9
 9283 02bb 0000 0000 		.long	.LCFI10
 9284 02bf 0300      		.word	0x3
 9285 02c1 92        		.byte	0x92
 9286 02c2 20        		.uleb128 0x20
 9287 02c3 04        		.sleb128 4
 9288 02c4 0000 0000 		.long	.LCFI10
 9289 02c8 0000 0000 		.long	.LCFI11
 9290 02cc 0300      		.word	0x3
 9291 02ce 92        		.byte	0x92
 9292 02cf 20        		.uleb128 0x20
 9293 02d0 05        		.sleb128 5
 9294 02d1 0000 0000 		.long	.LCFI11
 9295 02d5 0000 0000 		.long	.LCFI12
 9296 02d9 0300      		.word	0x3
 9297 02db 92        		.byte	0x92
 9298 02dc 20        		.uleb128 0x20
 9299 02dd 06        		.sleb128 6
 9300 02de 0000 0000 		.long	.LCFI12
 9301 02e2 0000 0000 		.long	.LCFI13
 9302 02e6 0300      		.word	0x3
 9303 02e8 92        		.byte	0x92
 9304 02e9 20        		.uleb128 0x20
 9305 02ea 07        		.sleb128 7
 9306 02eb 0000 0000 		.long	.LCFI13
 9307 02ef 0000 0000 		.long	.LFE17
 9308 02f3 0300      		.word	0x3
 9309 02f5 92        		.byte	0x92
 9310 02f6 20        		.uleb128 0x20
 9311 02f7 08        		.sleb128 8
 9312 02f8 0000 0000 		.long	0
 9313 02fc 0000 0000 		.long	0
 9314               	.LLST15:
 9315 0300 0000 0000 		.long	.LVL32
 9316 0304 0000 0000 		.long	.LVL33
 9317 0308 0600      		.word	0x6
 9318 030a 68        		.byte	0x68
 9319 030b 93        		.byte	0x93
 9320 030c 01        		.uleb128 0x1
 9321 030d 69        		.byte	0x69
 9322 030e 93        		.byte	0x93
 9323 030f 01        		.uleb128 0x1
 9324 0310 0000 0000 		.long	0
 9325 0314 0000 0000 		.long	0
GAS LISTING /tmp/ccPqDIXf.s 			page 188


 9326               	.LLST16:
 9327 0318 0000 0000 		.long	.LVL33
 9328 031c 0000 0000 		.long	.LVL34
 9329 0320 0600      		.word	0x6
 9330 0322 9E        		.byte	0x9e
 9331 0323 04        		.uleb128 0x4
 9332 0324 0000 7A44 		.long	0x447a0000
 9333 0328 0000 0000 		.long	0
 9334 032c 0000 0000 		.long	0
 9335               	.LLST17:
 9336 0330 0000 0000 		.long	.LVL33
 9337 0334 0000 0000 		.long	.LVL34
 9338 0338 0600      		.word	0x6
 9339 033a 9E        		.byte	0x9e
 9340 033b 04        		.uleb128 0x4
 9341 033c 0000 FA46 		.long	0x46fa0000
 9342 0340 0000 0000 		.long	0
 9343 0344 0000 0000 		.long	0
 9344               	.LLST18:
 9345 0348 0000 0000 		.long	.LVL33
 9346 034c 0000 0000 		.long	.LVL34
 9347 0350 0400      		.word	0x4
 9348 0352 0A        		.byte	0xa
 9349 0353 007D      		.word	0x7d00
 9350 0355 9F        		.byte	0x9f
 9351 0356 0000 0000 		.long	0
 9352 035a 0000 0000 		.long	0
 9353               	.LLST19:
 9354 035e 0000 0000 		.long	.LVL35
 9355 0362 0000 0000 		.long	.LVL36
 9356 0366 0600      		.word	0x6
 9357 0368 68        		.byte	0x68
 9358 0369 93        		.byte	0x93
 9359 036a 01        		.uleb128 0x1
 9360 036b 69        		.byte	0x69
 9361 036c 93        		.byte	0x93
 9362 036d 01        		.uleb128 0x1
 9363 036e 0000 0000 		.long	.LVL36
 9364 0372 0000 0000 		.long	.LFE19
 9365 0376 0600      		.word	0x6
 9366 0378 6E        		.byte	0x6e
 9367 0379 93        		.byte	0x93
 9368 037a 01        		.uleb128 0x1
 9369 037b 6F        		.byte	0x6f
 9370 037c 93        		.byte	0x93
 9371 037d 01        		.uleb128 0x1
 9372 037e 0000 0000 		.long	0
 9373 0382 0000 0000 		.long	0
 9374               	.LLST20:
 9375 0386 0000 0000 		.long	.LVL37
 9376 038a 0000 0000 		.long	.LVL38
 9377 038e 0600      		.word	0x6
 9378 0390 68        		.byte	0x68
 9379 0391 93        		.byte	0x93
 9380 0392 01        		.uleb128 0x1
 9381 0393 69        		.byte	0x69
 9382 0394 93        		.byte	0x93
GAS LISTING /tmp/ccPqDIXf.s 			page 189


 9383 0395 01        		.uleb128 0x1
 9384 0396 0000 0000 		.long	.LVL38
 9385 039a 0000 0000 		.long	.LFE20
 9386 039e 0400      		.word	0x4
 9387 03a0 F3        		.byte	0xf3
 9388 03a1 01        		.uleb128 0x1
 9389 03a2 68        		.byte	0x68
 9390 03a3 9F        		.byte	0x9f
 9391 03a4 0000 0000 		.long	0
 9392 03a8 0000 0000 		.long	0
 9393               	.LLST21:
 9394 03ac 0000 0000 		.long	.LFB22
 9395 03b0 0000 0000 		.long	.LCFI14
 9396 03b4 0300      		.word	0x3
 9397 03b6 92        		.byte	0x92
 9398 03b7 20        		.uleb128 0x20
 9399 03b8 02        		.sleb128 2
 9400 03b9 0000 0000 		.long	.LCFI14
 9401 03bd 0000 0000 		.long	.LCFI15
 9402 03c1 0300      		.word	0x3
 9403 03c3 92        		.byte	0x92
 9404 03c4 20        		.uleb128 0x20
 9405 03c5 03        		.sleb128 3
 9406 03c6 0000 0000 		.long	.LCFI15
 9407 03ca 0000 0000 		.long	.LFE22
 9408 03ce 0300      		.word	0x3
 9409 03d0 92        		.byte	0x92
 9410 03d1 20        		.uleb128 0x20
 9411 03d2 04        		.sleb128 4
 9412 03d3 0000 0000 		.long	0
 9413 03d7 0000 0000 		.long	0
 9414               	.LLST22:
 9415 03db 0000 0000 		.long	.LFB23
 9416 03df 0000 0000 		.long	.LCFI16
 9417 03e3 0300      		.word	0x3
 9418 03e5 92        		.byte	0x92
 9419 03e6 20        		.uleb128 0x20
 9420 03e7 02        		.sleb128 2
 9421 03e8 0000 0000 		.long	.LCFI16
 9422 03ec 0000 0000 		.long	.LCFI17
 9423 03f0 0300      		.word	0x3
 9424 03f2 92        		.byte	0x92
 9425 03f3 20        		.uleb128 0x20
 9426 03f4 03        		.sleb128 3
 9427 03f5 0000 0000 		.long	.LCFI17
 9428 03f9 0000 0000 		.long	.LCFI18
 9429 03fd 0300      		.word	0x3
 9430 03ff 92        		.byte	0x92
 9431 0400 20        		.uleb128 0x20
 9432 0401 04        		.sleb128 4
 9433 0402 0000 0000 		.long	.LCFI18
 9434 0406 0000 0000 		.long	.LCFI19
 9435 040a 0300      		.word	0x3
 9436 040c 92        		.byte	0x92
 9437 040d 20        		.uleb128 0x20
 9438 040e 05        		.sleb128 5
 9439 040f 0000 0000 		.long	.LCFI19
GAS LISTING /tmp/ccPqDIXf.s 			page 190


 9440 0413 0000 0000 		.long	.LCFI20
 9441 0417 0300      		.word	0x3
 9442 0419 92        		.byte	0x92
 9443 041a 20        		.uleb128 0x20
 9444 041b 06        		.sleb128 6
 9445 041c 0000 0000 		.long	.LCFI20
 9446 0420 0000 0000 		.long	.LFE23
 9447 0424 0300      		.word	0x3
 9448 0426 92        		.byte	0x92
 9449 0427 20        		.uleb128 0x20
 9450 0428 07        		.sleb128 7
 9451 0429 0000 0000 		.long	0
 9452 042d 0000 0000 		.long	0
 9453               	.LLST23:
 9454 0431 0000 0000 		.long	.LVL39
 9455 0435 0000 0000 		.long	.LVL40-1
 9456 0439 0600      		.word	0x6
 9457 043b 68        		.byte	0x68
 9458 043c 93        		.byte	0x93
 9459 043d 01        		.uleb128 0x1
 9460 043e 69        		.byte	0x69
 9461 043f 93        		.byte	0x93
 9462 0440 01        		.uleb128 0x1
 9463 0441 0000 0000 		.long	.LVL40-1
 9464 0445 0000 0000 		.long	.LVL41
 9465 0449 0600      		.word	0x6
 9466 044b 60        		.byte	0x60
 9467 044c 93        		.byte	0x93
 9468 044d 01        		.uleb128 0x1
 9469 044e 61        		.byte	0x61
 9470 044f 93        		.byte	0x93
 9471 0450 01        		.uleb128 0x1
 9472 0451 0000 0000 		.long	.LVL41
 9473 0455 0000 0000 		.long	.LVL42-1
 9474 0459 0600      		.word	0x6
 9475 045b 68        		.byte	0x68
 9476 045c 93        		.byte	0x93
 9477 045d 01        		.uleb128 0x1
 9478 045e 69        		.byte	0x69
 9479 045f 93        		.byte	0x93
 9480 0460 01        		.uleb128 0x1
 9481 0461 0000 0000 		.long	.LVL42-1
 9482 0465 0000 0000 		.long	.LFE23
 9483 0469 0400      		.word	0x4
 9484 046b F3        		.byte	0xf3
 9485 046c 01        		.uleb128 0x1
 9486 046d 68        		.byte	0x68
 9487 046e 9F        		.byte	0x9f
 9488 046f 0000 0000 		.long	0
 9489 0473 0000 0000 		.long	0
 9490               	.LLST24:
 9491 0477 0000 0000 		.long	.LVL43
 9492 047b 0000 0000 		.long	.LVL44
 9493 047f 0100      		.word	0x1
 9494 0481 68        		.byte	0x68
 9495 0482 0000 0000 		.long	.LVL44
 9496 0486 0000 0000 		.long	.LVL45
GAS LISTING /tmp/ccPqDIXf.s 			page 191


 9497 048a 0400      		.word	0x4
 9498 048c F3        		.byte	0xf3
 9499 048d 01        		.uleb128 0x1
 9500 048e 68        		.byte	0x68
 9501 048f 9F        		.byte	0x9f
 9502 0490 0000 0000 		.long	.LVL45
 9503 0494 0000 0000 		.long	.LVL46
 9504 0498 0100      		.word	0x1
 9505 049a 68        		.byte	0x68
 9506 049b 0000 0000 		.long	.LVL46
 9507 049f 0000 0000 		.long	.LVL47
 9508 04a3 0400      		.word	0x4
 9509 04a5 F3        		.byte	0xf3
 9510 04a6 01        		.uleb128 0x1
 9511 04a7 68        		.byte	0x68
 9512 04a8 9F        		.byte	0x9f
 9513 04a9 0000 0000 		.long	.LVL47
 9514 04ad 0000 0000 		.long	.LVL48
 9515 04b1 0100      		.word	0x1
 9516 04b3 68        		.byte	0x68
 9517 04b4 0000 0000 		.long	.LVL48
 9518 04b8 0000 0000 		.long	.LVL49
 9519 04bc 0400      		.word	0x4
 9520 04be F3        		.byte	0xf3
 9521 04bf 01        		.uleb128 0x1
 9522 04c0 68        		.byte	0x68
 9523 04c1 9F        		.byte	0x9f
 9524 04c2 0000 0000 		.long	.LVL49
 9525 04c6 0000 0000 		.long	.LVL50
 9526 04ca 0100      		.word	0x1
 9527 04cc 68        		.byte	0x68
 9528 04cd 0000 0000 		.long	.LVL50
 9529 04d1 0000 0000 		.long	.LVL51
 9530 04d5 0400      		.word	0x4
 9531 04d7 F3        		.byte	0xf3
 9532 04d8 01        		.uleb128 0x1
 9533 04d9 68        		.byte	0x68
 9534 04da 9F        		.byte	0x9f
 9535 04db 0000 0000 		.long	.LVL51
 9536 04df 0000 0000 		.long	.LVL52
 9537 04e3 0100      		.word	0x1
 9538 04e5 68        		.byte	0x68
 9539 04e6 0000 0000 		.long	.LVL52
 9540 04ea 0000 0000 		.long	.LVL53
 9541 04ee 0400      		.word	0x4
 9542 04f0 F3        		.byte	0xf3
 9543 04f1 01        		.uleb128 0x1
 9544 04f2 68        		.byte	0x68
 9545 04f3 9F        		.byte	0x9f
 9546 04f4 0000 0000 		.long	.LVL53
 9547 04f8 0000 0000 		.long	.LVL54
 9548 04fc 0100      		.word	0x1
 9549 04fe 68        		.byte	0x68
 9550 04ff 0000 0000 		.long	.LVL54
 9551 0503 0000 0000 		.long	.LVL55
 9552 0507 0400      		.word	0x4
 9553 0509 F3        		.byte	0xf3
GAS LISTING /tmp/ccPqDIXf.s 			page 192


 9554 050a 01        		.uleb128 0x1
 9555 050b 68        		.byte	0x68
 9556 050c 9F        		.byte	0x9f
 9557 050d 0000 0000 		.long	.LVL55
 9558 0511 0000 0000 		.long	.LVL56
 9559 0515 0100      		.word	0x1
 9560 0517 68        		.byte	0x68
 9561 0518 0000 0000 		.long	.LVL56
 9562 051c 0000 0000 		.long	.LVL57
 9563 0520 0400      		.word	0x4
 9564 0522 F3        		.byte	0xf3
 9565 0523 01        		.uleb128 0x1
 9566 0524 68        		.byte	0x68
 9567 0525 9F        		.byte	0x9f
 9568 0526 0000 0000 		.long	.LVL57
 9569 052a 0000 0000 		.long	.LVL58
 9570 052e 0100      		.word	0x1
 9571 0530 68        		.byte	0x68
 9572 0531 0000 0000 		.long	.LVL58
 9573 0535 0000 0000 		.long	.LVL59
 9574 0539 0400      		.word	0x4
 9575 053b F3        		.byte	0xf3
 9576 053c 01        		.uleb128 0x1
 9577 053d 68        		.byte	0x68
 9578 053e 9F        		.byte	0x9f
 9579 053f 0000 0000 		.long	.LVL59
 9580 0543 0000 0000 		.long	.LVL60
 9581 0547 0100      		.word	0x1
 9582 0549 68        		.byte	0x68
 9583 054a 0000 0000 		.long	.LVL60
 9584 054e 0000 0000 		.long	.LVL61
 9585 0552 0400      		.word	0x4
 9586 0554 F3        		.byte	0xf3
 9587 0555 01        		.uleb128 0x1
 9588 0556 68        		.byte	0x68
 9589 0557 9F        		.byte	0x9f
 9590 0558 0000 0000 		.long	.LVL61
 9591 055c 0000 0000 		.long	.LVL62
 9592 0560 0100      		.word	0x1
 9593 0562 68        		.byte	0x68
 9594 0563 0000 0000 		.long	.LVL62
 9595 0567 0000 0000 		.long	.LVL63
 9596 056b 0400      		.word	0x4
 9597 056d F3        		.byte	0xf3
 9598 056e 01        		.uleb128 0x1
 9599 056f 68        		.byte	0x68
 9600 0570 9F        		.byte	0x9f
 9601 0571 0000 0000 		.long	.LVL63
 9602 0575 0000 0000 		.long	.LVL64
 9603 0579 0100      		.word	0x1
 9604 057b 68        		.byte	0x68
 9605 057c 0000 0000 		.long	.LVL64
 9606 0580 0000 0000 		.long	.LVL65
 9607 0584 0400      		.word	0x4
 9608 0586 F3        		.byte	0xf3
 9609 0587 01        		.uleb128 0x1
 9610 0588 68        		.byte	0x68
GAS LISTING /tmp/ccPqDIXf.s 			page 193


 9611 0589 9F        		.byte	0x9f
 9612 058a 0000 0000 		.long	.LVL65
 9613 058e 0000 0000 		.long	.LVL66
 9614 0592 0100      		.word	0x1
 9615 0594 68        		.byte	0x68
 9616 0595 0000 0000 		.long	.LVL66
 9617 0599 0000 0000 		.long	.LVL67
 9618 059d 0400      		.word	0x4
 9619 059f F3        		.byte	0xf3
 9620 05a0 01        		.uleb128 0x1
 9621 05a1 68        		.byte	0x68
 9622 05a2 9F        		.byte	0x9f
 9623 05a3 0000 0000 		.long	.LVL67
 9624 05a7 0000 0000 		.long	.LVL68
 9625 05ab 0100      		.word	0x1
 9626 05ad 68        		.byte	0x68
 9627 05ae 0000 0000 		.long	.LVL68
 9628 05b2 0000 0000 		.long	.LVL69
 9629 05b6 0400      		.word	0x4
 9630 05b8 F3        		.byte	0xf3
 9631 05b9 01        		.uleb128 0x1
 9632 05ba 68        		.byte	0x68
 9633 05bb 9F        		.byte	0x9f
 9634 05bc 0000 0000 		.long	.LVL69
 9635 05c0 0000 0000 		.long	.LVL70
 9636 05c4 0100      		.word	0x1
 9637 05c6 68        		.byte	0x68
 9638 05c7 0000 0000 		.long	.LVL70
 9639 05cb 0000 0000 		.long	.LVL71
 9640 05cf 0400      		.word	0x4
 9641 05d1 F3        		.byte	0xf3
 9642 05d2 01        		.uleb128 0x1
 9643 05d3 68        		.byte	0x68
 9644 05d4 9F        		.byte	0x9f
 9645 05d5 0000 0000 		.long	.LVL71
 9646 05d9 0000 0000 		.long	.LVL72
 9647 05dd 0100      		.word	0x1
 9648 05df 68        		.byte	0x68
 9649 05e0 0000 0000 		.long	.LVL72
 9650 05e4 0000 0000 		.long	.LVL73
 9651 05e8 0400      		.word	0x4
 9652 05ea F3        		.byte	0xf3
 9653 05eb 01        		.uleb128 0x1
 9654 05ec 68        		.byte	0x68
 9655 05ed 9F        		.byte	0x9f
 9656 05ee 0000 0000 		.long	.LVL73
 9657 05f2 0000 0000 		.long	.LVL74
 9658 05f6 0100      		.word	0x1
 9659 05f8 68        		.byte	0x68
 9660 05f9 0000 0000 		.long	.LVL74
 9661 05fd 0000 0000 		.long	.LVL75
 9662 0601 0400      		.word	0x4
 9663 0603 F3        		.byte	0xf3
 9664 0604 01        		.uleb128 0x1
 9665 0605 68        		.byte	0x68
 9666 0606 9F        		.byte	0x9f
 9667 0607 0000 0000 		.long	.LVL75
GAS LISTING /tmp/ccPqDIXf.s 			page 194


 9668 060b 0000 0000 		.long	.LVL76
 9669 060f 0100      		.word	0x1
 9670 0611 68        		.byte	0x68
 9671 0612 0000 0000 		.long	.LVL76
 9672 0616 0000 0000 		.long	.LVL77
 9673 061a 0400      		.word	0x4
 9674 061c F3        		.byte	0xf3
 9675 061d 01        		.uleb128 0x1
 9676 061e 68        		.byte	0x68
 9677 061f 9F        		.byte	0x9f
 9678 0620 0000 0000 		.long	.LVL77
 9679 0624 0000 0000 		.long	.LVL78
 9680 0628 0100      		.word	0x1
 9681 062a 68        		.byte	0x68
 9682 062b 0000 0000 		.long	.LVL78
 9683 062f 0000 0000 		.long	.LVL79
 9684 0633 0400      		.word	0x4
 9685 0635 F3        		.byte	0xf3
 9686 0636 01        		.uleb128 0x1
 9687 0637 68        		.byte	0x68
 9688 0638 9F        		.byte	0x9f
 9689 0639 0000 0000 		.long	.LVL79
 9690 063d 0000 0000 		.long	.LVL80
 9691 0641 0100      		.word	0x1
 9692 0643 68        		.byte	0x68
 9693 0644 0000 0000 		.long	.LVL80
 9694 0648 0000 0000 		.long	.LVL81
 9695 064c 0400      		.word	0x4
 9696 064e F3        		.byte	0xf3
 9697 064f 01        		.uleb128 0x1
 9698 0650 68        		.byte	0x68
 9699 0651 9F        		.byte	0x9f
 9700 0652 0000 0000 		.long	.LVL81
 9701 0656 0000 0000 		.long	.LVL82
 9702 065a 0100      		.word	0x1
 9703 065c 68        		.byte	0x68
 9704 065d 0000 0000 		.long	.LVL82
 9705 0661 0000 0000 		.long	.LVL83
 9706 0665 0400      		.word	0x4
 9707 0667 F3        		.byte	0xf3
 9708 0668 01        		.uleb128 0x1
 9709 0669 68        		.byte	0x68
 9710 066a 9F        		.byte	0x9f
 9711 066b 0000 0000 		.long	.LVL83
 9712 066f 0000 0000 		.long	.LVL84
 9713 0673 0100      		.word	0x1
 9714 0675 68        		.byte	0x68
 9715 0676 0000 0000 		.long	.LVL84
 9716 067a 0000 0000 		.long	.LVL85
 9717 067e 0400      		.word	0x4
 9718 0680 F3        		.byte	0xf3
 9719 0681 01        		.uleb128 0x1
 9720 0682 68        		.byte	0x68
 9721 0683 9F        		.byte	0x9f
 9722 0684 0000 0000 		.long	.LVL85
 9723 0688 0000 0000 		.long	.LVL86
 9724 068c 0100      		.word	0x1
GAS LISTING /tmp/ccPqDIXf.s 			page 195


 9725 068e 68        		.byte	0x68
 9726 068f 0000 0000 		.long	.LVL86
 9727 0693 0000 0000 		.long	.LVL87
 9728 0697 0400      		.word	0x4
 9729 0699 F3        		.byte	0xf3
 9730 069a 01        		.uleb128 0x1
 9731 069b 68        		.byte	0x68
 9732 069c 9F        		.byte	0x9f
 9733 069d 0000 0000 		.long	.LVL87
 9734 06a1 0000 0000 		.long	.LVL88
 9735 06a5 0100      		.word	0x1
 9736 06a7 68        		.byte	0x68
 9737 06a8 0000 0000 		.long	.LVL88
 9738 06ac 0000 0000 		.long	.LVL89
 9739 06b0 0400      		.word	0x4
 9740 06b2 F3        		.byte	0xf3
 9741 06b3 01        		.uleb128 0x1
 9742 06b4 68        		.byte	0x68
 9743 06b5 9F        		.byte	0x9f
 9744 06b6 0000 0000 		.long	.LVL89
 9745 06ba 0000 0000 		.long	.LVL90
 9746 06be 0100      		.word	0x1
 9747 06c0 68        		.byte	0x68
 9748 06c1 0000 0000 		.long	.LVL90
 9749 06c5 0000 0000 		.long	.LFE24
 9750 06c9 0400      		.word	0x4
 9751 06cb F3        		.byte	0xf3
 9752 06cc 01        		.uleb128 0x1
 9753 06cd 68        		.byte	0x68
 9754 06ce 9F        		.byte	0x9f
 9755 06cf 0000 0000 		.long	0
 9756 06d3 0000 0000 		.long	0
 9757               	.LLST25:
 9758 06d7 0000 0000 		.long	.LVL91
 9759 06db 0000 0000 		.long	.LVL92
 9760 06df 0100      		.word	0x1
 9761 06e1 68        		.byte	0x68
 9762 06e2 0000 0000 		.long	.LVL92
 9763 06e6 0000 0000 		.long	.LVL93
 9764 06ea 0400      		.word	0x4
 9765 06ec F3        		.byte	0xf3
 9766 06ed 01        		.uleb128 0x1
 9767 06ee 68        		.byte	0x68
 9768 06ef 9F        		.byte	0x9f
 9769 06f0 0000 0000 		.long	.LVL93
 9770 06f4 0000 0000 		.long	.LVL94
 9771 06f8 0100      		.word	0x1
 9772 06fa 68        		.byte	0x68
 9773 06fb 0000 0000 		.long	.LVL94
 9774 06ff 0000 0000 		.long	.LVL95
 9775 0703 0400      		.word	0x4
 9776 0705 F3        		.byte	0xf3
 9777 0706 01        		.uleb128 0x1
 9778 0707 68        		.byte	0x68
 9779 0708 9F        		.byte	0x9f
 9780 0709 0000 0000 		.long	.LVL95
 9781 070d 0000 0000 		.long	.LVL96
GAS LISTING /tmp/ccPqDIXf.s 			page 196


 9782 0711 0100      		.word	0x1
 9783 0713 68        		.byte	0x68
 9784 0714 0000 0000 		.long	.LVL96
 9785 0718 0000 0000 		.long	.LVL97
 9786 071c 0400      		.word	0x4
 9787 071e F3        		.byte	0xf3
 9788 071f 01        		.uleb128 0x1
 9789 0720 68        		.byte	0x68
 9790 0721 9F        		.byte	0x9f
 9791 0722 0000 0000 		.long	.LVL97
 9792 0726 0000 0000 		.long	.LVL98
 9793 072a 0100      		.word	0x1
 9794 072c 68        		.byte	0x68
 9795 072d 0000 0000 		.long	.LVL98
 9796 0731 0000 0000 		.long	.LVL99
 9797 0735 0400      		.word	0x4
 9798 0737 F3        		.byte	0xf3
 9799 0738 01        		.uleb128 0x1
 9800 0739 68        		.byte	0x68
 9801 073a 9F        		.byte	0x9f
 9802 073b 0000 0000 		.long	.LVL99
 9803 073f 0000 0000 		.long	.LVL100
 9804 0743 0100      		.word	0x1
 9805 0745 68        		.byte	0x68
 9806 0746 0000 0000 		.long	.LVL100
 9807 074a 0000 0000 		.long	.LVL101
 9808 074e 0400      		.word	0x4
 9809 0750 F3        		.byte	0xf3
 9810 0751 01        		.uleb128 0x1
 9811 0752 68        		.byte	0x68
 9812 0753 9F        		.byte	0x9f
 9813 0754 0000 0000 		.long	.LVL101
 9814 0758 0000 0000 		.long	.LVL102
 9815 075c 0100      		.word	0x1
 9816 075e 68        		.byte	0x68
 9817 075f 0000 0000 		.long	.LVL102
 9818 0763 0000 0000 		.long	.LVL103
 9819 0767 0400      		.word	0x4
 9820 0769 F3        		.byte	0xf3
 9821 076a 01        		.uleb128 0x1
 9822 076b 68        		.byte	0x68
 9823 076c 9F        		.byte	0x9f
 9824 076d 0000 0000 		.long	.LVL103
 9825 0771 0000 0000 		.long	.LVL104
 9826 0775 0100      		.word	0x1
 9827 0777 68        		.byte	0x68
 9828 0778 0000 0000 		.long	.LVL104
 9829 077c 0000 0000 		.long	.LVL105
 9830 0780 0400      		.word	0x4
 9831 0782 F3        		.byte	0xf3
 9832 0783 01        		.uleb128 0x1
 9833 0784 68        		.byte	0x68
 9834 0785 9F        		.byte	0x9f
 9835 0786 0000 0000 		.long	.LVL105
 9836 078a 0000 0000 		.long	.LVL106
 9837 078e 0100      		.word	0x1
 9838 0790 68        		.byte	0x68
GAS LISTING /tmp/ccPqDIXf.s 			page 197


 9839 0791 0000 0000 		.long	.LVL106
 9840 0795 0000 0000 		.long	.LVL107
 9841 0799 0400      		.word	0x4
 9842 079b F3        		.byte	0xf3
 9843 079c 01        		.uleb128 0x1
 9844 079d 68        		.byte	0x68
 9845 079e 9F        		.byte	0x9f
 9846 079f 0000 0000 		.long	.LVL107
 9847 07a3 0000 0000 		.long	.LVL108
 9848 07a7 0100      		.word	0x1
 9849 07a9 68        		.byte	0x68
 9850 07aa 0000 0000 		.long	.LVL108
 9851 07ae 0000 0000 		.long	.LVL109
 9852 07b2 0400      		.word	0x4
 9853 07b4 F3        		.byte	0xf3
 9854 07b5 01        		.uleb128 0x1
 9855 07b6 68        		.byte	0x68
 9856 07b7 9F        		.byte	0x9f
 9857 07b8 0000 0000 		.long	.LVL109
 9858 07bc 0000 0000 		.long	.LVL110
 9859 07c0 0100      		.word	0x1
 9860 07c2 68        		.byte	0x68
 9861 07c3 0000 0000 		.long	.LVL110
 9862 07c7 0000 0000 		.long	.LVL111
 9863 07cb 0400      		.word	0x4
 9864 07cd F3        		.byte	0xf3
 9865 07ce 01        		.uleb128 0x1
 9866 07cf 68        		.byte	0x68
 9867 07d0 9F        		.byte	0x9f
 9868 07d1 0000 0000 		.long	.LVL111
 9869 07d5 0000 0000 		.long	.LVL112
 9870 07d9 0100      		.word	0x1
 9871 07db 68        		.byte	0x68
 9872 07dc 0000 0000 		.long	.LVL112
 9873 07e0 0000 0000 		.long	.LVL113
 9874 07e4 0400      		.word	0x4
 9875 07e6 F3        		.byte	0xf3
 9876 07e7 01        		.uleb128 0x1
 9877 07e8 68        		.byte	0x68
 9878 07e9 9F        		.byte	0x9f
 9879 07ea 0000 0000 		.long	.LVL113
 9880 07ee 0000 0000 		.long	.LVL114
 9881 07f2 0100      		.word	0x1
 9882 07f4 68        		.byte	0x68
 9883 07f5 0000 0000 		.long	.LVL114
 9884 07f9 0000 0000 		.long	.LVL115
 9885 07fd 0400      		.word	0x4
 9886 07ff F3        		.byte	0xf3
 9887 0800 01        		.uleb128 0x1
 9888 0801 68        		.byte	0x68
 9889 0802 9F        		.byte	0x9f
 9890 0803 0000 0000 		.long	.LVL115
 9891 0807 0000 0000 		.long	.LVL116
 9892 080b 0100      		.word	0x1
 9893 080d 68        		.byte	0x68
 9894 080e 0000 0000 		.long	.LVL116
 9895 0812 0000 0000 		.long	.LVL117
GAS LISTING /tmp/ccPqDIXf.s 			page 198


 9896 0816 0400      		.word	0x4
 9897 0818 F3        		.byte	0xf3
 9898 0819 01        		.uleb128 0x1
 9899 081a 68        		.byte	0x68
 9900 081b 9F        		.byte	0x9f
 9901 081c 0000 0000 		.long	.LVL117
 9902 0820 0000 0000 		.long	.LVL118
 9903 0824 0100      		.word	0x1
 9904 0826 68        		.byte	0x68
 9905 0827 0000 0000 		.long	.LVL118
 9906 082b 0000 0000 		.long	.LVL119
 9907 082f 0400      		.word	0x4
 9908 0831 F3        		.byte	0xf3
 9909 0832 01        		.uleb128 0x1
 9910 0833 68        		.byte	0x68
 9911 0834 9F        		.byte	0x9f
 9912 0835 0000 0000 		.long	.LVL119
 9913 0839 0000 0000 		.long	.LVL120
 9914 083d 0100      		.word	0x1
 9915 083f 68        		.byte	0x68
 9916 0840 0000 0000 		.long	.LVL120
 9917 0844 0000 0000 		.long	.LVL121
 9918 0848 0400      		.word	0x4
 9919 084a F3        		.byte	0xf3
 9920 084b 01        		.uleb128 0x1
 9921 084c 68        		.byte	0x68
 9922 084d 9F        		.byte	0x9f
 9923 084e 0000 0000 		.long	.LVL121
 9924 0852 0000 0000 		.long	.LVL122
 9925 0856 0100      		.word	0x1
 9926 0858 68        		.byte	0x68
 9927 0859 0000 0000 		.long	.LVL122
 9928 085d 0000 0000 		.long	.LVL123
 9929 0861 0400      		.word	0x4
 9930 0863 F3        		.byte	0xf3
 9931 0864 01        		.uleb128 0x1
 9932 0865 68        		.byte	0x68
 9933 0866 9F        		.byte	0x9f
 9934 0867 0000 0000 		.long	.LVL123
 9935 086b 0000 0000 		.long	.LVL124
 9936 086f 0100      		.word	0x1
 9937 0871 68        		.byte	0x68
 9938 0872 0000 0000 		.long	.LVL124
 9939 0876 0000 0000 		.long	.LVL125
 9940 087a 0400      		.word	0x4
 9941 087c F3        		.byte	0xf3
 9942 087d 01        		.uleb128 0x1
 9943 087e 68        		.byte	0x68
 9944 087f 9F        		.byte	0x9f
 9945 0880 0000 0000 		.long	.LVL125
 9946 0884 0000 0000 		.long	.LVL126
 9947 0888 0100      		.word	0x1
 9948 088a 68        		.byte	0x68
 9949 088b 0000 0000 		.long	.LVL126
 9950 088f 0000 0000 		.long	.LVL127
 9951 0893 0400      		.word	0x4
 9952 0895 F3        		.byte	0xf3
GAS LISTING /tmp/ccPqDIXf.s 			page 199


 9953 0896 01        		.uleb128 0x1
 9954 0897 68        		.byte	0x68
 9955 0898 9F        		.byte	0x9f
 9956 0899 0000 0000 		.long	.LVL127
 9957 089d 0000 0000 		.long	.LVL128
 9958 08a1 0100      		.word	0x1
 9959 08a3 68        		.byte	0x68
 9960 08a4 0000 0000 		.long	.LVL128
 9961 08a8 0000 0000 		.long	.LVL129
 9962 08ac 0400      		.word	0x4
 9963 08ae F3        		.byte	0xf3
 9964 08af 01        		.uleb128 0x1
 9965 08b0 68        		.byte	0x68
 9966 08b1 9F        		.byte	0x9f
 9967 08b2 0000 0000 		.long	.LVL129
 9968 08b6 0000 0000 		.long	.LVL130
 9969 08ba 0100      		.word	0x1
 9970 08bc 68        		.byte	0x68
 9971 08bd 0000 0000 		.long	.LVL130
 9972 08c1 0000 0000 		.long	.LVL131
 9973 08c5 0400      		.word	0x4
 9974 08c7 F3        		.byte	0xf3
 9975 08c8 01        		.uleb128 0x1
 9976 08c9 68        		.byte	0x68
 9977 08ca 9F        		.byte	0x9f
 9978 08cb 0000 0000 		.long	.LVL131
 9979 08cf 0000 0000 		.long	.LVL132
 9980 08d3 0100      		.word	0x1
 9981 08d5 68        		.byte	0x68
 9982 08d6 0000 0000 		.long	.LVL132
 9983 08da 0000 0000 		.long	.LVL133
 9984 08de 0400      		.word	0x4
 9985 08e0 F3        		.byte	0xf3
 9986 08e1 01        		.uleb128 0x1
 9987 08e2 68        		.byte	0x68
 9988 08e3 9F        		.byte	0x9f
 9989 08e4 0000 0000 		.long	.LVL133
 9990 08e8 0000 0000 		.long	.LVL134
 9991 08ec 0100      		.word	0x1
 9992 08ee 68        		.byte	0x68
 9993 08ef 0000 0000 		.long	.LVL134
 9994 08f3 0000 0000 		.long	.LVL135
 9995 08f7 0400      		.word	0x4
 9996 08f9 F3        		.byte	0xf3
 9997 08fa 01        		.uleb128 0x1
 9998 08fb 68        		.byte	0x68
 9999 08fc 9F        		.byte	0x9f
 10000 08fd 0000 0000 		.long	.LVL135
 10001 0901 0000 0000 		.long	.LVL136
 10002 0905 0100      		.word	0x1
 10003 0907 68        		.byte	0x68
 10004 0908 0000 0000 		.long	.LVL136
 10005 090c 0000 0000 		.long	.LVL137
 10006 0910 0400      		.word	0x4
 10007 0912 F3        		.byte	0xf3
 10008 0913 01        		.uleb128 0x1
 10009 0914 68        		.byte	0x68
GAS LISTING /tmp/ccPqDIXf.s 			page 200


 10010 0915 9F        		.byte	0x9f
 10011 0916 0000 0000 		.long	.LVL137
 10012 091a 0000 0000 		.long	.LVL138
 10013 091e 0100      		.word	0x1
 10014 0920 68        		.byte	0x68
 10015 0921 0000 0000 		.long	.LVL138
 10016 0925 0000 0000 		.long	.LFE25
 10017 0929 0400      		.word	0x4
 10018 092b F3        		.byte	0xf3
 10019 092c 01        		.uleb128 0x1
 10020 092d 68        		.byte	0x68
 10021 092e 9F        		.byte	0x9f
 10022 092f 0000 0000 		.long	0
 10023 0933 0000 0000 		.long	0
 10024               	.LLST26:
 10025 0937 0000 0000 		.long	.LFB26
 10026 093b 0000 0000 		.long	.LCFI21
 10027 093f 0300      		.word	0x3
 10028 0941 92        		.byte	0x92
 10029 0942 20        		.uleb128 0x20
 10030 0943 02        		.sleb128 2
 10031 0944 0000 0000 		.long	.LCFI21
 10032 0948 0000 0000 		.long	.LCFI22
 10033 094c 0300      		.word	0x3
 10034 094e 92        		.byte	0x92
 10035 094f 20        		.uleb128 0x20
 10036 0950 03        		.sleb128 3
 10037 0951 0000 0000 		.long	.LCFI22
 10038 0955 0000 0000 		.long	.LCFI23
 10039 0959 0300      		.word	0x3
 10040 095b 92        		.byte	0x92
 10041 095c 20        		.uleb128 0x20
 10042 095d 04        		.sleb128 4
 10043 095e 0000 0000 		.long	.LCFI23
 10044 0962 0000 0000 		.long	.LCFI24
 10045 0966 0300      		.word	0x3
 10046 0968 92        		.byte	0x92
 10047 0969 20        		.uleb128 0x20
 10048 096a 05        		.sleb128 5
 10049 096b 0000 0000 		.long	.LCFI24
 10050 096f 0000 0000 		.long	.LCFI25
 10051 0973 0300      		.word	0x3
 10052 0975 92        		.byte	0x92
 10053 0976 20        		.uleb128 0x20
 10054 0977 06        		.sleb128 6
 10055 0978 0000 0000 		.long	.LCFI25
 10056 097c 0000 0000 		.long	.LCFI26
 10057 0980 0300      		.word	0x3
 10058 0982 92        		.byte	0x92
 10059 0983 20        		.uleb128 0x20
 10060 0984 07        		.sleb128 7
 10061 0985 0000 0000 		.long	.LCFI26
 10062 0989 0000 0000 		.long	.LFE26
 10063 098d 0300      		.word	0x3
 10064 098f 92        		.byte	0x92
 10065 0990 20        		.uleb128 0x20
 10066 0991 08        		.sleb128 8
GAS LISTING /tmp/ccPqDIXf.s 			page 201


 10067 0992 0000 0000 		.long	0
 10068 0996 0000 0000 		.long	0
 10069               	.LLST27:
 10070 099a 0000 0000 		.long	.LFB27
 10071 099e 0000 0000 		.long	.LCFI27
 10072 09a2 0300      		.word	0x3
 10073 09a4 92        		.byte	0x92
 10074 09a5 20        		.uleb128 0x20
 10075 09a6 02        		.sleb128 2
 10076 09a7 0000 0000 		.long	.LCFI27
 10077 09ab 0000 0000 		.long	.LCFI28
 10078 09af 0300      		.word	0x3
 10079 09b1 92        		.byte	0x92
 10080 09b2 20        		.uleb128 0x20
 10081 09b3 03        		.sleb128 3
 10082 09b4 0000 0000 		.long	.LCFI28
 10083 09b8 0000 0000 		.long	.LCFI29
 10084 09bc 0300      		.word	0x3
 10085 09be 92        		.byte	0x92
 10086 09bf 20        		.uleb128 0x20
 10087 09c0 04        		.sleb128 4
 10088 09c1 0000 0000 		.long	.LCFI29
 10089 09c5 0000 0000 		.long	.LCFI30
 10090 09c9 0300      		.word	0x3
 10091 09cb 92        		.byte	0x92
 10092 09cc 20        		.uleb128 0x20
 10093 09cd 05        		.sleb128 5
 10094 09ce 0000 0000 		.long	.LCFI30
 10095 09d2 0000 0000 		.long	.LCFI31
 10096 09d6 0300      		.word	0x3
 10097 09d8 92        		.byte	0x92
 10098 09d9 20        		.uleb128 0x20
 10099 09da 06        		.sleb128 6
 10100 09db 0000 0000 		.long	.LCFI31
 10101 09df 0000 0000 		.long	.LCFI32
 10102 09e3 0300      		.word	0x3
 10103 09e5 92        		.byte	0x92
 10104 09e6 20        		.uleb128 0x20
 10105 09e7 07        		.sleb128 7
 10106 09e8 0000 0000 		.long	.LCFI32
 10107 09ec 0000 0000 		.long	.LCFI33
 10108 09f0 0300      		.word	0x3
 10109 09f2 92        		.byte	0x92
 10110 09f3 20        		.uleb128 0x20
 10111 09f4 08        		.sleb128 8
 10112 09f5 0000 0000 		.long	.LCFI33
 10113 09f9 0000 0000 		.long	.LCFI34
 10114 09fd 0300      		.word	0x3
 10115 09ff 92        		.byte	0x92
 10116 0a00 20        		.uleb128 0x20
 10117 0a01 09        		.sleb128 9
 10118 0a02 0000 0000 		.long	.LCFI34
 10119 0a06 0000 0000 		.long	.LCFI35
 10120 0a0a 0300      		.word	0x3
 10121 0a0c 92        		.byte	0x92
 10122 0a0d 20        		.uleb128 0x20
 10123 0a0e 0A        		.sleb128 10
GAS LISTING /tmp/ccPqDIXf.s 			page 202


 10124 0a0f 0000 0000 		.long	.LCFI35
 10125 0a13 0000 0000 		.long	.LCFI36
 10126 0a17 0300      		.word	0x3
 10127 0a19 92        		.byte	0x92
 10128 0a1a 20        		.uleb128 0x20
 10129 0a1b 0B        		.sleb128 11
 10130 0a1c 0000 0000 		.long	.LCFI36
 10131 0a20 0000 0000 		.long	.LCFI37
 10132 0a24 0300      		.word	0x3
 10133 0a26 92        		.byte	0x92
 10134 0a27 20        		.uleb128 0x20
 10135 0a28 0C        		.sleb128 12
 10136 0a29 0000 0000 		.long	.LCFI37
 10137 0a2d 0000 0000 		.long	.LCFI38
 10138 0a31 0300      		.word	0x3
 10139 0a33 92        		.byte	0x92
 10140 0a34 20        		.uleb128 0x20
 10141 0a35 0D        		.sleb128 13
 10142 0a36 0000 0000 		.long	.LCFI38
 10143 0a3a 0000 0000 		.long	.LFE27
 10144 0a3e 0200      		.word	0x2
 10145 0a40 8C        		.byte	0x8c
 10146 0a41 0D        		.sleb128 13
 10147 0a42 0000 0000 		.long	0
 10148 0a46 0000 0000 		.long	0
 10149               	.LLST28:
 10150 0a4a 0000 0000 		.long	.LVL141
 10151 0a4e 0000 0000 		.long	.LVL142
 10152 0a52 0A00      		.word	0xa
 10153 0a54 93        		.byte	0x93
 10154 0a55 0C        		.uleb128 0xc
 10155 0a56 64        		.byte	0x64
 10156 0a57 93        		.byte	0x93
 10157 0a58 01        		.uleb128 0x1
 10158 0a59 65        		.byte	0x65
 10159 0a5a 93        		.byte	0x93
 10160 0a5b 01        		.uleb128 0x1
 10161 0a5c 93        		.byte	0x93
 10162 0a5d 16        		.uleb128 0x16
 10163 0a5e 0000 0000 		.long	.LVL142
 10164 0a62 0000 0000 		.long	.LVL143
 10165 0a66 0F00      		.word	0xf
 10166 0a68 93        		.byte	0x93
 10167 0a69 0C        		.uleb128 0xc
 10168 0a6a 64        		.byte	0x64
 10169 0a6b 93        		.byte	0x93
 10170 0a6c 01        		.uleb128 0x1
 10171 0a6d 65        		.byte	0x65
 10172 0a6e 93        		.byte	0x93
 10173 0a6f 01        		.uleb128 0x1
 10174 0a70 93        		.byte	0x93
 10175 0a71 06        		.uleb128 0x6
 10176 0a72 68        		.byte	0x68
 10177 0a73 93        		.byte	0x93
 10178 0a74 01        		.uleb128 0x1
 10179 0a75 93        		.byte	0x93
 10180 0a76 0F        		.uleb128 0xf
GAS LISTING /tmp/ccPqDIXf.s 			page 203


 10181 0a77 0000 0000 		.long	.LVL143
 10182 0a7b 0000 0000 		.long	.LVL144
 10183 0a7f 1500      		.word	0x15
 10184 0a81 93        		.byte	0x93
 10185 0a82 0C        		.uleb128 0xc
 10186 0a83 64        		.byte	0x64
 10187 0a84 93        		.byte	0x93
 10188 0a85 01        		.uleb128 0x1
 10189 0a86 65        		.byte	0x65
 10190 0a87 93        		.byte	0x93
 10191 0a88 01        		.uleb128 0x1
 10192 0a89 93        		.byte	0x93
 10193 0a8a 06        		.uleb128 0x6
 10194 0a8b 68        		.byte	0x68
 10195 0a8c 93        		.byte	0x93
 10196 0a8d 01        		.uleb128 0x1
 10197 0a8e 66        		.byte	0x66
 10198 0a8f 93        		.byte	0x93
 10199 0a90 01        		.uleb128 0x1
 10200 0a91 67        		.byte	0x67
 10201 0a92 93        		.byte	0x93
 10202 0a93 01        		.uleb128 0x1
 10203 0a94 93        		.byte	0x93
 10204 0a95 0D        		.uleb128 0xd
 10205 0a96 0000 0000 		.long	.LVL144
 10206 0a9a 0000 0000 		.long	.LVL145
 10207 0a9e 1800      		.word	0x18
 10208 0aa0 93        		.byte	0x93
 10209 0aa1 0C        		.uleb128 0xc
 10210 0aa2 64        		.byte	0x64
 10211 0aa3 93        		.byte	0x93
 10212 0aa4 01        		.uleb128 0x1
 10213 0aa5 65        		.byte	0x65
 10214 0aa6 93        		.byte	0x93
 10215 0aa7 01        		.uleb128 0x1
 10216 0aa8 93        		.byte	0x93
 10217 0aa9 06        		.uleb128 0x6
 10218 0aaa 68        		.byte	0x68
 10219 0aab 93        		.byte	0x93
 10220 0aac 01        		.uleb128 0x1
 10221 0aad 66        		.byte	0x66
 10222 0aae 93        		.byte	0x93
 10223 0aaf 01        		.uleb128 0x1
 10224 0ab0 67        		.byte	0x67
 10225 0ab1 93        		.byte	0x93
 10226 0ab2 01        		.uleb128 0x1
 10227 0ab3 5B        		.byte	0x5b
 10228 0ab4 93        		.byte	0x93
 10229 0ab5 01        		.uleb128 0x1
 10230 0ab6 93        		.byte	0x93
 10231 0ab7 0C        		.uleb128 0xc
 10232 0ab8 0000 0000 		.long	.LVL145
 10233 0abc 0000 0000 		.long	.LVL146
 10234 0ac0 1E00      		.word	0x1e
 10235 0ac2 93        		.byte	0x93
 10236 0ac3 0C        		.uleb128 0xc
 10237 0ac4 64        		.byte	0x64
GAS LISTING /tmp/ccPqDIXf.s 			page 204


 10238 0ac5 93        		.byte	0x93
 10239 0ac6 01        		.uleb128 0x1
 10240 0ac7 65        		.byte	0x65
 10241 0ac8 93        		.byte	0x93
 10242 0ac9 01        		.uleb128 0x1
 10243 0aca 93        		.byte	0x93
 10244 0acb 06        		.uleb128 0x6
 10245 0acc 68        		.byte	0x68
 10246 0acd 93        		.byte	0x93
 10247 0ace 01        		.uleb128 0x1
 10248 0acf 66        		.byte	0x66
 10249 0ad0 93        		.byte	0x93
 10250 0ad1 01        		.uleb128 0x1
 10251 0ad2 67        		.byte	0x67
 10252 0ad3 93        		.byte	0x93
 10253 0ad4 01        		.uleb128 0x1
 10254 0ad5 5B        		.byte	0x5b
 10255 0ad6 93        		.byte	0x93
 10256 0ad7 01        		.uleb128 0x1
 10257 0ad8 60        		.byte	0x60
 10258 0ad9 93        		.byte	0x93
 10259 0ada 01        		.uleb128 0x1
 10260 0adb 61        		.byte	0x61
 10261 0adc 93        		.byte	0x93
 10262 0add 01        		.uleb128 0x1
 10263 0ade 93        		.byte	0x93
 10264 0adf 0A        		.uleb128 0xa
 10265 0ae0 0000 0000 		.long	.LVL146
 10266 0ae4 0000 0000 		.long	.LVL147
 10267 0ae8 2100      		.word	0x21
 10268 0aea 93        		.byte	0x93
 10269 0aeb 0C        		.uleb128 0xc
 10270 0aec 64        		.byte	0x64
 10271 0aed 93        		.byte	0x93
 10272 0aee 01        		.uleb128 0x1
 10273 0aef 65        		.byte	0x65
 10274 0af0 93        		.byte	0x93
 10275 0af1 01        		.uleb128 0x1
 10276 0af2 93        		.byte	0x93
 10277 0af3 06        		.uleb128 0x6
 10278 0af4 68        		.byte	0x68
 10279 0af5 93        		.byte	0x93
 10280 0af6 01        		.uleb128 0x1
 10281 0af7 66        		.byte	0x66
 10282 0af8 93        		.byte	0x93
 10283 0af9 01        		.uleb128 0x1
 10284 0afa 67        		.byte	0x67
 10285 0afb 93        		.byte	0x93
 10286 0afc 01        		.uleb128 0x1
 10287 0afd 5B        		.byte	0x5b
 10288 0afe 93        		.byte	0x93
 10289 0aff 01        		.uleb128 0x1
 10290 0b00 60        		.byte	0x60
 10291 0b01 93        		.byte	0x93
 10292 0b02 01        		.uleb128 0x1
 10293 0b03 61        		.byte	0x61
 10294 0b04 93        		.byte	0x93
GAS LISTING /tmp/ccPqDIXf.s 			page 205


 10295 0b05 01        		.uleb128 0x1
 10296 0b06 59        		.byte	0x59
 10297 0b07 93        		.byte	0x93
 10298 0b08 01        		.uleb128 0x1
 10299 0b09 93        		.byte	0x93
 10300 0b0a 09        		.uleb128 0x9
 10301 0b0b 0000 0000 		.long	.LVL147
 10302 0b0f 0000 0000 		.long	.LVL148
 10303 0b13 2700      		.word	0x27
 10304 0b15 93        		.byte	0x93
 10305 0b16 0C        		.uleb128 0xc
 10306 0b17 64        		.byte	0x64
 10307 0b18 93        		.byte	0x93
 10308 0b19 01        		.uleb128 0x1
 10309 0b1a 65        		.byte	0x65
 10310 0b1b 93        		.byte	0x93
 10311 0b1c 01        		.uleb128 0x1
 10312 0b1d 93        		.byte	0x93
 10313 0b1e 06        		.uleb128 0x6
 10314 0b1f 68        		.byte	0x68
 10315 0b20 93        		.byte	0x93
 10316 0b21 01        		.uleb128 0x1
 10317 0b22 66        		.byte	0x66
 10318 0b23 93        		.byte	0x93
 10319 0b24 01        		.uleb128 0x1
 10320 0b25 67        		.byte	0x67
 10321 0b26 93        		.byte	0x93
 10322 0b27 01        		.uleb128 0x1
 10323 0b28 5B        		.byte	0x5b
 10324 0b29 93        		.byte	0x93
 10325 0b2a 01        		.uleb128 0x1
 10326 0b2b 60        		.byte	0x60
 10327 0b2c 93        		.byte	0x93
 10328 0b2d 01        		.uleb128 0x1
 10329 0b2e 61        		.byte	0x61
 10330 0b2f 93        		.byte	0x93
 10331 0b30 01        		.uleb128 0x1
 10332 0b31 59        		.byte	0x59
 10333 0b32 93        		.byte	0x93
 10334 0b33 01        		.uleb128 0x1
 10335 0b34 5C        		.byte	0x5c
 10336 0b35 93        		.byte	0x93
 10337 0b36 01        		.uleb128 0x1
 10338 0b37 5D        		.byte	0x5d
 10339 0b38 93        		.byte	0x93
 10340 0b39 01        		.uleb128 0x1
 10341 0b3a 93        		.byte	0x93
 10342 0b3b 07        		.uleb128 0x7
 10343 0b3c 0000 0000 		.long	.LVL148
 10344 0b40 0000 0000 		.long	.LVL149
 10345 0b44 2A00      		.word	0x2a
 10346 0b46 93        		.byte	0x93
 10347 0b47 0C        		.uleb128 0xc
 10348 0b48 64        		.byte	0x64
 10349 0b49 93        		.byte	0x93
 10350 0b4a 01        		.uleb128 0x1
 10351 0b4b 65        		.byte	0x65
GAS LISTING /tmp/ccPqDIXf.s 			page 206


 10352 0b4c 93        		.byte	0x93
 10353 0b4d 01        		.uleb128 0x1
 10354 0b4e 93        		.byte	0x93
 10355 0b4f 06        		.uleb128 0x6
 10356 0b50 68        		.byte	0x68
 10357 0b51 93        		.byte	0x93
 10358 0b52 01        		.uleb128 0x1
 10359 0b53 66        		.byte	0x66
 10360 0b54 93        		.byte	0x93
 10361 0b55 01        		.uleb128 0x1
 10362 0b56 67        		.byte	0x67
 10363 0b57 93        		.byte	0x93
 10364 0b58 01        		.uleb128 0x1
 10365 0b59 5B        		.byte	0x5b
 10366 0b5a 93        		.byte	0x93
 10367 0b5b 01        		.uleb128 0x1
 10368 0b5c 60        		.byte	0x60
 10369 0b5d 93        		.byte	0x93
 10370 0b5e 01        		.uleb128 0x1
 10371 0b5f 61        		.byte	0x61
 10372 0b60 93        		.byte	0x93
 10373 0b61 01        		.uleb128 0x1
 10374 0b62 59        		.byte	0x59
 10375 0b63 93        		.byte	0x93
 10376 0b64 01        		.uleb128 0x1
 10377 0b65 5C        		.byte	0x5c
 10378 0b66 93        		.byte	0x93
 10379 0b67 01        		.uleb128 0x1
 10380 0b68 5D        		.byte	0x5d
 10381 0b69 93        		.byte	0x93
 10382 0b6a 01        		.uleb128 0x1
 10383 0b6b 5A        		.byte	0x5a
 10384 0b6c 93        		.byte	0x93
 10385 0b6d 01        		.uleb128 0x1
 10386 0b6e 93        		.byte	0x93
 10387 0b6f 06        		.uleb128 0x6
 10388 0b70 0000 0000 		.long	.LVL149
 10389 0b74 0000 0000 		.long	.LVL150-1
 10390 0b78 3000      		.word	0x30
 10391 0b7a 93        		.byte	0x93
 10392 0b7b 0C        		.uleb128 0xc
 10393 0b7c 64        		.byte	0x64
 10394 0b7d 93        		.byte	0x93
 10395 0b7e 01        		.uleb128 0x1
 10396 0b7f 65        		.byte	0x65
 10397 0b80 93        		.byte	0x93
 10398 0b81 01        		.uleb128 0x1
 10399 0b82 93        		.byte	0x93
 10400 0b83 06        		.uleb128 0x6
 10401 0b84 68        		.byte	0x68
 10402 0b85 93        		.byte	0x93
 10403 0b86 01        		.uleb128 0x1
 10404 0b87 66        		.byte	0x66
 10405 0b88 93        		.byte	0x93
 10406 0b89 01        		.uleb128 0x1
 10407 0b8a 67        		.byte	0x67
 10408 0b8b 93        		.byte	0x93
GAS LISTING /tmp/ccPqDIXf.s 			page 207


 10409 0b8c 01        		.uleb128 0x1
 10410 0b8d 5B        		.byte	0x5b
 10411 0b8e 93        		.byte	0x93
 10412 0b8f 01        		.uleb128 0x1
 10413 0b90 60        		.byte	0x60
 10414 0b91 93        		.byte	0x93
 10415 0b92 01        		.uleb128 0x1
 10416 0b93 61        		.byte	0x61
 10417 0b94 93        		.byte	0x93
 10418 0b95 01        		.uleb128 0x1
 10419 0b96 59        		.byte	0x59
 10420 0b97 93        		.byte	0x93
 10421 0b98 01        		.uleb128 0x1
 10422 0b99 5C        		.byte	0x5c
 10423 0b9a 93        		.byte	0x93
 10424 0b9b 01        		.uleb128 0x1
 10425 0b9c 5D        		.byte	0x5d
 10426 0b9d 93        		.byte	0x93
 10427 0b9e 01        		.uleb128 0x1
 10428 0b9f 5A        		.byte	0x5a
 10429 0ba0 93        		.byte	0x93
 10430 0ba1 01        		.uleb128 0x1
 10431 0ba2 5E        		.byte	0x5e
 10432 0ba3 93        		.byte	0x93
 10433 0ba4 01        		.uleb128 0x1
 10434 0ba5 5F        		.byte	0x5f
 10435 0ba6 93        		.byte	0x93
 10436 0ba7 01        		.uleb128 0x1
 10437 0ba8 93        		.byte	0x93
 10438 0ba9 04        		.uleb128 0x4
 10439 0baa 0000 0000 		.long	.LVL150-1
 10440 0bae 0000 0000 		.long	.LVL151
 10441 0bb2 2D00      		.word	0x2d
 10442 0bb4 93        		.byte	0x93
 10443 0bb5 0C        		.uleb128 0xc
 10444 0bb6 91        		.byte	0x91
 10445 0bb7 0D        		.sleb128 13
 10446 0bb8 93        		.byte	0x93
 10447 0bb9 02        		.uleb128 0x2
 10448 0bba 93        		.byte	0x93
 10449 0bbb 06        		.uleb128 0x6
 10450 0bbc 91        		.byte	0x91
 10451 0bbd 15        		.sleb128 21
 10452 0bbe 93        		.byte	0x93
 10453 0bbf 01        		.uleb128 0x1
 10454 0bc0 91        		.byte	0x91
 10455 0bc1 16        		.sleb128 22
 10456 0bc2 93        		.byte	0x93
 10457 0bc3 02        		.uleb128 0x2
 10458 0bc4 5B        		.byte	0x5b
 10459 0bc5 93        		.byte	0x93
 10460 0bc6 01        		.uleb128 0x1
 10461 0bc7 60        		.byte	0x60
 10462 0bc8 93        		.byte	0x93
 10463 0bc9 01        		.uleb128 0x1
 10464 0bca 61        		.byte	0x61
 10465 0bcb 93        		.byte	0x93
GAS LISTING /tmp/ccPqDIXf.s 			page 208


 10466 0bcc 01        		.uleb128 0x1
 10467 0bcd 59        		.byte	0x59
 10468 0bce 93        		.byte	0x93
 10469 0bcf 01        		.uleb128 0x1
 10470 0bd0 5C        		.byte	0x5c
 10471 0bd1 93        		.byte	0x93
 10472 0bd2 01        		.uleb128 0x1
 10473 0bd3 5D        		.byte	0x5d
 10474 0bd4 93        		.byte	0x93
 10475 0bd5 01        		.uleb128 0x1
 10476 0bd6 5A        		.byte	0x5a
 10477 0bd7 93        		.byte	0x93
 10478 0bd8 01        		.uleb128 0x1
 10479 0bd9 5E        		.byte	0x5e
 10480 0bda 93        		.byte	0x93
 10481 0bdb 01        		.uleb128 0x1
 10482 0bdc 5F        		.byte	0x5f
 10483 0bdd 93        		.byte	0x93
 10484 0bde 01        		.uleb128 0x1
 10485 0bdf 93        		.byte	0x93
 10486 0be0 04        		.uleb128 0x4
 10487 0be1 0000 0000 		.long	.LVL151
 10488 0be5 0000 0000 		.long	.LVL152-1
 10489 0be9 3000      		.word	0x30
 10490 0beb 93        		.byte	0x93
 10491 0bec 0C        		.uleb128 0xc
 10492 0bed 64        		.byte	0x64
 10493 0bee 93        		.byte	0x93
 10494 0bef 01        		.uleb128 0x1
 10495 0bf0 65        		.byte	0x65
 10496 0bf1 93        		.byte	0x93
 10497 0bf2 01        		.uleb128 0x1
 10498 0bf3 93        		.byte	0x93
 10499 0bf4 06        		.uleb128 0x6
 10500 0bf5 68        		.byte	0x68
 10501 0bf6 93        		.byte	0x93
 10502 0bf7 01        		.uleb128 0x1
 10503 0bf8 66        		.byte	0x66
 10504 0bf9 93        		.byte	0x93
 10505 0bfa 01        		.uleb128 0x1
 10506 0bfb 67        		.byte	0x67
 10507 0bfc 93        		.byte	0x93
 10508 0bfd 01        		.uleb128 0x1
 10509 0bfe 5B        		.byte	0x5b
 10510 0bff 93        		.byte	0x93
 10511 0c00 01        		.uleb128 0x1
 10512 0c01 60        		.byte	0x60
 10513 0c02 93        		.byte	0x93
 10514 0c03 01        		.uleb128 0x1
 10515 0c04 61        		.byte	0x61
 10516 0c05 93        		.byte	0x93
 10517 0c06 01        		.uleb128 0x1
 10518 0c07 59        		.byte	0x59
 10519 0c08 93        		.byte	0x93
 10520 0c09 01        		.uleb128 0x1
 10521 0c0a 5C        		.byte	0x5c
 10522 0c0b 93        		.byte	0x93
GAS LISTING /tmp/ccPqDIXf.s 			page 209


 10523 0c0c 01        		.uleb128 0x1
 10524 0c0d 5D        		.byte	0x5d
 10525 0c0e 93        		.byte	0x93
 10526 0c0f 01        		.uleb128 0x1
 10527 0c10 5A        		.byte	0x5a
 10528 0c11 93        		.byte	0x93
 10529 0c12 01        		.uleb128 0x1
 10530 0c13 5E        		.byte	0x5e
 10531 0c14 93        		.byte	0x93
 10532 0c15 01        		.uleb128 0x1
 10533 0c16 5F        		.byte	0x5f
 10534 0c17 93        		.byte	0x93
 10535 0c18 01        		.uleb128 0x1
 10536 0c19 93        		.byte	0x93
 10537 0c1a 04        		.uleb128 0x4
 10538 0c1b 0000 0000 		.long	.LVL152-1
 10539 0c1f 0000 0000 		.long	.LVL153
 10540 0c23 2D00      		.word	0x2d
 10541 0c25 93        		.byte	0x93
 10542 0c26 0C        		.uleb128 0xc
 10543 0c27 91        		.byte	0x91
 10544 0c28 0D        		.sleb128 13
 10545 0c29 93        		.byte	0x93
 10546 0c2a 02        		.uleb128 0x2
 10547 0c2b 93        		.byte	0x93
 10548 0c2c 06        		.uleb128 0x6
 10549 0c2d 91        		.byte	0x91
 10550 0c2e 15        		.sleb128 21
 10551 0c2f 93        		.byte	0x93
 10552 0c30 01        		.uleb128 0x1
 10553 0c31 91        		.byte	0x91
 10554 0c32 16        		.sleb128 22
 10555 0c33 93        		.byte	0x93
 10556 0c34 02        		.uleb128 0x2
 10557 0c35 5B        		.byte	0x5b
 10558 0c36 93        		.byte	0x93
 10559 0c37 01        		.uleb128 0x1
 10560 0c38 60        		.byte	0x60
 10561 0c39 93        		.byte	0x93
 10562 0c3a 01        		.uleb128 0x1
 10563 0c3b 61        		.byte	0x61
 10564 0c3c 93        		.byte	0x93
 10565 0c3d 01        		.uleb128 0x1
 10566 0c3e 59        		.byte	0x59
 10567 0c3f 93        		.byte	0x93
 10568 0c40 01        		.uleb128 0x1
 10569 0c41 5C        		.byte	0x5c
 10570 0c42 93        		.byte	0x93
 10571 0c43 01        		.uleb128 0x1
 10572 0c44 5D        		.byte	0x5d
 10573 0c45 93        		.byte	0x93
 10574 0c46 01        		.uleb128 0x1
 10575 0c47 5A        		.byte	0x5a
 10576 0c48 93        		.byte	0x93
 10577 0c49 01        		.uleb128 0x1
 10578 0c4a 5E        		.byte	0x5e
 10579 0c4b 93        		.byte	0x93
GAS LISTING /tmp/ccPqDIXf.s 			page 210


 10580 0c4c 01        		.uleb128 0x1
 10581 0c4d 5F        		.byte	0x5f
 10582 0c4e 93        		.byte	0x93
 10583 0c4f 01        		.uleb128 0x1
 10584 0c50 93        		.byte	0x93
 10585 0c51 04        		.uleb128 0x4
 10586 0c52 0000 0000 		.long	.LVL153
 10587 0c56 0000 0000 		.long	.LVL154-1
 10588 0c5a 3000      		.word	0x30
 10589 0c5c 93        		.byte	0x93
 10590 0c5d 0C        		.uleb128 0xc
 10591 0c5e 64        		.byte	0x64
 10592 0c5f 93        		.byte	0x93
 10593 0c60 01        		.uleb128 0x1
 10594 0c61 65        		.byte	0x65
 10595 0c62 93        		.byte	0x93
 10596 0c63 01        		.uleb128 0x1
 10597 0c64 93        		.byte	0x93
 10598 0c65 06        		.uleb128 0x6
 10599 0c66 68        		.byte	0x68
 10600 0c67 93        		.byte	0x93
 10601 0c68 01        		.uleb128 0x1
 10602 0c69 66        		.byte	0x66
 10603 0c6a 93        		.byte	0x93
 10604 0c6b 01        		.uleb128 0x1
 10605 0c6c 67        		.byte	0x67
 10606 0c6d 93        		.byte	0x93
 10607 0c6e 01        		.uleb128 0x1
 10608 0c6f 5B        		.byte	0x5b
 10609 0c70 93        		.byte	0x93
 10610 0c71 01        		.uleb128 0x1
 10611 0c72 60        		.byte	0x60
 10612 0c73 93        		.byte	0x93
 10613 0c74 01        		.uleb128 0x1
 10614 0c75 61        		.byte	0x61
 10615 0c76 93        		.byte	0x93
 10616 0c77 01        		.uleb128 0x1
 10617 0c78 59        		.byte	0x59
 10618 0c79 93        		.byte	0x93
 10619 0c7a 01        		.uleb128 0x1
 10620 0c7b 5C        		.byte	0x5c
 10621 0c7c 93        		.byte	0x93
 10622 0c7d 01        		.uleb128 0x1
 10623 0c7e 5D        		.byte	0x5d
 10624 0c7f 93        		.byte	0x93
 10625 0c80 01        		.uleb128 0x1
 10626 0c81 5A        		.byte	0x5a
 10627 0c82 93        		.byte	0x93
 10628 0c83 01        		.uleb128 0x1
 10629 0c84 5E        		.byte	0x5e
 10630 0c85 93        		.byte	0x93
 10631 0c86 01        		.uleb128 0x1
 10632 0c87 5F        		.byte	0x5f
 10633 0c88 93        		.byte	0x93
 10634 0c89 01        		.uleb128 0x1
 10635 0c8a 93        		.byte	0x93
 10636 0c8b 04        		.uleb128 0x4
GAS LISTING /tmp/ccPqDIXf.s 			page 211


 10637 0c8c 0000 0000 		.long	.LVL154-1
 10638 0c90 0000 0000 		.long	.LVL155
 10639 0c94 2D00      		.word	0x2d
 10640 0c96 93        		.byte	0x93
 10641 0c97 0C        		.uleb128 0xc
 10642 0c98 91        		.byte	0x91
 10643 0c99 0D        		.sleb128 13
 10644 0c9a 93        		.byte	0x93
 10645 0c9b 02        		.uleb128 0x2
 10646 0c9c 93        		.byte	0x93
 10647 0c9d 06        		.uleb128 0x6
 10648 0c9e 91        		.byte	0x91
 10649 0c9f 15        		.sleb128 21
 10650 0ca0 93        		.byte	0x93
 10651 0ca1 01        		.uleb128 0x1
 10652 0ca2 91        		.byte	0x91
 10653 0ca3 16        		.sleb128 22
 10654 0ca4 93        		.byte	0x93
 10655 0ca5 02        		.uleb128 0x2
 10656 0ca6 5B        		.byte	0x5b
 10657 0ca7 93        		.byte	0x93
 10658 0ca8 01        		.uleb128 0x1
 10659 0ca9 60        		.byte	0x60
 10660 0caa 93        		.byte	0x93
 10661 0cab 01        		.uleb128 0x1
 10662 0cac 61        		.byte	0x61
 10663 0cad 93        		.byte	0x93
 10664 0cae 01        		.uleb128 0x1
 10665 0caf 59        		.byte	0x59
 10666 0cb0 93        		.byte	0x93
 10667 0cb1 01        		.uleb128 0x1
 10668 0cb2 5C        		.byte	0x5c
 10669 0cb3 93        		.byte	0x93
 10670 0cb4 01        		.uleb128 0x1
 10671 0cb5 5D        		.byte	0x5d
 10672 0cb6 93        		.byte	0x93
 10673 0cb7 01        		.uleb128 0x1
 10674 0cb8 5A        		.byte	0x5a
 10675 0cb9 93        		.byte	0x93
 10676 0cba 01        		.uleb128 0x1
 10677 0cbb 5E        		.byte	0x5e
 10678 0cbc 93        		.byte	0x93
 10679 0cbd 01        		.uleb128 0x1
 10680 0cbe 5F        		.byte	0x5f
 10681 0cbf 93        		.byte	0x93
 10682 0cc0 01        		.uleb128 0x1
 10683 0cc1 93        		.byte	0x93
 10684 0cc2 04        		.uleb128 0x4
 10685 0cc3 0000 0000 		.long	.LVL155
 10686 0cc7 0000 0000 		.long	.LVL156-1
 10687 0ccb 3000      		.word	0x30
 10688 0ccd 93        		.byte	0x93
 10689 0cce 0C        		.uleb128 0xc
 10690 0ccf 64        		.byte	0x64
 10691 0cd0 93        		.byte	0x93
 10692 0cd1 01        		.uleb128 0x1
 10693 0cd2 65        		.byte	0x65
GAS LISTING /tmp/ccPqDIXf.s 			page 212


 10694 0cd3 93        		.byte	0x93
 10695 0cd4 01        		.uleb128 0x1
 10696 0cd5 93        		.byte	0x93
 10697 0cd6 06        		.uleb128 0x6
 10698 0cd7 68        		.byte	0x68
 10699 0cd8 93        		.byte	0x93
 10700 0cd9 01        		.uleb128 0x1
 10701 0cda 66        		.byte	0x66
 10702 0cdb 93        		.byte	0x93
 10703 0cdc 01        		.uleb128 0x1
 10704 0cdd 67        		.byte	0x67
 10705 0cde 93        		.byte	0x93
 10706 0cdf 01        		.uleb128 0x1
 10707 0ce0 5B        		.byte	0x5b
 10708 0ce1 93        		.byte	0x93
 10709 0ce2 01        		.uleb128 0x1
 10710 0ce3 60        		.byte	0x60
 10711 0ce4 93        		.byte	0x93
 10712 0ce5 01        		.uleb128 0x1
 10713 0ce6 61        		.byte	0x61
 10714 0ce7 93        		.byte	0x93
 10715 0ce8 01        		.uleb128 0x1
 10716 0ce9 59        		.byte	0x59
 10717 0cea 93        		.byte	0x93
 10718 0ceb 01        		.uleb128 0x1
 10719 0cec 5C        		.byte	0x5c
 10720 0ced 93        		.byte	0x93
 10721 0cee 01        		.uleb128 0x1
 10722 0cef 5D        		.byte	0x5d
 10723 0cf0 93        		.byte	0x93
 10724 0cf1 01        		.uleb128 0x1
 10725 0cf2 5A        		.byte	0x5a
 10726 0cf3 93        		.byte	0x93
 10727 0cf4 01        		.uleb128 0x1
 10728 0cf5 5E        		.byte	0x5e
 10729 0cf6 93        		.byte	0x93
 10730 0cf7 01        		.uleb128 0x1
 10731 0cf8 5F        		.byte	0x5f
 10732 0cf9 93        		.byte	0x93
 10733 0cfa 01        		.uleb128 0x1
 10734 0cfb 93        		.byte	0x93
 10735 0cfc 04        		.uleb128 0x4
 10736 0cfd 0000 0000 		.long	.LVL156-1
 10737 0d01 0000 0000 		.long	.LVL157
 10738 0d05 2D00      		.word	0x2d
 10739 0d07 93        		.byte	0x93
 10740 0d08 0C        		.uleb128 0xc
 10741 0d09 91        		.byte	0x91
 10742 0d0a 0D        		.sleb128 13
 10743 0d0b 93        		.byte	0x93
 10744 0d0c 02        		.uleb128 0x2
 10745 0d0d 93        		.byte	0x93
 10746 0d0e 06        		.uleb128 0x6
 10747 0d0f 91        		.byte	0x91
 10748 0d10 15        		.sleb128 21
 10749 0d11 93        		.byte	0x93
 10750 0d12 01        		.uleb128 0x1
GAS LISTING /tmp/ccPqDIXf.s 			page 213


 10751 0d13 91        		.byte	0x91
 10752 0d14 16        		.sleb128 22
 10753 0d15 93        		.byte	0x93
 10754 0d16 02        		.uleb128 0x2
 10755 0d17 5B        		.byte	0x5b
 10756 0d18 93        		.byte	0x93
 10757 0d19 01        		.uleb128 0x1
 10758 0d1a 60        		.byte	0x60
 10759 0d1b 93        		.byte	0x93
 10760 0d1c 01        		.uleb128 0x1
 10761 0d1d 61        		.byte	0x61
 10762 0d1e 93        		.byte	0x93
 10763 0d1f 01        		.uleb128 0x1
 10764 0d20 59        		.byte	0x59
 10765 0d21 93        		.byte	0x93
 10766 0d22 01        		.uleb128 0x1
 10767 0d23 5C        		.byte	0x5c
 10768 0d24 93        		.byte	0x93
 10769 0d25 01        		.uleb128 0x1
 10770 0d26 5D        		.byte	0x5d
 10771 0d27 93        		.byte	0x93
 10772 0d28 01        		.uleb128 0x1
 10773 0d29 5A        		.byte	0x5a
 10774 0d2a 93        		.byte	0x93
 10775 0d2b 01        		.uleb128 0x1
 10776 0d2c 5E        		.byte	0x5e
 10777 0d2d 93        		.byte	0x93
 10778 0d2e 01        		.uleb128 0x1
 10779 0d2f 5F        		.byte	0x5f
 10780 0d30 93        		.byte	0x93
 10781 0d31 01        		.uleb128 0x1
 10782 0d32 93        		.byte	0x93
 10783 0d33 04        		.uleb128 0x4
 10784 0d34 0000 0000 		.long	.LVL157
 10785 0d38 0000 0000 		.long	.LVL158-1
 10786 0d3c 3000      		.word	0x30
 10787 0d3e 93        		.byte	0x93
 10788 0d3f 0C        		.uleb128 0xc
 10789 0d40 64        		.byte	0x64
 10790 0d41 93        		.byte	0x93
 10791 0d42 01        		.uleb128 0x1
 10792 0d43 65        		.byte	0x65
 10793 0d44 93        		.byte	0x93
 10794 0d45 01        		.uleb128 0x1
 10795 0d46 93        		.byte	0x93
 10796 0d47 06        		.uleb128 0x6
 10797 0d48 68        		.byte	0x68
 10798 0d49 93        		.byte	0x93
 10799 0d4a 01        		.uleb128 0x1
 10800 0d4b 66        		.byte	0x66
 10801 0d4c 93        		.byte	0x93
 10802 0d4d 01        		.uleb128 0x1
 10803 0d4e 67        		.byte	0x67
 10804 0d4f 93        		.byte	0x93
 10805 0d50 01        		.uleb128 0x1
 10806 0d51 5B        		.byte	0x5b
 10807 0d52 93        		.byte	0x93
GAS LISTING /tmp/ccPqDIXf.s 			page 214


 10808 0d53 01        		.uleb128 0x1
 10809 0d54 60        		.byte	0x60
 10810 0d55 93        		.byte	0x93
 10811 0d56 01        		.uleb128 0x1
 10812 0d57 61        		.byte	0x61
 10813 0d58 93        		.byte	0x93
 10814 0d59 01        		.uleb128 0x1
 10815 0d5a 59        		.byte	0x59
 10816 0d5b 93        		.byte	0x93
 10817 0d5c 01        		.uleb128 0x1
 10818 0d5d 5C        		.byte	0x5c
 10819 0d5e 93        		.byte	0x93
 10820 0d5f 01        		.uleb128 0x1
 10821 0d60 5D        		.byte	0x5d
 10822 0d61 93        		.byte	0x93
 10823 0d62 01        		.uleb128 0x1
 10824 0d63 5A        		.byte	0x5a
 10825 0d64 93        		.byte	0x93
 10826 0d65 01        		.uleb128 0x1
 10827 0d66 5E        		.byte	0x5e
 10828 0d67 93        		.byte	0x93
 10829 0d68 01        		.uleb128 0x1
 10830 0d69 5F        		.byte	0x5f
 10831 0d6a 93        		.byte	0x93
 10832 0d6b 01        		.uleb128 0x1
 10833 0d6c 93        		.byte	0x93
 10834 0d6d 04        		.uleb128 0x4
 10835 0d6e 0000 0000 		.long	.LVL158-1
 10836 0d72 0000 0000 		.long	.LVL160
 10837 0d76 2D00      		.word	0x2d
 10838 0d78 93        		.byte	0x93
 10839 0d79 0C        		.uleb128 0xc
 10840 0d7a 91        		.byte	0x91
 10841 0d7b 0D        		.sleb128 13
 10842 0d7c 93        		.byte	0x93
 10843 0d7d 02        		.uleb128 0x2
 10844 0d7e 93        		.byte	0x93
 10845 0d7f 06        		.uleb128 0x6
 10846 0d80 91        		.byte	0x91
 10847 0d81 15        		.sleb128 21
 10848 0d82 93        		.byte	0x93
 10849 0d83 01        		.uleb128 0x1
 10850 0d84 91        		.byte	0x91
 10851 0d85 16        		.sleb128 22
 10852 0d86 93        		.byte	0x93
 10853 0d87 02        		.uleb128 0x2
 10854 0d88 5B        		.byte	0x5b
 10855 0d89 93        		.byte	0x93
 10856 0d8a 01        		.uleb128 0x1
 10857 0d8b 60        		.byte	0x60
 10858 0d8c 93        		.byte	0x93
 10859 0d8d 01        		.uleb128 0x1
 10860 0d8e 61        		.byte	0x61
 10861 0d8f 93        		.byte	0x93
 10862 0d90 01        		.uleb128 0x1
 10863 0d91 59        		.byte	0x59
 10864 0d92 93        		.byte	0x93
GAS LISTING /tmp/ccPqDIXf.s 			page 215


 10865 0d93 01        		.uleb128 0x1
 10866 0d94 5C        		.byte	0x5c
 10867 0d95 93        		.byte	0x93
 10868 0d96 01        		.uleb128 0x1
 10869 0d97 5D        		.byte	0x5d
 10870 0d98 93        		.byte	0x93
 10871 0d99 01        		.uleb128 0x1
 10872 0d9a 5A        		.byte	0x5a
 10873 0d9b 93        		.byte	0x93
 10874 0d9c 01        		.uleb128 0x1
 10875 0d9d 5E        		.byte	0x5e
 10876 0d9e 93        		.byte	0x93
 10877 0d9f 01        		.uleb128 0x1
 10878 0da0 5F        		.byte	0x5f
 10879 0da1 93        		.byte	0x93
 10880 0da2 01        		.uleb128 0x1
 10881 0da3 93        		.byte	0x93
 10882 0da4 04        		.uleb128 0x4
 10883 0da5 0000 0000 		.long	.LVL160
 10884 0da9 0000 0000 		.long	.LVL161-1
 10885 0dad 3000      		.word	0x30
 10886 0daf 93        		.byte	0x93
 10887 0db0 0C        		.uleb128 0xc
 10888 0db1 64        		.byte	0x64
 10889 0db2 93        		.byte	0x93
 10890 0db3 01        		.uleb128 0x1
 10891 0db4 65        		.byte	0x65
 10892 0db5 93        		.byte	0x93
 10893 0db6 01        		.uleb128 0x1
 10894 0db7 93        		.byte	0x93
 10895 0db8 06        		.uleb128 0x6
 10896 0db9 68        		.byte	0x68
 10897 0dba 93        		.byte	0x93
 10898 0dbb 01        		.uleb128 0x1
 10899 0dbc 66        		.byte	0x66
 10900 0dbd 93        		.byte	0x93
 10901 0dbe 01        		.uleb128 0x1
 10902 0dbf 67        		.byte	0x67
 10903 0dc0 93        		.byte	0x93
 10904 0dc1 01        		.uleb128 0x1
 10905 0dc2 5B        		.byte	0x5b
 10906 0dc3 93        		.byte	0x93
 10907 0dc4 01        		.uleb128 0x1
 10908 0dc5 60        		.byte	0x60
 10909 0dc6 93        		.byte	0x93
 10910 0dc7 01        		.uleb128 0x1
 10911 0dc8 61        		.byte	0x61
 10912 0dc9 93        		.byte	0x93
 10913 0dca 01        		.uleb128 0x1
 10914 0dcb 59        		.byte	0x59
 10915 0dcc 93        		.byte	0x93
 10916 0dcd 01        		.uleb128 0x1
 10917 0dce 5C        		.byte	0x5c
 10918 0dcf 93        		.byte	0x93
 10919 0dd0 01        		.uleb128 0x1
 10920 0dd1 5D        		.byte	0x5d
 10921 0dd2 93        		.byte	0x93
GAS LISTING /tmp/ccPqDIXf.s 			page 216


 10922 0dd3 01        		.uleb128 0x1
 10923 0dd4 5A        		.byte	0x5a
 10924 0dd5 93        		.byte	0x93
 10925 0dd6 01        		.uleb128 0x1
 10926 0dd7 5E        		.byte	0x5e
 10927 0dd8 93        		.byte	0x93
 10928 0dd9 01        		.uleb128 0x1
 10929 0dda 5F        		.byte	0x5f
 10930 0ddb 93        		.byte	0x93
 10931 0ddc 01        		.uleb128 0x1
 10932 0ddd 93        		.byte	0x93
 10933 0dde 04        		.uleb128 0x4
 10934 0ddf 0000 0000 		.long	.LVL161-1
 10935 0de3 0000 0000 		.long	.LVL164
 10936 0de7 2D00      		.word	0x2d
 10937 0de9 93        		.byte	0x93
 10938 0dea 0C        		.uleb128 0xc
 10939 0deb 91        		.byte	0x91
 10940 0dec 0D        		.sleb128 13
 10941 0ded 93        		.byte	0x93
 10942 0dee 02        		.uleb128 0x2
 10943 0def 93        		.byte	0x93
 10944 0df0 06        		.uleb128 0x6
 10945 0df1 91        		.byte	0x91
 10946 0df2 15        		.sleb128 21
 10947 0df3 93        		.byte	0x93
 10948 0df4 01        		.uleb128 0x1
 10949 0df5 91        		.byte	0x91
 10950 0df6 16        		.sleb128 22
 10951 0df7 93        		.byte	0x93
 10952 0df8 02        		.uleb128 0x2
 10953 0df9 5B        		.byte	0x5b
 10954 0dfa 93        		.byte	0x93
 10955 0dfb 01        		.uleb128 0x1
 10956 0dfc 60        		.byte	0x60
 10957 0dfd 93        		.byte	0x93
 10958 0dfe 01        		.uleb128 0x1
 10959 0dff 61        		.byte	0x61
 10960 0e00 93        		.byte	0x93
 10961 0e01 01        		.uleb128 0x1
 10962 0e02 59        		.byte	0x59
 10963 0e03 93        		.byte	0x93
 10964 0e04 01        		.uleb128 0x1
 10965 0e05 5C        		.byte	0x5c
 10966 0e06 93        		.byte	0x93
 10967 0e07 01        		.uleb128 0x1
 10968 0e08 5D        		.byte	0x5d
 10969 0e09 93        		.byte	0x93
 10970 0e0a 01        		.uleb128 0x1
 10971 0e0b 5A        		.byte	0x5a
 10972 0e0c 93        		.byte	0x93
 10973 0e0d 01        		.uleb128 0x1
 10974 0e0e 5E        		.byte	0x5e
 10975 0e0f 93        		.byte	0x93
 10976 0e10 01        		.uleb128 0x1
 10977 0e11 5F        		.byte	0x5f
 10978 0e12 93        		.byte	0x93
GAS LISTING /tmp/ccPqDIXf.s 			page 217


 10979 0e13 01        		.uleb128 0x1
 10980 0e14 93        		.byte	0x93
 10981 0e15 04        		.uleb128 0x4
 10982 0e16 0000 0000 		.long	.LVL164
 10983 0e1a 0000 0000 		.long	.LVL165
 10984 0e1e 2B00      		.word	0x2b
 10985 0e20 93        		.byte	0x93
 10986 0e21 0C        		.uleb128 0xc
 10987 0e22 91        		.byte	0x91
 10988 0e23 0D        		.sleb128 13
 10989 0e24 93        		.byte	0x93
 10990 0e25 02        		.uleb128 0x2
 10991 0e26 93        		.byte	0x93
 10992 0e27 06        		.uleb128 0x6
 10993 0e28 91        		.byte	0x91
 10994 0e29 15        		.sleb128 21
 10995 0e2a 93        		.byte	0x93
 10996 0e2b 01        		.uleb128 0x1
 10997 0e2c 91        		.byte	0x91
 10998 0e2d 16        		.sleb128 22
 10999 0e2e 93        		.byte	0x93
 11000 0e2f 02        		.uleb128 0x2
 11001 0e30 5B        		.byte	0x5b
 11002 0e31 93        		.byte	0x93
 11003 0e32 01        		.uleb128 0x1
 11004 0e33 91        		.byte	0x91
 11005 0e34 19        		.sleb128 25
 11006 0e35 93        		.byte	0x93
 11007 0e36 02        		.uleb128 0x2
 11008 0e37 59        		.byte	0x59
 11009 0e38 93        		.byte	0x93
 11010 0e39 01        		.uleb128 0x1
 11011 0e3a 5C        		.byte	0x5c
 11012 0e3b 93        		.byte	0x93
 11013 0e3c 01        		.uleb128 0x1
 11014 0e3d 5D        		.byte	0x5d
 11015 0e3e 93        		.byte	0x93
 11016 0e3f 01        		.uleb128 0x1
 11017 0e40 5A        		.byte	0x5a
 11018 0e41 93        		.byte	0x93
 11019 0e42 01        		.uleb128 0x1
 11020 0e43 5E        		.byte	0x5e
 11021 0e44 93        		.byte	0x93
 11022 0e45 01        		.uleb128 0x1
 11023 0e46 5F        		.byte	0x5f
 11024 0e47 93        		.byte	0x93
 11025 0e48 01        		.uleb128 0x1
 11026 0e49 93        		.byte	0x93
 11027 0e4a 04        		.uleb128 0x4
 11028 0e4b 0000 0000 		.long	.LVL165
 11029 0e4f 0000 0000 		.long	.LVL166
 11030 0e53 2900      		.word	0x29
 11031 0e55 93        		.byte	0x93
 11032 0e56 0C        		.uleb128 0xc
 11033 0e57 91        		.byte	0x91
 11034 0e58 0D        		.sleb128 13
 11035 0e59 93        		.byte	0x93
GAS LISTING /tmp/ccPqDIXf.s 			page 218


 11036 0e5a 02        		.uleb128 0x2
 11037 0e5b 93        		.byte	0x93
 11038 0e5c 06        		.uleb128 0x6
 11039 0e5d 91        		.byte	0x91
 11040 0e5e 15        		.sleb128 21
 11041 0e5f 93        		.byte	0x93
 11042 0e60 01        		.uleb128 0x1
 11043 0e61 91        		.byte	0x91
 11044 0e62 16        		.sleb128 22
 11045 0e63 93        		.byte	0x93
 11046 0e64 02        		.uleb128 0x2
 11047 0e65 5B        		.byte	0x5b
 11048 0e66 93        		.byte	0x93
 11049 0e67 01        		.uleb128 0x1
 11050 0e68 91        		.byte	0x91
 11051 0e69 19        		.sleb128 25
 11052 0e6a 93        		.byte	0x93
 11053 0e6b 02        		.uleb128 0x2
 11054 0e6c 59        		.byte	0x59
 11055 0e6d 93        		.byte	0x93
 11056 0e6e 01        		.uleb128 0x1
 11057 0e6f 5C        		.byte	0x5c
 11058 0e70 93        		.byte	0x93
 11059 0e71 01        		.uleb128 0x1
 11060 0e72 5D        		.byte	0x5d
 11061 0e73 93        		.byte	0x93
 11062 0e74 01        		.uleb128 0x1
 11063 0e75 5A        		.byte	0x5a
 11064 0e76 93        		.byte	0x93
 11065 0e77 01        		.uleb128 0x1
 11066 0e78 91        		.byte	0x91
 11067 0e79 1F        		.sleb128 31
 11068 0e7a 93        		.byte	0x93
 11069 0e7b 02        		.uleb128 0x2
 11070 0e7c 93        		.byte	0x93
 11071 0e7d 04        		.uleb128 0x4
 11072 0e7e 0000 0000 		.long	.LVL166
 11073 0e82 0000 0000 		.long	.LVL167
 11074 0e86 2700      		.word	0x27
 11075 0e88 93        		.byte	0x93
 11076 0e89 0C        		.uleb128 0xc
 11077 0e8a 91        		.byte	0x91
 11078 0e8b 0D        		.sleb128 13
 11079 0e8c 93        		.byte	0x93
 11080 0e8d 02        		.uleb128 0x2
 11081 0e8e 93        		.byte	0x93
 11082 0e8f 06        		.uleb128 0x6
 11083 0e90 91        		.byte	0x91
 11084 0e91 15        		.sleb128 21
 11085 0e92 93        		.byte	0x93
 11086 0e93 01        		.uleb128 0x1
 11087 0e94 91        		.byte	0x91
 11088 0e95 16        		.sleb128 22
 11089 0e96 93        		.byte	0x93
 11090 0e97 02        		.uleb128 0x2
 11091 0e98 5B        		.byte	0x5b
 11092 0e99 93        		.byte	0x93
GAS LISTING /tmp/ccPqDIXf.s 			page 219


 11093 0e9a 01        		.uleb128 0x1
 11094 0e9b 91        		.byte	0x91
 11095 0e9c 19        		.sleb128 25
 11096 0e9d 93        		.byte	0x93
 11097 0e9e 02        		.uleb128 0x2
 11098 0e9f 59        		.byte	0x59
 11099 0ea0 93        		.byte	0x93
 11100 0ea1 01        		.uleb128 0x1
 11101 0ea2 91        		.byte	0x91
 11102 0ea3 1C        		.sleb128 28
 11103 0ea4 93        		.byte	0x93
 11104 0ea5 02        		.uleb128 0x2
 11105 0ea6 5A        		.byte	0x5a
 11106 0ea7 93        		.byte	0x93
 11107 0ea8 01        		.uleb128 0x1
 11108 0ea9 91        		.byte	0x91
 11109 0eaa 1F        		.sleb128 31
 11110 0eab 93        		.byte	0x93
 11111 0eac 02        		.uleb128 0x2
 11112 0ead 93        		.byte	0x93
 11113 0eae 04        		.uleb128 0x4
 11114 0eaf 0000 0000 		.long	.LVL167
 11115 0eb3 0000 0000 		.long	.LVL168
 11116 0eb7 2800      		.word	0x28
 11117 0eb9 93        		.byte	0x93
 11118 0eba 0C        		.uleb128 0xc
 11119 0ebb 91        		.byte	0x91
 11120 0ebc 0D        		.sleb128 13
 11121 0ebd 93        		.byte	0x93
 11122 0ebe 02        		.uleb128 0x2
 11123 0ebf 93        		.byte	0x93
 11124 0ec0 06        		.uleb128 0x6
 11125 0ec1 91        		.byte	0x91
 11126 0ec2 15        		.sleb128 21
 11127 0ec3 93        		.byte	0x93
 11128 0ec4 01        		.uleb128 0x1
 11129 0ec5 91        		.byte	0x91
 11130 0ec6 16        		.sleb128 22
 11131 0ec7 93        		.byte	0x93
 11132 0ec8 02        		.uleb128 0x2
 11133 0ec9 91        		.byte	0x91
 11134 0eca 18        		.sleb128 24
 11135 0ecb 93        		.byte	0x93
 11136 0ecc 01        		.uleb128 0x1
 11137 0ecd 91        		.byte	0x91
 11138 0ece 19        		.sleb128 25
 11139 0ecf 93        		.byte	0x93
 11140 0ed0 02        		.uleb128 0x2
 11141 0ed1 59        		.byte	0x59
 11142 0ed2 93        		.byte	0x93
 11143 0ed3 01        		.uleb128 0x1
 11144 0ed4 91        		.byte	0x91
 11145 0ed5 1C        		.sleb128 28
 11146 0ed6 93        		.byte	0x93
 11147 0ed7 02        		.uleb128 0x2
 11148 0ed8 5A        		.byte	0x5a
 11149 0ed9 93        		.byte	0x93
GAS LISTING /tmp/ccPqDIXf.s 			page 220


 11150 0eda 01        		.uleb128 0x1
 11151 0edb 91        		.byte	0x91
 11152 0edc 1F        		.sleb128 31
 11153 0edd 93        		.byte	0x93
 11154 0ede 02        		.uleb128 0x2
 11155 0edf 93        		.byte	0x93
 11156 0ee0 04        		.uleb128 0x4
 11157 0ee1 0000 0000 		.long	.LVL168
 11158 0ee5 0000 0000 		.long	.LVL169
 11159 0ee9 2900      		.word	0x29
 11160 0eeb 93        		.byte	0x93
 11161 0eec 0C        		.uleb128 0xc
 11162 0eed 91        		.byte	0x91
 11163 0eee 0D        		.sleb128 13
 11164 0eef 93        		.byte	0x93
 11165 0ef0 02        		.uleb128 0x2
 11166 0ef1 93        		.byte	0x93
 11167 0ef2 06        		.uleb128 0x6
 11168 0ef3 91        		.byte	0x91
 11169 0ef4 15        		.sleb128 21
 11170 0ef5 93        		.byte	0x93
 11171 0ef6 01        		.uleb128 0x1
 11172 0ef7 91        		.byte	0x91
 11173 0ef8 16        		.sleb128 22
 11174 0ef9 93        		.byte	0x93
 11175 0efa 02        		.uleb128 0x2
 11176 0efb 91        		.byte	0x91
 11177 0efc 18        		.sleb128 24
 11178 0efd 93        		.byte	0x93
 11179 0efe 01        		.uleb128 0x1
 11180 0eff 91        		.byte	0x91
 11181 0f00 19        		.sleb128 25
 11182 0f01 93        		.byte	0x93
 11183 0f02 02        		.uleb128 0x2
 11184 0f03 59        		.byte	0x59
 11185 0f04 93        		.byte	0x93
 11186 0f05 01        		.uleb128 0x1
 11187 0f06 91        		.byte	0x91
 11188 0f07 1C        		.sleb128 28
 11189 0f08 93        		.byte	0x93
 11190 0f09 02        		.uleb128 0x2
 11191 0f0a 91        		.byte	0x91
 11192 0f0b 1E        		.sleb128 30
 11193 0f0c 93        		.byte	0x93
 11194 0f0d 01        		.uleb128 0x1
 11195 0f0e 91        		.byte	0x91
 11196 0f0f 1F        		.sleb128 31
 11197 0f10 93        		.byte	0x93
 11198 0f11 02        		.uleb128 0x2
 11199 0f12 93        		.byte	0x93
 11200 0f13 04        		.uleb128 0x4
 11201 0f14 0000 0000 		.long	.LVL169
 11202 0f18 0000 0000 		.long	.LVL170
 11203 0f1c 2A00      		.word	0x2a
 11204 0f1e 93        		.byte	0x93
 11205 0f1f 0C        		.uleb128 0xc
 11206 0f20 91        		.byte	0x91
GAS LISTING /tmp/ccPqDIXf.s 			page 221


 11207 0f21 0D        		.sleb128 13
 11208 0f22 93        		.byte	0x93
 11209 0f23 02        		.uleb128 0x2
 11210 0f24 93        		.byte	0x93
 11211 0f25 06        		.uleb128 0x6
 11212 0f26 91        		.byte	0x91
 11213 0f27 15        		.sleb128 21
 11214 0f28 93        		.byte	0x93
 11215 0f29 01        		.uleb128 0x1
 11216 0f2a 91        		.byte	0x91
 11217 0f2b 16        		.sleb128 22
 11218 0f2c 93        		.byte	0x93
 11219 0f2d 02        		.uleb128 0x2
 11220 0f2e 91        		.byte	0x91
 11221 0f2f 18        		.sleb128 24
 11222 0f30 93        		.byte	0x93
 11223 0f31 01        		.uleb128 0x1
 11224 0f32 91        		.byte	0x91
 11225 0f33 19        		.sleb128 25
 11226 0f34 93        		.byte	0x93
 11227 0f35 02        		.uleb128 0x2
 11228 0f36 91        		.byte	0x91
 11229 0f37 1B        		.sleb128 27
 11230 0f38 93        		.byte	0x93
 11231 0f39 01        		.uleb128 0x1
 11232 0f3a 91        		.byte	0x91
 11233 0f3b 1C        		.sleb128 28
 11234 0f3c 93        		.byte	0x93
 11235 0f3d 02        		.uleb128 0x2
 11236 0f3e 91        		.byte	0x91
 11237 0f3f 1E        		.sleb128 30
 11238 0f40 93        		.byte	0x93
 11239 0f41 01        		.uleb128 0x1
 11240 0f42 91        		.byte	0x91
 11241 0f43 1F        		.sleb128 31
 11242 0f44 93        		.byte	0x93
 11243 0f45 02        		.uleb128 0x2
 11244 0f46 93        		.byte	0x93
 11245 0f47 04        		.uleb128 0x4
 11246 0f48 0000 0000 		.long	.LVL170
 11247 0f4c 0000 0000 		.long	.LVL171-1
 11248 0f50 3000      		.word	0x30
 11249 0f52 93        		.byte	0x93
 11250 0f53 0C        		.uleb128 0xc
 11251 0f54 64        		.byte	0x64
 11252 0f55 93        		.byte	0x93
 11253 0f56 01        		.uleb128 0x1
 11254 0f57 65        		.byte	0x65
 11255 0f58 93        		.byte	0x93
 11256 0f59 01        		.uleb128 0x1
 11257 0f5a 93        		.byte	0x93
 11258 0f5b 06        		.uleb128 0x6
 11259 0f5c 68        		.byte	0x68
 11260 0f5d 93        		.byte	0x93
 11261 0f5e 01        		.uleb128 0x1
 11262 0f5f 66        		.byte	0x66
 11263 0f60 93        		.byte	0x93
GAS LISTING /tmp/ccPqDIXf.s 			page 222


 11264 0f61 01        		.uleb128 0x1
 11265 0f62 67        		.byte	0x67
 11266 0f63 93        		.byte	0x93
 11267 0f64 01        		.uleb128 0x1
 11268 0f65 5B        		.byte	0x5b
 11269 0f66 93        		.byte	0x93
 11270 0f67 01        		.uleb128 0x1
 11271 0f68 60        		.byte	0x60
 11272 0f69 93        		.byte	0x93
 11273 0f6a 01        		.uleb128 0x1
 11274 0f6b 61        		.byte	0x61
 11275 0f6c 93        		.byte	0x93
 11276 0f6d 01        		.uleb128 0x1
 11277 0f6e 59        		.byte	0x59
 11278 0f6f 93        		.byte	0x93
 11279 0f70 01        		.uleb128 0x1
 11280 0f71 5C        		.byte	0x5c
 11281 0f72 93        		.byte	0x93
 11282 0f73 01        		.uleb128 0x1
 11283 0f74 5D        		.byte	0x5d
 11284 0f75 93        		.byte	0x93
 11285 0f76 01        		.uleb128 0x1
 11286 0f77 5A        		.byte	0x5a
 11287 0f78 93        		.byte	0x93
 11288 0f79 01        		.uleb128 0x1
 11289 0f7a 5E        		.byte	0x5e
 11290 0f7b 93        		.byte	0x93
 11291 0f7c 01        		.uleb128 0x1
 11292 0f7d 5F        		.byte	0x5f
 11293 0f7e 93        		.byte	0x93
 11294 0f7f 01        		.uleb128 0x1
 11295 0f80 93        		.byte	0x93
 11296 0f81 04        		.uleb128 0x4
 11297 0f82 0000 0000 		.long	.LVL171-1
 11298 0f86 0000 0000 		.long	.LVL173
 11299 0f8a 2D00      		.word	0x2d
 11300 0f8c 93        		.byte	0x93
 11301 0f8d 0C        		.uleb128 0xc
 11302 0f8e 91        		.byte	0x91
 11303 0f8f 0D        		.sleb128 13
 11304 0f90 93        		.byte	0x93
 11305 0f91 02        		.uleb128 0x2
 11306 0f92 93        		.byte	0x93
 11307 0f93 06        		.uleb128 0x6
 11308 0f94 91        		.byte	0x91
 11309 0f95 15        		.sleb128 21
 11310 0f96 93        		.byte	0x93
 11311 0f97 01        		.uleb128 0x1
 11312 0f98 91        		.byte	0x91
 11313 0f99 16        		.sleb128 22
 11314 0f9a 93        		.byte	0x93
 11315 0f9b 02        		.uleb128 0x2
 11316 0f9c 5B        		.byte	0x5b
 11317 0f9d 93        		.byte	0x93
 11318 0f9e 01        		.uleb128 0x1
 11319 0f9f 60        		.byte	0x60
 11320 0fa0 93        		.byte	0x93
GAS LISTING /tmp/ccPqDIXf.s 			page 223


 11321 0fa1 01        		.uleb128 0x1
 11322 0fa2 61        		.byte	0x61
 11323 0fa3 93        		.byte	0x93
 11324 0fa4 01        		.uleb128 0x1
 11325 0fa5 59        		.byte	0x59
 11326 0fa6 93        		.byte	0x93
 11327 0fa7 01        		.uleb128 0x1
 11328 0fa8 5C        		.byte	0x5c
 11329 0fa9 93        		.byte	0x93
 11330 0faa 01        		.uleb128 0x1
 11331 0fab 5D        		.byte	0x5d
 11332 0fac 93        		.byte	0x93
 11333 0fad 01        		.uleb128 0x1
 11334 0fae 5A        		.byte	0x5a
 11335 0faf 93        		.byte	0x93
 11336 0fb0 01        		.uleb128 0x1
 11337 0fb1 5E        		.byte	0x5e
 11338 0fb2 93        		.byte	0x93
 11339 0fb3 01        		.uleb128 0x1
 11340 0fb4 5F        		.byte	0x5f
 11341 0fb5 93        		.byte	0x93
 11342 0fb6 01        		.uleb128 0x1
 11343 0fb7 93        		.byte	0x93
 11344 0fb8 04        		.uleb128 0x4
 11345 0fb9 0000 0000 		.long	.LVL173
 11346 0fbd 0000 0000 		.long	.LVL174-1
 11347 0fc1 3000      		.word	0x30
 11348 0fc3 93        		.byte	0x93
 11349 0fc4 0C        		.uleb128 0xc
 11350 0fc5 64        		.byte	0x64
 11351 0fc6 93        		.byte	0x93
 11352 0fc7 01        		.uleb128 0x1
 11353 0fc8 65        		.byte	0x65
 11354 0fc9 93        		.byte	0x93
 11355 0fca 01        		.uleb128 0x1
 11356 0fcb 93        		.byte	0x93
 11357 0fcc 06        		.uleb128 0x6
 11358 0fcd 68        		.byte	0x68
 11359 0fce 93        		.byte	0x93
 11360 0fcf 01        		.uleb128 0x1
 11361 0fd0 66        		.byte	0x66
 11362 0fd1 93        		.byte	0x93
 11363 0fd2 01        		.uleb128 0x1
 11364 0fd3 67        		.byte	0x67
 11365 0fd4 93        		.byte	0x93
 11366 0fd5 01        		.uleb128 0x1
 11367 0fd6 5B        		.byte	0x5b
 11368 0fd7 93        		.byte	0x93
 11369 0fd8 01        		.uleb128 0x1
 11370 0fd9 60        		.byte	0x60
 11371 0fda 93        		.byte	0x93
 11372 0fdb 01        		.uleb128 0x1
 11373 0fdc 61        		.byte	0x61
 11374 0fdd 93        		.byte	0x93
 11375 0fde 01        		.uleb128 0x1
 11376 0fdf 59        		.byte	0x59
 11377 0fe0 93        		.byte	0x93
GAS LISTING /tmp/ccPqDIXf.s 			page 224


 11378 0fe1 01        		.uleb128 0x1
 11379 0fe2 5C        		.byte	0x5c
 11380 0fe3 93        		.byte	0x93
 11381 0fe4 01        		.uleb128 0x1
 11382 0fe5 5D        		.byte	0x5d
 11383 0fe6 93        		.byte	0x93
 11384 0fe7 01        		.uleb128 0x1
 11385 0fe8 5A        		.byte	0x5a
 11386 0fe9 93        		.byte	0x93
 11387 0fea 01        		.uleb128 0x1
 11388 0feb 5E        		.byte	0x5e
 11389 0fec 93        		.byte	0x93
 11390 0fed 01        		.uleb128 0x1
 11391 0fee 5F        		.byte	0x5f
 11392 0fef 93        		.byte	0x93
 11393 0ff0 01        		.uleb128 0x1
 11394 0ff1 93        		.byte	0x93
 11395 0ff2 04        		.uleb128 0x4
 11396 0ff3 0000 0000 		.long	.LVL174-1
 11397 0ff7 0000 0000 		.long	.LVL177
 11398 0ffb 2D00      		.word	0x2d
 11399 0ffd 93        		.byte	0x93
 11400 0ffe 0C        		.uleb128 0xc
 11401 0fff 91        		.byte	0x91
 11402 1000 0D        		.sleb128 13
 11403 1001 93        		.byte	0x93
 11404 1002 02        		.uleb128 0x2
 11405 1003 93        		.byte	0x93
 11406 1004 06        		.uleb128 0x6
 11407 1005 91        		.byte	0x91
 11408 1006 15        		.sleb128 21
 11409 1007 93        		.byte	0x93
 11410 1008 01        		.uleb128 0x1
 11411 1009 91        		.byte	0x91
 11412 100a 16        		.sleb128 22
 11413 100b 93        		.byte	0x93
 11414 100c 02        		.uleb128 0x2
 11415 100d 5B        		.byte	0x5b
 11416 100e 93        		.byte	0x93
 11417 100f 01        		.uleb128 0x1
 11418 1010 60        		.byte	0x60
 11419 1011 93        		.byte	0x93
 11420 1012 01        		.uleb128 0x1
 11421 1013 61        		.byte	0x61
 11422 1014 93        		.byte	0x93
 11423 1015 01        		.uleb128 0x1
 11424 1016 59        		.byte	0x59
 11425 1017 93        		.byte	0x93
 11426 1018 01        		.uleb128 0x1
 11427 1019 5C        		.byte	0x5c
 11428 101a 93        		.byte	0x93
 11429 101b 01        		.uleb128 0x1
 11430 101c 5D        		.byte	0x5d
 11431 101d 93        		.byte	0x93
 11432 101e 01        		.uleb128 0x1
 11433 101f 5A        		.byte	0x5a
 11434 1020 93        		.byte	0x93
GAS LISTING /tmp/ccPqDIXf.s 			page 225


 11435 1021 01        		.uleb128 0x1
 11436 1022 5E        		.byte	0x5e
 11437 1023 93        		.byte	0x93
 11438 1024 01        		.uleb128 0x1
 11439 1025 5F        		.byte	0x5f
 11440 1026 93        		.byte	0x93
 11441 1027 01        		.uleb128 0x1
 11442 1028 93        		.byte	0x93
 11443 1029 04        		.uleb128 0x4
 11444 102a 0000 0000 		.long	.LVL177
 11445 102e 0000 0000 		.long	.LVL178
 11446 1032 2B00      		.word	0x2b
 11447 1034 93        		.byte	0x93
 11448 1035 0C        		.uleb128 0xc
 11449 1036 91        		.byte	0x91
 11450 1037 0D        		.sleb128 13
 11451 1038 93        		.byte	0x93
 11452 1039 02        		.uleb128 0x2
 11453 103a 93        		.byte	0x93
 11454 103b 06        		.uleb128 0x6
 11455 103c 91        		.byte	0x91
 11456 103d 15        		.sleb128 21
 11457 103e 93        		.byte	0x93
 11458 103f 01        		.uleb128 0x1
 11459 1040 91        		.byte	0x91
 11460 1041 16        		.sleb128 22
 11461 1042 93        		.byte	0x93
 11462 1043 02        		.uleb128 0x2
 11463 1044 5B        		.byte	0x5b
 11464 1045 93        		.byte	0x93
 11465 1046 01        		.uleb128 0x1
 11466 1047 91        		.byte	0x91
 11467 1048 19        		.sleb128 25
 11468 1049 93        		.byte	0x93
 11469 104a 02        		.uleb128 0x2
 11470 104b 59        		.byte	0x59
 11471 104c 93        		.byte	0x93
 11472 104d 01        		.uleb128 0x1
 11473 104e 5C        		.byte	0x5c
 11474 104f 93        		.byte	0x93
 11475 1050 01        		.uleb128 0x1
 11476 1051 5D        		.byte	0x5d
 11477 1052 93        		.byte	0x93
 11478 1053 01        		.uleb128 0x1
 11479 1054 5A        		.byte	0x5a
 11480 1055 93        		.byte	0x93
 11481 1056 01        		.uleb128 0x1
 11482 1057 5E        		.byte	0x5e
 11483 1058 93        		.byte	0x93
 11484 1059 01        		.uleb128 0x1
 11485 105a 5F        		.byte	0x5f
 11486 105b 93        		.byte	0x93
 11487 105c 01        		.uleb128 0x1
 11488 105d 93        		.byte	0x93
 11489 105e 04        		.uleb128 0x4
 11490 105f 0000 0000 		.long	.LVL178
 11491 1063 0000 0000 		.long	.LVL179
GAS LISTING /tmp/ccPqDIXf.s 			page 226


 11492 1067 2900      		.word	0x29
 11493 1069 93        		.byte	0x93
 11494 106a 0C        		.uleb128 0xc
 11495 106b 91        		.byte	0x91
 11496 106c 0D        		.sleb128 13
 11497 106d 93        		.byte	0x93
 11498 106e 02        		.uleb128 0x2
 11499 106f 93        		.byte	0x93
 11500 1070 06        		.uleb128 0x6
 11501 1071 91        		.byte	0x91
 11502 1072 15        		.sleb128 21
 11503 1073 93        		.byte	0x93
 11504 1074 01        		.uleb128 0x1
 11505 1075 91        		.byte	0x91
 11506 1076 16        		.sleb128 22
 11507 1077 93        		.byte	0x93
 11508 1078 02        		.uleb128 0x2
 11509 1079 5B        		.byte	0x5b
 11510 107a 93        		.byte	0x93
 11511 107b 01        		.uleb128 0x1
 11512 107c 91        		.byte	0x91
 11513 107d 19        		.sleb128 25
 11514 107e 93        		.byte	0x93
 11515 107f 02        		.uleb128 0x2
 11516 1080 59        		.byte	0x59
 11517 1081 93        		.byte	0x93
 11518 1082 01        		.uleb128 0x1
 11519 1083 5C        		.byte	0x5c
 11520 1084 93        		.byte	0x93
 11521 1085 01        		.uleb128 0x1
 11522 1086 5D        		.byte	0x5d
 11523 1087 93        		.byte	0x93
 11524 1088 01        		.uleb128 0x1
 11525 1089 5A        		.byte	0x5a
 11526 108a 93        		.byte	0x93
 11527 108b 01        		.uleb128 0x1
 11528 108c 91        		.byte	0x91
 11529 108d 1F        		.sleb128 31
 11530 108e 93        		.byte	0x93
 11531 108f 02        		.uleb128 0x2
 11532 1090 93        		.byte	0x93
 11533 1091 04        		.uleb128 0x4
 11534 1092 0000 0000 		.long	.LVL179
 11535 1096 0000 0000 		.long	.LVL180
 11536 109a 2700      		.word	0x27
 11537 109c 93        		.byte	0x93
 11538 109d 0C        		.uleb128 0xc
 11539 109e 91        		.byte	0x91
 11540 109f 0D        		.sleb128 13
 11541 10a0 93        		.byte	0x93
 11542 10a1 02        		.uleb128 0x2
 11543 10a2 93        		.byte	0x93
 11544 10a3 06        		.uleb128 0x6
 11545 10a4 91        		.byte	0x91
 11546 10a5 15        		.sleb128 21
 11547 10a6 93        		.byte	0x93
 11548 10a7 01        		.uleb128 0x1
GAS LISTING /tmp/ccPqDIXf.s 			page 227


 11549 10a8 91        		.byte	0x91
 11550 10a9 16        		.sleb128 22
 11551 10aa 93        		.byte	0x93
 11552 10ab 02        		.uleb128 0x2
 11553 10ac 5B        		.byte	0x5b
 11554 10ad 93        		.byte	0x93
 11555 10ae 01        		.uleb128 0x1
 11556 10af 91        		.byte	0x91
 11557 10b0 19        		.sleb128 25
 11558 10b1 93        		.byte	0x93
 11559 10b2 02        		.uleb128 0x2
 11560 10b3 59        		.byte	0x59
 11561 10b4 93        		.byte	0x93
 11562 10b5 01        		.uleb128 0x1
 11563 10b6 91        		.byte	0x91
 11564 10b7 1C        		.sleb128 28
 11565 10b8 93        		.byte	0x93
 11566 10b9 02        		.uleb128 0x2
 11567 10ba 5A        		.byte	0x5a
 11568 10bb 93        		.byte	0x93
 11569 10bc 01        		.uleb128 0x1
 11570 10bd 91        		.byte	0x91
 11571 10be 1F        		.sleb128 31
 11572 10bf 93        		.byte	0x93
 11573 10c0 02        		.uleb128 0x2
 11574 10c1 93        		.byte	0x93
 11575 10c2 04        		.uleb128 0x4
 11576 10c3 0000 0000 		.long	.LVL180
 11577 10c7 0000 0000 		.long	.LVL181
 11578 10cb 2800      		.word	0x28
 11579 10cd 93        		.byte	0x93
 11580 10ce 0C        		.uleb128 0xc
 11581 10cf 91        		.byte	0x91
 11582 10d0 0D        		.sleb128 13
 11583 10d1 93        		.byte	0x93
 11584 10d2 02        		.uleb128 0x2
 11585 10d3 93        		.byte	0x93
 11586 10d4 06        		.uleb128 0x6
 11587 10d5 91        		.byte	0x91
 11588 10d6 15        		.sleb128 21
 11589 10d7 93        		.byte	0x93
 11590 10d8 01        		.uleb128 0x1
 11591 10d9 91        		.byte	0x91
 11592 10da 16        		.sleb128 22
 11593 10db 93        		.byte	0x93
 11594 10dc 02        		.uleb128 0x2
 11595 10dd 91        		.byte	0x91
 11596 10de 18        		.sleb128 24
 11597 10df 93        		.byte	0x93
 11598 10e0 01        		.uleb128 0x1
 11599 10e1 91        		.byte	0x91
 11600 10e2 19        		.sleb128 25
 11601 10e3 93        		.byte	0x93
 11602 10e4 02        		.uleb128 0x2
 11603 10e5 59        		.byte	0x59
 11604 10e6 93        		.byte	0x93
 11605 10e7 01        		.uleb128 0x1
GAS LISTING /tmp/ccPqDIXf.s 			page 228


 11606 10e8 91        		.byte	0x91
 11607 10e9 1C        		.sleb128 28
 11608 10ea 93        		.byte	0x93
 11609 10eb 02        		.uleb128 0x2
 11610 10ec 5A        		.byte	0x5a
 11611 10ed 93        		.byte	0x93
 11612 10ee 01        		.uleb128 0x1
 11613 10ef 91        		.byte	0x91
 11614 10f0 1F        		.sleb128 31
 11615 10f1 93        		.byte	0x93
 11616 10f2 02        		.uleb128 0x2
 11617 10f3 93        		.byte	0x93
 11618 10f4 04        		.uleb128 0x4
 11619 10f5 0000 0000 		.long	.LVL181
 11620 10f9 0000 0000 		.long	.LVL182
 11621 10fd 2900      		.word	0x29
 11622 10ff 93        		.byte	0x93
 11623 1100 0C        		.uleb128 0xc
 11624 1101 91        		.byte	0x91
 11625 1102 0D        		.sleb128 13
 11626 1103 93        		.byte	0x93
 11627 1104 02        		.uleb128 0x2
 11628 1105 93        		.byte	0x93
 11629 1106 06        		.uleb128 0x6
 11630 1107 91        		.byte	0x91
 11631 1108 15        		.sleb128 21
 11632 1109 93        		.byte	0x93
 11633 110a 01        		.uleb128 0x1
 11634 110b 91        		.byte	0x91
 11635 110c 16        		.sleb128 22
 11636 110d 93        		.byte	0x93
 11637 110e 02        		.uleb128 0x2
 11638 110f 91        		.byte	0x91
 11639 1110 18        		.sleb128 24
 11640 1111 93        		.byte	0x93
 11641 1112 01        		.uleb128 0x1
 11642 1113 91        		.byte	0x91
 11643 1114 19        		.sleb128 25
 11644 1115 93        		.byte	0x93
 11645 1116 02        		.uleb128 0x2
 11646 1117 59        		.byte	0x59
 11647 1118 93        		.byte	0x93
 11648 1119 01        		.uleb128 0x1
 11649 111a 91        		.byte	0x91
 11650 111b 1C        		.sleb128 28
 11651 111c 93        		.byte	0x93
 11652 111d 02        		.uleb128 0x2
 11653 111e 91        		.byte	0x91
 11654 111f 1E        		.sleb128 30
 11655 1120 93        		.byte	0x93
 11656 1121 01        		.uleb128 0x1
 11657 1122 91        		.byte	0x91
 11658 1123 1F        		.sleb128 31
 11659 1124 93        		.byte	0x93
 11660 1125 02        		.uleb128 0x2
 11661 1126 93        		.byte	0x93
 11662 1127 04        		.uleb128 0x4
GAS LISTING /tmp/ccPqDIXf.s 			page 229


 11663 1128 0000 0000 		.long	.LVL182
 11664 112c 0000 0000 		.long	.LVL183
 11665 1130 2A00      		.word	0x2a
 11666 1132 93        		.byte	0x93
 11667 1133 0C        		.uleb128 0xc
 11668 1134 91        		.byte	0x91
 11669 1135 0D        		.sleb128 13
 11670 1136 93        		.byte	0x93
 11671 1137 02        		.uleb128 0x2
 11672 1138 93        		.byte	0x93
 11673 1139 06        		.uleb128 0x6
 11674 113a 91        		.byte	0x91
 11675 113b 15        		.sleb128 21
 11676 113c 93        		.byte	0x93
 11677 113d 01        		.uleb128 0x1
 11678 113e 91        		.byte	0x91
 11679 113f 16        		.sleb128 22
 11680 1140 93        		.byte	0x93
 11681 1141 02        		.uleb128 0x2
 11682 1142 91        		.byte	0x91
 11683 1143 18        		.sleb128 24
 11684 1144 93        		.byte	0x93
 11685 1145 01        		.uleb128 0x1
 11686 1146 91        		.byte	0x91
 11687 1147 19        		.sleb128 25
 11688 1148 93        		.byte	0x93
 11689 1149 02        		.uleb128 0x2
 11690 114a 91        		.byte	0x91
 11691 114b 1B        		.sleb128 27
 11692 114c 93        		.byte	0x93
 11693 114d 01        		.uleb128 0x1
 11694 114e 91        		.byte	0x91
 11695 114f 1C        		.sleb128 28
 11696 1150 93        		.byte	0x93
 11697 1151 02        		.uleb128 0x2
 11698 1152 91        		.byte	0x91
 11699 1153 1E        		.sleb128 30
 11700 1154 93        		.byte	0x93
 11701 1155 01        		.uleb128 0x1
 11702 1156 91        		.byte	0x91
 11703 1157 1F        		.sleb128 31
 11704 1158 93        		.byte	0x93
 11705 1159 02        		.uleb128 0x2
 11706 115a 93        		.byte	0x93
 11707 115b 04        		.uleb128 0x4
 11708 115c 0000 0000 		.long	.LVL183
 11709 1160 0000 0000 		.long	.LVL184
 11710 1164 3000      		.word	0x30
 11711 1166 93        		.byte	0x93
 11712 1167 0C        		.uleb128 0xc
 11713 1168 64        		.byte	0x64
 11714 1169 93        		.byte	0x93
 11715 116a 01        		.uleb128 0x1
 11716 116b 65        		.byte	0x65
 11717 116c 93        		.byte	0x93
 11718 116d 01        		.uleb128 0x1
 11719 116e 93        		.byte	0x93
GAS LISTING /tmp/ccPqDIXf.s 			page 230


 11720 116f 06        		.uleb128 0x6
 11721 1170 68        		.byte	0x68
 11722 1171 93        		.byte	0x93
 11723 1172 01        		.uleb128 0x1
 11724 1173 66        		.byte	0x66
 11725 1174 93        		.byte	0x93
 11726 1175 01        		.uleb128 0x1
 11727 1176 67        		.byte	0x67
 11728 1177 93        		.byte	0x93
 11729 1178 01        		.uleb128 0x1
 11730 1179 5B        		.byte	0x5b
 11731 117a 93        		.byte	0x93
 11732 117b 01        		.uleb128 0x1
 11733 117c 60        		.byte	0x60
 11734 117d 93        		.byte	0x93
 11735 117e 01        		.uleb128 0x1
 11736 117f 61        		.byte	0x61
 11737 1180 93        		.byte	0x93
 11738 1181 01        		.uleb128 0x1
 11739 1182 59        		.byte	0x59
 11740 1183 93        		.byte	0x93
 11741 1184 01        		.uleb128 0x1
 11742 1185 5C        		.byte	0x5c
 11743 1186 93        		.byte	0x93
 11744 1187 01        		.uleb128 0x1
 11745 1188 5D        		.byte	0x5d
 11746 1189 93        		.byte	0x93
 11747 118a 01        		.uleb128 0x1
 11748 118b 5A        		.byte	0x5a
 11749 118c 93        		.byte	0x93
 11750 118d 01        		.uleb128 0x1
 11751 118e 5E        		.byte	0x5e
 11752 118f 93        		.byte	0x93
 11753 1190 01        		.uleb128 0x1
 11754 1191 5F        		.byte	0x5f
 11755 1192 93        		.byte	0x93
 11756 1193 01        		.uleb128 0x1
 11757 1194 93        		.byte	0x93
 11758 1195 04        		.uleb128 0x4
 11759 1196 0000 0000 		.long	.LVL184
 11760 119a 0000 0000 		.long	.LVL185
 11761 119e 2E00      		.word	0x2e
 11762 11a0 93        		.byte	0x93
 11763 11a1 0C        		.uleb128 0xc
 11764 11a2 64        		.byte	0x64
 11765 11a3 93        		.byte	0x93
 11766 11a4 01        		.uleb128 0x1
 11767 11a5 65        		.byte	0x65
 11768 11a6 93        		.byte	0x93
 11769 11a7 01        		.uleb128 0x1
 11770 11a8 93        		.byte	0x93
 11771 11a9 06        		.uleb128 0x6
 11772 11aa 68        		.byte	0x68
 11773 11ab 93        		.byte	0x93
 11774 11ac 01        		.uleb128 0x1
 11775 11ad 66        		.byte	0x66
 11776 11ae 93        		.byte	0x93
GAS LISTING /tmp/ccPqDIXf.s 			page 231


 11777 11af 01        		.uleb128 0x1
 11778 11b0 67        		.byte	0x67
 11779 11b1 93        		.byte	0x93
 11780 11b2 01        		.uleb128 0x1
 11781 11b3 5B        		.byte	0x5b
 11782 11b4 93        		.byte	0x93
 11783 11b5 01        		.uleb128 0x1
 11784 11b6 91        		.byte	0x91
 11785 11b7 19        		.sleb128 25
 11786 11b8 93        		.byte	0x93
 11787 11b9 02        		.uleb128 0x2
 11788 11ba 59        		.byte	0x59
 11789 11bb 93        		.byte	0x93
 11790 11bc 01        		.uleb128 0x1
 11791 11bd 5C        		.byte	0x5c
 11792 11be 93        		.byte	0x93
 11793 11bf 01        		.uleb128 0x1
 11794 11c0 5D        		.byte	0x5d
 11795 11c1 93        		.byte	0x93
 11796 11c2 01        		.uleb128 0x1
 11797 11c3 5A        		.byte	0x5a
 11798 11c4 93        		.byte	0x93
 11799 11c5 01        		.uleb128 0x1
 11800 11c6 5E        		.byte	0x5e
 11801 11c7 93        		.byte	0x93
 11802 11c8 01        		.uleb128 0x1
 11803 11c9 5F        		.byte	0x5f
 11804 11ca 93        		.byte	0x93
 11805 11cb 01        		.uleb128 0x1
 11806 11cc 93        		.byte	0x93
 11807 11cd 04        		.uleb128 0x4
 11808 11ce 0000 0000 		.long	.LVL185
 11809 11d2 0000 0000 		.long	.LVL186
 11810 11d6 2C00      		.word	0x2c
 11811 11d8 93        		.byte	0x93
 11812 11d9 0C        		.uleb128 0xc
 11813 11da 64        		.byte	0x64
 11814 11db 93        		.byte	0x93
 11815 11dc 01        		.uleb128 0x1
 11816 11dd 65        		.byte	0x65
 11817 11de 93        		.byte	0x93
 11818 11df 01        		.uleb128 0x1
 11819 11e0 93        		.byte	0x93
 11820 11e1 06        		.uleb128 0x6
 11821 11e2 68        		.byte	0x68
 11822 11e3 93        		.byte	0x93
 11823 11e4 01        		.uleb128 0x1
 11824 11e5 66        		.byte	0x66
 11825 11e6 93        		.byte	0x93
 11826 11e7 01        		.uleb128 0x1
 11827 11e8 67        		.byte	0x67
 11828 11e9 93        		.byte	0x93
 11829 11ea 01        		.uleb128 0x1
 11830 11eb 5B        		.byte	0x5b
 11831 11ec 93        		.byte	0x93
 11832 11ed 01        		.uleb128 0x1
 11833 11ee 91        		.byte	0x91
GAS LISTING /tmp/ccPqDIXf.s 			page 232


 11834 11ef 19        		.sleb128 25
 11835 11f0 93        		.byte	0x93
 11836 11f1 02        		.uleb128 0x2
 11837 11f2 59        		.byte	0x59
 11838 11f3 93        		.byte	0x93
 11839 11f4 01        		.uleb128 0x1
 11840 11f5 5C        		.byte	0x5c
 11841 11f6 93        		.byte	0x93
 11842 11f7 01        		.uleb128 0x1
 11843 11f8 5D        		.byte	0x5d
 11844 11f9 93        		.byte	0x93
 11845 11fa 01        		.uleb128 0x1
 11846 11fb 5A        		.byte	0x5a
 11847 11fc 93        		.byte	0x93
 11848 11fd 01        		.uleb128 0x1
 11849 11fe 91        		.byte	0x91
 11850 11ff 1F        		.sleb128 31
 11851 1200 93        		.byte	0x93
 11852 1201 02        		.uleb128 0x2
 11853 1202 93        		.byte	0x93
 11854 1203 04        		.uleb128 0x4
 11855 1204 0000 0000 		.long	.LVL186
 11856 1208 0000 0000 		.long	.LVL187
 11857 120c 2A00      		.word	0x2a
 11858 120e 93        		.byte	0x93
 11859 120f 0C        		.uleb128 0xc
 11860 1210 64        		.byte	0x64
 11861 1211 93        		.byte	0x93
 11862 1212 01        		.uleb128 0x1
 11863 1213 65        		.byte	0x65
 11864 1214 93        		.byte	0x93
 11865 1215 01        		.uleb128 0x1
 11866 1216 93        		.byte	0x93
 11867 1217 06        		.uleb128 0x6
 11868 1218 68        		.byte	0x68
 11869 1219 93        		.byte	0x93
 11870 121a 01        		.uleb128 0x1
 11871 121b 66        		.byte	0x66
 11872 121c 93        		.byte	0x93
 11873 121d 01        		.uleb128 0x1
 11874 121e 67        		.byte	0x67
 11875 121f 93        		.byte	0x93
 11876 1220 01        		.uleb128 0x1
 11877 1221 5B        		.byte	0x5b
 11878 1222 93        		.byte	0x93
 11879 1223 01        		.uleb128 0x1
 11880 1224 91        		.byte	0x91
 11881 1225 19        		.sleb128 25
 11882 1226 93        		.byte	0x93
 11883 1227 02        		.uleb128 0x2
 11884 1228 59        		.byte	0x59
 11885 1229 93        		.byte	0x93
 11886 122a 01        		.uleb128 0x1
 11887 122b 91        		.byte	0x91
 11888 122c 1C        		.sleb128 28
 11889 122d 93        		.byte	0x93
 11890 122e 02        		.uleb128 0x2
GAS LISTING /tmp/ccPqDIXf.s 			page 233


 11891 122f 5A        		.byte	0x5a
 11892 1230 93        		.byte	0x93
 11893 1231 01        		.uleb128 0x1
 11894 1232 91        		.byte	0x91
 11895 1233 1F        		.sleb128 31
 11896 1234 93        		.byte	0x93
 11897 1235 02        		.uleb128 0x2
 11898 1236 93        		.byte	0x93
 11899 1237 04        		.uleb128 0x4
 11900 1238 0000 0000 		.long	.LVL187
 11901 123c 0000 0000 		.long	.LVL188
 11902 1240 2B00      		.word	0x2b
 11903 1242 93        		.byte	0x93
 11904 1243 0C        		.uleb128 0xc
 11905 1244 64        		.byte	0x64
 11906 1245 93        		.byte	0x93
 11907 1246 01        		.uleb128 0x1
 11908 1247 65        		.byte	0x65
 11909 1248 93        		.byte	0x93
 11910 1249 01        		.uleb128 0x1
 11911 124a 93        		.byte	0x93
 11912 124b 06        		.uleb128 0x6
 11913 124c 68        		.byte	0x68
 11914 124d 93        		.byte	0x93
 11915 124e 01        		.uleb128 0x1
 11916 124f 66        		.byte	0x66
 11917 1250 93        		.byte	0x93
 11918 1251 01        		.uleb128 0x1
 11919 1252 67        		.byte	0x67
 11920 1253 93        		.byte	0x93
 11921 1254 01        		.uleb128 0x1
 11922 1255 91        		.byte	0x91
 11923 1256 18        		.sleb128 24
 11924 1257 93        		.byte	0x93
 11925 1258 01        		.uleb128 0x1
 11926 1259 91        		.byte	0x91
 11927 125a 19        		.sleb128 25
 11928 125b 93        		.byte	0x93
 11929 125c 02        		.uleb128 0x2
 11930 125d 59        		.byte	0x59
 11931 125e 93        		.byte	0x93
 11932 125f 01        		.uleb128 0x1
 11933 1260 91        		.byte	0x91
 11934 1261 1C        		.sleb128 28
 11935 1262 93        		.byte	0x93
 11936 1263 02        		.uleb128 0x2
 11937 1264 5A        		.byte	0x5a
 11938 1265 93        		.byte	0x93
 11939 1266 01        		.uleb128 0x1
 11940 1267 91        		.byte	0x91
 11941 1268 1F        		.sleb128 31
 11942 1269 93        		.byte	0x93
 11943 126a 02        		.uleb128 0x2
 11944 126b 93        		.byte	0x93
 11945 126c 04        		.uleb128 0x4
 11946 126d 0000 0000 		.long	.LVL188
 11947 1271 0000 0000 		.long	.LVL189
GAS LISTING /tmp/ccPqDIXf.s 			page 234


 11948 1275 2C00      		.word	0x2c
 11949 1277 93        		.byte	0x93
 11950 1278 0C        		.uleb128 0xc
 11951 1279 64        		.byte	0x64
 11952 127a 93        		.byte	0x93
 11953 127b 01        		.uleb128 0x1
 11954 127c 65        		.byte	0x65
 11955 127d 93        		.byte	0x93
 11956 127e 01        		.uleb128 0x1
 11957 127f 93        		.byte	0x93
 11958 1280 06        		.uleb128 0x6
 11959 1281 68        		.byte	0x68
 11960 1282 93        		.byte	0x93
 11961 1283 01        		.uleb128 0x1
 11962 1284 66        		.byte	0x66
 11963 1285 93        		.byte	0x93
 11964 1286 01        		.uleb128 0x1
 11965 1287 67        		.byte	0x67
 11966 1288 93        		.byte	0x93
 11967 1289 01        		.uleb128 0x1
 11968 128a 91        		.byte	0x91
 11969 128b 18        		.sleb128 24
 11970 128c 93        		.byte	0x93
 11971 128d 01        		.uleb128 0x1
 11972 128e 91        		.byte	0x91
 11973 128f 19        		.sleb128 25
 11974 1290 93        		.byte	0x93
 11975 1291 02        		.uleb128 0x2
 11976 1292 59        		.byte	0x59
 11977 1293 93        		.byte	0x93
 11978 1294 01        		.uleb128 0x1
 11979 1295 91        		.byte	0x91
 11980 1296 1C        		.sleb128 28
 11981 1297 93        		.byte	0x93
 11982 1298 02        		.uleb128 0x2
 11983 1299 91        		.byte	0x91
 11984 129a 1E        		.sleb128 30
 11985 129b 93        		.byte	0x93
 11986 129c 01        		.uleb128 0x1
 11987 129d 91        		.byte	0x91
 11988 129e 1F        		.sleb128 31
 11989 129f 93        		.byte	0x93
 11990 12a0 02        		.uleb128 0x2
 11991 12a1 93        		.byte	0x93
 11992 12a2 04        		.uleb128 0x4
 11993 12a3 0000 0000 		.long	.LVL189
 11994 12a7 0000 0000 		.long	.LFE27
 11995 12ab 2D00      		.word	0x2d
 11996 12ad 93        		.byte	0x93
 11997 12ae 0C        		.uleb128 0xc
 11998 12af 64        		.byte	0x64
 11999 12b0 93        		.byte	0x93
 12000 12b1 01        		.uleb128 0x1
 12001 12b2 65        		.byte	0x65
 12002 12b3 93        		.byte	0x93
 12003 12b4 01        		.uleb128 0x1
 12004 12b5 93        		.byte	0x93
GAS LISTING /tmp/ccPqDIXf.s 			page 235


 12005 12b6 06        		.uleb128 0x6
 12006 12b7 68        		.byte	0x68
 12007 12b8 93        		.byte	0x93
 12008 12b9 01        		.uleb128 0x1
 12009 12ba 66        		.byte	0x66
 12010 12bb 93        		.byte	0x93
 12011 12bc 01        		.uleb128 0x1
 12012 12bd 67        		.byte	0x67
 12013 12be 93        		.byte	0x93
 12014 12bf 01        		.uleb128 0x1
 12015 12c0 91        		.byte	0x91
 12016 12c1 18        		.sleb128 24
 12017 12c2 93        		.byte	0x93
 12018 12c3 01        		.uleb128 0x1
 12019 12c4 91        		.byte	0x91
 12020 12c5 19        		.sleb128 25
 12021 12c6 93        		.byte	0x93
 12022 12c7 02        		.uleb128 0x2
 12023 12c8 91        		.byte	0x91
 12024 12c9 1B        		.sleb128 27
 12025 12ca 93        		.byte	0x93
 12026 12cb 01        		.uleb128 0x1
 12027 12cc 91        		.byte	0x91
 12028 12cd 1C        		.sleb128 28
 12029 12ce 93        		.byte	0x93
 12030 12cf 02        		.uleb128 0x2
 12031 12d0 91        		.byte	0x91
 12032 12d1 1E        		.sleb128 30
 12033 12d2 93        		.byte	0x93
 12034 12d3 01        		.uleb128 0x1
 12035 12d4 91        		.byte	0x91
 12036 12d5 1F        		.sleb128 31
 12037 12d6 93        		.byte	0x93
 12038 12d7 02        		.uleb128 0x2
 12039 12d8 93        		.byte	0x93
 12040 12d9 04        		.uleb128 0x4
 12041 12da 0000 0000 		.long	0
 12042 12de 0000 0000 		.long	0
 12043               	.LLST29:
 12044 12e2 0000 0000 		.long	.LVL140
 12045 12e6 0000 0000 		.long	.LVL151
 12046 12ea 0200      		.word	0x2
 12047 12ec 91        		.byte	0x91
 12048 12ed 25        		.sleb128 37
 12049 12ee 0000 0000 		.long	.LVL151
 12050 12f2 0000 0000 		.long	.LVL152-1
 12051 12f6 0600      		.word	0x6
 12052 12f8 62        		.byte	0x62
 12053 12f9 93        		.byte	0x93
 12054 12fa 01        		.uleb128 0x1
 12055 12fb 63        		.byte	0x63
 12056 12fc 93        		.byte	0x93
 12057 12fd 01        		.uleb128 0x1
 12058 12fe 0000 0000 		.long	.LVL152-1
 12059 1302 0000 0000 		.long	.LVL153
 12060 1306 0200      		.word	0x2
 12061 1308 91        		.byte	0x91
GAS LISTING /tmp/ccPqDIXf.s 			page 236


 12062 1309 25        		.sleb128 37
 12063 130a 0000 0000 		.long	.LVL153
 12064 130e 0000 0000 		.long	.LVL154-1
 12065 1312 0600      		.word	0x6
 12066 1314 62        		.byte	0x62
 12067 1315 93        		.byte	0x93
 12068 1316 01        		.uleb128 0x1
 12069 1317 63        		.byte	0x63
 12070 1318 93        		.byte	0x93
 12071 1319 01        		.uleb128 0x1
 12072 131a 0000 0000 		.long	.LVL154-1
 12073 131e 0000 0000 		.long	.LVL155
 12074 1322 0200      		.word	0x2
 12075 1324 91        		.byte	0x91
 12076 1325 25        		.sleb128 37
 12077 1326 0000 0000 		.long	.LVL155
 12078 132a 0000 0000 		.long	.LVL156-1
 12079 132e 0600      		.word	0x6
 12080 1330 62        		.byte	0x62
 12081 1331 93        		.byte	0x93
 12082 1332 01        		.uleb128 0x1
 12083 1333 63        		.byte	0x63
 12084 1334 93        		.byte	0x93
 12085 1335 01        		.uleb128 0x1
 12086 1336 0000 0000 		.long	.LVL156-1
 12087 133a 0000 0000 		.long	.LVL157
 12088 133e 0200      		.word	0x2
 12089 1340 91        		.byte	0x91
 12090 1341 25        		.sleb128 37
 12091 1342 0000 0000 		.long	.LVL157
 12092 1346 0000 0000 		.long	.LVL158-1
 12093 134a 0600      		.word	0x6
 12094 134c 62        		.byte	0x62
 12095 134d 93        		.byte	0x93
 12096 134e 01        		.uleb128 0x1
 12097 134f 63        		.byte	0x63
 12098 1350 93        		.byte	0x93
 12099 1351 01        		.uleb128 0x1
 12100 1352 0000 0000 		.long	.LVL158-1
 12101 1356 0000 0000 		.long	.LVL160
 12102 135a 0200      		.word	0x2
 12103 135c 91        		.byte	0x91
 12104 135d 25        		.sleb128 37
 12105 135e 0000 0000 		.long	.LVL160
 12106 1362 0000 0000 		.long	.LVL161-1
 12107 1366 0600      		.word	0x6
 12108 1368 62        		.byte	0x62
 12109 1369 93        		.byte	0x93
 12110 136a 01        		.uleb128 0x1
 12111 136b 63        		.byte	0x63
 12112 136c 93        		.byte	0x93
 12113 136d 01        		.uleb128 0x1
 12114 136e 0000 0000 		.long	.LVL161-1
 12115 1372 0000 0000 		.long	.LVL170
 12116 1376 0200      		.word	0x2
 12117 1378 91        		.byte	0x91
 12118 1379 25        		.sleb128 37
GAS LISTING /tmp/ccPqDIXf.s 			page 237


 12119 137a 0000 0000 		.long	.LVL170
 12120 137e 0000 0000 		.long	.LVL171-1
 12121 1382 0600      		.word	0x6
 12122 1384 62        		.byte	0x62
 12123 1385 93        		.byte	0x93
 12124 1386 01        		.uleb128 0x1
 12125 1387 63        		.byte	0x63
 12126 1388 93        		.byte	0x93
 12127 1389 01        		.uleb128 0x1
 12128 138a 0000 0000 		.long	.LVL171-1
 12129 138e 0000 0000 		.long	.LVL173
 12130 1392 0200      		.word	0x2
 12131 1394 91        		.byte	0x91
 12132 1395 25        		.sleb128 37
 12133 1396 0000 0000 		.long	.LVL173
 12134 139a 0000 0000 		.long	.LVL174-1
 12135 139e 0600      		.word	0x6
 12136 13a0 62        		.byte	0x62
 12137 13a1 93        		.byte	0x93
 12138 13a2 01        		.uleb128 0x1
 12139 13a3 63        		.byte	0x63
 12140 13a4 93        		.byte	0x93
 12141 13a5 01        		.uleb128 0x1
 12142 13a6 0000 0000 		.long	.LVL174-1
 12143 13aa 0000 0000 		.long	.LVL183
 12144 13ae 0200      		.word	0x2
 12145 13b0 91        		.byte	0x91
 12146 13b1 25        		.sleb128 37
 12147 13b2 0000 0000 		.long	.LVL183
 12148 13b6 0000 0000 		.long	.LFE27
 12149 13ba 0600      		.word	0x6
 12150 13bc 62        		.byte	0x62
 12151 13bd 93        		.byte	0x93
 12152 13be 01        		.uleb128 0x1
 12153 13bf 63        		.byte	0x63
 12154 13c0 93        		.byte	0x93
 12155 13c1 01        		.uleb128 0x1
 12156 13c2 0000 0000 		.long	0
 12157 13c6 0000 0000 		.long	0
 12158               	.LLST30:
 12159 13ca 0000 0000 		.long	.LFB28
 12160 13ce 0000 0000 		.long	.LCFI39
 12161 13d2 0300      		.word	0x3
 12162 13d4 92        		.byte	0x92
 12163 13d5 20        		.uleb128 0x20
 12164 13d6 02        		.sleb128 2
 12165 13d7 0000 0000 		.long	.LCFI39
 12166 13db 0000 0000 		.long	.LCFI40
 12167 13df 0300      		.word	0x3
 12168 13e1 92        		.byte	0x92
 12169 13e2 20        		.uleb128 0x20
 12170 13e3 03        		.sleb128 3
 12171 13e4 0000 0000 		.long	.LCFI40
 12172 13e8 0000 0000 		.long	.LCFI41
 12173 13ec 0300      		.word	0x3
 12174 13ee 92        		.byte	0x92
 12175 13ef 20        		.uleb128 0x20
GAS LISTING /tmp/ccPqDIXf.s 			page 238


 12176 13f0 04        		.sleb128 4
 12177 13f1 0000 0000 		.long	.LCFI41
 12178 13f5 0000 0000 		.long	.LCFI42
 12179 13f9 0300      		.word	0x3
 12180 13fb 92        		.byte	0x92
 12181 13fc 20        		.uleb128 0x20
 12182 13fd 05        		.sleb128 5
 12183 13fe 0000 0000 		.long	.LCFI42
 12184 1402 0000 0000 		.long	.LCFI43
 12185 1406 0300      		.word	0x3
 12186 1408 92        		.byte	0x92
 12187 1409 20        		.uleb128 0x20
 12188 140a 06        		.sleb128 6
 12189 140b 0000 0000 		.long	.LCFI43
 12190 140f 0000 0000 		.long	.LCFI44
 12191 1413 0300      		.word	0x3
 12192 1415 92        		.byte	0x92
 12193 1416 20        		.uleb128 0x20
 12194 1417 07        		.sleb128 7
 12195 1418 0000 0000 		.long	.LCFI44
 12196 141c 0000 0000 		.long	.LCFI45
 12197 1420 0300      		.word	0x3
 12198 1422 92        		.byte	0x92
 12199 1423 20        		.uleb128 0x20
 12200 1424 08        		.sleb128 8
 12201 1425 0000 0000 		.long	.LCFI45
 12202 1429 0000 0000 		.long	.LCFI46
 12203 142d 0300      		.word	0x3
 12204 142f 92        		.byte	0x92
 12205 1430 20        		.uleb128 0x20
 12206 1431 09        		.sleb128 9
 12207 1432 0000 0000 		.long	.LCFI46
 12208 1436 0000 0000 		.long	.LCFI47
 12209 143a 0300      		.word	0x3
 12210 143c 92        		.byte	0x92
 12211 143d 20        		.uleb128 0x20
 12212 143e 0A        		.sleb128 10
 12213 143f 0000 0000 		.long	.LCFI47
 12214 1443 0000 0000 		.long	.LCFI48
 12215 1447 0300      		.word	0x3
 12216 1449 92        		.byte	0x92
 12217 144a 20        		.uleb128 0x20
 12218 144b 0B        		.sleb128 11
 12219 144c 0000 0000 		.long	.LCFI48
 12220 1450 0000 0000 		.long	.LCFI49
 12221 1454 0300      		.word	0x3
 12222 1456 92        		.byte	0x92
 12223 1457 20        		.uleb128 0x20
 12224 1458 0C        		.sleb128 12
 12225 1459 0000 0000 		.long	.LCFI49
 12226 145d 0000 0000 		.long	.LCFI50
 12227 1461 0300      		.word	0x3
 12228 1463 92        		.byte	0x92
 12229 1464 20        		.uleb128 0x20
 12230 1465 0D        		.sleb128 13
 12231 1466 0000 0000 		.long	.LCFI50
 12232 146a 0000 0000 		.long	.LCFI51
GAS LISTING /tmp/ccPqDIXf.s 			page 239


 12233 146e 0300      		.word	0x3
 12234 1470 92        		.byte	0x92
 12235 1471 20        		.uleb128 0x20
 12236 1472 0E        		.sleb128 14
 12237 1473 0000 0000 		.long	.LCFI51
 12238 1477 0000 0000 		.long	.LCFI52
 12239 147b 0300      		.word	0x3
 12240 147d 92        		.byte	0x92
 12241 147e 20        		.uleb128 0x20
 12242 147f 0F        		.sleb128 15
 12243 1480 0000 0000 		.long	.LCFI52
 12244 1484 0000 0000 		.long	.LCFI53
 12245 1488 0300      		.word	0x3
 12246 148a 92        		.byte	0x92
 12247 148b 20        		.uleb128 0x20
 12248 148c 10        		.sleb128 16
 12249 148d 0000 0000 		.long	.LCFI53
 12250 1491 0000 0000 		.long	.LCFI54
 12251 1495 0300      		.word	0x3
 12252 1497 92        		.byte	0x92
 12253 1498 20        		.uleb128 0x20
 12254 1499 11        		.sleb128 17
 12255 149a 0000 0000 		.long	.LCFI54
 12256 149e 0000 0000 		.long	.LCFI55
 12257 14a2 0300      		.word	0x3
 12258 14a4 92        		.byte	0x92
 12259 14a5 20        		.uleb128 0x20
 12260 14a6 35        		.sleb128 53
 12261 14a7 0000 0000 		.long	.LCFI55
 12262 14ab 0000 0000 		.long	.LCFI56
 12263 14af 0300      		.word	0x3
 12264 14b1 92        		.byte	0x92
 12265 14b2 20        		.uleb128 0x20
 12266 14b3 0F        		.sleb128 15
 12267 14b4 0000 0000 		.long	.LCFI56
 12268 14b8 0000 0000 		.long	.LCFI57
 12269 14bc 0300      		.word	0x3
 12270 14be 92        		.byte	0x92
 12271 14bf 20        		.uleb128 0x20
 12272 14c0 10        		.sleb128 16
 12273 14c1 0000 0000 		.long	.LCFI57
 12274 14c5 0000 0000 		.long	.LCFI58
 12275 14c9 0300      		.word	0x3
 12276 14cb 92        		.byte	0x92
 12277 14cc 20        		.uleb128 0x20
 12278 14cd 11        		.sleb128 17
 12279 14ce 0000 0000 		.long	.LCFI58
 12280 14d2 0000 0000 		.long	.LCFI59
 12281 14d6 0300      		.word	0x3
 12282 14d8 92        		.byte	0x92
 12283 14d9 20        		.uleb128 0x20
 12284 14da 35        		.sleb128 53
 12285 14db 0000 0000 		.long	.LCFI59
 12286 14df 0000 0000 		.long	.LFE28
 12287 14e3 0300      		.word	0x3
 12288 14e5 92        		.byte	0x92
 12289 14e6 20        		.uleb128 0x20
GAS LISTING /tmp/ccPqDIXf.s 			page 240


 12290 14e7 0F        		.sleb128 15
 12291 14e8 0000 0000 		.long	0
 12292 14ec 0000 0000 		.long	0
 12293               	.LLST31:
 12294 14f0 0000 0000 		.long	.LFB29
 12295 14f4 0000 0000 		.long	.LCFI60
 12296 14f8 0300      		.word	0x3
 12297 14fa 92        		.byte	0x92
 12298 14fb 20        		.uleb128 0x20
 12299 14fc 02        		.sleb128 2
 12300 14fd 0000 0000 		.long	.LCFI60
 12301 1501 0000 0000 		.long	.LCFI61
 12302 1505 0300      		.word	0x3
 12303 1507 92        		.byte	0x92
 12304 1508 20        		.uleb128 0x20
 12305 1509 03        		.sleb128 3
 12306 150a 0000 0000 		.long	.LCFI61
 12307 150e 0000 0000 		.long	.LCFI62
 12308 1512 0300      		.word	0x3
 12309 1514 92        		.byte	0x92
 12310 1515 20        		.uleb128 0x20
 12311 1516 04        		.sleb128 4
 12312 1517 0000 0000 		.long	.LCFI62
 12313 151b 0000 0000 		.long	.LCFI63
 12314 151f 0300      		.word	0x3
 12315 1521 92        		.byte	0x92
 12316 1522 20        		.uleb128 0x20
 12317 1523 05        		.sleb128 5
 12318 1524 0000 0000 		.long	.LCFI63
 12319 1528 0000 0000 		.long	.LCFI64
 12320 152c 0300      		.word	0x3
 12321 152e 92        		.byte	0x92
 12322 152f 20        		.uleb128 0x20
 12323 1530 06        		.sleb128 6
 12324 1531 0000 0000 		.long	.LCFI64
 12325 1535 0000 0000 		.long	.LCFI65
 12326 1539 0300      		.word	0x3
 12327 153b 92        		.byte	0x92
 12328 153c 20        		.uleb128 0x20
 12329 153d 2A        		.sleb128 42
 12330 153e 0000 0000 		.long	.LCFI65
 12331 1542 0000 0000 		.long	.LCFI66
 12332 1546 0300      		.word	0x3
 12333 1548 92        		.byte	0x92
 12334 1549 20        		.uleb128 0x20
 12335 154a 04        		.sleb128 4
 12336 154b 0000 0000 		.long	.LCFI66
 12337 154f 0000 0000 		.long	.LCFI67
 12338 1553 0300      		.word	0x3
 12339 1555 92        		.byte	0x92
 12340 1556 20        		.uleb128 0x20
 12341 1557 05        		.sleb128 5
 12342 1558 0000 0000 		.long	.LCFI67
 12343 155c 0000 0000 		.long	.LCFI68
 12344 1560 0300      		.word	0x3
 12345 1562 92        		.byte	0x92
 12346 1563 20        		.uleb128 0x20
GAS LISTING /tmp/ccPqDIXf.s 			page 241


 12347 1564 06        		.sleb128 6
 12348 1565 0000 0000 		.long	.LCFI68
 12349 1569 0000 0000 		.long	.LCFI69
 12350 156d 0300      		.word	0x3
 12351 156f 92        		.byte	0x92
 12352 1570 20        		.uleb128 0x20
 12353 1571 2A        		.sleb128 42
 12354 1572 0000 0000 		.long	.LCFI69
 12355 1576 0000 0000 		.long	.LFE29
 12356 157a 0300      		.word	0x3
 12357 157c 92        		.byte	0x92
 12358 157d 20        		.uleb128 0x20
 12359 157e 04        		.sleb128 4
 12360 157f 0000 0000 		.long	0
 12361 1583 0000 0000 		.long	0
 12362               	.LLST32:
 12363 1587 0000 0000 		.long	.LFB30
 12364 158b 0000 0000 		.long	.LCFI70
 12365 158f 0300      		.word	0x3
 12366 1591 92        		.byte	0x92
 12367 1592 20        		.uleb128 0x20
 12368 1593 02        		.sleb128 2
 12369 1594 0000 0000 		.long	.LCFI70
 12370 1598 0000 0000 		.long	.LCFI71
 12371 159c 0300      		.word	0x3
 12372 159e 92        		.byte	0x92
 12373 159f 20        		.uleb128 0x20
 12374 15a0 03        		.sleb128 3
 12375 15a1 0000 0000 		.long	.LCFI71
 12376 15a5 0000 0000 		.long	.LCFI72
 12377 15a9 0300      		.word	0x3
 12378 15ab 92        		.byte	0x92
 12379 15ac 20        		.uleb128 0x20
 12380 15ad 04        		.sleb128 4
 12381 15ae 0000 0000 		.long	.LCFI72
 12382 15b2 0000 0000 		.long	.LCFI73
 12383 15b6 0300      		.word	0x3
 12384 15b8 92        		.byte	0x92
 12385 15b9 20        		.uleb128 0x20
 12386 15ba 05        		.sleb128 5
 12387 15bb 0000 0000 		.long	.LCFI73
 12388 15bf 0000 0000 		.long	.LFE30
 12389 15c3 0300      		.word	0x3
 12390 15c5 92        		.byte	0x92
 12391 15c6 20        		.uleb128 0x20
 12392 15c7 06        		.sleb128 6
 12393 15c8 0000 0000 		.long	0
 12394 15cc 0000 0000 		.long	0
 12395               	.LLST33:
 12396 15d0 0000 0000 		.long	.LVL190
 12397 15d4 0000 0000 		.long	.LVL191
 12398 15d8 0600      		.word	0x6
 12399 15da 60        		.byte	0x60
 12400 15db 93        		.byte	0x93
 12401 15dc 01        		.uleb128 0x1
 12402 15dd 61        		.byte	0x61
 12403 15de 93        		.byte	0x93
GAS LISTING /tmp/ccPqDIXf.s 			page 242


 12404 15df 01        		.uleb128 0x1
 12405 15e0 0000 0000 		.long	.LVL191
 12406 15e4 0000 0000 		.long	.LFE30
 12407 15e8 0500      		.word	0x5
 12408 15ea 03        		.byte	0x3
 12409 15eb 0000 0000 		.long	goal+8
 12410 15ef 0000 0000 		.long	0
 12411 15f3 0000 0000 		.long	0
 12412               	.LLST34:
 12413 15f7 0000 0000 		.long	.LVL190
 12414 15fb 0000 0000 		.long	.LVL192
 12415 15ff 0600      		.word	0x6
 12416 1601 5E        		.byte	0x5e
 12417 1602 93        		.byte	0x93
 12418 1603 01        		.uleb128 0x1
 12419 1604 5F        		.byte	0x5f
 12420 1605 93        		.byte	0x93
 12421 1606 01        		.uleb128 0x1
 12422 1607 0000 0000 		.long	.LVL192
 12423 160b 0000 0000 		.long	.LFE30
 12424 160f 0500      		.word	0x5
 12425 1611 03        		.byte	0x3
 12426 1612 0000 0000 		.long	goal+10
 12427 1616 0000 0000 		.long	0
 12428 161a 0000 0000 		.long	0
 12429               	.LLST35:
 12430 161e 0000 0000 		.long	.LFB31
 12431 1622 0000 0000 		.long	.LCFI74
 12432 1626 0300      		.word	0x3
 12433 1628 92        		.byte	0x92
 12434 1629 20        		.uleb128 0x20
 12435 162a 02        		.sleb128 2
 12436 162b 0000 0000 		.long	.LCFI74
 12437 162f 0000 0000 		.long	.LCFI75
 12438 1633 0300      		.word	0x3
 12439 1635 92        		.byte	0x92
 12440 1636 20        		.uleb128 0x20
 12441 1637 03        		.sleb128 3
 12442 1638 0000 0000 		.long	.LCFI75
 12443 163c 0000 0000 		.long	.LCFI76
 12444 1640 0300      		.word	0x3
 12445 1642 92        		.byte	0x92
 12446 1643 20        		.uleb128 0x20
 12447 1644 04        		.sleb128 4
 12448 1645 0000 0000 		.long	.LCFI76
 12449 1649 0000 0000 		.long	.LCFI77
 12450 164d 0300      		.word	0x3
 12451 164f 92        		.byte	0x92
 12452 1650 20        		.uleb128 0x20
 12453 1651 05        		.sleb128 5
 12454 1652 0000 0000 		.long	.LCFI77
 12455 1656 0000 0000 		.long	.LCFI78
 12456 165a 0300      		.word	0x3
 12457 165c 92        		.byte	0x92
 12458 165d 20        		.uleb128 0x20
 12459 165e 06        		.sleb128 6
 12460 165f 0000 0000 		.long	.LCFI78
GAS LISTING /tmp/ccPqDIXf.s 			page 243


 12461 1663 0000 0000 		.long	.LCFI79
 12462 1667 0300      		.word	0x3
 12463 1669 92        		.byte	0x92
 12464 166a 20        		.uleb128 0x20
 12465 166b 07        		.sleb128 7
 12466 166c 0000 0000 		.long	.LCFI79
 12467 1670 0000 0000 		.long	.LCFI80
 12468 1674 0300      		.word	0x3
 12469 1676 92        		.byte	0x92
 12470 1677 20        		.uleb128 0x20
 12471 1678 08        		.sleb128 8
 12472 1679 0000 0000 		.long	.LCFI80
 12473 167d 0000 0000 		.long	.LCFI81
 12474 1681 0300      		.word	0x3
 12475 1683 92        		.byte	0x92
 12476 1684 20        		.uleb128 0x20
 12477 1685 09        		.sleb128 9
 12478 1686 0000 0000 		.long	.LCFI81
 12479 168a 0000 0000 		.long	.LCFI82
 12480 168e 0300      		.word	0x3
 12481 1690 92        		.byte	0x92
 12482 1691 20        		.uleb128 0x20
 12483 1692 0A        		.sleb128 10
 12484 1693 0000 0000 		.long	.LCFI82
 12485 1697 0000 0000 		.long	.LCFI83
 12486 169b 0300      		.word	0x3
 12487 169d 92        		.byte	0x92
 12488 169e 20        		.uleb128 0x20
 12489 169f 0B        		.sleb128 11
 12490 16a0 0000 0000 		.long	.LCFI83
 12491 16a4 0000 0000 		.long	.LCFI84
 12492 16a8 0300      		.word	0x3
 12493 16aa 92        		.byte	0x92
 12494 16ab 20        		.uleb128 0x20
 12495 16ac 0C        		.sleb128 12
 12496 16ad 0000 0000 		.long	.LCFI84
 12497 16b1 0000 0000 		.long	.LCFI85
 12498 16b5 0300      		.word	0x3
 12499 16b7 92        		.byte	0x92
 12500 16b8 20        		.uleb128 0x20
 12501 16b9 0D        		.sleb128 13
 12502 16ba 0000 0000 		.long	.LCFI85
 12503 16be 0000 0000 		.long	.LCFI86
 12504 16c2 0300      		.word	0x3
 12505 16c4 92        		.byte	0x92
 12506 16c5 20        		.uleb128 0x20
 12507 16c6 0E        		.sleb128 14
 12508 16c7 0000 0000 		.long	.LCFI86
 12509 16cb 0000 0000 		.long	.LCFI87
 12510 16cf 0300      		.word	0x3
 12511 16d1 92        		.byte	0x92
 12512 16d2 20        		.uleb128 0x20
 12513 16d3 0F        		.sleb128 15
 12514 16d4 0000 0000 		.long	.LCFI87
 12515 16d8 0000 0000 		.long	.LCFI88
 12516 16dc 0300      		.word	0x3
 12517 16de 92        		.byte	0x92
GAS LISTING /tmp/ccPqDIXf.s 			page 244


 12518 16df 20        		.uleb128 0x20
 12519 16e0 10        		.sleb128 16
 12520 16e1 0000 0000 		.long	.LCFI88
 12521 16e5 0000 0000 		.long	.LCFI89
 12522 16e9 0300      		.word	0x3
 12523 16eb 92        		.byte	0x92
 12524 16ec 20        		.uleb128 0x20
 12525 16ed 11        		.sleb128 17
 12526 16ee 0000 0000 		.long	.LCFI89
 12527 16f2 0000 0000 		.long	.LCFI90
 12528 16f6 0300      		.word	0x3
 12529 16f8 92        		.byte	0x92
 12530 16f9 20        		.uleb128 0x20
 12531 16fa 12        		.sleb128 18
 12532 16fb 0000 0000 		.long	.LCFI90
 12533 16ff 0000 0000 		.long	.LCFI91
 12534 1703 0300      		.word	0x3
 12535 1705 92        		.byte	0x92
 12536 1706 20        		.uleb128 0x20
 12537 1707 13        		.sleb128 19
 12538 1708 0000 0000 		.long	.LCFI91
 12539 170c 0000 0000 		.long	.LCFI92
 12540 1710 0300      		.word	0x3
 12541 1712 92        		.byte	0x92
 12542 1713 20        		.uleb128 0x20
 12543 1714 14        		.sleb128 20
 12544 1715 0000 0000 		.long	.LCFI92
 12545 1719 0000 0000 		.long	.LCFI93
 12546 171d 0200      		.word	0x2
 12547 171f 8C        		.byte	0x8c
 12548 1720 14        		.sleb128 20
 12549 1721 0000 0000 		.long	.LCFI93
 12550 1725 0000 0000 		.long	.LFE31
 12551 1729 0200      		.word	0x2
 12552 172b 8C        		.byte	0x8c
 12553 172c 2A        		.sleb128 42
 12554 172d 0000 0000 		.long	0
 12555 1731 0000 0000 		.long	0
 12556               	.LLST36:
 12557 1735 0000 0000 		.long	.LVL193
 12558 1739 0000 0000 		.long	.LVL194
 12559 173d 0600      		.word	0x6
 12560 173f 56        		.byte	0x56
 12561 1740 93        		.byte	0x93
 12562 1741 01        		.uleb128 0x1
 12563 1742 57        		.byte	0x57
 12564 1743 93        		.byte	0x93
 12565 1744 01        		.uleb128 0x1
 12566 1745 0000 0000 		.long	.LVL194
 12567 1749 0000 0000 		.long	.LVL195
 12568 174d 0600      		.word	0x6
 12569 174f 68        		.byte	0x68
 12570 1750 93        		.byte	0x93
 12571 1751 01        		.uleb128 0x1
 12572 1752 69        		.byte	0x69
 12573 1753 93        		.byte	0x93
 12574 1754 01        		.uleb128 0x1
GAS LISTING /tmp/ccPqDIXf.s 			page 245


 12575 1755 0000 0000 		.long	.LVL195
 12576 1759 0000 0000 		.long	.LVL196
 12577 175d 0600      		.word	0x6
 12578 175f 64        		.byte	0x64
 12579 1760 93        		.byte	0x93
 12580 1761 01        		.uleb128 0x1
 12581 1762 65        		.byte	0x65
 12582 1763 93        		.byte	0x93
 12583 1764 01        		.uleb128 0x1
 12584 1765 0000 0000 		.long	.LVL196
 12585 1769 0000 0000 		.long	.LVL197
 12586 176d 0600      		.word	0x6
 12587 176f 68        		.byte	0x68
 12588 1770 93        		.byte	0x93
 12589 1771 01        		.uleb128 0x1
 12590 1772 69        		.byte	0x69
 12591 1773 93        		.byte	0x93
 12592 1774 01        		.uleb128 0x1
 12593 1775 0000 0000 		.long	.LVL198
 12594 1779 0000 0000 		.long	.LVL199-1
 12595 177d 0600      		.word	0x6
 12596 177f 68        		.byte	0x68
 12597 1780 93        		.byte	0x93
 12598 1781 01        		.uleb128 0x1
 12599 1782 69        		.byte	0x69
 12600 1783 93        		.byte	0x93
 12601 1784 01        		.uleb128 0x1
 12602 1785 0000 0000 		.long	0
 12603 1789 0000 0000 		.long	0
 12604               	.LLST37:
 12605 178d 0000 0000 		.long	.LVL193
 12606 1791 0000 0000 		.long	.LVL194
 12607 1795 0200      		.word	0x2
 12608 1797 31        		.byte	0x31
 12609 1798 9F        		.byte	0x9f
 12610 1799 0000 0000 		.long	0
 12611 179d 0000 0000 		.long	0
 12612               	.LLST38:
 12613 17a1 0000 0000 		.long	.LVL200
 12614 17a5 0000 0000 		.long	.LVL250
 12615 17a9 1B00      		.word	0x1b
 12616 17ab 76        		.byte	0x76
 12617 17ac 00        		.sleb128 0
 12618 17ad F7        		.byte	0xf7
 12619 17ae 30        		.uleb128 0x30
 12620 17af F7        		.byte	0xf7
 12621 17b0 29        		.uleb128 0x29
 12622 17b1 F5        		.byte	0xf5
 12623 17b2 0C        		.uleb128 0xc
 12624 17b3 29        		.uleb128 0x29
 12625 17b4 1B        		.byte	0x1b
 12626 17b5 F4        		.byte	0xf4
 12627 17b6 29        		.uleb128 0x29
 12628 17b7 04        		.byte	0x4
 12629 17b8 0000 0C42 		.long	0x420c0000
 12630 17bc 1E        		.byte	0x1e
 12631 17bd F7        		.byte	0xf7
GAS LISTING /tmp/ccPqDIXf.s 			page 246


 12632 17be 30        		.uleb128 0x30
 12633 17bf F7        		.byte	0xf7
 12634 17c0 00        		.uleb128 0
 12635 17c1 40        		.byte	0x40
 12636 17c2 24        		.byte	0x24
 12637 17c3 40        		.byte	0x40
 12638 17c4 26        		.byte	0x26
 12639 17c5 9F        		.byte	0x9f
 12640 17c6 0000 0000 		.long	0
 12641 17ca 0000 0000 		.long	0
 12642               	.LLST39:
 12643 17ce 0000 0000 		.long	.LVL205
 12644 17d2 0000 0000 		.long	.LVL250
 12645 17d6 1D00      		.word	0x1d
 12646 17d8 91        		.byte	0x91
 12647 17d9 63        		.sleb128 -29
 12648 17da 94        		.byte	0x94
 12649 17db 02        		.byte	0x2
 12650 17dc F7        		.byte	0xf7
 12651 17dd 30        		.uleb128 0x30
 12652 17de F7        		.byte	0xf7
 12653 17df 29        		.uleb128 0x29
 12654 17e0 F5        		.byte	0xf5
 12655 17e1 0C        		.uleb128 0xc
 12656 17e2 29        		.uleb128 0x29
 12657 17e3 1B        		.byte	0x1b
 12658 17e4 F4        		.byte	0xf4
 12659 17e5 29        		.uleb128 0x29
 12660 17e6 04        		.byte	0x4
 12661 17e7 0000 0C42 		.long	0x420c0000
 12662 17eb 1E        		.byte	0x1e
 12663 17ec F7        		.byte	0xf7
 12664 17ed 30        		.uleb128 0x30
 12665 17ee F7        		.byte	0xf7
 12666 17ef 00        		.uleb128 0
 12667 17f0 40        		.byte	0x40
 12668 17f1 24        		.byte	0x24
 12669 17f2 40        		.byte	0x40
 12670 17f3 26        		.byte	0x26
 12671 17f4 9F        		.byte	0x9f
 12672 17f5 0000 0000 		.long	0
 12673 17f9 0000 0000 		.long	0
 12674               	.LLST40:
 12675 17fd 0000 0000 		.long	.LVL210
 12676 1801 0000 0000 		.long	.LVL250
 12677 1805 1D00      		.word	0x1d
 12678 1807 91        		.byte	0x91
 12679 1808 65        		.sleb128 -27
 12680 1809 94        		.byte	0x94
 12681 180a 02        		.byte	0x2
 12682 180b F7        		.byte	0xf7
 12683 180c 30        		.uleb128 0x30
 12684 180d F7        		.byte	0xf7
 12685 180e 29        		.uleb128 0x29
 12686 180f F5        		.byte	0xf5
 12687 1810 0C        		.uleb128 0xc
 12688 1811 29        		.uleb128 0x29
GAS LISTING /tmp/ccPqDIXf.s 			page 247


 12689 1812 1B        		.byte	0x1b
 12690 1813 F4        		.byte	0xf4
 12691 1814 29        		.uleb128 0x29
 12692 1815 04        		.byte	0x4
 12693 1816 0000 0C42 		.long	0x420c0000
 12694 181a 1E        		.byte	0x1e
 12695 181b F7        		.byte	0xf7
 12696 181c 30        		.uleb128 0x30
 12697 181d F7        		.byte	0xf7
 12698 181e 00        		.uleb128 0
 12699 181f 40        		.byte	0x40
 12700 1820 24        		.byte	0x24
 12701 1821 40        		.byte	0x40
 12702 1822 26        		.byte	0x26
 12703 1823 9F        		.byte	0x9f
 12704 1824 0000 0000 		.long	0
 12705 1828 0000 0000 		.long	0
 12706               	.LLST41:
 12707 182c 0000 0000 		.long	.LVL215
 12708 1830 0000 0000 		.long	.LVL250
 12709 1834 1D00      		.word	0x1d
 12710 1836 91        		.byte	0x91
 12711 1837 67        		.sleb128 -25
 12712 1838 94        		.byte	0x94
 12713 1839 02        		.byte	0x2
 12714 183a F7        		.byte	0xf7
 12715 183b 30        		.uleb128 0x30
 12716 183c F7        		.byte	0xf7
 12717 183d 29        		.uleb128 0x29
 12718 183e F5        		.byte	0xf5
 12719 183f 0C        		.uleb128 0xc
 12720 1840 29        		.uleb128 0x29
 12721 1841 1B        		.byte	0x1b
 12722 1842 F4        		.byte	0xf4
 12723 1843 29        		.uleb128 0x29
 12724 1844 04        		.byte	0x4
 12725 1845 0000 0C42 		.long	0x420c0000
 12726 1849 1E        		.byte	0x1e
 12727 184a F7        		.byte	0xf7
 12728 184b 30        		.uleb128 0x30
 12729 184c F7        		.byte	0xf7
 12730 184d 00        		.uleb128 0
 12731 184e 40        		.byte	0x40
 12732 184f 24        		.byte	0x24
 12733 1850 40        		.byte	0x40
 12734 1851 26        		.byte	0x26
 12735 1852 9F        		.byte	0x9f
 12736 1853 0000 0000 		.long	0
 12737 1857 0000 0000 		.long	0
 12738               	.LLST42:
 12739 185b 0000 0000 		.long	.LVL220
 12740 185f 0000 0000 		.long	.LVL250
 12741 1863 1B00      		.word	0x1b
 12742 1865 72        		.byte	0x72
 12743 1866 00        		.sleb128 0
 12744 1867 F7        		.byte	0xf7
 12745 1868 30        		.uleb128 0x30
GAS LISTING /tmp/ccPqDIXf.s 			page 248


 12746 1869 F7        		.byte	0xf7
 12747 186a 29        		.uleb128 0x29
 12748 186b F5        		.byte	0xf5
 12749 186c 0C        		.uleb128 0xc
 12750 186d 29        		.uleb128 0x29
 12751 186e 1B        		.byte	0x1b
 12752 186f F4        		.byte	0xf4
 12753 1870 29        		.uleb128 0x29
 12754 1871 04        		.byte	0x4
 12755 1872 0000 0C42 		.long	0x420c0000
 12756 1876 1E        		.byte	0x1e
 12757 1877 F7        		.byte	0xf7
 12758 1878 30        		.uleb128 0x30
 12759 1879 F7        		.byte	0xf7
 12760 187a 00        		.uleb128 0
 12761 187b 40        		.byte	0x40
 12762 187c 24        		.byte	0x24
 12763 187d 40        		.byte	0x40
 12764 187e 26        		.byte	0x26
 12765 187f 9F        		.byte	0x9f
 12766 1880 0000 0000 		.long	0
 12767 1884 0000 0000 		.long	0
 12768               	.LLST43:
 12769 1888 0000 0000 		.long	.LVL225
 12770 188c 0000 0000 		.long	.LVL249
 12771 1890 1B00      		.word	0x1b
 12772 1892 80        		.byte	0x80
 12773 1893 00        		.sleb128 0
 12774 1894 F7        		.byte	0xf7
 12775 1895 30        		.uleb128 0x30
 12776 1896 F7        		.byte	0xf7
 12777 1897 29        		.uleb128 0x29
 12778 1898 F5        		.byte	0xf5
 12779 1899 0C        		.uleb128 0xc
 12780 189a 29        		.uleb128 0x29
 12781 189b 1B        		.byte	0x1b
 12782 189c F4        		.byte	0xf4
 12783 189d 29        		.uleb128 0x29
 12784 189e 04        		.byte	0x4
 12785 189f 0000 0C42 		.long	0x420c0000
 12786 18a3 1E        		.byte	0x1e
 12787 18a4 F7        		.byte	0xf7
 12788 18a5 30        		.uleb128 0x30
 12789 18a6 F7        		.byte	0xf7
 12790 18a7 00        		.uleb128 0
 12791 18a8 40        		.byte	0x40
 12792 18a9 24        		.byte	0x24
 12793 18aa 40        		.byte	0x40
 12794 18ab 26        		.byte	0x26
 12795 18ac 9F        		.byte	0x9f
 12796 18ad 0000 0000 		.long	0
 12797 18b1 0000 0000 		.long	0
 12798               	.LLST44:
 12799 18b5 0000 0000 		.long	.LVL230
 12800 18b9 0000 0000 		.long	.LVL231
 12801 18bd 0600      		.word	0x6
 12802 18bf 68        		.byte	0x68
GAS LISTING /tmp/ccPqDIXf.s 			page 249


 12803 18c0 93        		.byte	0x93
 12804 18c1 01        		.uleb128 0x1
 12805 18c2 69        		.byte	0x69
 12806 18c3 93        		.byte	0x93
 12807 18c4 01        		.uleb128 0x1
 12808 18c5 0000 0000 		.long	.LVL231
 12809 18c9 0000 0000 		.long	.LVL232-1
 12810 18cd 0200      		.word	0x2
 12811 18cf 91        		.byte	0x91
 12812 18d0 57        		.sleb128 -41
 12813 18d1 0000 0000 		.long	0
 12814 18d5 0000 0000 		.long	0
 12815               	.LLST45:
 12816 18d9 0000 0000 		.long	.LVL233
 12817 18dd 0000 0000 		.long	.LVL234
 12818 18e1 0600      		.word	0x6
 12819 18e3 68        		.byte	0x68
 12820 18e4 93        		.byte	0x93
 12821 18e5 01        		.uleb128 0x1
 12822 18e6 69        		.byte	0x69
 12823 18e7 93        		.byte	0x93
 12824 18e8 01        		.uleb128 0x1
 12825 18e9 0000 0000 		.long	.LVL234
 12826 18ed 0000 0000 		.long	.LVL235-1
 12827 18f1 0200      		.word	0x2
 12828 18f3 91        		.byte	0x91
 12829 18f4 59        		.sleb128 -39
 12830 18f5 0000 0000 		.long	0
 12831 18f9 0000 0000 		.long	0
 12832               	.LLST46:
 12833 18fd 0000 0000 		.long	.LVL236
 12834 1901 0000 0000 		.long	.LVL237
 12835 1905 0600      		.word	0x6
 12836 1907 68        		.byte	0x68
 12837 1908 93        		.byte	0x93
 12838 1909 01        		.uleb128 0x1
 12839 190a 69        		.byte	0x69
 12840 190b 93        		.byte	0x93
 12841 190c 01        		.uleb128 0x1
 12842 190d 0000 0000 		.long	.LVL237
 12843 1911 0000 0000 		.long	.LVL238-1
 12844 1915 0200      		.word	0x2
 12845 1917 91        		.byte	0x91
 12846 1918 5B        		.sleb128 -37
 12847 1919 0000 0000 		.long	0
 12848 191d 0000 0000 		.long	0
 12849               	.LLST47:
 12850 1921 0000 0000 		.long	.LVL239
 12851 1925 0000 0000 		.long	.LVL240
 12852 1929 0600      		.word	0x6
 12853 192b 68        		.byte	0x68
 12854 192c 93        		.byte	0x93
 12855 192d 01        		.uleb128 0x1
 12856 192e 69        		.byte	0x69
 12857 192f 93        		.byte	0x93
 12858 1930 01        		.uleb128 0x1
 12859 1931 0000 0000 		.long	.LVL240
GAS LISTING /tmp/ccPqDIXf.s 			page 250


 12860 1935 0000 0000 		.long	.LVL241-1
 12861 1939 0200      		.word	0x2
 12862 193b 91        		.byte	0x91
 12863 193c 5D        		.sleb128 -35
 12864 193d 0000 0000 		.long	0
 12865 1941 0000 0000 		.long	0
 12866               	.LLST48:
 12867 1945 0000 0000 		.long	.LVL242
 12868 1949 0000 0000 		.long	.LVL243
 12869 194d 0600      		.word	0x6
 12870 194f 68        		.byte	0x68
 12871 1950 93        		.byte	0x93
 12872 1951 01        		.uleb128 0x1
 12873 1952 69        		.byte	0x69
 12874 1953 93        		.byte	0x93
 12875 1954 01        		.uleb128 0x1
 12876 1955 0000 0000 		.long	.LVL243
 12877 1959 0000 0000 		.long	.LVL244-1
 12878 195d 0200      		.word	0x2
 12879 195f 91        		.byte	0x91
 12880 1960 5F        		.sleb128 -33
 12881 1961 0000 0000 		.long	0
 12882 1965 0000 0000 		.long	0
 12883               	.LLST49:
 12884 1969 0000 0000 		.long	.LVL245
 12885 196d 0000 0000 		.long	.LVL246
 12886 1971 0600      		.word	0x6
 12887 1973 68        		.byte	0x68
 12888 1974 93        		.byte	0x93
 12889 1975 01        		.uleb128 0x1
 12890 1976 69        		.byte	0x69
 12891 1977 93        		.byte	0x93
 12892 1978 01        		.uleb128 0x1
 12893 1979 0000 0000 		.long	.LVL246
 12894 197d 0000 0000 		.long	.LVL247-1
 12895 1981 0200      		.word	0x2
 12896 1983 91        		.byte	0x91
 12897 1984 61        		.sleb128 -31
 12898 1985 0000 0000 		.long	0
 12899 1989 0000 0000 		.long	0
 12900               	.LLST50:
 12901 198d 0000 0000 		.long	.LVL253
 12902 1991 0000 0000 		.long	.LVL254
 12903 1995 0200      		.word	0x2
 12904 1997 30        		.byte	0x30
 12905 1998 9F        		.byte	0x9f
 12906 1999 0000 0000 		.long	0
 12907 199d 0000 0000 		.long	0
 12908               	.LLST51:
 12909 19a1 0000 0000 		.long	.LVL253
 12910 19a5 0000 0000 		.long	.LVL254
 12911 19a9 0400      		.word	0x4
 12912 19ab 0B        		.byte	0xb
 12913 19ac 70FE      		.word	0xfe70
 12914 19ae 9F        		.byte	0x9f
 12915 19af 0000 0000 		.long	0
 12916 19b3 0000 0000 		.long	0
GAS LISTING /tmp/ccPqDIXf.s 			page 251


 12917               	.LLST55:
 12918 19b7 0000 0000 		.long	.LVL253
 12919 19bb 0000 0000 		.long	.LVL254
 12920 19bf 0400      		.word	0x4
 12921 19c1 0B        		.byte	0xb
 12922 19c2 5CF9      		.word	0xf95c
 12923 19c4 9F        		.byte	0x9f
 12924 19c5 0000 0000 		.long	0
 12925 19c9 0000 0000 		.long	0
 12926               	.LLST56:
 12927 19cd 0000 0000 		.long	.LVL255
 12928 19d1 0000 0000 		.long	.LVL256
 12929 19d5 0200      		.word	0x2
 12930 19d7 30        		.byte	0x30
 12931 19d8 9F        		.byte	0x9f
 12932 19d9 0000 0000 		.long	0
 12933 19dd 0000 0000 		.long	0
 12934               	.LLST57:
 12935 19e1 0000 0000 		.long	.LVL255
 12936 19e5 0000 0000 		.long	.LVL256
 12937 19e9 0400      		.word	0x4
 12938 19eb 0B        		.byte	0xb
 12939 19ec 38FF      		.word	0xff38
 12940 19ee 9F        		.byte	0x9f
 12941 19ef 0000 0000 		.long	0
 12942 19f3 0000 0000 		.long	0
 12943               	.LLST61:
 12944 19f7 0000 0000 		.long	.LVL255
 12945 19fb 0000 0000 		.long	.LVL256
 12946 19ff 0400      		.word	0x4
 12947 1a01 0B        		.byte	0xb
 12948 1a02 AEFC      		.word	0xfcae
 12949 1a04 9F        		.byte	0x9f
 12950 1a05 0000 0000 		.long	0
 12951 1a09 0000 0000 		.long	0
 12952               	.LLST62:
 12953 1a0d 0000 0000 		.long	.LVL257
 12954 1a11 0000 0000 		.long	.LVL258
 12955 1a15 0200      		.word	0x2
 12956 1a17 30        		.byte	0x30
 12957 1a18 9F        		.byte	0x9f
 12958 1a19 0000 0000 		.long	0
 12959 1a1d 0000 0000 		.long	0
 12960               		.section	.debug_aranges,"",@progbits
 12961 0000 2400 0000 		.long	0x24
 12962 0004 0200      		.word	0x2
 12963 0006 0000 0000 		.long	.Ldebug_info0
 12964 000a 04        		.byte	0x4
 12965 000b 00        		.byte	0
 12966 000c 0000      		.word	0
 12967 000e 0000      		.word	0
 12968 0010 0000 0000 		.long	.Ltext0
 12969 0014 5612 0000 		.long	.Letext0-.Ltext0
 12970 0018 0000 0000 		.long	.LFB34
 12971 001c 9800 0000 		.long	.LFE34-.LFB34
 12972 0020 0000 0000 		.long	0
 12973 0024 0000 0000 		.long	0
GAS LISTING /tmp/ccPqDIXf.s 			page 252


 12974               		.section	.debug_ranges,"",@progbits
 12975               	.Ldebug_ranges0:
 12976 0000 0000 0000 		.long	.LBB70
 12977 0004 0000 0000 		.long	.LBE70
 12978 0008 0000 0000 		.long	.LBB73
 12979 000c 0000 0000 		.long	.LBE73
 12980 0010 0000 0000 		.long	0
 12981 0014 0000 0000 		.long	0
 12982 0018 0000 0000 		.long	.LBB74
 12983 001c 0000 0000 		.long	.LBE74
 12984 0020 0000 0000 		.long	.LBB77
 12985 0024 0000 0000 		.long	.LBE77
 12986 0028 0000 0000 		.long	0
 12987 002c 0000 0000 		.long	0
 12988 0030 0000 0000 		.long	.LBB78
 12989 0034 0000 0000 		.long	.LBE78
 12990 0038 0000 0000 		.long	.LBB81
 12991 003c 0000 0000 		.long	.LBE81
 12992 0040 0000 0000 		.long	0
 12993 0044 0000 0000 		.long	0
 12994 0048 0000 0000 		.long	.LBB82
 12995 004c 0000 0000 		.long	.LBE82
 12996 0050 0000 0000 		.long	.LBB85
 12997 0054 0000 0000 		.long	.LBE85
 12998 0058 0000 0000 		.long	0
 12999 005c 0000 0000 		.long	0
 13000 0060 0000 0000 		.long	.LBB86
 13001 0064 0000 0000 		.long	.LBE86
 13002 0068 0000 0000 		.long	.LBB89
 13003 006c 0000 0000 		.long	.LBE89
 13004 0070 0000 0000 		.long	0
 13005 0074 0000 0000 		.long	0
 13006 0078 0000 0000 		.long	.LBB90
 13007 007c 0000 0000 		.long	.LBE90
 13008 0080 0000 0000 		.long	.LBB93
 13009 0084 0000 0000 		.long	.LBE93
 13010 0088 0000 0000 		.long	0
 13011 008c 0000 0000 		.long	0
 13012 0090 0000 0000 		.long	.Ltext0
 13013 0094 0000 0000 		.long	.Letext0
 13014 0098 0000 0000 		.long	.LFB34
 13015 009c 0000 0000 		.long	.LFE34
 13016 00a0 0000 0000 		.long	0
 13017 00a4 0000 0000 		.long	0
 13018               		.section	.debug_line,"",@progbits
 13019               	.Ldebug_line0:
 13020 0000 5E04 0000 		.section	.debug_str,"MS",@progbits,1
 13020      0200 EE00 
 13020      0000 0101 
 13020      FB0E 0A00 
 13020      0101 0101 
 13021               	.LASF216:
 13022 0000 6469 7265 		.string	"direction"
 13022      6374 696F 
 13022      6E00 
 13023               	.LASF125:
 13024 000a 5045 524C 		.string	"PERL"
GAS LISTING /tmp/ccPqDIXf.s 			page 253


 13024      00
 13025               	.LASF14:
 13026 000f 4343 505F 		.string	"CCP_IOREG_gc"
 13026      494F 5245 
 13026      475F 6763 
 13026      00
 13027               	.LASF194:
 13028 001c 5443 5F43 		.string	"TC_CLKSEL_DIV2_gc"
 13028      4C4B 5345 
 13028      4C5F 4449 
 13028      5632 5F67 
 13028      6300 
 13029               	.LASF231:
 13030 002e 6D6F 746F 		.string	"motor_pin_4"
 13030      725F 7069 
 13030      6E5F 3400 
 13031               	.LASF83:
 13032 003a 434F 4D50 		.string	"COMP0"
 13032      3000 
 13033               	.LASF180:
 13034 0040 7265 7365 		.string	"reserved_0x22"
 13034      7276 6564 
 13034      5F30 7832 
 13034      3200 
 13035               	.LASF181:
 13036 004e 7265 7365 		.string	"reserved_0x23"
 13036      7276 6564 
 13036      5F30 7832 
 13036      3300 
 13037               	.LASF182:
 13038 005c 7265 7365 		.string	"reserved_0x24"
 13038      7276 6564 
 13038      5F30 7832 
 13038      3400 
 13039               	.LASF183:
 13040 006a 7265 7365 		.string	"reserved_0x25"
 13040      7276 6564 
 13040      5F30 7832 
 13040      3500 
 13041               	.LASF58:
 13042 0078 504C 4C43 		.string	"PLLCTRL"
 13042      5452 4C00 
 13043               	.LASF100:
 13044 0080 494E 5431 		.string	"INT1MASK"
 13044      4D41 534B 
 13044      00
 13045               	.LASF270:
 13046 0089 636C 6B43 		.string	"clkCtrl"
 13046      7472 6C00 
 13047               	.LASF140:
 13048 0091 4343 4142 		.string	"CCABUF"
 13048      5546 00
 13049               	.LASF156:
 13050 0098 7265 7365 		.string	"reserved_0x05"
 13050      7276 6564 
 13050      5F30 7830 
 13050      3500 
GAS LISTING /tmp/ccPqDIXf.s 			page 254


 13051               	.LASF24:
 13052 00a6 434C 4B5F 		.string	"CLK_SCLKSEL_RC32K_gc"
 13052      5343 4C4B 
 13052      5345 4C5F 
 13052      5243 3332 
 13052      4B5F 6763 
 13053               	.LASF81:
 13054 00bb 4341 4C41 		.string	"CALA"
 13054      00
 13055               	.LASF82:
 13056 00c0 4341 4C42 		.string	"CALB"
 13056      00
 13057               	.LASF49:
 13058 00c5 434C 4B5F 		.string	"CLK_RTCSRC_RCOSC_gc"
 13058      5254 4353 
 13058      5243 5F52 
 13058      434F 5343 
 13058      5F67 6300 
 13059               	.LASF27:
 13060 00d9 434C 4B5F 		.string	"CLK_SCLKSEL_t"
 13060      5343 4C4B 
 13060      5345 4C5F 
 13060      7400 
 13061               	.LASF157:
 13062 00e7 494E 5443 		.string	"INTCTRLA"
 13062      5452 4C41 
 13062      00
 13063               	.LASF158:
 13064 00f0 494E 5443 		.string	"INTCTRLB"
 13064      5452 4C42 
 13064      00
 13065               	.LASF111:
 13066 00f9 5049 4E36 		.string	"PIN6CTRL"
 13066      4354 524C 
 13066      00
 13067               	.LASF104:
 13068 0102 7265 7365 		.string	"reserved_0x0F"
 13068      7276 6564 
 13068      5F30 7830 
 13068      4600 
 13069               	.LASF281:
 13070 0110 626C 696E 		.string	"blink"
 13070      6B00 
 13071               	.LASF51:
 13072 0116 434C 4B5F 		.string	"CLK_RTCSRC_t"
 13072      5254 4353 
 13072      5243 5F74 
 13072      00
 13073               	.LASF236:
 13074 0123 5F5F 7469 		.string	"__ticks_dc"
 13074      636B 735F 
 13074      6463 00
 13075               	.LASF184:
 13076 012e 7265 7365 		.string	"reserved_0x30"
 13076      7276 6564 
 13076      5F30 7833 
 13076      3000 
GAS LISTING /tmp/ccPqDIXf.s 			page 255


 13077               	.LASF185:
 13078 013c 7265 7365 		.string	"reserved_0x31"
 13078      7276 6564 
 13078      5F30 7833 
 13078      3100 
 13079               	.LASF186:
 13080 014a 7265 7365 		.string	"reserved_0x32"
 13080      7276 6564 
 13080      5F30 7833 
 13080      3200 
 13081               	.LASF187:
 13082 0158 7265 7365 		.string	"reserved_0x33"
 13082      7276 6564 
 13082      5F30 7833 
 13082      3300 
 13083               	.LASF188:
 13084 0166 7265 7365 		.string	"reserved_0x34"
 13084      7276 6564 
 13084      5F30 7833 
 13084      3400 
 13085               	.LASF189:
 13086 0174 7265 7365 		.string	"reserved_0x35"
 13086      7276 6564 
 13086      5F30 7833 
 13086      3500 
 13087               	.LASF79:
 13088 0182 4446 4C4C 		.string	"DFLL_struct"
 13088      5F73 7472 
 13088      7563 7400 
 13089               	.LASF114:
 13090 018e 504F 5254 		.string	"PORT_OPC_enum"
 13090      5F4F 5043 
 13090      5F65 6E75 
 13090      6D00 
 13091               	.LASF34:
 13092 019c 434C 4B5F 		.string	"CLK_PSADIV_32_gc"
 13092      5053 4144 
 13092      4956 5F33 
 13092      325F 6763 
 13092      00
 13093               	.LASF33:
 13094 01ad 434C 4B5F 		.string	"CLK_PSADIV_16_gc"
 13094      5053 4144 
 13094      4956 5F31 
 13094      365F 6763 
 13094      00
 13095               	.LASF217:
 13096 01be 7370 6565 		.string	"speed"
 13096      6400 
 13097               	.LASF21:
 13098 01c4 434C 4B5F 		.string	"CLK_SCLKSEL_enum"
 13098      5343 4C4B 
 13098      5345 4C5F 
 13098      656E 756D 
 13098      00
 13099               	.LASF232:
 13100 01d5 6C61 7374 		.string	"last_step_time"
GAS LISTING /tmp/ccPqDIXf.s 			page 256


 13100      5F73 7465 
 13100      705F 7469 
 13100      6D65 00
 13101               	.LASF296:
 13102 01e4 6D61 7845 		.string	"maxError"
 13102      7272 6F72 
 13102      00
 13103               	.LASF128:
 13104 01ed 4343 4148 		.string	"CCAH"
 13104      00
 13105               	.LASF295:
 13106 01f2 6572 726F 		.string	"error"
 13106      7200 
 13107               	.LASF72:
 13108 01f8 4F53 435F 		.string	"OSC_XOSCSEL_XTAL_16KCLK_gc"
 13108      584F 5343 
 13108      5345 4C5F 
 13108      5854 414C 
 13108      5F31 364B 
 13109               	.LASF127:
 13110 0213 4343 414C 		.string	"CCAL"
 13110      00
 13111               	.LASF197:
 13112 0218 5443 5F43 		.string	"TC_CLKSEL_DIV64_gc"
 13112      4C4B 5345 
 13112      4C5F 4449 
 13112      5636 345F 
 13112      6763 00
 13113               	.LASF89:
 13114 022b 494E 5450 		.string	"INTPRI"
 13114      5249 00
 13115               	.LASF118:
 13116 0232 504F 5254 		.string	"PORT_OPC_PULLUP_gc"
 13116      5F4F 5043 
 13116      5F50 554C 
 13116      4C55 505F 
 13116      6763 00
 13117               	.LASF243:
 13118 0245 7661 6C30 		.string	"val0"
 13118      00
 13119               	.LASF244:
 13120 024a 7661 6C31 		.string	"val1"
 13120      00
 13121               	.LASF245:
 13122 024f 7661 6C32 		.string	"val2"
 13122      00
 13123               	.LASF246:
 13124 0254 7661 6C33 		.string	"val3"
 13124      00
 13125               	.LASF247:
 13126 0259 7661 6C34 		.string	"val4"
 13126      00
 13127               	.LASF248:
 13128 025e 7661 6C35 		.string	"val5"
 13128      00
 13129               	.LASF20:
 13130 0263 4343 505F 		.string	"CCP_enum"
GAS LISTING /tmp/ccPqDIXf.s 			page 257


 13130      656E 756D 
 13130      00
 13131               	.LASF53:
 13132 026c 4F53 435F 		.string	"OSC_struct"
 13132      7374 7275 
 13132      6374 00
 13133               	.LASF105:
 13134 0277 5049 4E30 		.string	"PIN0CTRL"
 13134      4354 524C 
 13134      00
 13135               	.LASF77:
 13136 0280 4F53 435F 		.string	"OSC_PLLSRC_XOSC_gc"
 13136      504C 4C53 
 13136      5243 5F58 
 13136      4F53 435F 
 13136      6763 00
 13137               	.LASF36:
 13138 0293 434C 4B5F 		.string	"CLK_PSADIV_128_gc"
 13138      5053 4144 
 13138      4956 5F31 
 13138      3238 5F67 
 13138      6300 
 13139               	.LASF39:
 13140 02a5 434C 4B5F 		.string	"CLK_PSADIV_t"
 13140      5053 4144 
 13140      4956 5F74 
 13140      00
 13141               	.LASF45:
 13142 02b2 434C 4B5F 		.string	"CLK_PSBCDIV_t"
 13142      5053 4243 
 13142      4449 565F 
 13142      7400 
 13143               	.LASF169:
 13144 02c0 7265 7365 		.string	"reserved_0x15"
 13144      7276 6564 
 13144      5F30 7831 
 13144      3500 
 13145               	.LASF269:
 13146 02ce 434C 4B53 		.string	"CLKSYS_Main_ClockSource_Select"
 13146      5953 5F4D 
 13146      6169 6E5F 
 13146      436C 6F63 
 13146      6B53 6F75 
 13147               	.LASF284:
 13148 02ed 706F 7274 		.string	"portNum"
 13148      4E75 6D00 
 13149               	.LASF11:
 13150 02f5 7265 6769 		.string	"register8_t"
 13150      7374 6572 
 13150      385F 7400 
 13151               	.LASF61:
 13152 0301 4F53 435F 		.string	"OSC_FRQRANGE_enum"
 13152      4652 5152 
 13152      414E 4745 
 13152      5F65 6E75 
 13152      6D00 
 13153               	.LASF218:
GAS LISTING /tmp/ccPqDIXf.s 			page 258


 13154 0313 7374 6570 		.string	"step_delay"
 13154      5F64 656C 
 13154      6179 00
 13155               	.LASF279:
 13156 031e 5F5F 7665 		.string	"__vector_14"
 13156      6374 6F72 
 13156      5F31 3400 
 13157               	.LASF97:
 13158 032a 4F55 5454 		.string	"OUTTGL"
 13158      474C 00
 13159               	.LASF18:
 13160 0331 5254 4343 		.string	"RTCCTRL"
 13160      5452 4C00 
 13161               	.LASF48:
 13162 0339 434C 4B5F 		.string	"CLK_RTCSRC_TOSC_gc"
 13162      5254 4353 
 13162      5243 5F54 
 13162      4F53 435F 
 13162      6763 00
 13163               	.LASF7:
 13164 034c 7569 6E74 		.string	"uint32_t"
 13164      3332 5F74 
 13164      00
 13165               	.LASF130:
 13166 0355 4343 4248 		.string	"CCBH"
 13166      00
 13167               	.LASF273:
 13168 035a 636C 6B53 		.string	"clkSource"
 13168      6F75 7263 
 13168      6500 
 13169               	.LASF178:
 13170 0364 7265 7365 		.string	"reserved_0x1E"
 13170      7276 6564 
 13170      5F30 7831 
 13170      4500 
 13171               	.LASF129:
 13172 0372 4343 424C 		.string	"CCBL"
 13172      00
 13173               	.LASF66:
 13174 0377 4F53 435F 		.string	"OSC_FRQRANGE_t"
 13174      4652 5152 
 13174      414E 4745 
 13174      5F74 00
 13175               	.LASF311:
 13176 0386 474E 5520 		.string	"GNU C 4.7.0"
 13176      4320 342E 
 13176      372E 3000 
 13177               	.LASF93:
 13178 0392 4449 5243 		.string	"DIRCLR"
 13178      4C52 00
 13179               	.LASF52:
 13180 0399 434C 4B5F 		.string	"CLK_struct"
 13180      7374 7275 
 13180      6374 00
 13181               	.LASF0:
 13182 03a4 666C 6F61 		.string	"float"
 13182      7400 
GAS LISTING /tmp/ccPqDIXf.s 			page 259


 13183               	.LASF315:
 13184 03aa 5F5F 6275 		.string	"__builtin_avr_delay_cycles"
 13184      696C 7469 
 13184      6E5F 6176 
 13184      725F 6465 
 13184      6C61 795F 
 13185               	.LASF17:
 13186 03c5 4C4F 434B 		.string	"LOCK"
 13186      00
 13187               	.LASF241:
 13188 03ca 7365 7453 		.string	"setSpeed"
 13188      7065 6564 
 13188      00
 13189               	.LASF35:
 13190 03d3 434C 4B5F 		.string	"CLK_PSADIV_64_gc"
 13190      5053 4144 
 13190      4956 5F36 
 13190      345F 6763 
 13190      00
 13191               	.LASF251:
 13192 03e4 7361 7665 		.string	"saved_sreg"
 13192      645F 7372 
 13192      6567 00
 13193               	.LASF103:
 13194 03ef 7265 7365 		.string	"reserved_0x0E"
 13194      7276 6564 
 13194      5F30 7830 
 13194      4500 
 13195               	.LASF139:
 13196 03fd 4343 4142 		.string	"CCABUFH"
 13196      5546 4800 
 13197               	.LASF25:
 13198 0405 434C 4B5F 		.string	"CLK_SCLKSEL_XOSC_gc"
 13198      5343 4C4B 
 13198      5345 4C5F 
 13198      584F 5343 
 13198      5F67 6300 
 13199               	.LASF138:
 13200 0419 4343 4142 		.string	"CCABUFL"
 13200      5546 4C00 
 13201               	.LASF201:
 13202 0421 5443 5F43 		.string	"TC_CLKSEL_EVCH1_gc"
 13202      4C4B 5345 
 13202      4C5F 4556 
 13202      4348 315F 
 13202      6763 00
 13203               	.LASF272:
 13204 0434 434C 4B53 		.string	"CLKSYS_AutoCalibration_Enable"
 13204      5953 5F41 
 13204      7574 6F43 
 13204      616C 6962 
 13204      7261 7469 
 13205               	.LASF10:
 13206 0452 6C6F 6E67 		.string	"long long unsigned int"
 13206      206C 6F6E 
 13206      6720 756E 
 13206      7369 676E 
GAS LISTING /tmp/ccPqDIXf.s 			page 260


 13206      6564 2069 
 13207               	.LASF308:
 13208 0469 4C65 6674 		.string	"Left_Wrist"
 13208      5F57 7269 
 13208      7374 00
 13209               	.LASF42:
 13210 0474 434C 4B5F 		.string	"CLK_PSBCDIV_1_2_gc"
 13210      5053 4243 
 13210      4449 565F 
 13210      315F 325F 
 13210      6763 00
 13211               	.LASF74:
 13212 0487 4F53 435F 		.string	"OSC_PLLSRC_enum"
 13212      504C 4C53 
 13212      5243 5F65 
 13212      6E75 6D00 
 13213               	.LASF132:
 13214 0497 4343 4348 		.string	"CCCH"
 13214      00
 13215               	.LASF30:
 13216 049c 434C 4B5F 		.string	"CLK_PSADIV_2_gc"
 13216      5053 4144 
 13216      4956 5F32 
 13216      5F67 6300 
 13217               	.LASF131:
 13218 04ac 4343 434C 		.string	"CCCL"
 13218      00
 13219               	.LASF255:
 13220 04b1 6672 6571 		.string	"freqRange"
 13220      5261 6E67 
 13220      6500 
 13221               	.LASF50:
 13222 04bb 434C 4B5F 		.string	"CLK_RTCSRC_TOSC32_gc"
 13222      5254 4353 
 13222      5243 5F54 
 13222      4F53 4333 
 13222      325F 6763 
 13223               	.LASF221:
 13224 04d0 7374 6570 		.string	"step_number"
 13224      5F6E 756D 
 13224      6265 7200 
 13225               	.LASF310:
 13226 04dc 4772 6970 		.string	"Gripper"
 13226      7065 7200 
 13227               	.LASF90:
 13228 04e4 504D 4943 		.string	"PMIC_t"
 13228      5F74 00
 13229               	.LASF250:
 13230 04eb 7661 6C75 		.string	"value"
 13230      6500 
 13231               	.LASF57:
 13232 04f1 5243 3332 		.string	"RC32KCAL"
 13232      4B43 414C 
 13232      00
 13233               	.LASF274:
 13234 04fa 6578 7452 		.string	"extReference"
 13234      6566 6572 
GAS LISTING /tmp/ccPqDIXf.s 			page 261


 13234      656E 6365 
 13234      00
 13235               	.LASF297:
 13236 0507 7573 6255 		.string	"usbUpdate"
 13236      7064 6174 
 13236      6500 
 13237               	.LASF70:
 13238 0511 4F53 435F 		.string	"OSC_XOSCSEL_XTAL_256CLK_gc"
 13238      584F 5343 
 13238      5345 4C5F 
 13238      5854 414C 
 13238      5F32 3536 
 13239               	.LASF223:
 13240 052c 6D61 7853 		.string	"maxSteps"
 13240      7465 7073 
 13240      00
 13241               	.LASF134:
 13242 0535 4343 4448 		.string	"CCDH"
 13242      00
 13243               	.LASF225:
 13244 053a 6D6F 746F 		.string	"motor_pin_1"
 13244      725F 7069 
 13244      6E5F 3100 
 13245               	.LASF227:
 13246 0546 6D6F 746F 		.string	"motor_pin_2"
 13246      725F 7069 
 13246      6E5F 3200 
 13247               	.LASF229:
 13248 0552 6D6F 746F 		.string	"motor_pin_3"
 13248      725F 7069 
 13248      6E5F 3300 
 13249               	.LASF133:
 13250 055e 4343 444C 		.string	"CCDL"
 13250      00
 13251               	.LASF258:
 13252 0563 5F42 6F6F 		.string	"_Bool"
 13252      6C00 
 13253               	.LASF259:
 13254 0569 434C 4B53 		.string	"CLKSYS_PLL_Config"
 13254      5953 5F50 
 13254      4C4C 5F43 
 13254      6F6E 6669 
 13254      6700 
 13255               	.LASF162:
 13256 057b 4354 524C 		.string	"CTRLGSET"
 13256      4753 4554 
 13256      00
 13257               	.LASF92:
 13258 0584 4449 5253 		.string	"DIRSET"
 13258      4554 00
 13259               	.LASF282:
 13260 058b 6D79 5661 		.string	"myVal"
 13260      6C00 
 13261               	.LASF101:
 13262 0591 494E 5446 		.string	"INTFLAGS"
 13262      4C41 4753 
 13262      00
GAS LISTING /tmp/ccPqDIXf.s 			page 262


 13263               	.LASF137:
 13264 059a 5045 5242 		.string	"PERBUF"
 13264      5546 00
 13265               	.LASF59:
 13266 05a1 4446 4C4C 		.string	"DFLLCTRL"
 13266      4354 524C 
 13266      00
 13267               	.LASF239:
 13268 05aa 7374 6570 		.string	"stepper"
 13268      7065 7200 
 13269               	.LASF317:
 13270 05b2 7369 676E 		.string	"signum"
 13270      756D 00
 13271               	.LASF215:
 13272 05b9 6D6F 746F 		.string	"motorNumber"
 13272      724E 756D 
 13272      6265 7200 
 13273               	.LASF306:
 13274 05c5 5368 6F75 		.string	"Shoulder"
 13274      6C64 6572 
 13274      00
 13275               	.LASF148:
 13276 05ce 4343 4442 		.string	"CCDBUFH"
 13276      5546 4800 
 13277               	.LASF277:
 13278 05d6 6465 6C61 		.string	"delay_ms"
 13278      795F 6D73 
 13278      00
 13279               	.LASF116:
 13280 05df 504F 5254 		.string	"PORT_OPC_BUSKEEPER_gc"
 13280      5F4F 5043 
 13280      5F42 5553 
 13280      4B45 4550 
 13280      4552 5F67 
 13281               	.LASF99:
 13282 05f5 494E 5430 		.string	"INT0MASK"
 13282      4D41 534B 
 13282      00
 13283               	.LASF113:
 13284 05fe 504F 5254 		.string	"PORT_t"
 13284      5F74 00
 13285               	.LASF147:
 13286 0605 4343 4442 		.string	"CCDBUFL"
 13286      5546 4C00 
 13287               	.LASF253:
 13288 060d 4343 5057 		.string	"CCPWrite"
 13288      7269 7465 
 13288      00
 13289               	.LASF220:
 13290 0616 7069 6E5F 		.string	"pin_count"
 13290      636F 756E 
 13290      7400 
 13291               	.LASF203:
 13292 0620 5443 5F43 		.string	"TC_CLKSEL_EVCH3_gc"
 13292      4C4B 5345 
 13292      4C5F 4556 
 13292      4348 335F 
GAS LISTING /tmp/ccPqDIXf.s 			page 263


 13292      6763 00
 13293               	.LASF313:
 13294 0633 2F68 6F6D 		.string	"/home/dgonz/projects/gitHome/TinyArmTroller"
 13294      652F 6467 
 13294      6F6E 7A2F 
 13294      7072 6F6A 
 13294      6563 7473 
 13295               	.LASF56:
 13296 065f 584F 5343 		.string	"XOSCFAIL"
 13296      4641 494C 
 13296      00
 13297               	.LASF71:
 13298 0668 4F53 435F 		.string	"OSC_XOSCSEL_XTAL_1KCLK_gc"
 13298      584F 5343 
 13298      5345 4C5F 
 13298      5854 414C 
 13298      5F31 4B43 
 13299               	.LASF206:
 13300 0682 5443 5F43 		.string	"TC_CLKSEL_EVCH6_gc"
 13300      4C4B 5345 
 13300      4C5F 4556 
 13300      4348 365F 
 13300      6763 00
 13301               	.LASF115:
 13302 0695 504F 5254 		.string	"PORT_OPC_TOTEM_gc"
 13302      5F4F 5043 
 13302      5F54 4F54 
 13302      454D 5F67 
 13302      6300 
 13303               	.LASF233:
 13304 06a7 6368 6172 		.string	"char"
 13304      00
 13305               	.LASF276:
 13306 06ac 434C 4B53 		.string	"CLKSYS_Configuration_Lock"
 13306      5953 5F43 
 13306      6F6E 6669 
 13306      6775 7261 
 13306      7469 6F6E 
 13307               	.LASF110:
 13308 06c6 5049 4E35 		.string	"PIN5CTRL"
 13308      4354 524C 
 13308      00
 13309               	.LASF31:
 13310 06cf 434C 4B5F 		.string	"CLK_PSADIV_4_gc"
 13310      5053 4144 
 13310      4956 5F34 
 13310      5F67 6300 
 13311               	.LASF262:
 13312 06df 6F73 6353 		.string	"oscSel"
 13312      656C 00
 13313               	.LASF286:
 13314 06e6 636C 6561 		.string	"clearPin"
 13314      7250 696E 
 13314      00
 13315               	.LASF265:
 13316 06ef 5053 4166 		.string	"PSAfactor"
 13316      6163 746F 
GAS LISTING /tmp/ccPqDIXf.s 			page 264


 13316      7200 
 13317               	.LASF16:
 13318 06f9 5053 4354 		.string	"PSCTRL"
 13318      524C 00
 13319               	.LASF9:
 13320 0700 6C6F 6E67 		.string	"long long int"
 13320      206C 6F6E 
 13320      6720 696E 
 13320      7400 
 13321               	.LASF91:
 13322 070e 504F 5254 		.string	"PORT_struct"
 13322      5F73 7472 
 13322      7563 7400 
 13323               	.LASF3:
 13324 071a 7569 6E74 		.string	"uint8_t"
 13324      385F 7400 
 13325               	.LASF161:
 13326 0722 4354 524C 		.string	"CTRLGCLR"
 13326      4743 4C52 
 13326      00
 13327               	.LASF261:
 13328 072b 6661 6374 		.string	"factor"
 13328      6F72 00
 13329               	.LASF64:
 13330 0732 4F53 435F 		.string	"OSC_FRQRANGE_9TO12_gc"
 13330      4652 5152 
 13330      414E 4745 
 13330      5F39 544F 
 13330      3132 5F67 
 13331               	.LASF107:
 13332 0748 5049 4E32 		.string	"PIN2CTRL"
 13332      4354 524C 
 13332      00
 13333               	.LASF268:
 13334 0751 434C 4B53 		.string	"CLKSYS_Disable"
 13334      5953 5F44 
 13334      6973 6162 
 13334      6C65 00
 13335               	.LASF278:
 13336 0760 636F 6D70 		.string	"compareArray"
 13336      6172 6541 
 13336      7272 6179 
 13336      00
 13337               	.LASF12:
 13338 076d 7265 6769 		.string	"register16_t"
 13338      7374 6572 
 13338      3136 5F74 
 13338      00
 13339               	.LASF38:
 13340 077a 434C 4B5F 		.string	"CLK_PSADIV_512_gc"
 13340      5053 4144 
 13340      4956 5F35 
 13340      3132 5F67 
 13340      6300 
 13341               	.LASF192:
 13342 078c 5443 5F43 		.string	"TC_CLKSEL_OFF_gc"
 13342      4C4B 5345 
GAS LISTING /tmp/ccPqDIXf.s 			page 265


 13342      4C5F 4F46 
 13342      465F 6763 
 13342      00
 13343               	.LASF191:
 13344 079d 5443 5F43 		.string	"TC_CLKSEL_enum"
 13344      4C4B 5345 
 13344      4C5F 656E 
 13344      756D 00
 13345               	.LASF234:
 13346 07ac 5F5F 7469 		.string	"__ticks"
 13346      636B 7300 
 13347               	.LASF307:
 13348 07b4 456C 626F 		.string	"Elbow"
 13348      7700 
 13349               	.LASF302:
 13350 07ba 676F 616C 		.string	"goal"
 13350      00
 13351               	.LASF119:
 13352 07bf 504F 5254 		.string	"PORT_OPC_WIREDOR_gc"
 13352      5F4F 5043 
 13352      5F57 4952 
 13352      4544 4F52 
 13352      5F67 6300 
 13353               	.LASF23:
 13354 07d3 434C 4B5F 		.string	"CLK_SCLKSEL_RC32M_gc"
 13354      5343 4C4B 
 13354      5345 4C5F 
 13354      5243 3332 
 13354      4D5F 6763 
 13355               	.LASF78:
 13356 07e8 4F53 435F 		.string	"OSC_PLLSRC_t"
 13356      504C 4C53 
 13356      5243 5F74 
 13356      00
 13357               	.LASF303:
 13358 07f5 706F 7365 		.string	"pose"
 13358      00
 13359               	.LASF304:
 13360 07fa 656C 6170 		.string	"elapsedMillis"
 13360      7365 644D 
 13360      696C 6C69 
 13360      7300 
 13361               	.LASF219:
 13362 0808 6E75 6D62 		.string	"number_of_steps"
 13362      6572 5F6F 
 13362      665F 7374 
 13362      6570 7300 
 13363               	.LASF214:
 13364 0818 5374 6570 		.string	"Stepper"
 13364      7065 7200 
 13365               	.LASF163:
 13366 0820 5445 4D50 		.string	"TEMP"
 13366      00
 13367               	.LASF145:
 13368 0825 4343 4342 		.string	"CCCBUFH"
 13368      5546 4800 
 13369               	.LASF144:
GAS LISTING /tmp/ccPqDIXf.s 			page 266


 13370 082d 4343 4342 		.string	"CCCBUFL"
 13370      5546 4C00 
 13371               	.LASF126:
 13372 0835 5045 5248 		.string	"PERH"
 13372      00
 13373               	.LASF84:
 13374 083a 434F 4D50 		.string	"COMP1"
 13374      3100 
 13375               	.LASF85:
 13376 0840 434F 4D50 		.string	"COMP2"
 13376      3200 
 13377               	.LASF205:
 13378 0846 5443 5F43 		.string	"TC_CLKSEL_EVCH5_gc"
 13378      4C4B 5345 
 13378      4C5F 4556 
 13378      4348 355F 
 13378      6763 00
 13379               	.LASF19:
 13380 0859 434C 4B5F 		.string	"CLK_t"
 13380      7400 
 13381               	.LASF275:
 13382 085f 434C 4B53 		.string	"CLKSYS_XOSC_FailureDetection_Enable"
 13382      5953 5F58 
 13382      4F53 435F 
 13382      4661 696C 
 13382      7572 6544 
 13383               	.LASF289:
 13384 0883 7374 6570 		.string	"step"
 13384      00
 13385               	.LASF298:
 13386 0888 6D61 696E 		.string	"mainLoop"
 13386      4C6F 6F70 
 13386      00
 13387               	.LASF98:
 13388 0891 494E 5443 		.string	"INTCTRL"
 13388      5452 4C00 
 13389               	.LASF28:
 13390 0899 434C 4B5F 		.string	"CLK_PSADIV_enum"
 13390      5053 4144 
 13390      4956 5F65 
 13390      6E75 6D00 
 13391               	.LASF283:
 13392 08a9 7365 7450 		.string	"setPin"
 13392      696E 00
 13393               	.LASF65:
 13394 08b0 4F53 435F 		.string	"OSC_FRQRANGE_12TO16_gc"
 13394      4652 5152 
 13394      414E 4745 
 13394      5F31 3254 
 13394      4F31 365F 
 13395               	.LASF37:
 13396 08c7 434C 4B5F 		.string	"CLK_PSADIV_256_gc"
 13396      5053 4144 
 13396      4956 5F32 
 13396      3536 5F67 
 13396      6300 
 13397               	.LASF199:
GAS LISTING /tmp/ccPqDIXf.s 			page 267


 13398 08d9 5443 5F43 		.string	"TC_CLKSEL_DIV1024_gc"
 13398      4C4B 5345 
 13398      4C5F 4449 
 13398      5631 3032 
 13398      345F 6763 
 13399               	.LASF211:
 13400 08ee 5443 5F4F 		.string	"TC_OVFINTLVL_MED_gc"
 13400      5646 494E 
 13400      544C 564C 
 13400      5F4D 4544 
 13400      5F67 6300 
 13401               	.LASF43:
 13402 0902 434C 4B5F 		.string	"CLK_PSBCDIV_4_1_gc"
 13402      5053 4243 
 13402      4449 565F 
 13402      345F 315F 
 13402      6763 00
 13403               	.LASF195:
 13404 0915 5443 5F43 		.string	"TC_CLKSEL_DIV4_gc"
 13404      4C4B 5345 
 13404      4C5F 4449 
 13404      5634 5F67 
 13404      6300 
 13405               	.LASF143:
 13406 0927 4343 4242 		.string	"CCBBUF"
 13406      5546 00
 13407               	.LASF94:
 13408 092e 4449 5254 		.string	"DIRTGL"
 13408      474C 00
 13409               	.LASF40:
 13410 0935 434C 4B5F 		.string	"CLK_PSBCDIV_enum"
 13410      5053 4243 
 13410      4449 565F 
 13410      656E 756D 
 13410      00
 13411               	.LASF4:
 13412 0946 7569 6E74 		.string	"uint16_t"
 13412      3136 5F74 
 13412      00
 13413               	.LASF260:
 13414 094f 636C 6F63 		.string	"clockSource"
 13414      6B53 6F75 
 13414      7263 6500 
 13415               	.LASF151:
 13416 095b 4354 524C 		.string	"CTRLA"
 13416      4100 
 13417               	.LASF152:
 13418 0961 4354 524C 		.string	"CTRLB"
 13418      4200 
 13419               	.LASF153:
 13420 0967 4354 524C 		.string	"CTRLC"
 13420      4300 
 13421               	.LASF154:
 13422 096d 4354 524C 		.string	"CTRLD"
 13422      4400 
 13423               	.LASF155:
 13424 0973 4354 524C 		.string	"CTRLE"
GAS LISTING /tmp/ccPqDIXf.s 			page 268


 13424      4500 
 13425               	.LASF291:
 13426 0979 7374 6570 		.string	"steps_left"
 13426      735F 6C65 
 13426      6674 00
 13427               	.LASF117:
 13428 0984 504F 5254 		.string	"PORT_OPC_PULLDOWN_gc"
 13428      5F4F 5043 
 13428      5F50 554C 
 13428      4C44 4F57 
 13428      4E5F 6763 
 13429               	.LASF288:
 13430 0999 7468 6973 		.string	"thisStep"
 13430      5374 6570 
 13430      00
 13431               	.LASF26:
 13432 09a2 434C 4B5F 		.string	"CLK_SCLKSEL_PLL_gc"
 13432      5343 4C4B 
 13432      5345 4C5F 
 13432      504C 4C5F 
 13432      6763 00
 13433               	.LASF200:
 13434 09b5 5443 5F43 		.string	"TC_CLKSEL_EVCH0_gc"
 13434      4C4B 5345 
 13434      4C5F 4556 
 13434      4348 305F 
 13434      6763 00
 13435               	.LASF95:
 13436 09c8 4F55 5453 		.string	"OUTSET"
 13436      4554 00
 13437               	.LASF209:
 13438 09cf 5443 5F4F 		.string	"TC_OVFINTLVL_OFF_gc"
 13438      5646 494E 
 13438      544C 564C 
 13438      5F4F 4646 
 13438      5F67 6300 
 13439               	.LASF294:
 13440 09e3 6D6F 7665 		.string	"moveToGoal"
 13440      546F 476F 
 13440      616C 00
 13441               	.LASF88:
 13442 09ee 504D 4943 		.string	"PMIC_struct"
 13442      5F73 7472 
 13442      7563 7400 
 13443               	.LASF41:
 13444 09fa 434C 4B5F 		.string	"CLK_PSBCDIV_1_1_gc"
 13444      5053 4243 
 13444      4449 565F 
 13444      315F 315F 
 13444      6763 00
 13445               	.LASF6:
 13446 0a0d 6C6F 6E67 		.string	"long int"
 13446      2069 6E74 
 13446      00
 13447               	.LASF29:
 13448 0a16 434C 4B5F 		.string	"CLK_PSADIV_1_gc"
 13448      5053 4144 
GAS LISTING /tmp/ccPqDIXf.s 			page 269


 13448      4956 5F31 
 13448      5F67 6300 
 13449               	.LASF228:
 13450 0a26 6D6F 746F 		.string	"motor_port_3"
 13450      725F 706F 
 13450      7274 5F33 
 13450      00
 13451               	.LASF257:
 13452 0a33 786F 7363 		.string	"xoscModeSelection"
 13452      4D6F 6465 
 13452      5365 6C65 
 13452      6374 696F 
 13452      6E00 
 13453               	.LASF207:
 13454 0a45 5443 5F43 		.string	"TC_CLKSEL_EVCH7_gc"
 13454      4C4B 5345 
 13454      4C5F 4556 
 13454      4348 375F 
 13454      6763 00
 13455               	.LASF87:
 13456 0a58 4446 4C4C 		.string	"DFLL_t"
 13456      5F74 00
 13457               	.LASF301:
 13458 0a5f 6465 6275 		.string	"debugFlag"
 13458      6746 6C61 
 13458      6700 
 13459               	.LASF190:
 13460 0a69 5443 305F 		.string	"TC0_t"
 13460      7400 
 13461               	.LASF112:
 13462 0a6f 5049 4E37 		.string	"PIN7CTRL"
 13462      4354 524C 
 13462      00
 13463               	.LASF198:
 13464 0a78 5443 5F43 		.string	"TC_CLKSEL_DIV256_gc"
 13464      4C4B 5345 
 13464      4C5F 4449 
 13464      5632 3536 
 13464      5F67 6300 
 13465               	.LASF208:
 13466 0a8c 5443 5F4F 		.string	"TC_OVFINTLVL_enum"
 13466      5646 494E 
 13466      544C 564C 
 13466      5F65 6E75 
 13466      6D00 
 13467               	.LASF32:
 13468 0a9e 434C 4B5F 		.string	"CLK_PSADIV_8_gc"
 13468      5053 4144 
 13468      4956 5F38 
 13468      5F67 6300 
 13469               	.LASF63:
 13470 0aae 4F53 435F 		.string	"OSC_FRQRANGE_2TO9_gc"
 13470      4652 5152 
 13470      414E 4745 
 13470      5F32 544F 
 13470      395F 6763 
 13471               	.LASF73:
GAS LISTING /tmp/ccPqDIXf.s 			page 270


 13472 0ac3 4F53 435F 		.string	"OSC_XOSCSEL_t"
 13472      584F 5343 
 13472      5345 4C5F 
 13472      7400 
 13473               	.LASF314:
 13474 0ad1 5F64 656C 		.string	"_delay_us"
 13474      6179 5F75 
 13474      7300 
 13475               	.LASF293:
 13476 0adb 6D79 4469 		.string	"myDir"
 13476      7200 
 13477               	.LASF212:
 13478 0ae1 5443 5F4F 		.string	"TC_OVFINTLVL_HI_gc"
 13478      5646 494E 
 13478      544C 564C 
 13478      5F48 495F 
 13478      6763 00
 13479               	.LASF123:
 13480 0af4 434E 544C 		.string	"CNTL"
 13480      00
 13481               	.LASF13:
 13482 0af9 4343 505F 		.string	"CCP_SPM_gc"
 13482      5350 4D5F 
 13482      6763 00
 13483               	.LASF222:
 13484 0b04 6D69 6E53 		.string	"minSteps"
 13484      7465 7073 
 13484      00
 13485               	.LASF5:
 13486 0b0d 756E 7369 		.string	"unsigned int"
 13486      676E 6564 
 13486      2069 6E74 
 13486      00
 13487               	.LASF305:
 13488 0b1a 4261 7365 		.string	"Base"
 13488      00
 13489               	.LASF109:
 13490 0b1f 5049 4E34 		.string	"PIN4CTRL"
 13490      4354 524C 
 13490      00
 13491               	.LASF149:
 13492 0b28 4343 4442 		.string	"CCDBUF"
 13492      5546 00
 13493               	.LASF240:
 13494 0b2f 7768 6174 		.string	"whatSpeed"
 13494      5370 6565 
 13494      6400 
 13495               	.LASF160:
 13496 0b39 4354 524C 		.string	"CTRLFSET"
 13496      4653 4554 
 13496      00
 13497               	.LASF96:
 13498 0b42 4F55 5443 		.string	"OUTCLR"
 13498      4C52 00
 13499               	.LASF120:
 13500 0b49 504F 5254 		.string	"PORT_OPC_WIREDAND_gc"
 13500      5F4F 5043 
GAS LISTING /tmp/ccPqDIXf.s 			page 271


 13500      5F57 4952 
 13500      4544 414E 
 13500      445F 6763 
 13501               	.LASF213:
 13502 0b5e 7369 7A65 		.string	"sizetype"
 13502      7479 7065 
 13502      00
 13503               	.LASF150:
 13504 0b67 5443 305F 		.string	"TC0_struct"
 13504      7374 7275 
 13504      6374 00
 13505               	.LASF8:
 13506 0b72 6C6F 6E67 		.string	"long unsigned int"
 13506      2075 6E73 
 13506      6967 6E65 
 13506      6420 696E 
 13506      7400 
 13507               	.LASF256:
 13508 0b84 6C6F 7750 		.string	"lowPower32kHz"
 13508      6F77 6572 
 13508      3332 6B48 
 13508      7A00 
 13509               	.LASF249:
 13510 0b92 6164 6472 		.string	"address"
 13510      6573 7300 
 13511               	.LASF242:
 13512 0b9a 6368 616E 		.string	"changeGoal"
 13512      6765 476F 
 13512      616C 00
 13513               	.LASF202:
 13514 0ba5 5443 5F43 		.string	"TC_CLKSEL_EVCH2_gc"
 13514      4C4B 5345 
 13514      4C5F 4556 
 13514      4348 325F 
 13514      6763 00
 13515               	.LASF55:
 13516 0bb8 584F 5343 		.string	"XOSCCTRL"
 13516      4354 524C 
 13516      00
 13517               	.LASF67:
 13518 0bc1 4F53 435F 		.string	"OSC_XOSCSEL_enum"
 13518      584F 5343 
 13518      5345 4C5F 
 13518      656E 756D 
 13518      00
 13519               	.LASF309:
 13520 0bd2 5269 6768 		.string	"Right_Wrist"
 13520      745F 5772 
 13520      6973 7400 
 13521               	.LASF22:
 13522 0bde 434C 4B5F 		.string	"CLK_SCLKSEL_RC2M_gc"
 13522      5343 4C4B 
 13522      5345 4C5F 
 13522      5243 324D 
 13522      5F67 6300 
 13523               	.LASF271:
 13524 0bf2 434C 4B53 		.string	"CLKSYS_RTC_ClockSource_Enable"
GAS LISTING /tmp/ccPqDIXf.s 			page 272


 13524      5953 5F52 
 13524      5443 5F43 
 13524      6C6F 636B 
 13524      536F 7572 
 13525               	.LASF68:
 13526 0c10 4F53 435F 		.string	"OSC_XOSCSEL_EXTCLK_gc"
 13526      584F 5343 
 13526      5345 4C5F 
 13526      4558 5443 
 13526      4C4B 5F67 
 13527               	.LASF210:
 13528 0c26 5443 5F4F 		.string	"TC_OVFINTLVL_LO_gc"
 13528      5646 494E 
 13528      544C 564C 
 13528      5F4C 4F5F 
 13528      6763 00
 13529               	.LASF136:
 13530 0c39 5045 5242 		.string	"PERBUFH"
 13530      5546 4800 
 13531               	.LASF254:
 13532 0c41 434C 4B53 		.string	"CLKSYS_XOSC_Config"
 13532      5953 5F58 
 13532      4F53 435F 
 13532      436F 6E66 
 13532      6967 00
 13533               	.LASF135:
 13534 0c54 5045 5242 		.string	"PERBUFL"
 13534      5546 4C00 
 13535               	.LASF312:
 13536 0c5c 4164 4465 		.string	"AdDemo.c"
 13536      6D6F 2E63 
 13536      00
 13537               	.LASF108:
 13538 0c65 5049 4E33 		.string	"PIN3CTRL"
 13538      4354 524C 
 13538      00
 13539               	.LASF2:
 13540 0c6e 756E 7369 		.string	"unsigned char"
 13540      676E 6564 
 13540      2063 6861 
 13540      7200 
 13541               	.LASF60:
 13542 0c7c 4F53 435F 		.string	"OSC_t"
 13542      7400 
 13543               	.LASF69:
 13544 0c82 4F53 435F 		.string	"OSC_XOSCSEL_32KHz_gc"
 13544      584F 5343 
 13544      5345 4C5F 
 13544      3332 4B48 
 13544      7A5F 6763 
 13545               	.LASF280:
 13546 0c97 436F 6E66 		.string	"Config32MHzClock"
 13546      6967 3332 
 13546      4D48 7A43 
 13546      6C6F 636B 
 13546      00
 13547               	.LASF238:
GAS LISTING /tmp/ccPqDIXf.s 			page 273


 13548 0ca8 5F5F 7573 		.string	"__us"
 13548      00
 13549               	.LASF292:
 13550 0cad 7374 6570 		.string	"stepOne"
 13550      4F6E 6500 
 13551               	.LASF316:
 13552 0cb5 6D69 6C6C 		.string	"millis"
 13552      6973 00
 13553               	.LASF287:
 13554 0cbc 7374 6570 		.string	"stepMotor"
 13554      4D6F 746F 
 13554      7200 
 13555               	.LASF121:
 13556 0cc6 504F 5254 		.string	"PORT_OPC_WIREDORPULL_gc"
 13556      5F4F 5043 
 13556      5F57 4952 
 13556      4544 4F52 
 13556      5055 4C4C 
 13557               	.LASF300:
 13558 0cde 7374 6174 		.string	"state"
 13558      6500 
 13559               	.LASF193:
 13560 0ce4 5443 5F43 		.string	"TC_CLKSEL_DIV1_gc"
 13560      4C4B 5345 
 13560      4C5F 4449 
 13560      5631 5F67 
 13560      6300 
 13561               	.LASF75:
 13562 0cf6 4F53 435F 		.string	"OSC_PLLSRC_RC2M_gc"
 13562      504C 4C53 
 13562      5243 5F52 
 13562      4332 4D5F 
 13562      6763 00
 13563               	.LASF159:
 13564 0d09 4354 524C 		.string	"CTRLFCLR"
 13564      4643 4C52 
 13564      00
 13565               	.LASF142:
 13566 0d12 4343 4242 		.string	"CCBBUFH"
 13566      5546 4800 
 13567               	.LASF224:
 13568 0d1a 6D6F 746F 		.string	"motor_port_1"
 13568      725F 706F 
 13568      7274 5F31 
 13568      00
 13569               	.LASF141:
 13570 0d27 4343 4242 		.string	"CCBBUFL"
 13570      5546 4C00 
 13571               	.LASF226:
 13572 0d2f 6D6F 746F 		.string	"motor_port_2"
 13572      725F 706F 
 13572      7274 5F32 
 13572      00
 13573               	.LASF80:
 13574 0d3c 7265 7365 		.string	"reserved_0x01"
 13574      7276 6564 
 13574      5F30 7830 
GAS LISTING /tmp/ccPqDIXf.s 			page 274


 13574      3100 
 13575               	.LASF230:
 13576 0d4a 6D6F 746F 		.string	"motor_port_4"
 13576      725F 706F 
 13576      7274 5F34 
 13576      00
 13577               	.LASF146:
 13578 0d57 4343 4342 		.string	"CCCBUF"
 13578      5546 00
 13579               	.LASF86:
 13580 0d5e 7265 7365 		.string	"reserved_0x07"
 13580      7276 6564 
 13580      5F30 7830 
 13580      3700 
 13581               	.LASF44:
 13582 0d6c 434C 4B5F 		.string	"CLK_PSBCDIV_2_2_gc"
 13582      5053 4243 
 13582      4449 565F 
 13582      325F 325F 
 13582      6763 00
 13583               	.LASF285:
 13584 0d7f 7069 6E4E 		.string	"pinNum"
 13584      756D 00
 13585               	.LASF266:
 13586 0d86 5053 4243 		.string	"PSBCfactor"
 13586      6661 6374 
 13586      6F72 00
 13587               	.LASF102:
 13588 0d91 7265 7365 		.string	"reserved_0x0D"
 13588      7276 6564 
 13588      5F30 7830 
 13588      4400 
 13589               	.LASF1:
 13590 0d9f 7369 676E 		.string	"signed char"
 13590      6564 2063 
 13590      6861 7200 
 13591               	.LASF196:
 13592 0dab 5443 5F43 		.string	"TC_CLKSEL_DIV8_gc"
 13592      4C4B 5345 
 13592      4C5F 4449 
 13592      5638 5F67 
 13592      6300 
 13593               	.LASF299:
 13594 0dbd 6D61 696E 		.string	"main"
 13594      00
 13595               	.LASF235:
 13596 0dc2 5F5F 746D 		.string	"__tmp"
 13596      7000 
 13597               	.LASF47:
 13598 0dc8 434C 4B5F 		.string	"CLK_RTCSRC_ULP_gc"
 13598      5254 4353 
 13598      5243 5F55 
 13598      4C50 5F67 
 13598      6300 
 13599               	.LASF264:
 13600 0dda 434C 4B53 		.string	"CLKSYS_Prescalers_Config"
 13600      5953 5F50 
GAS LISTING /tmp/ccPqDIXf.s 			page 275


 13600      7265 7363 
 13600      616C 6572 
 13600      735F 436F 
 13601               	.LASF204:
 13602 0df3 5443 5F43 		.string	"TC_CLKSEL_EVCH4_gc"
 13602      4C4B 5345 
 13602      4C5F 4556 
 13602      4348 345F 
 13602      6763 00
 13603               	.LASF237:
 13604 0e06 646F 7562 		.string	"double"
 13604      6C65 00
 13605               	.LASF76:
 13606 0e0d 4F53 435F 		.string	"OSC_PLLSRC_RC32M_gc"
 13606      504C 4C53 
 13606      5243 5F52 
 13606      4333 324D 
 13606      5F67 6300 
 13607               	.LASF46:
 13608 0e21 434C 4B5F 		.string	"CLK_RTCSRC_enum"
 13608      5254 4353 
 13608      5243 5F65 
 13608      6E75 6D00 
 13609               	.LASF54:
 13610 0e31 5354 4154 		.string	"STATUS"
 13610      5553 00
 13611               	.LASF164:
 13612 0e38 7265 7365 		.string	"reserved_0x10"
 13612      7276 6564 
 13612      5F30 7831 
 13612      3000 
 13613               	.LASF165:
 13614 0e46 7265 7365 		.string	"reserved_0x11"
 13614      7276 6564 
 13614      5F30 7831 
 13614      3100 
 13615               	.LASF166:
 13616 0e54 7265 7365 		.string	"reserved_0x12"
 13616      7276 6564 
 13616      5F30 7831 
 13616      3200 
 13617               	.LASF167:
 13618 0e62 7265 7365 		.string	"reserved_0x13"
 13618      7276 6564 
 13618      5F30 7831 
 13618      3300 
 13619               	.LASF168:
 13620 0e70 7265 7365 		.string	"reserved_0x14"
 13620      7276 6564 
 13620      5F30 7831 
 13620      3400 
 13621               	.LASF263:
 13622 0e7e 636C 6B45 		.string	"clkEnabled"
 13622      6E61 626C 
 13622      6564 00
 13623               	.LASF170:
 13624 0e89 7265 7365 		.string	"reserved_0x16"
GAS LISTING /tmp/ccPqDIXf.s 			page 276


 13624      7276 6564 
 13624      5F30 7831 
 13624      3600 
 13625               	.LASF171:
 13626 0e97 7265 7365 		.string	"reserved_0x17"
 13626      7276 6564 
 13626      5F30 7831 
 13626      3700 
 13627               	.LASF172:
 13628 0ea5 7265 7365 		.string	"reserved_0x18"
 13628      7276 6564 
 13628      5F30 7831 
 13628      3800 
 13629               	.LASF173:
 13630 0eb3 7265 7365 		.string	"reserved_0x19"
 13630      7276 6564 
 13630      5F30 7831 
 13630      3900 
 13631               	.LASF106:
 13632 0ec1 5049 4E31 		.string	"PIN1CTRL"
 13632      4354 524C 
 13632      00
 13633               	.LASF124:
 13634 0eca 434E 5448 		.string	"CNTH"
 13634      00
 13635               	.LASF174:
 13636 0ecf 7265 7365 		.string	"reserved_0x1A"
 13636      7276 6564 
 13636      5F30 7831 
 13636      4100 
 13637               	.LASF175:
 13638 0edd 7265 7365 		.string	"reserved_0x1B"
 13638      7276 6564 
 13638      5F30 7831 
 13638      4200 
 13639               	.LASF176:
 13640 0eeb 7265 7365 		.string	"reserved_0x1C"
 13640      7276 6564 
 13640      5F30 7831 
 13640      4300 
 13641               	.LASF177:
 13642 0ef9 7265 7365 		.string	"reserved_0x1D"
 13642      7276 6564 
 13642      5F30 7831 
 13642      4400 
 13643               	.LASF122:
 13644 0f07 504F 5254 		.string	"PORT_OPC_WIREDANDPULL_gc"
 13644      5F4F 5043 
 13644      5F57 4952 
 13644      4544 414E 
 13644      4450 554C 
 13645               	.LASF179:
 13646 0f20 7265 7365 		.string	"reserved_0x1F"
 13646      7276 6564 
 13646      5F30 7831 
 13646      4600 
 13647               	.LASF62:
GAS LISTING /tmp/ccPqDIXf.s 			page 277


 13648 0f2e 4F53 435F 		.string	"OSC_FRQRANGE_04TO2_gc"
 13648      4652 5152 
 13648      414E 4745 
 13648      5F30 3454 
 13648      4F32 5F67 
 13649               	.LASF290:
 13650 0f44 7374 6570 		.string	"steps_to_move"
 13650      735F 746F 
 13650      5F6D 6F76 
 13650      6500 
 13651               	.LASF267:
 13652 0f52 5053 636F 		.string	"PSconfig"
 13652      6E66 6967 
 13652      00
 13653               	.LASF15:
 13654 0f5b 4354 524C 		.string	"CTRL"
 13654      00
 13655               	.LASF252:
 13656 0f60 746D 7041 		.string	"tmpAddr"
 13656      6464 7200 
 13657               		.ident	"GCC: (GNU) 4.7.0"
 13658               	.global __do_copy_data
 13659               	.global __do_clear_bss
GAS LISTING /tmp/ccPqDIXf.s 			page 278


DEFINED SYMBOLS
                            *ABS*:00000000 AdDemo.c
     /tmp/ccPqDIXf.s:2      *ABS*:0000003e __SP_H__
     /tmp/ccPqDIXf.s:3      *ABS*:0000003d __SP_L__
     /tmp/ccPqDIXf.s:4      *ABS*:0000003f __SREG__
     /tmp/ccPqDIXf.s:5      *ABS*:00000034 __CCP__
     /tmp/ccPqDIXf.s:6      *ABS*:00000000 __tmp_reg__
     /tmp/ccPqDIXf.s:7      *ABS*:00000001 __zero_reg__
     /tmp/ccPqDIXf.s:12     .text:00000000 CCPWrite
     /tmp/ccPqDIXf.s:69     .text:0000002a CLKSYS_XOSC_Config
     /tmp/ccPqDIXf.s:95     .text:0000003e CLKSYS_PLL_Config
     /tmp/ccPqDIXf.s:117    .text:0000004a CLKSYS_Disable
     /tmp/ccPqDIXf.s:144    .text:0000005e CLKSYS_Prescalers_Config
     /tmp/ccPqDIXf.s:165    .text:00000068 CLKSYS_Main_ClockSource_Select
     /tmp/ccPqDIXf.s:211    .text:0000008e CLKSYS_RTC_ClockSource_Enable
     /tmp/ccPqDIXf.s:232    .text:0000009e CLKSYS_AutoCalibration_Enable
     /tmp/ccPqDIXf.s:278    .text:000000d6 CLKSYS_XOSC_FailureDetection_Enable
     /tmp/ccPqDIXf.s:295    .text:000000e0 CLKSYS_Configuration_Lock
     /tmp/ccPqDIXf.s:312    .text:000000ea __vector_14
     /tmp/ccPqDIXf.s:3533   .bss:00000000 elapsedMillis
     /tmp/ccPqDIXf.s:362    .text:00000134 delay_ms
     /tmp/ccPqDIXf.s:402    .text:00000150 compareArray
     /tmp/ccPqDIXf.s:485    .text:000001ca signum
     /tmp/ccPqDIXf.s:518    .text:000001e6 Config32MHzClock
     /tmp/ccPqDIXf.s:547    .text:00000204 millis
     /tmp/ccPqDIXf.s:574    .text:00000222 blink
     /tmp/ccPqDIXf.s:621    .text:0000024e setPin
     /tmp/ccPqDIXf.s:887    .text:0000036e clearPin
     /tmp/ccPqDIXf.s:1153   .text:0000048e setSpeed
     /tmp/ccPqDIXf.s:1210   .text:000004da stepMotor
     /tmp/ccPqDIXf.s:1473   .text:00000616 step
     /tmp/ccPqDIXf.s:3538   .bss:00000004 pose
     /tmp/ccPqDIXf.s:3382   .data:00000000 Gripper
     /tmp/ccPqDIXf.s:1788   .text:0000081e stepOne
     /tmp/ccPqDIXf.s:2001   .text:0000098a changeGoal
     /tmp/ccPqDIXf.s:3543   .bss:00000010 goal
     /tmp/ccPqDIXf.s:2052   .text:000009cc moveToGoal
     /tmp/ccPqDIXf.s:3507   .data:000000b4 Base
     /tmp/ccPqDIXf.s:3482   .data:00000090 Shoulder
     /tmp/ccPqDIXf.s:3457   .data:0000006c Elbow
     /tmp/ccPqDIXf.s:3407   .data:00000024 Right_Wrist
     /tmp/ccPqDIXf.s:3432   .data:00000048 Left_Wrist
     /tmp/ccPqDIXf.s:3057   .text:000010f8 usbUpdate
     /tmp/ccPqDIXf.s:3548   .bss:0000001c debugFlag
     /tmp/ccPqDIXf.s:3169   .text:000011a0 mainLoop
     /tmp/ccPqDIXf.s:3554   .data:000000d8 state
     /tmp/ccPqDIXf.s:3272   .text.startup:00000000 main

UNDEFINED SYMBOLS
__divmodsi4
__divmodhi4
__floatsisf
__divsf3
__mulsf3
__fixsfsi
__do_copy_data
__do_clear_bss
GAS LISTING /tmp/ccPqDIXf.s 			page 279


