GAS LISTING /tmp/ccq5P7XK.s 			page 1


   1               		.file	"AdDemo.c"
   2               	__SREG__ = 0x3f
   3               	__SP_H__ = 0x3e
   4               	__SP_L__ = 0x3d
   5               	__CCP__ = 0x34
   6               	__tmp_reg__ = 0
   7               	__zero_reg__ = 1
   8               		.section	.debug_abbrev,"",@progbits
   9               	.Ldebug_abbrev0:
  10               		.section	.debug_info,"",@progbits
  11               	.Ldebug_info0:
  12               		.section	.debug_line,"",@progbits
  13               	.Ldebug_line0:
  14               		.text
  15               	.Ltext0:
  16               	.global	CCPWrite
  17               		.type	CCPWrite, @function
  18               	CCPWrite:
  19               	.LFB6:
  20               	.LM1:
  21               	.LVL0:
  22 0000 0F93      		push r16
  23 0002 DF93      		push r29
  24 0004 CF93      		push r28
  25 0006 0F92      		push __tmp_reg__
  26 0008 CDB7      		in r28,__SP_L__
  27 000a DEB7      		in r29,__SP_H__
  28               	/* prologue: function */
  29               	/* frame size = 1 */
  30               	/* stack size = 4 */
  31               	.L__stack_usage = 4
  32               	.LM2:
  33 000c 2FB7      		in r18,__SREG__
  34               	.LVL1:
  35 000e 2983      		std Y+1,r18
  36               	/* #APP */
  37               	 ;  108 "requiredFiles/clksys_driver.c" 1
  38 0010 F894      		cli
  39               	 ;  0 "" 2
  40               	.LVL2:
  41               	.LM3:
  42               	/* #NOAPP */
  43 0012 1BBE      		out 59-0,__zero_reg__
  44               	.LM4:
  45               	/* #APP */
  46               	 ;  113 "requiredFiles/clksys_driver.c" 1
  47 0014 FC01      		movw r30,  r24
  48 0016 08ED      		ldi  r16,  216
  49 0018 04BF      		out   52, r16
  50 001a 6083      		st     Z,  r22
  51               		
  52               	 ;  0 "" 2
  53               	.LM5:
  54               	/* #NOAPP */
  55 001c 8981      		ldd r24,Y+1
  56               	.LVL3:
  57 001e 8FBF      		out __SREG__,r24
GAS LISTING /tmp/ccq5P7XK.s 			page 2


  58               	/* epilogue start */
  59               	.LM6:
  60 0020 0F90      		pop __tmp_reg__
  61 0022 CF91      		pop r28
  62 0024 DF91      		pop r29
  63 0026 0F91      		pop r16
  64 0028 0895      		ret
  65               	.LFE6:
  66               		.size	CCPWrite, .-CCPWrite
  67               	.global	CLKSYS_XOSC_Config
  68               		.type	CLKSYS_XOSC_Config, @function
  69               	CLKSYS_XOSC_Config:
  70               	.LFB7:
  71               	.LM7:
  72               	.LVL4:
  73               	/* prologue: function */
  74               	/* frame size = 0 */
  75               	/* stack size = 0 */
  76               	.L__stack_usage = 0
  77               	.LM8:
  78 002a 6623      		tst r22
  79 002c 01F0      		breq .L4
  80 002e 90E2      		ldi r25,lo8(32)
  81 0030 00C0      		rjmp .L3
  82               	.L4:
  83 0032 90E0      		ldi r25,lo8(0)
  84               	.L3:
  85               	.LM9:
  86 0034 842B      		or r24,r20
  87               	.LVL5:
  88 0036 892B      		or r24,r25
  89 0038 E0E5      		ldi r30,lo8(80)
  90 003a F0E0      		ldi r31,hi8(80)
  91 003c 8283      		std Z+2,r24
  92               	/* epilogue start */
  93               	.LM10:
  94 003e 0895      		ret
  95               	.LFE7:
  96               		.size	CLKSYS_XOSC_Config, .-CLKSYS_XOSC_Config
  97               	.global	CLKSYS_PLL_Config
  98               		.type	CLKSYS_PLL_Config, @function
  99               	CLKSYS_PLL_Config:
 100               	.LFB8:
 101               	.LM11:
 102               	.LVL6:
 103               	/* prologue: function */
 104               	/* frame size = 0 */
 105               	/* stack size = 0 */
 106               	.L__stack_usage = 0
 107               	.LM12:
 108 0040 6F71      		andi r22,lo8(31)
 109               	.LVL7:
 110               	.LM13:
 111 0042 682B      		or r22,r24
 112               	.LVL8:
 113 0044 E0E5      		ldi r30,lo8(80)
 114 0046 F0E0      		ldi r31,hi8(80)
GAS LISTING /tmp/ccq5P7XK.s 			page 3


 115 0048 6583      		std Z+5,r22
 116               	/* epilogue start */
 117               	.LM14:
 118 004a 0895      		ret
 119               	.LFE8:
 120               		.size	CLKSYS_PLL_Config, .-CLKSYS_PLL_Config
 121               	.global	CLKSYS_Disable
 122               		.type	CLKSYS_Disable, @function
 123               	CLKSYS_Disable:
 124               	.LFB9:
 125               	.LM15:
 126               	.LVL9:
 127               	/* prologue: function */
 128               	/* frame size = 0 */
 129               	/* stack size = 0 */
 130               	.L__stack_usage = 0
 131               	.LM16:
 132 004c E0E5      		ldi r30,lo8(80)
 133 004e F0E0      		ldi r31,hi8(80)
 134 0050 2081      		ld r18,Z
 135 0052 982F      		mov r25,r24
 136 0054 9095      		com r25
 137 0056 9223      		and r25,r18
 138 0058 9083      		st Z,r25
 139               	.LM17:
 140 005a 9081      		ld r25,Z
 141               	.LVL10:
 142               	.LM18:
 143 005c 8923      		and r24,r25
 144               	.LVL11:
 145               	/* epilogue start */
 146 005e 0895      		ret
 147               	.LFE9:
 148               		.size	CLKSYS_Disable, .-CLKSYS_Disable
 149               	.global	CLKSYS_Prescalers_Config
 150               		.type	CLKSYS_Prescalers_Config, @function
 151               	CLKSYS_Prescalers_Config:
 152               	.LFB10:
 153               	.LM19:
 154               	.LVL12:
 155               	/* prologue: function */
 156               	/* frame size = 0 */
 157               	/* stack size = 0 */
 158               	.L__stack_usage = 0
 159               	.LM20:
 160 0060 682B      		or r22,r24
 161               	.LVL13:
 162               	.LM21:
 163 0062 81E4      		ldi r24,lo8(65)
 164 0064 90E0      		ldi r25,hi8(65)
 165               	.LVL14:
 166 0066 0E94 0000 		call CCPWrite
 167               	.LVL15:
 168               	/* epilogue start */
 169               	.LM22:
 170 006a 0895      		ret
 171               	.LFE10:
GAS LISTING /tmp/ccq5P7XK.s 			page 4


 172               		.size	CLKSYS_Prescalers_Config, .-CLKSYS_Prescalers_Config
 173               	.global	CLKSYS_Main_ClockSource_Select
 174               		.type	CLKSYS_Main_ClockSource_Select, @function
 175               	CLKSYS_Main_ClockSource_Select:
 176               	.LFB11:
 177               	.LM23:
 178               	.LVL16:
 179 006c 1F93      		push r17
 180 006e CF93      		push r28
 181 0070 DF93      		push r29
 182               	/* prologue: function */
 183               	/* frame size = 0 */
 184               	/* stack size = 3 */
 185               	.L__stack_usage = 3
 186 0072 182F      		mov r17,r24
 187               	.LM24:
 188 0074 C0E4      		ldi r28,lo8(64)
 189 0076 D0E0      		ldi r29,hi8(64)
 190 0078 6881      		ld r22,Y
 191               	.LVL17:
 192 007a 687F      		andi r22,lo8(-8)
 193               	.LVL18:
 194 007c 682B      		or r22,r24
 195               	.LVL19:
 196               	.LM25:
 197 007e 80E4      		ldi r24,lo8(64)
 198 0080 90E0      		ldi r25,hi8(64)
 199               	.LVL20:
 200 0082 0E94 0000 		call CCPWrite
 201               	.LVL21:
 202               	.LM26:
 203 0086 8881      		ld r24,Y
 204               	.LVL22:
 205               	.LM27:
 206 0088 8123      		and r24,r17
 207               	.LVL23:
 208               	/* epilogue start */
 209 008a DF91      		pop r29
 210 008c CF91      		pop r28
 211 008e 1F91      		pop r17
 212               	.LVL24:
 213 0090 0895      		ret
 214               	.LFE11:
 215               		.size	CLKSYS_Main_ClockSource_Select, .-CLKSYS_Main_ClockSource_Select
 216               	.global	CLKSYS_RTC_ClockSource_Enable
 217               		.type	CLKSYS_RTC_ClockSource_Enable, @function
 218               	CLKSYS_RTC_ClockSource_Enable:
 219               	.LFB12:
 220               	.LM28:
 221               	.LVL25:
 222               	/* prologue: function */
 223               	/* frame size = 0 */
 224               	/* stack size = 0 */
 225               	.L__stack_usage = 0
 226               	.LM29:
 227 0092 E0E4      		ldi r30,lo8(64)
 228 0094 F0E0      		ldi r31,hi8(64)
GAS LISTING /tmp/ccq5P7XK.s 			page 5


 229 0096 9381      		ldd r25,Z+3
 230 0098 917F      		andi r25,lo8(-15)
 231 009a 9160      		ori r25,lo8(1)
 232 009c 982B      		or r25,r24
 233 009e 9383      		std Z+3,r25
 234               	/* epilogue start */
 235               	.LM30:
 236 00a0 0895      		ret
 237               	.LFE12:
 238               		.size	CLKSYS_RTC_ClockSource_Enable, .-CLKSYS_RTC_ClockSource_Enable
 239               	.global	CLKSYS_AutoCalibration_Enable
 240               		.type	CLKSYS_AutoCalibration_Enable, @function
 241               	CLKSYS_AutoCalibration_Enable:
 242               	.LFB13:
 243               	.LM31:
 244               	.LVL26:
 245               	/* prologue: function */
 246               	/* frame size = 0 */
 247               	/* stack size = 0 */
 248               	.L__stack_usage = 0
 249               	.LM32:
 250 00a2 3091 5600 		lds r19,86
 251 00a6 282F      		mov r18,r24
 252 00a8 982F      		mov r25,r24
 253 00aa 9095      		com r25
 254 00ac 9323      		and r25,r19
 255 00ae 6623      		tst r22
 256 00b0 01F4      		brne .L11
 257               	.LVL27:
 258 00b2 20E0      		ldi r18,lo8(0)
 259               	.LVL28:
 260               	.L11:
 261               	.LM33:
 262 00b4 922B      		or r25,r18
 263 00b6 E0E5      		ldi r30,lo8(80)
 264 00b8 F0E0      		ldi r31,hi8(80)
 265 00ba 9683      		std Z+6,r25
 266               	.LM34:
 267 00bc 8130      		cpi r24,lo8(1)
 268 00be 01F4      		brne .L12
 269               	.LM35:
 270 00c0 8091 6800 		lds r24,104
 271               	.LVL29:
 272 00c4 8160      		ori r24,lo8(1)
 273 00c6 8093 6800 		sts 104,r24
 274 00ca 0895      		ret
 275               	.LVL30:
 276               	.L12:
 277               	.LM36:
 278 00cc 8230      		cpi r24,lo8(2)
 279 00ce 01F4      		brne .L10
 280               	.LM37:
 281 00d0 8091 6000 		lds r24,96
 282               	.LVL31:
 283 00d4 8160      		ori r24,lo8(1)
 284 00d6 8093 6000 		sts 96,r24
 285               	.L10:
GAS LISTING /tmp/ccq5P7XK.s 			page 6


 286 00da 0895      		ret
 287               	.LFE13:
 288               		.size	CLKSYS_AutoCalibration_Enable, .-CLKSYS_AutoCalibration_Enable
 289               	.global	CLKSYS_XOSC_FailureDetection_Enable
 290               		.type	CLKSYS_XOSC_FailureDetection_Enable, @function
 291               	CLKSYS_XOSC_FailureDetection_Enable:
 292               	.LFB14:
 293               	.LM38:
 294               	/* prologue: function */
 295               	/* frame size = 0 */
 296               	/* stack size = 0 */
 297               	.L__stack_usage = 0
 298               	.LM39:
 299 00dc 83E5      		ldi r24,lo8(83)
 300 00de 90E0      		ldi r25,hi8(83)
 301 00e0 63E0      		ldi r22,lo8(3)
 302 00e2 0E94 0000 		call CCPWrite
 303               	/* epilogue start */
 304               	.LM40:
 305 00e6 0895      		ret
 306               	.LFE14:
 307               		.size	CLKSYS_XOSC_FailureDetection_Enable, .-CLKSYS_XOSC_FailureDetection_Enable
 308               	.global	CLKSYS_Configuration_Lock
 309               		.type	CLKSYS_Configuration_Lock, @function
 310               	CLKSYS_Configuration_Lock:
 311               	.LFB15:
 312               	.LM41:
 313               	/* prologue: function */
 314               	/* frame size = 0 */
 315               	/* stack size = 0 */
 316               	.L__stack_usage = 0
 317               	.LM42:
 318 00e8 82E4      		ldi r24,lo8(66)
 319 00ea 90E0      		ldi r25,hi8(66)
 320 00ec 61E0      		ldi r22,lo8(1)
 321 00ee 0E94 0000 		call CCPWrite
 322               	/* epilogue start */
 323               	.LM43:
 324 00f2 0895      		ret
 325               	.LFE15:
 326               		.size	CLKSYS_Configuration_Lock, .-CLKSYS_Configuration_Lock
 327               	.global	__vector_14
 328               		.type	__vector_14, @function
 329               	__vector_14:
 330               	.LFB16:
 331               	.LM44:
 332 00f4 1F92      		push __zero_reg__
 333 00f6 0F92      		push r0
 334 00f8 0FB6      		in r0,__SREG__
 335 00fa 0F92      		push r0
 336 00fc 1124      		clr __zero_reg__
 337 00fe 8F93      		push r24
 338 0100 9F93      		push r25
 339 0102 AF93      		push r26
 340 0104 BF93      		push r27
 341               	/* prologue: Signal */
 342               	/* frame size = 0 */
GAS LISTING /tmp/ccq5P7XK.s 			page 7


 343               	/* stack size = 7 */
 344               	.L__stack_usage = 7
 345               	.LM45:
 346 0106 8091 0000 		lds r24,elapsedMillis
 347 010a 9091 0000 		lds r25,elapsedMillis+1
 348 010e A091 0000 		lds r26,elapsedMillis+2
 349 0112 B091 0000 		lds r27,elapsedMillis+3
 350 0116 0196      		adiw r24,1
 351 0118 A11D      		adc r26,__zero_reg__
 352 011a B11D      		adc r27,__zero_reg__
 353 011c 8093 0000 		sts elapsedMillis,r24
 354 0120 9093 0000 		sts elapsedMillis+1,r25
 355 0124 A093 0000 		sts elapsedMillis+2,r26
 356 0128 B093 0000 		sts elapsedMillis+3,r27
 357               	/* epilogue start */
 358               	.LM46:
 359 012c BF91      		pop r27
 360 012e AF91      		pop r26
 361 0130 9F91      		pop r25
 362 0132 8F91      		pop r24
 363 0134 0F90      		pop r0
 364 0136 0FBE      		out __SREG__,r0
 365 0138 0F90      		pop r0
 366 013a 1F90      		pop __zero_reg__
 367 013c 1895      		reti
 368               	.LFE16:
 369               		.size	__vector_14, .-__vector_14
 370               	.global	delay_ms
 371               		.type	delay_ms, @function
 372               	delay_ms:
 373               	.LFB17:
 374               	.LM47:
 375               	.LVL32:
 376               	/* prologue: function */
 377               	/* frame size = 0 */
 378               	/* stack size = 0 */
 379               	.L__stack_usage = 0
 380               	.LM48:
 381 013e 282F      		mov r18,r24
 382 0140 392F      		mov r19,r25
 383 0142 C901      		movw r24,r18
 384               	.LVL33:
 385               	.LM49:
 386 0144 00C0      		rjmp .L18
 387               	.L19:
 388               	.LVL34:
 389               	.LBB64:
 390               	.LBB65:
 391               	.LM50:
 392 0146 EFE3      		 ldi r30,lo8(7999)
 393 0148 FFE1      	    ldi r31,hi8(7999)
 394 014a 3197      	    1:sbiw r30,1
 395 014c 01F4      	    brne 1b
 396 014e 00C0      		rjmp .
 397 0150 0000      		nop
 398 0152 0197      		sbiw r24,1
 399               	.LVL35:
GAS LISTING /tmp/ccq5P7XK.s 			page 8


 400               	.L18:
 401               	.LBE65:
 402               	.LBE64:
 403               	.LM51:
 404 0154 0097      		sbiw r24,0
 405 0156 01F4      		brne .L19
 406               	/* epilogue start */
 407               	.LM52:
 408 0158 0895      		ret
 409               	.LFE17:
 410               		.size	delay_ms, .-delay_ms
 411               	.global	compareArray
 412               		.type	compareArray, @function
 413               	compareArray:
 414               	.LFB18:
 415               	.LM53:
 416               	.LVL36:
 417               	/* prologue: function */
 418               	/* frame size = 0 */
 419               	/* stack size = 0 */
 420               	.L__stack_usage = 0
 421 015a FC01      		movw r30,r24
 422 015c DB01      		movw r26,r22
 423               	.LM54:
 424 015e 2081      		ld r18,Z
 425 0160 3181      		ldd r19,Z+1
 426 0162 8D91      		ld r24,X+
 427 0164 9C91      		ld r25,X
 428 0166 1197      		sbiw r26,1
 429               	.LVL37:
 430 0168 2817      		cp r18,r24
 431 016a 3907      		cpc r19,r25
 432 016c 01F4      		brne .L27
 433               	.LM55:
 434 016e 2281      		ldd r18,Z+2
 435 0170 3381      		ldd r19,Z+3
 436 0172 1296      		adiw r26,2
 437 0174 8D91      		ld r24,X+
 438 0176 9C91      		ld r25,X
 439 0178 1397      		sbiw r26,2+1
 440 017a 2817      		cp r18,r24
 441 017c 3907      		cpc r19,r25
 442 017e 01F4      		brne .L27
 443               	.LM56:
 444 0180 2481      		ldd r18,Z+4
 445 0182 3581      		ldd r19,Z+5
 446 0184 1496      		adiw r26,4
 447 0186 8D91      		ld r24,X+
 448 0188 9C91      		ld r25,X
 449 018a 1597      		sbiw r26,4+1
 450 018c 2817      		cp r18,r24
 451 018e 3907      		cpc r19,r25
 452 0190 01F4      		brne .L27
 453               	.LM57:
 454 0192 2681      		ldd r18,Z+6
 455 0194 3781      		ldd r19,Z+7
 456 0196 1696      		adiw r26,6
GAS LISTING /tmp/ccq5P7XK.s 			page 9


 457 0198 8D91      		ld r24,X+
 458 019a 9C91      		ld r25,X
 459 019c 1797      		sbiw r26,6+1
 460 019e 2817      		cp r18,r24
 461 01a0 3907      		cpc r19,r25
 462 01a2 01F4      		brne .L27
 463               	.LM58:
 464 01a4 2085      		ldd r18,Z+8
 465 01a6 3185      		ldd r19,Z+9
 466 01a8 1896      		adiw r26,8
 467 01aa 8D91      		ld r24,X+
 468 01ac 9C91      		ld r25,X
 469 01ae 1997      		sbiw r26,8+1
 470 01b0 2817      		cp r18,r24
 471 01b2 3907      		cpc r19,r25
 472 01b4 01F4      		brne .L27
 473               	.LM59:
 474 01b6 21E0      		ldi r18,lo8(1)
 475 01b8 30E0      		ldi r19,hi8(1)
 476 01ba 4285      		ldd r20,Z+10
 477 01bc 5385      		ldd r21,Z+11
 478 01be 1A96      		adiw r26,10
 479 01c0 8D91      		ld r24,X+
 480 01c2 9C91      		ld r25,X
 481 01c4 1B97      		sbiw r26,10+1
 482 01c6 4817      		cp r20,r24
 483 01c8 5907      		cpc r21,r25
 484 01ca 01F0      		breq .L21
 485               	.L27:
 486               	.LM60:
 487 01cc 20E0      		ldi r18,lo8(0)
 488 01ce 30E0      		ldi r19,hi8(0)
 489               	.L21:
 490               	.LM61:
 491 01d0 C901      		movw r24,r18
 492               	/* epilogue start */
 493 01d2 0895      		ret
 494               	.LFE18:
 495               		.size	compareArray, .-compareArray
 496               	.global	signum
 497               		.type	signum, @function
 498               	signum:
 499               	.LFB19:
 500               	.LM62:
 501               	.LVL38:
 502               	/* prologue: function */
 503               	/* frame size = 0 */
 504               	/* stack size = 0 */
 505               	.L__stack_usage = 0
 506               	.LM63:
 507 01d4 97FD      		sbrc r25,7
 508 01d6 00C0      		rjmp .L31
 509               	.LM64:
 510 01d8 21E0      		ldi r18,lo8(1)
 511 01da 30E0      		ldi r19,hi8(1)
 512 01dc 1816      		cp __zero_reg__,r24
 513 01de 1906      		cpc __zero_reg__,r25
GAS LISTING /tmp/ccq5P7XK.s 			page 10


 514 01e0 04F0      		brlt .L29
 515 01e2 20E0      		ldi r18,lo8(0)
 516 01e4 30E0      		ldi r19,hi8(0)
 517 01e6 00C0      		rjmp .L29
 518               	.L31:
 519               	.LM65:
 520 01e8 2FEF      		ldi r18,lo8(-1)
 521 01ea 3FEF      		ldi r19,hi8(-1)
 522               	.L29:
 523               	.LM66:
 524 01ec C901      		movw r24,r18
 525               	.LVL39:
 526               	/* epilogue start */
 527 01ee 0895      		ret
 528               	.LFE19:
 529               		.size	signum, .-signum
 530               	.global	Config32MHzClock
 531               		.type	Config32MHzClock, @function
 532               	Config32MHzClock:
 533               	.LFB20:
 534               	.LM67:
 535               	/* prologue: function */
 536               	/* frame size = 0 */
 537               	/* stack size = 0 */
 538               	.L__stack_usage = 0
 539               	.LM68:
 540 01f0 88ED      		ldi r24,lo8(-40)
 541 01f2 84BF      		out 52-0,r24
 542               	.LM69:
 543 01f4 82E0      		ldi r24,lo8(2)
 544 01f6 8093 5000 		sts 80,r24
 545               	.L33:
 546               	.LM70:
 547 01fa 8091 5100 		lds r24,81
 548 01fe 81FF      		sbrs r24,1
 549 0200 00C0      		rjmp .L33
 550               	.LM71:
 551 0202 88ED      		ldi r24,lo8(-40)
 552 0204 84BF      		out 52-0,r24
 553               	.LM72:
 554 0206 81E0      		ldi r24,lo8(1)
 555 0208 8093 4000 		sts 64,r24
 556               	/* epilogue start */
 557               	.LM73:
 558 020c 0895      		ret
 559               	.LFE20:
 560               		.size	Config32MHzClock, .-Config32MHzClock
 561               	.global	millis
 562               		.type	millis, @function
 563               	millis:
 564               	.LFB21:
 565               	.LM74:
 566               	/* prologue: function */
 567               	/* frame size = 0 */
 568               	/* stack size = 0 */
 569               	.L__stack_usage = 0
 570               	.LM75:
GAS LISTING /tmp/ccq5P7XK.s 			page 11


 571 020e 2091 0000 		lds r18,elapsedMillis
 572 0212 3091 0000 		lds r19,elapsedMillis+1
 573 0216 4091 0000 		lds r20,elapsedMillis+2
 574 021a 5091 0000 		lds r21,elapsedMillis+3
 575               	.LM76:
 576 021e B901      		movw r22,r18
 577 0220 CA01      		movw r24,r20
 578               	/* epilogue start */
 579 0222 0895      		ret
 580               	.LFE21:
 581               		.size	millis, .-millis
 582               	.global	blink
 583               		.type	blink, @function
 584               	blink:
 585               	.LFB22:
 586               	.LM77:
 587               	.LVL40:
 588 0224 FF92      		push r15
 589 0226 0F93      		push r16
 590 0228 1F93      		push r17
 591 022a CF93      		push r28
 592 022c DF93      		push r29
 593               	/* prologue: function */
 594               	/* frame size = 0 */
 595               	/* stack size = 5 */
 596               	.L__stack_usage = 5
 597 022e EC01      		movw r28,r24
 598               	.LM78:
 599 0230 00E8      		ldi r16,lo8(1664)
 600 0232 16E0      		ldi r17,hi8(1664)
 601 0234 FF24      		clr r15
 602 0236 F394      		inc r15
 603 0238 F801      		movw r30,r16
 604 023a F582      		std Z+5,r15
 605               	.LM79:
 606 023c 0E94 0000 		call delay_ms
 607               	.LVL41:
 608               	.LM80:
 609 0240 F801      		movw r30,r16
 610 0242 F682      		std Z+6,r15
 611               	.LM81:
 612 0244 CE01      		movw r24,r28
 613 0246 0E94 0000 		call delay_ms
 614               	/* epilogue start */
 615               	.LM82:
 616 024a DF91      		pop r29
 617 024c CF91      		pop r28
 618               	.LVL42:
 619 024e 1F91      		pop r17
 620 0250 0F91      		pop r16
 621 0252 FF90      		pop r15
 622 0254 0895      		ret
 623               	.LFE22:
 624               		.size	blink, .-blink
 625               	.global	setPin
 626               		.type	setPin, @function
 627               	setPin:
GAS LISTING /tmp/ccq5P7XK.s 			page 12


 628               	.LFB23:
 629               	.LM83:
 630               	.LVL43:
 631               	/* prologue: function */
 632               	/* frame size = 0 */
 633               	/* stack size = 0 */
 634               	.L__stack_usage = 0
 635               	.LM84:
 636 0256 8234      		cpi r24,lo8(66)
 637 0258 01F0      		breq .L40
 638 025a 8334      		cpi r24,lo8(67)
 639 025c 00F4      		brsh .L43
 640 025e 8134      		cpi r24,lo8(65)
 641 0260 01F0      		breq .+2
 642 0262 00C0      		rjmp .L37
 643 0264 00C0      		rjmp .L76
 644               	.L43:
 645 0266 8334      		cpi r24,lo8(67)
 646 0268 01F4      		brne .+2
 647 026a 00C0      		rjmp .L41
 648 026c 8434      		cpi r24,lo8(68)
 649 026e 01F0      		breq .+2
 650 0270 00C0      		rjmp .L37
 651 0272 00C0      		rjmp .L77
 652               	.L76:
 653               	.LM85:
 654 0274 6330      		cpi r22,3
 655 0276 7105      		cpc r23,__zero_reg__
 656 0278 01F0      		breq .L47
 657 027a 6430      		cpi r22,4
 658 027c 7105      		cpc r23,__zero_reg__
 659 027e 04F4      		brge .L52
 660 0280 6130      		cpi r22,1
 661 0282 7105      		cpc r23,__zero_reg__
 662 0284 01F0      		breq .L45
 663 0286 6230      		cpi r22,2
 664 0288 7105      		cpc r23,__zero_reg__
 665 028a 04F4      		brge .L46
 666 028c 6115      		cp r22,__zero_reg__
 667 028e 7105      		cpc r23,__zero_reg__
 668 0290 01F0      		breq .L44
 669 0292 0895      		ret
 670               	.L52:
 671 0294 6530      		cpi r22,5
 672 0296 7105      		cpc r23,__zero_reg__
 673 0298 01F0      		breq .L49
 674 029a 6530      		cpi r22,5
 675 029c 7105      		cpc r23,__zero_reg__
 676 029e 04F0      		brlt .L48
 677 02a0 6630      		cpi r22,6
 678 02a2 7105      		cpc r23,__zero_reg__
 679 02a4 01F0      		breq .L50
 680 02a6 6730      		cpi r22,7
 681 02a8 7105      		cpc r23,__zero_reg__
 682 02aa 01F0      		breq .+2
 683 02ac 00C0      		rjmp .L37
 684 02ae 00C0      		rjmp .L78
GAS LISTING /tmp/ccq5P7XK.s 			page 13


 685               	.L44:
 686               	.LM86:
 687 02b0 81E0      		ldi r24,lo8(1)
 688               	.LVL44:
 689 02b2 00C0      		rjmp .L73
 690               	.LVL45:
 691               	.L45:
 692               	.LM87:
 693 02b4 82E0      		ldi r24,lo8(2)
 694               	.LVL46:
 695 02b6 00C0      		rjmp .L73
 696               	.LVL47:
 697               	.L46:
 698               	.LM88:
 699 02b8 84E0      		ldi r24,lo8(4)
 700               	.LVL48:
 701 02ba 00C0      		rjmp .L73
 702               	.LVL49:
 703               	.L47:
 704               	.LM89:
 705 02bc 88E0      		ldi r24,lo8(8)
 706               	.LVL50:
 707 02be 00C0      		rjmp .L73
 708               	.LVL51:
 709               	.L48:
 710               	.LM90:
 711 02c0 80E1      		ldi r24,lo8(16)
 712               	.LVL52:
 713 02c2 00C0      		rjmp .L73
 714               	.LVL53:
 715               	.L49:
 716               	.LM91:
 717 02c4 80E2      		ldi r24,lo8(32)
 718               	.LVL54:
 719 02c6 00C0      		rjmp .L73
 720               	.LVL55:
 721               	.L50:
 722               	.LM92:
 723 02c8 80E4      		ldi r24,lo8(64)
 724               	.LVL56:
 725 02ca 00C0      		rjmp .L73
 726               	.LVL57:
 727               	.L78:
 728               	.LM93:
 729 02cc 80E8      		ldi r24,lo8(-128)
 730               	.LVL58:
 731               	.L73:
 732 02ce 8093 0506 		sts 1541,r24
 733 02d2 0895      		ret
 734               	.LVL59:
 735               	.L40:
 736               	.LM94:
 737 02d4 6130      		cpi r22,1
 738 02d6 7105      		cpc r23,__zero_reg__
 739 02d8 01F0      		breq .L54
 740 02da 6230      		cpi r22,2
 741 02dc 7105      		cpc r23,__zero_reg__
GAS LISTING /tmp/ccq5P7XK.s 			page 14


 742 02de 04F4      		brge .L57
 743 02e0 6115      		cp r22,__zero_reg__
 744 02e2 7105      		cpc r23,__zero_reg__
 745 02e4 01F0      		breq .L53
 746 02e6 0895      		ret
 747               	.L57:
 748 02e8 6230      		cpi r22,2
 749 02ea 7105      		cpc r23,__zero_reg__
 750 02ec 01F0      		breq .L55
 751 02ee 6330      		cpi r22,3
 752 02f0 7105      		cpc r23,__zero_reg__
 753 02f2 01F0      		breq .+2
 754 02f4 00C0      		rjmp .L37
 755 02f6 00C0      		rjmp .L79
 756               	.L53:
 757               	.LM95:
 758 02f8 81E0      		ldi r24,lo8(1)
 759               	.LVL60:
 760 02fa 00C0      		rjmp .L75
 761               	.LVL61:
 762               	.L54:
 763               	.LM96:
 764 02fc 82E0      		ldi r24,lo8(2)
 765               	.LVL62:
 766 02fe 00C0      		rjmp .L75
 767               	.LVL63:
 768               	.L55:
 769               	.LM97:
 770 0300 84E0      		ldi r24,lo8(4)
 771               	.LVL64:
 772 0302 00C0      		rjmp .L75
 773               	.LVL65:
 774               	.L79:
 775               	.LM98:
 776 0304 88E0      		ldi r24,lo8(8)
 777               	.LVL66:
 778               	.L75:
 779 0306 8093 2506 		sts 1573,r24
 780 030a 0895      		ret
 781               	.LVL67:
 782               	.L41:
 783               	.LM99:
 784 030c 6330      		cpi r22,3
 785 030e 7105      		cpc r23,__zero_reg__
 786 0310 01F0      		breq .L61
 787 0312 6430      		cpi r22,4
 788 0314 7105      		cpc r23,__zero_reg__
 789 0316 04F4      		brge .L66
 790 0318 6130      		cpi r22,1
 791 031a 7105      		cpc r23,__zero_reg__
 792 031c 01F0      		breq .L59
 793 031e 6230      		cpi r22,2
 794 0320 7105      		cpc r23,__zero_reg__
 795 0322 04F4      		brge .L60
 796 0324 6115      		cp r22,__zero_reg__
 797 0326 7105      		cpc r23,__zero_reg__
 798 0328 01F0      		breq .L58
GAS LISTING /tmp/ccq5P7XK.s 			page 15


 799 032a 0895      		ret
 800               	.L66:
 801 032c 6530      		cpi r22,5
 802 032e 7105      		cpc r23,__zero_reg__
 803 0330 01F0      		breq .L63
 804 0332 6530      		cpi r22,5
 805 0334 7105      		cpc r23,__zero_reg__
 806 0336 04F0      		brlt .L62
 807 0338 6630      		cpi r22,6
 808 033a 7105      		cpc r23,__zero_reg__
 809 033c 01F0      		breq .L64
 810 033e 6730      		cpi r22,7
 811 0340 7105      		cpc r23,__zero_reg__
 812 0342 01F4      		brne .L37
 813 0344 00C0      		rjmp .L80
 814               	.L58:
 815               	.LM100:
 816 0346 81E0      		ldi r24,lo8(1)
 817               	.LVL68:
 818 0348 00C0      		rjmp .L74
 819               	.LVL69:
 820               	.L59:
 821               	.LM101:
 822 034a 82E0      		ldi r24,lo8(2)
 823               	.LVL70:
 824 034c 00C0      		rjmp .L74
 825               	.LVL71:
 826               	.L60:
 827               	.LM102:
 828 034e 84E0      		ldi r24,lo8(4)
 829               	.LVL72:
 830 0350 00C0      		rjmp .L74
 831               	.LVL73:
 832               	.L61:
 833               	.LM103:
 834 0352 88E0      		ldi r24,lo8(8)
 835               	.LVL74:
 836 0354 00C0      		rjmp .L74
 837               	.LVL75:
 838               	.L62:
 839               	.LM104:
 840 0356 80E1      		ldi r24,lo8(16)
 841               	.LVL76:
 842 0358 00C0      		rjmp .L74
 843               	.LVL77:
 844               	.L63:
 845               	.LM105:
 846 035a 80E2      		ldi r24,lo8(32)
 847               	.LVL78:
 848 035c 00C0      		rjmp .L74
 849               	.LVL79:
 850               	.L64:
 851               	.LM106:
 852 035e 80E4      		ldi r24,lo8(64)
 853               	.LVL80:
 854 0360 00C0      		rjmp .L74
 855               	.LVL81:
GAS LISTING /tmp/ccq5P7XK.s 			page 16


 856               	.L80:
 857               	.LM107:
 858 0362 80E8      		ldi r24,lo8(-128)
 859               	.LVL82:
 860               	.L74:
 861 0364 8093 4506 		sts 1605,r24
 862 0368 0895      		ret
 863               	.LVL83:
 864               	.L77:
 865               	.LM108:
 866 036a 6130      		cpi r22,1
 867 036c 7105      		cpc r23,__zero_reg__
 868 036e 01F0      		breq .L68
 869 0370 6230      		cpi r22,2
 870 0372 7105      		cpc r23,__zero_reg__
 871 0374 04F4      		brge .L71
 872 0376 6115      		cp r22,__zero_reg__
 873 0378 7105      		cpc r23,__zero_reg__
 874 037a 01F0      		breq .L67
 875 037c 0895      		ret
 876               	.L71:
 877 037e 6230      		cpi r22,2
 878 0380 7105      		cpc r23,__zero_reg__
 879 0382 01F0      		breq .L69
 880 0384 6330      		cpi r22,3
 881 0386 7105      		cpc r23,__zero_reg__
 882 0388 01F4      		brne .L37
 883 038a 00C0      		rjmp .L81
 884               	.L67:
 885               	.LM109:
 886 038c 81E0      		ldi r24,lo8(1)
 887               	.LVL84:
 888 038e 00C0      		rjmp .L72
 889               	.LVL85:
 890               	.L68:
 891               	.LM110:
 892 0390 82E0      		ldi r24,lo8(2)
 893               	.LVL86:
 894 0392 00C0      		rjmp .L72
 895               	.LVL87:
 896               	.L69:
 897               	.LM111:
 898 0394 84E0      		ldi r24,lo8(4)
 899               	.LVL88:
 900               	.L72:
 901 0396 8093 6506 		sts 1637,r24
 902 039a 0895      		ret
 903               	.LVL89:
 904               	.L81:
 905               	.LM112:
 906 039c 88E0      		ldi r24,lo8(8)
 907               	.LVL90:
 908 039e 8093 6506 		sts 1637,r24
 909               	.L37:
 910 03a2 0895      		ret
 911               	.LFE23:
 912               		.size	setPin, .-setPin
GAS LISTING /tmp/ccq5P7XK.s 			page 17


 913               	.global	clearPin
 914               		.type	clearPin, @function
 915               	clearPin:
 916               	.LFB24:
 917               	.LM113:
 918               	.LVL91:
 919               	/* prologue: function */
 920               	/* frame size = 0 */
 921               	/* stack size = 0 */
 922               	.L__stack_usage = 0
 923               	.LM114:
 924 03a4 8234      		cpi r24,lo8(66)
 925 03a6 01F0      		breq .L85
 926 03a8 8334      		cpi r24,lo8(67)
 927 03aa 00F4      		brsh .L88
 928 03ac 8134      		cpi r24,lo8(65)
 929 03ae 01F0      		breq .+2
 930 03b0 00C0      		rjmp .L82
 931 03b2 00C0      		rjmp .L121
 932               	.L88:
 933 03b4 8334      		cpi r24,lo8(67)
 934 03b6 01F4      		brne .+2
 935 03b8 00C0      		rjmp .L86
 936 03ba 8434      		cpi r24,lo8(68)
 937 03bc 01F0      		breq .+2
 938 03be 00C0      		rjmp .L82
 939 03c0 00C0      		rjmp .L122
 940               	.L121:
 941               	.LM115:
 942 03c2 6330      		cpi r22,3
 943 03c4 7105      		cpc r23,__zero_reg__
 944 03c6 01F0      		breq .L92
 945 03c8 6430      		cpi r22,4
 946 03ca 7105      		cpc r23,__zero_reg__
 947 03cc 04F4      		brge .L97
 948 03ce 6130      		cpi r22,1
 949 03d0 7105      		cpc r23,__zero_reg__
 950 03d2 01F0      		breq .L90
 951 03d4 6230      		cpi r22,2
 952 03d6 7105      		cpc r23,__zero_reg__
 953 03d8 04F4      		brge .L91
 954 03da 6115      		cp r22,__zero_reg__
 955 03dc 7105      		cpc r23,__zero_reg__
 956 03de 01F0      		breq .L89
 957 03e0 0895      		ret
 958               	.L97:
 959 03e2 6530      		cpi r22,5
 960 03e4 7105      		cpc r23,__zero_reg__
 961 03e6 01F0      		breq .L94
 962 03e8 6530      		cpi r22,5
 963 03ea 7105      		cpc r23,__zero_reg__
 964 03ec 04F0      		brlt .L93
 965 03ee 6630      		cpi r22,6
 966 03f0 7105      		cpc r23,__zero_reg__
 967 03f2 01F0      		breq .L95
 968 03f4 6730      		cpi r22,7
 969 03f6 7105      		cpc r23,__zero_reg__
GAS LISTING /tmp/ccq5P7XK.s 			page 18


 970 03f8 01F0      		breq .+2
 971 03fa 00C0      		rjmp .L82
 972 03fc 00C0      		rjmp .L123
 973               	.L89:
 974               	.LM116:
 975 03fe 81E0      		ldi r24,lo8(1)
 976               	.LVL92:
 977 0400 00C0      		rjmp .L118
 978               	.LVL93:
 979               	.L90:
 980               	.LM117:
 981 0402 82E0      		ldi r24,lo8(2)
 982               	.LVL94:
 983 0404 00C0      		rjmp .L118
 984               	.LVL95:
 985               	.L91:
 986               	.LM118:
 987 0406 84E0      		ldi r24,lo8(4)
 988               	.LVL96:
 989 0408 00C0      		rjmp .L118
 990               	.LVL97:
 991               	.L92:
 992               	.LM119:
 993 040a 88E0      		ldi r24,lo8(8)
 994               	.LVL98:
 995 040c 00C0      		rjmp .L118
 996               	.LVL99:
 997               	.L93:
 998               	.LM120:
 999 040e 80E1      		ldi r24,lo8(16)
 1000               	.LVL100:
 1001 0410 00C0      		rjmp .L118
 1002               	.LVL101:
 1003               	.L94:
 1004               	.LM121:
 1005 0412 80E2      		ldi r24,lo8(32)
 1006               	.LVL102:
 1007 0414 00C0      		rjmp .L118
 1008               	.LVL103:
 1009               	.L95:
 1010               	.LM122:
 1011 0416 80E4      		ldi r24,lo8(64)
 1012               	.LVL104:
 1013 0418 00C0      		rjmp .L118
 1014               	.LVL105:
 1015               	.L123:
 1016               	.LM123:
 1017 041a 80E8      		ldi r24,lo8(-128)
 1018               	.LVL106:
 1019               	.L118:
 1020 041c 8093 0606 		sts 1542,r24
 1021 0420 0895      		ret
 1022               	.LVL107:
 1023               	.L85:
 1024               	.LM124:
 1025 0422 6130      		cpi r22,1
 1026 0424 7105      		cpc r23,__zero_reg__
GAS LISTING /tmp/ccq5P7XK.s 			page 19


 1027 0426 01F0      		breq .L99
 1028 0428 6230      		cpi r22,2
 1029 042a 7105      		cpc r23,__zero_reg__
 1030 042c 04F4      		brge .L102
 1031 042e 6115      		cp r22,__zero_reg__
 1032 0430 7105      		cpc r23,__zero_reg__
 1033 0432 01F0      		breq .L98
 1034 0434 0895      		ret
 1035               	.L102:
 1036 0436 6230      		cpi r22,2
 1037 0438 7105      		cpc r23,__zero_reg__
 1038 043a 01F0      		breq .L100
 1039 043c 6330      		cpi r22,3
 1040 043e 7105      		cpc r23,__zero_reg__
 1041 0440 01F0      		breq .+2
 1042 0442 00C0      		rjmp .L82
 1043 0444 00C0      		rjmp .L124
 1044               	.L98:
 1045               	.LM125:
 1046 0446 81E0      		ldi r24,lo8(1)
 1047               	.LVL108:
 1048 0448 00C0      		rjmp .L120
 1049               	.LVL109:
 1050               	.L99:
 1051               	.LM126:
 1052 044a 82E0      		ldi r24,lo8(2)
 1053               	.LVL110:
 1054 044c 00C0      		rjmp .L120
 1055               	.LVL111:
 1056               	.L100:
 1057               	.LM127:
 1058 044e 84E0      		ldi r24,lo8(4)
 1059               	.LVL112:
 1060 0450 00C0      		rjmp .L120
 1061               	.LVL113:
 1062               	.L124:
 1063               	.LM128:
 1064 0452 88E0      		ldi r24,lo8(8)
 1065               	.LVL114:
 1066               	.L120:
 1067 0454 8093 2606 		sts 1574,r24
 1068 0458 0895      		ret
 1069               	.LVL115:
 1070               	.L86:
 1071               	.LM129:
 1072 045a 6330      		cpi r22,3
 1073 045c 7105      		cpc r23,__zero_reg__
 1074 045e 01F0      		breq .L106
 1075 0460 6430      		cpi r22,4
 1076 0462 7105      		cpc r23,__zero_reg__
 1077 0464 04F4      		brge .L111
 1078 0466 6130      		cpi r22,1
 1079 0468 7105      		cpc r23,__zero_reg__
 1080 046a 01F0      		breq .L104
 1081 046c 6230      		cpi r22,2
 1082 046e 7105      		cpc r23,__zero_reg__
 1083 0470 04F4      		brge .L105
GAS LISTING /tmp/ccq5P7XK.s 			page 20


 1084 0472 6115      		cp r22,__zero_reg__
 1085 0474 7105      		cpc r23,__zero_reg__
 1086 0476 01F0      		breq .L103
 1087 0478 0895      		ret
 1088               	.L111:
 1089 047a 6530      		cpi r22,5
 1090 047c 7105      		cpc r23,__zero_reg__
 1091 047e 01F0      		breq .L108
 1092 0480 6530      		cpi r22,5
 1093 0482 7105      		cpc r23,__zero_reg__
 1094 0484 04F0      		brlt .L107
 1095 0486 6630      		cpi r22,6
 1096 0488 7105      		cpc r23,__zero_reg__
 1097 048a 01F0      		breq .L109
 1098 048c 6730      		cpi r22,7
 1099 048e 7105      		cpc r23,__zero_reg__
 1100 0490 01F4      		brne .L82
 1101 0492 00C0      		rjmp .L125
 1102               	.L103:
 1103               	.LM130:
 1104 0494 81E0      		ldi r24,lo8(1)
 1105               	.LVL116:
 1106 0496 00C0      		rjmp .L119
 1107               	.LVL117:
 1108               	.L104:
 1109               	.LM131:
 1110 0498 82E0      		ldi r24,lo8(2)
 1111               	.LVL118:
 1112 049a 00C0      		rjmp .L119
 1113               	.LVL119:
 1114               	.L105:
 1115               	.LM132:
 1116 049c 84E0      		ldi r24,lo8(4)
 1117               	.LVL120:
 1118 049e 00C0      		rjmp .L119
 1119               	.LVL121:
 1120               	.L106:
 1121               	.LM133:
 1122 04a0 88E0      		ldi r24,lo8(8)
 1123               	.LVL122:
 1124 04a2 00C0      		rjmp .L119
 1125               	.LVL123:
 1126               	.L107:
 1127               	.LM134:
 1128 04a4 80E1      		ldi r24,lo8(16)
 1129               	.LVL124:
 1130 04a6 00C0      		rjmp .L119
 1131               	.LVL125:
 1132               	.L108:
 1133               	.LM135:
 1134 04a8 80E2      		ldi r24,lo8(32)
 1135               	.LVL126:
 1136 04aa 00C0      		rjmp .L119
 1137               	.LVL127:
 1138               	.L109:
 1139               	.LM136:
 1140 04ac 80E4      		ldi r24,lo8(64)
GAS LISTING /tmp/ccq5P7XK.s 			page 21


 1141               	.LVL128:
 1142 04ae 00C0      		rjmp .L119
 1143               	.LVL129:
 1144               	.L125:
 1145               	.LM137:
 1146 04b0 80E8      		ldi r24,lo8(-128)
 1147               	.LVL130:
 1148               	.L119:
 1149 04b2 8093 4606 		sts 1606,r24
 1150 04b6 0895      		ret
 1151               	.LVL131:
 1152               	.L122:
 1153               	.LM138:
 1154 04b8 6130      		cpi r22,1
 1155 04ba 7105      		cpc r23,__zero_reg__
 1156 04bc 01F0      		breq .L113
 1157 04be 6230      		cpi r22,2
 1158 04c0 7105      		cpc r23,__zero_reg__
 1159 04c2 04F4      		brge .L116
 1160 04c4 6115      		cp r22,__zero_reg__
 1161 04c6 7105      		cpc r23,__zero_reg__
 1162 04c8 01F0      		breq .L112
 1163 04ca 0895      		ret
 1164               	.L116:
 1165 04cc 6230      		cpi r22,2
 1166 04ce 7105      		cpc r23,__zero_reg__
 1167 04d0 01F0      		breq .L114
 1168 04d2 6330      		cpi r22,3
 1169 04d4 7105      		cpc r23,__zero_reg__
 1170 04d6 01F4      		brne .L82
 1171 04d8 00C0      		rjmp .L126
 1172               	.L112:
 1173               	.LM139:
 1174 04da 81E0      		ldi r24,lo8(1)
 1175               	.LVL132:
 1176 04dc 00C0      		rjmp .L117
 1177               	.LVL133:
 1178               	.L113:
 1179               	.LM140:
 1180 04de 82E0      		ldi r24,lo8(2)
 1181               	.LVL134:
 1182 04e0 00C0      		rjmp .L117
 1183               	.LVL135:
 1184               	.L114:
 1185               	.LM141:
 1186 04e2 84E0      		ldi r24,lo8(4)
 1187               	.LVL136:
 1188               	.L117:
 1189 04e4 8093 6606 		sts 1638,r24
 1190 04e8 0895      		ret
 1191               	.LVL137:
 1192               	.L126:
 1193               	.LM142:
 1194 04ea 88E0      		ldi r24,lo8(8)
 1195               	.LVL138:
 1196 04ec 8093 6606 		sts 1638,r24
 1197               	.L82:
GAS LISTING /tmp/ccq5P7XK.s 			page 22


 1198 04f0 0895      		ret
 1199               	.LFE24:
 1200               		.size	clearPin, .-clearPin
 1201               	.global	setSpeed
 1202               		.type	setSpeed, @function
 1203               	setSpeed:
 1204               	.LFB25:
 1205               	.LM143:
 1206               	.LVL139:
 1207 04f2 EF92      		push r14
 1208 04f4 FF92      		push r15
 1209 04f6 0F93      		push r16
 1210 04f8 1F93      		push r17
 1211 04fa CF93      		push r28
 1212 04fc DF93      		push r29
 1213               	/* prologue: function */
 1214               	/* frame size = 0 */
 1215               	/* stack size = 6 */
 1216               	.L__stack_usage = 6
 1217 04fe EC01      		movw r28,r24
 1218 0500 7A01      		movw r14,r20
 1219 0502 8B01      		movw r16,r22
 1220               	.LM144:
 1221 0504 2A85      		ldd r18,Y+10
 1222 0506 3B85      		ldd r19,Y+11
 1223 0508 4427      		clr r20
 1224 050a 37FD      		sbrc r19,7
 1225 050c 4095      		com r20
 1226 050e 542F      		mov r21,r20
 1227 0510 60E6      		ldi r22,lo8(60000)
 1228 0512 7AEE      		ldi r23,hi8(60000)
 1229 0514 80E0      		ldi r24,hlo8(60000)
 1230 0516 90E0      		ldi r25,hhi8(60000)
 1231 0518 0E94 0000 		call __divmodsi4
 1232 051c CA01      		movw r24,r20
 1233 051e B901      		movw r22,r18
 1234 0520 A801      		movw r20,r16
 1235 0522 9701      		movw r18,r14
 1236 0524 0E94 0000 		call __divmodsi4
 1237 0528 2E83      		std Y+6,r18
 1238 052a 3F83      		std Y+7,r19
 1239 052c 4887      		std Y+8,r20
 1240 052e 5987      		std Y+9,r21
 1241               	/* epilogue start */
 1242               	.LM145:
 1243 0530 DF91      		pop r29
 1244 0532 CF91      		pop r28
 1245 0534 1F91      		pop r17
 1246 0536 0F91      		pop r16
 1247 0538 FF90      		pop r15
 1248 053a EF90      		pop r14
 1249 053c 0895      		ret
 1250               	.LFE25:
 1251               		.size	setSpeed, .-setSpeed
 1252               	.global	stepMotor
 1253               		.type	stepMotor, @function
 1254               	stepMotor:
GAS LISTING /tmp/ccq5P7XK.s 			page 23


 1255               	.LFB26:
 1256               	.LM146:
 1257               	.LVL140:
 1258 053e 9F92      		push r9
 1259 0540 AF92      		push r10
 1260 0542 BF92      		push r11
 1261 0544 CF92      		push r12
 1262 0546 DF92      		push r13
 1263 0548 EF92      		push r14
 1264 054a FF92      		push r15
 1265 054c 0F93      		push r16
 1266 054e 1F93      		push r17
 1267 0550 DF93      		push r29
 1268 0552 CF93      		push r28
 1269 0554 CDB7      		in r28,__SP_L__
 1270 0556 DEB7      		in r29,__SP_H__
 1271               	/* prologue: function */
 1272               	/* frame size = 0 */
 1273               	/* stack size = 11 */
 1274               	.L__stack_usage = 11
 1275 0558 2AA9      		ldd r18,Y+50
 1276 055a 3BA9      		ldd r19,Y+51
 1277               	.LM147:
 1278 055c 4A8D      		ldd r20,Y+26
 1279 055e 5B8D      		ldd r21,Y+27
 1280 0560 8AA1      		ldd r24,Y+34
 1281 0562 6BA1      		ldd r22,Y+35
 1282 0564 7CA1      		ldd r23,Y+36
 1283 0566 BDA0      		ldd r11,Y+37
 1284 0568 0EA1      		ldd r16,Y+38
 1285 056a 1FA1      		ldd r17,Y+39
 1286 056c 98A4      		ldd r9,Y+40
 1287 056e E9A4      		ldd r14,Y+41
 1288 0570 FAA4      		ldd r15,Y+42
 1289 0572 ABA4      		ldd r10,Y+43
 1290 0574 CCA4      		ldd r12,Y+44
 1291 0576 DDA4      		ldd r13,Y+45
 1292               	.LM148:
 1293 0578 4230      		cpi r20,2
 1294 057a 5105      		cpc r21,__zero_reg__
 1295 057c 01F4      		brne .L129
 1296               	.LM149:
 1297 057e 2130      		cpi r18,1
 1298 0580 3105      		cpc r19,__zero_reg__
 1299 0582 01F0      		breq .L132
 1300 0584 2230      		cpi r18,2
 1301 0586 3105      		cpc r19,__zero_reg__
 1302 0588 04F4      		brge .L135
 1303 058a 2115      		cp r18,__zero_reg__
 1304 058c 3105      		cpc r19,__zero_reg__
 1305 058e 01F0      		breq .L131
 1306 0590 00C0      		rjmp .L128
 1307               	.L135:
 1308 0592 2230      		cpi r18,2
 1309 0594 3105      		cpc r19,__zero_reg__
 1310 0596 01F0      		breq .L133
 1311 0598 2330      		cpi r18,3
GAS LISTING /tmp/ccq5P7XK.s 			page 24


 1312 059a 3105      		cpc r19,__zero_reg__
 1313 059c 01F0      		breq .+2
 1314 059e 00C0      		rjmp .L128
 1315 05a0 00C0      		rjmp .L147
 1316               	.L131:
 1317               	.LM150:
 1318 05a2 0E94 0000 		call clearPin
 1319 05a6 00C0      		rjmp .L145
 1320               	.L132:
 1321               	.LM151:
 1322 05a8 0E94 0000 		call setPin
 1323               	.L145:
 1324               	.LM152:
 1325 05ac 8B2D      		mov r24,r11
 1326 05ae B801      		movw r22,r16
 1327 05b0 00C0      		rjmp .L141
 1328               	.L133:
 1329               	.LM153:
 1330 05b2 0E94 0000 		call setPin
 1331 05b6 00C0      		rjmp .L144
 1332               	.L147:
 1333               	.LM154:
 1334 05b8 0E94 0000 		call clearPin
 1335               	.L144:
 1336               	.LM155:
 1337 05bc 8B2D      		mov r24,r11
 1338 05be B801      		movw r22,r16
 1339 05c0 00C0      		rjmp .L143
 1340               	.L129:
 1341               	.LM156:
 1342 05c2 4430      		cpi r20,4
 1343 05c4 5105      		cpc r21,__zero_reg__
 1344 05c6 01F4      		brne .L128
 1345               	.LM157:
 1346 05c8 2130      		cpi r18,1
 1347 05ca 3105      		cpc r19,__zero_reg__
 1348 05cc 01F0      		breq .L137
 1349 05ce 2230      		cpi r18,2
 1350 05d0 3105      		cpc r19,__zero_reg__
 1351 05d2 04F4      		brge .L140
 1352 05d4 2115      		cp r18,__zero_reg__
 1353 05d6 3105      		cpc r19,__zero_reg__
 1354 05d8 01F0      		breq .L136
 1355 05da 00C0      		rjmp .L128
 1356               	.L140:
 1357 05dc 2230      		cpi r18,2
 1358 05de 3105      		cpc r19,__zero_reg__
 1359 05e0 01F0      		breq .L138
 1360 05e2 2330      		cpi r18,3
 1361 05e4 3105      		cpc r19,__zero_reg__
 1362 05e6 01F4      		brne .L128
 1363 05e8 00C0      		rjmp .L148
 1364               	.L136:
 1365               	.LM158:
 1366 05ea 0E94 0000 		call setPin
 1367               	.LM159:
 1368 05ee 8B2D      		mov r24,r11
GAS LISTING /tmp/ccq5P7XK.s 			page 25


 1369 05f0 B801      		movw r22,r16
 1370 05f2 0E94 0000 		call clearPin
 1371 05f6 00C0      		rjmp .L142
 1372               	.L137:
 1373               	.LM160:
 1374 05f8 0E94 0000 		call clearPin
 1375               	.LM161:
 1376 05fc 8B2D      		mov r24,r11
 1377 05fe B801      		movw r22,r16
 1378 0600 0E94 0000 		call setPin
 1379               	.L142:
 1380               	.LM162:
 1381 0604 892D      		mov r24,r9
 1382 0606 B701      		movw r22,r14
 1383 0608 0E94 0000 		call setPin
 1384               	.LM163:
 1385 060c 8A2D      		mov r24,r10
 1386 060e B601      		movw r22,r12
 1387               	.L143:
 1388 0610 0E94 0000 		call clearPin
 1389               	.LM164:
 1390 0614 00C0      		rjmp .L128
 1391               	.L138:
 1392               	.LM165:
 1393 0616 0E94 0000 		call clearPin
 1394               	.LM166:
 1395 061a 8B2D      		mov r24,r11
 1396 061c B801      		movw r22,r16
 1397 061e 0E94 0000 		call setPin
 1398 0622 00C0      		rjmp .L146
 1399               	.L148:
 1400               	.LM167:
 1401 0624 0E94 0000 		call setPin
 1402               	.LM168:
 1403 0628 8B2D      		mov r24,r11
 1404 062a B801      		movw r22,r16
 1405 062c 0E94 0000 		call clearPin
 1406               	.L146:
 1407               	.LM169:
 1408 0630 892D      		mov r24,r9
 1409 0632 B701      		movw r22,r14
 1410 0634 0E94 0000 		call clearPin
 1411               	.LM170:
 1412 0638 8A2D      		mov r24,r10
 1413 063a B601      		movw r22,r12
 1414               	.L141:
 1415 063c 0E94 0000 		call setPin
 1416               	.L128:
 1417               	/* epilogue start */
 1418               	.LM171:
 1419 0640 CF91      		pop r28
 1420 0642 DF91      		pop r29
 1421 0644 1F91      		pop r17
 1422 0646 0F91      		pop r16
 1423 0648 FF90      		pop r15
 1424 064a EF90      		pop r14
 1425 064c DF90      		pop r13
GAS LISTING /tmp/ccq5P7XK.s 			page 26


 1426 064e CF90      		pop r12
 1427 0650 BF90      		pop r11
 1428 0652 AF90      		pop r10
 1429 0654 9F90      		pop r9
 1430 0656 0895      		ret
 1431               	.LFE26:
 1432               		.size	stepMotor, .-stepMotor
 1433               	.global	step
 1434               		.type	step, @function
 1435               	step:
 1436               	.LFB27:
 1437               	.LM172:
 1438               	.LVL141:
 1439 0658 AF92      		push r10
 1440 065a BF92      		push r11
 1441 065c CF92      		push r12
 1442 065e DF92      		push r13
 1443 0660 EF92      		push r14
 1444 0662 FF92      		push r15
 1445 0664 0F93      		push r16
 1446 0666 1F93      		push r17
 1447 0668 CF93      		push r28
 1448 066a DF93      		push r29
 1449               	/* prologue: function */
 1450               	/* frame size = 0 */
 1451               	/* stack size = 10 */
 1452               	.L__stack_usage = 10
 1453 066c EC01      		movw r28,r24
 1454 066e 8B01      		movw r16,r22
 1455               	.LVL142:
 1456               	.LM173:
 1457 0670 6230      		cpi r22,2
 1458 0672 7105      		cpc r23,__zero_reg__
 1459 0674 04F0      		brlt .L150
 1460               	.LVL143:
 1461               	.LM174:
 1462 0676 81E0      		ldi r24,lo8(1)
 1463 0678 90E0      		ldi r25,hi8(1)
 1464               	.LVL144:
 1465 067a 8A83      		std Y+2,r24
 1466 067c 9B83      		std Y+3,r25
 1467 067e 00C0      		rjmp .L170
 1468               	.LVL145:
 1469               	.L150:
 1470               	.LM175:
 1471 0680 1095      		com r17
 1472 0682 0195      		neg r16
 1473 0684 1F4F      		sbci r17,lo8(-1)
 1474               	.LVL146:
 1475               	.LM176:
 1476 0686 1A82      		std Y+2,__zero_reg__
 1477 0688 1B82      		std Y+3,__zero_reg__
 1478 068a 00C0      		rjmp .L170
 1479               	.LVL147:
 1480               	.L153:
 1481               	.LBB66:
 1482               	.LBB67:
GAS LISTING /tmp/ccq5P7XK.s 			page 27


 1483               	.LM177:
 1484 068c 8091 0000 		lds r24,elapsedMillis
 1485 0690 9091 0000 		lds r25,elapsedMillis+1
 1486 0694 A091 0000 		lds r26,elapsedMillis+2
 1487 0698 B091 0000 		lds r27,elapsedMillis+3
 1488               	.LBE67:
 1489               	.LBE66:
 1490               	.LM178:
 1491 069c 821B      		sub r24,r18
 1492 069e 930B      		sbc r25,r19
 1493 06a0 A40B      		sbc r26,r20
 1494 06a2 B50B      		sbc r27,r21
 1495 06a4 8C15      		cp r24,r12
 1496 06a6 9D05      		cpc r25,r13
 1497 06a8 AE05      		cpc r26,r14
 1498 06aa BF05      		cpc r27,r15
 1499 06ac 00F0      		brlo .L153
 1500               	.LBB68:
 1501               	.LBB69:
 1502               	.LM179:
 1503 06ae 8091 0000 		lds r24,elapsedMillis
 1504 06b2 9091 0000 		lds r25,elapsedMillis+1
 1505 06b6 A091 0000 		lds r26,elapsedMillis+2
 1506 06ba B091 0000 		lds r27,elapsedMillis+3
 1507               	.LBE69:
 1508               	.LBE68:
 1509               	.LM180:
 1510 06be 88A3      		std Y+32,r24
 1511 06c0 99A3      		std Y+33,r25
 1512 06c2 AAA3      		std Y+34,r26
 1513 06c4 BBA3      		std Y+35,r27
 1514               	.LM181:
 1515 06c6 2A81      		ldd r18,Y+2
 1516 06c8 3B81      		ldd r19,Y+3
 1517 06ca 8E85      		ldd r24,Y+14
 1518 06cc 9F85      		ldd r25,Y+15
 1519 06ce 2130      		cpi r18,1
 1520 06d0 3105      		cpc r19,__zero_reg__
 1521 06d2 01F4      		brne .L154
 1522               	.LM182:
 1523 06d4 9C01      		movw r18,r24
 1524 06d6 2F5F      		subi r18,lo8(-(1))
 1525 06d8 3F4F      		sbci r19,hi8(-(1))
 1526 06da 2E87      		std Y+14,r18
 1527 06dc 3F87      		std Y+15,r19
 1528               	.LM183:
 1529 06de E881      		ld r30,Y
 1530 06e0 F981      		ldd r31,Y+1
 1531 06e2 EE0F      		lsl r30
 1532 06e4 FF1F      		rol r31
 1533 06e6 E050      		subi r30,lo8(-(pose-2))
 1534 06e8 F040      		sbci r31,hi8(-(pose-2))
 1535 06ea 8081      		ld r24,Z
 1536 06ec 9181      		ldd r25,Z+1
 1537 06ee 0196      		adiw r24,1
 1538 06f0 8083      		st Z,r24
 1539 06f2 9183      		std Z+1,r25
GAS LISTING /tmp/ccq5P7XK.s 			page 28


 1540               	.LM184:
 1541 06f4 8A85      		ldd r24,Y+10
 1542 06f6 9B85      		ldd r25,Y+11
 1543 06f8 2817      		cp r18,r24
 1544 06fa 3907      		cpc r19,r25
 1545 06fc 01F4      		brne .L155
 1546               	.LM185:
 1547 06fe 1E86      		std Y+14,__zero_reg__
 1548 0700 1F86      		std Y+15,__zero_reg__
 1549 0702 00C0      		rjmp .L155
 1550               	.L154:
 1551               	.LM186:
 1552 0704 0097      		sbiw r24,0
 1553 0706 01F4      		brne .L156
 1554               	.LM187:
 1555 0708 8A85      		ldd r24,Y+10
 1556 070a 9B85      		ldd r25,Y+11
 1557 070c 8E87      		std Y+14,r24
 1558 070e 9F87      		std Y+15,r25
 1559               	.L156:
 1560               	.LM188:
 1561 0710 8E85      		ldd r24,Y+14
 1562 0712 9F85      		ldd r25,Y+15
 1563 0714 0197      		sbiw r24,1
 1564 0716 8E87      		std Y+14,r24
 1565 0718 9F87      		std Y+15,r25
 1566               	.LM189:
 1567 071a E881      		ld r30,Y
 1568 071c F981      		ldd r31,Y+1
 1569 071e EE0F      		lsl r30
 1570 0720 FF1F      		rol r31
 1571 0722 E050      		subi r30,lo8(-(pose-2))
 1572 0724 F040      		sbci r31,hi8(-(pose-2))
 1573 0726 8081      		ld r24,Z
 1574 0728 9181      		ldd r25,Z+1
 1575 072a 0197      		sbiw r24,1
 1576 072c 8083      		st Z,r24
 1577 072e 9183      		std Z+1,r25
 1578               	.L155:
 1579               	.LM190:
 1580 0730 0150      		subi r16,lo8(-(-1))
 1581 0732 1040      		sbci r17,hi8(-(-1))
 1582               	.LVL148:
 1583               	.LM191:
 1584 0734 8DB7      		in r24,__SP_L__
 1585 0736 9EB7      		in r25,__SP_H__
 1586 0738 8697      		sbiw r24,38
 1587 073a 8DBF      		out __SP_L__,r24
 1588 073c 9EBF      		out __SP_H__,r25
 1589 073e CDB6      		in r12,__SP_L__
 1590 0740 DEB6      		in r13,__SP_H__
 1591 0742 0894      		sec
 1592 0744 C11C      		adc r12,__zero_reg__
 1593 0746 D11C      		adc r13,__zero_reg__
 1594 0748 C601      		movw r24,r12
 1595 074a DE01      		movw r26,r28
 1596 074c 24E2      		ldi r18,lo8(36)
GAS LISTING /tmp/ccq5P7XK.s 			page 29


 1597               	.L157:
 1598 074e 0D90      		ld r0,X+
 1599 0750 FC01      		movw r30,r24
 1600 0752 0192      		st Z+,r0
 1601 0754 CF01      		movw r24,r30
 1602 0756 2150      		subi r18,lo8(-(-1))
 1603 0758 01F4      		brne .L157
 1604 075a 8E85      		ldd r24,Y+14
 1605 075c 9F85      		ldd r25,Y+15
 1606 075e B501      		movw r22,r10
 1607 0760 0E94 0000 		call __divmodhi4
 1608 0764 F601      		movw r30,r12
 1609 0766 84A3      		std Z+36,r24
 1610 0768 95A3      		std Z+37,r25
 1611 076a 0E94 0000 		call stepMotor
 1612               	.LM192:
 1613 076e 8DB7      		in r24,__SP_L__
 1614 0770 9EB7      		in r25,__SP_H__
 1615 0772 8696      		adiw r24,38
 1616 0774 8DBF      		out __SP_L__,r24
 1617 0776 9EBF      		out __SP_H__,r25
 1618 0778 8881      		ld r24,Y
 1619 077a 9981      		ldd r25,Y+1
 1620 077c 8330      		cpi r24,3
 1621 077e 9105      		cpc r25,__zero_reg__
 1622 0780 01F0      		breq .+2
 1623 0782 00C0      		rjmp .L169
 1624               	.LM193:
 1625 0784 8A81      		ldd r24,Y+2
 1626 0786 9B81      		ldd r25,Y+3
 1627 0788 9095      		com r25
 1628 078a 8195      		neg r24
 1629 078c 9F4F      		sbci r25,lo8(-1)
 1630 078e 8093 0000 		sts Gripper+2,r24
 1631 0792 9093 0000 		sts Gripper+2+1,r25
 1632               	.LM194:
 1633 0796 8130      		cpi r24,1
 1634 0798 9105      		cpc r25,__zero_reg__
 1635 079a 01F4      		brne .L159
 1636               	.LM195:
 1637 079c 8091 0000 		lds r24,Gripper+14
 1638 07a0 9091 0000 		lds r25,Gripper+14+1
 1639 07a4 0196      		adiw r24,1
 1640 07a6 8093 0000 		sts Gripper+14,r24
 1641 07aa 9093 0000 		sts Gripper+14+1,r25
 1642               	.LM196:
 1643 07ae 2091 0000 		lds r18,Gripper+10
 1644 07b2 3091 0000 		lds r19,Gripper+10+1
 1645 07b6 8217      		cp r24,r18
 1646 07b8 9307      		cpc r25,r19
 1647 07ba 01F4      		brne .L160
 1648               	.LM197:
 1649 07bc 1092 0000 		sts Gripper+14,__zero_reg__
 1650 07c0 1092 0000 		sts Gripper+14+1,__zero_reg__
 1651 07c4 00C0      		rjmp .L160
 1652               	.L159:
 1653               	.LM198:
GAS LISTING /tmp/ccq5P7XK.s 			page 30


 1654 07c6 8091 0000 		lds r24,Gripper+14
 1655 07ca 9091 0000 		lds r25,Gripper+14+1
 1656 07ce 0097      		sbiw r24,0
 1657 07d0 01F4      		brne .L161
 1658               	.LM199:
 1659 07d2 8091 0000 		lds r24,Gripper+10
 1660 07d6 9091 0000 		lds r25,Gripper+10+1
 1661 07da 8093 0000 		sts Gripper+14,r24
 1662 07de 9093 0000 		sts Gripper+14+1,r25
 1663               	.L161:
 1664               	.LM200:
 1665 07e2 8091 0000 		lds r24,Gripper+14
 1666 07e6 9091 0000 		lds r25,Gripper+14+1
 1667 07ea 0197      		sbiw r24,1
 1668 07ec 8093 0000 		sts Gripper+14,r24
 1669 07f0 9093 0000 		sts Gripper+14+1,r25
 1670               	.L160:
 1671               	.LM201:
 1672 07f4 EDB7      		in r30,__SP_L__
 1673 07f6 FEB7      		in r31,__SP_H__
 1674 07f8 B697      		sbiw r30,38
 1675 07fa EDBF      		out __SP_L__,r30
 1676 07fc FEBF      		out __SP_H__,r31
 1677 07fe CDB6      		in r12,__SP_L__
 1678 0800 DEB6      		in r13,__SP_H__
 1679 0802 0894      		sec
 1680 0804 C11C      		adc r12,__zero_reg__
 1681 0806 D11C      		adc r13,__zero_reg__
 1682 0808 C601      		movw r24,r12
 1683 080a A0E0      		ldi r26,lo8(Gripper)
 1684 080c B0E0      		ldi r27,hi8(Gripper)
 1685 080e 24E2      		ldi r18,lo8(36)
 1686               	.L162:
 1687 0810 0D90      		ld r0,X+
 1688 0812 FC01      		movw r30,r24
 1689 0814 0192      		st Z+,r0
 1690 0816 CF01      		movw r24,r30
 1691 0818 2150      		subi r18,lo8(-(-1))
 1692 081a 01F4      		brne .L162
 1693 081c 8091 0000 		lds r24,Gripper+14
 1694 0820 9091 0000 		lds r25,Gripper+14+1
 1695 0824 B501      		movw r22,r10
 1696 0826 0E94 0000 		call __divmodhi4
 1697 082a F601      		movw r30,r12
 1698 082c 84A3      		std Z+36,r24
 1699 082e 95A3      		std Z+37,r25
 1700 0830 0E94 0000 		call stepMotor
 1701 0834 8DB7      		in r24,__SP_L__
 1702 0836 9EB7      		in r25,__SP_H__
 1703 0838 8696      		adiw r24,38
 1704 083a 8DBF      		out __SP_L__,r24
 1705 083c 9EBF      		out __SP_H__,r25
 1706 083e 00C0      		rjmp .L169
 1707               	.LVL149:
 1708               	.L170:
 1709               	.LM202:
 1710 0840 84E0      		ldi r24,lo8(4)
GAS LISTING /tmp/ccq5P7XK.s 			page 31


 1711 0842 A82E      		mov r10,r24
 1712 0844 B12C      		mov r11,__zero_reg__
 1713               	.LVL150:
 1714               	.L169:
 1715               	.LM203:
 1716 0846 1016      		cp __zero_reg__,r16
 1717 0848 1106      		cpc __zero_reg__,r17
 1718 084a 04F4      		brge .L149
 1719               	.LM204:
 1720 084c 28A1      		ldd r18,Y+32
 1721 084e 39A1      		ldd r19,Y+33
 1722 0850 4AA1      		ldd r20,Y+34
 1723 0852 5BA1      		ldd r21,Y+35
 1724 0854 CE80      		ldd r12,Y+6
 1725 0856 DF80      		ldd r13,Y+7
 1726 0858 E884      		ldd r14,Y+8
 1727 085a F984      		ldd r15,Y+9
 1728 085c 00C0      		rjmp .L153
 1729               	.L149:
 1730               	/* epilogue start */
 1731               	.LM205:
 1732 085e DF91      		pop r29
 1733 0860 CF91      		pop r28
 1734               	.LVL151:
 1735 0862 1F91      		pop r17
 1736 0864 0F91      		pop r16
 1737               	.LVL152:
 1738 0866 FF90      		pop r15
 1739 0868 EF90      		pop r14
 1740 086a DF90      		pop r13
 1741 086c CF90      		pop r12
 1742 086e BF90      		pop r11
 1743 0870 AF90      		pop r10
 1744 0872 0895      		ret
 1745               	.LFE27:
 1746               		.size	step, .-step
 1747               	.global	stepOne
 1748               		.type	stepOne, @function
 1749               	stepOne:
 1750               	.LFB28:
 1751               	.LM206:
 1752               	.LVL153:
 1753 0874 0F93      		push r16
 1754 0876 1F93      		push r17
 1755 0878 CF93      		push r28
 1756 087a DF93      		push r29
 1757               	/* prologue: function */
 1758               	/* frame size = 0 */
 1759               	/* stack size = 4 */
 1760               	.L__stack_usage = 4
 1761 087c EC01      		movw r28,r24
 1762               	.LM207:
 1763 087e 6A83      		std Y+2,r22
 1764 0880 7B83      		std Y+3,r23
 1765               	.LM208:
 1766 0882 6130      		cpi r22,1
 1767 0884 7105      		cpc r23,__zero_reg__
GAS LISTING /tmp/ccq5P7XK.s 			page 32


 1768 0886 01F4      		brne .L172
 1769               	.LM209:
 1770 0888 8E85      		ldd r24,Y+14
 1771 088a 9F85      		ldd r25,Y+15
 1772               	.LVL154:
 1773 088c 0196      		adiw r24,1
 1774 088e 8E87      		std Y+14,r24
 1775 0890 9F87      		std Y+15,r25
 1776               	.LM210:
 1777 0892 E881      		ld r30,Y
 1778 0894 F981      		ldd r31,Y+1
 1779 0896 EE0F      		lsl r30
 1780 0898 FF1F      		rol r31
 1781               	.LVL155:
 1782 089a E050      		subi r30,lo8(-(pose-2))
 1783 089c F040      		sbci r31,hi8(-(pose-2))
 1784 089e 2081      		ld r18,Z
 1785 08a0 3181      		ldd r19,Z+1
 1786 08a2 2F5F      		subi r18,lo8(-(1))
 1787 08a4 3F4F      		sbci r19,hi8(-(1))
 1788 08a6 2083      		st Z,r18
 1789 08a8 3183      		std Z+1,r19
 1790               	.LM211:
 1791 08aa 2A85      		ldd r18,Y+10
 1792 08ac 3B85      		ldd r19,Y+11
 1793 08ae 8217      		cp r24,r18
 1794 08b0 9307      		cpc r25,r19
 1795 08b2 01F4      		brne .L173
 1796               	.LM212:
 1797 08b4 1E86      		std Y+14,__zero_reg__
 1798 08b6 1F86      		std Y+15,__zero_reg__
 1799 08b8 00C0      		rjmp .L173
 1800               	.L172:
 1801               	.LM213:
 1802 08ba 6115      		cp r22,__zero_reg__
 1803 08bc 7105      		cpc r23,__zero_reg__
 1804 08be 01F0      		breq .L173
 1805               	.LM214:
 1806 08c0 8E85      		ldd r24,Y+14
 1807 08c2 9F85      		ldd r25,Y+15
 1808 08c4 0097      		sbiw r24,0
 1809 08c6 01F4      		brne .L174
 1810               	.LM215:
 1811 08c8 8A85      		ldd r24,Y+10
 1812 08ca 9B85      		ldd r25,Y+11
 1813 08cc 8E87      		std Y+14,r24
 1814 08ce 9F87      		std Y+15,r25
 1815               	.L174:
 1816               	.LM216:
 1817 08d0 8E85      		ldd r24,Y+14
 1818 08d2 9F85      		ldd r25,Y+15
 1819 08d4 0197      		sbiw r24,1
 1820 08d6 8E87      		std Y+14,r24
 1821 08d8 9F87      		std Y+15,r25
 1822               	.LM217:
 1823 08da E881      		ld r30,Y
 1824 08dc F981      		ldd r31,Y+1
GAS LISTING /tmp/ccq5P7XK.s 			page 33


 1825 08de EE0F      		lsl r30
 1826 08e0 FF1F      		rol r31
 1827 08e2 E050      		subi r30,lo8(-(pose-2))
 1828 08e4 F040      		sbci r31,hi8(-(pose-2))
 1829 08e6 8081      		ld r24,Z
 1830 08e8 9181      		ldd r25,Z+1
 1831 08ea 0197      		sbiw r24,1
 1832 08ec 8083      		st Z,r24
 1833 08ee 9183      		std Z+1,r25
 1834               	.L173:
 1835               	.LM218:
 1836 08f0 8DB7      		in r24,__SP_L__
 1837 08f2 9EB7      		in r25,__SP_H__
 1838 08f4 8697      		sbiw r24,38
 1839 08f6 8DBF      		out __SP_L__,r24
 1840 08f8 9EBF      		out __SP_H__,r25
 1841 08fa 0DB7      		in r16,__SP_L__
 1842 08fc 1EB7      		in r17,__SP_H__
 1843 08fe 0F5F      		subi r16,lo8(-(1))
 1844 0900 1F4F      		sbci r17,hi8(-(1))
 1845 0902 C801      		movw r24,r16
 1846 0904 DE01      		movw r26,r28
 1847 0906 24E2      		ldi r18,lo8(36)
 1848               	.L175:
 1849 0908 0D90      		ld r0,X+
 1850 090a FC01      		movw r30,r24
 1851 090c 0192      		st Z+,r0
 1852 090e CF01      		movw r24,r30
 1853 0910 2150      		subi r18,lo8(-(-1))
 1854 0912 01F4      		brne .L175
 1855 0914 8E85      		ldd r24,Y+14
 1856 0916 9F85      		ldd r25,Y+15
 1857 0918 64E0      		ldi r22,lo8(4)
 1858 091a 70E0      		ldi r23,hi8(4)
 1859 091c 0E94 0000 		call __divmodhi4
 1860 0920 F801      		movw r30,r16
 1861 0922 84A3      		std Z+36,r24
 1862 0924 95A3      		std Z+37,r25
 1863 0926 0E94 0000 		call stepMotor
 1864               	.LVL156:
 1865               	.LM219:
 1866 092a 8DB7      		in r24,__SP_L__
 1867 092c 9EB7      		in r25,__SP_H__
 1868 092e 8696      		adiw r24,38
 1869 0930 8DBF      		out __SP_L__,r24
 1870 0932 9EBF      		out __SP_H__,r25
 1871 0934 8881      		ld r24,Y
 1872 0936 9981      		ldd r25,Y+1
 1873 0938 8330      		cpi r24,3
 1874 093a 9105      		cpc r25,__zero_reg__
 1875 093c 01F0      		breq .+2
 1876 093e 00C0      		rjmp .L171
 1877               	.LM220:
 1878 0940 8A81      		ldd r24,Y+2
 1879 0942 9B81      		ldd r25,Y+3
 1880 0944 9095      		com r25
 1881 0946 8195      		neg r24
GAS LISTING /tmp/ccq5P7XK.s 			page 34


 1882 0948 9F4F      		sbci r25,lo8(-1)
 1883 094a 8093 0000 		sts Gripper+2,r24
 1884 094e 9093 0000 		sts Gripper+2+1,r25
 1885               	.LM221:
 1886 0952 8130      		cpi r24,1
 1887 0954 9105      		cpc r25,__zero_reg__
 1888 0956 01F4      		brne .L177
 1889               	.LM222:
 1890 0958 8091 0000 		lds r24,Gripper+14
 1891 095c 9091 0000 		lds r25,Gripper+14+1
 1892 0960 0196      		adiw r24,1
 1893 0962 8093 0000 		sts Gripper+14,r24
 1894 0966 9093 0000 		sts Gripper+14+1,r25
 1895               	.LM223:
 1896 096a 2091 0000 		lds r18,Gripper+10
 1897 096e 3091 0000 		lds r19,Gripper+10+1
 1898 0972 8217      		cp r24,r18
 1899 0974 9307      		cpc r25,r19
 1900 0976 01F4      		brne .L178
 1901               	.LM224:
 1902 0978 1092 0000 		sts Gripper+14,__zero_reg__
 1903 097c 1092 0000 		sts Gripper+14+1,__zero_reg__
 1904 0980 00C0      		rjmp .L178
 1905               	.L177:
 1906               	.LM225:
 1907 0982 8A81      		ldd r24,Y+2
 1908 0984 9B81      		ldd r25,Y+3
 1909 0986 0097      		sbiw r24,0
 1910 0988 01F0      		breq .L178
 1911               	.LM226:
 1912 098a 8091 0000 		lds r24,Gripper+14
 1913 098e 9091 0000 		lds r25,Gripper+14+1
 1914 0992 0097      		sbiw r24,0
 1915 0994 01F4      		brne .L179
 1916               	.LM227:
 1917 0996 8091 0000 		lds r24,Gripper+10
 1918 099a 9091 0000 		lds r25,Gripper+10+1
 1919 099e 8093 0000 		sts Gripper+14,r24
 1920 09a2 9093 0000 		sts Gripper+14+1,r25
 1921               	.L179:
 1922               	.LM228:
 1923 09a6 8091 0000 		lds r24,Gripper+14
 1924 09aa 9091 0000 		lds r25,Gripper+14+1
 1925 09ae 0197      		sbiw r24,1
 1926 09b0 8093 0000 		sts Gripper+14,r24
 1927 09b4 9093 0000 		sts Gripper+14+1,r25
 1928               	.L178:
 1929               	.LM229:
 1930 09b8 EDB7      		in r30,__SP_L__
 1931 09ba FEB7      		in r31,__SP_H__
 1932 09bc B697      		sbiw r30,38
 1933 09be EDBF      		out __SP_L__,r30
 1934 09c0 FEBF      		out __SP_H__,r31
 1935 09c2 3196      		adiw r30,1
 1936 09c4 EF01      		movw r28,r30
 1937               	.LVL157:
 1938 09c6 A0E0      		ldi r26,lo8(Gripper)
GAS LISTING /tmp/ccq5P7XK.s 			page 35


 1939 09c8 B0E0      		ldi r27,hi8(Gripper)
 1940 09ca 84E2      		ldi r24,lo8(36)
 1941               	.LVL158:
 1942               	.L180:
 1943 09cc 0D90      		ld r0,X+
 1944 09ce 0992      		st Y+,r0
 1945 09d0 8150      		subi r24,lo8(-(-1))
 1946 09d2 01F4      		brne .L180
 1947 09d4 8091 0000 		lds r24,Gripper+14
 1948 09d8 9091 0000 		lds r25,Gripper+14+1
 1949 09dc 64E0      		ldi r22,lo8(4)
 1950 09de 70E0      		ldi r23,hi8(4)
 1951 09e0 0E94 0000 		call __divmodhi4
 1952 09e4 84A3      		std Z+36,r24
 1953 09e6 95A3      		std Z+37,r25
 1954 09e8 0E94 0000 		call stepMotor
 1955 09ec 8DB7      		in r24,__SP_L__
 1956 09ee 9EB7      		in r25,__SP_H__
 1957 09f0 8696      		adiw r24,38
 1958 09f2 8DBF      		out __SP_L__,r24
 1959 09f4 9EBF      		out __SP_H__,r25
 1960               	.L171:
 1961               	/* epilogue start */
 1962               	.LM230:
 1963 09f6 DF91      		pop r29
 1964 09f8 CF91      		pop r28
 1965 09fa 1F91      		pop r17
 1966 09fc 0F91      		pop r16
 1967               	.LVL159:
 1968 09fe 0895      		ret
 1969               	.LFE28:
 1970               		.size	stepOne, .-stepOne
 1971               	.global	changeGoal
 1972               		.type	changeGoal, @function
 1973               	changeGoal:
 1974               	.LFB29:
 1975               	.LM231:
 1976               	.LVL160:
 1977 0a00 EF92      		push r14
 1978 0a02 FF92      		push r15
 1979 0a04 0F93      		push r16
 1980 0a06 1F93      		push r17
 1981               	/* prologue: function */
 1982               	/* frame size = 0 */
 1983               	/* stack size = 4 */
 1984               	.L__stack_usage = 4
 1985               	.LM232:
 1986 0a08 8093 0000 		sts goal,r24
 1987 0a0c 9093 0000 		sts goal+1,r25
 1988               	.LM233:
 1989 0a10 6093 0000 		sts goal+2,r22
 1990 0a14 7093 0000 		sts goal+2+1,r23
 1991               	.LM234:
 1992 0a18 4093 0000 		sts goal+4,r20
 1993 0a1c 5093 0000 		sts goal+4+1,r21
 1994               	.LM235:
 1995 0a20 2093 0000 		sts goal+6,r18
GAS LISTING /tmp/ccq5P7XK.s 			page 36


 1996 0a24 3093 0000 		sts goal+6+1,r19
 1997               	.LM236:
 1998 0a28 0093 0000 		sts goal+8,r16
 1999 0a2c 1093 0000 		sts goal+8+1,r17
 2000               	.LM237:
 2001 0a30 E092 0000 		sts goal+10,r14
 2002 0a34 F092 0000 		sts goal+10+1,r15
 2003               	/* epilogue start */
 2004               	.LM238:
 2005 0a38 1F91      		pop r17
 2006 0a3a 0F91      		pop r16
 2007               	.LVL161:
 2008 0a3c FF90      		pop r15
 2009 0a3e EF90      		pop r14
 2010               	.LVL162:
 2011 0a40 0895      		ret
 2012               	.LFE29:
 2013               		.size	changeGoal, .-changeGoal
 2014               	.global	moveToGoal
 2015               		.type	moveToGoal, @function
 2016               	moveToGoal:
 2017               	.LFB30:
 2018               	.LM239:
 2019 0a42 2F92      		push r2
 2020 0a44 3F92      		push r3
 2021 0a46 4F92      		push r4
 2022 0a48 5F92      		push r5
 2023 0a4a 6F92      		push r6
 2024 0a4c 7F92      		push r7
 2025 0a4e 8F92      		push r8
 2026 0a50 9F92      		push r9
 2027 0a52 AF92      		push r10
 2028 0a54 BF92      		push r11
 2029 0a56 CF92      		push r12
 2030 0a58 DF92      		push r13
 2031 0a5a EF92      		push r14
 2032 0a5c FF92      		push r15
 2033 0a5e 0F93      		push r16
 2034 0a60 1F93      		push r17
 2035 0a62 DF93      		push r29
 2036 0a64 CF93      		push r28
 2037 0a66 CDB7      		in r28,__SP_L__
 2038 0a68 DEB7      		in r29,__SP_H__
 2039 0a6a 6497      		sbiw r28,20
 2040 0a6c CDBF      		out __SP_L__,r28
 2041 0a6e DEBF      		out __SP_H__,r29
 2042               	/* prologue: function */
 2043               	/* frame size = 20 */
 2044               	/* stack size = 38 */
 2045               	.L__stack_usage = 38
 2046               	.LM240:
 2047 0a70 0091 0000 		lds r16,goal
 2048 0a74 1091 0000 		lds r17,goal+1
 2049 0a78 8091 0000 		lds r24,pose
 2050 0a7c 9091 0000 		lds r25,pose+1
 2051 0a80 081B      		sub r16,r24
 2052 0a82 190B      		sbc r17,r25
GAS LISTING /tmp/ccq5P7XK.s 			page 37


 2053               	.LM241:
 2054 0a84 E090 0000 		lds r14,goal+2
 2055 0a88 F090 0000 		lds r15,goal+2+1
 2056 0a8c 8091 0000 		lds r24,pose+2
 2057 0a90 9091 0000 		lds r25,pose+2+1
 2058 0a94 E81A      		sub r14,r24
 2059 0a96 F90A      		sbc r15,r25
 2060               	.LM242:
 2061 0a98 4090 0000 		lds r4,goal+4
 2062 0a9c 5090 0000 		lds r5,goal+4+1
 2063 0aa0 8091 0000 		lds r24,pose+4
 2064 0aa4 9091 0000 		lds r25,pose+4+1
 2065 0aa8 481A      		sub r4,r24
 2066 0aaa 590A      		sbc r5,r25
 2067               	.LM243:
 2068 0aac 2090 0000 		lds r2,goal+6
 2069 0ab0 3090 0000 		lds r3,goal+6+1
 2070 0ab4 8091 0000 		lds r24,pose+6
 2071 0ab8 9091 0000 		lds r25,pose+6+1
 2072 0abc 281A      		sub r2,r24
 2073 0abe 390A      		sbc r3,r25
 2074               	.LM244:
 2075 0ac0 2091 0000 		lds r18,goal+8
 2076 0ac4 3091 0000 		lds r19,goal+8+1
 2077 0ac8 8091 0000 		lds r24,pose+8
 2078 0acc 9091 0000 		lds r25,pose+8+1
 2079 0ad0 281B      		sub r18,r24
 2080 0ad2 390B      		sbc r19,r25
 2081 0ad4 298B      		std Y+17,r18
 2082 0ad6 3A8B      		std Y+18,r19
 2083               	.LM245:
 2084 0ad8 8091 0000 		lds r24,goal+10
 2085 0adc 9091 0000 		lds r25,goal+10+1
 2086 0ae0 8B8B      		std Y+19,r24
 2087 0ae2 9C8B      		std Y+20,r25
 2088 0ae4 8091 0000 		lds r24,pose+10
 2089 0ae8 9091 0000 		lds r25,pose+10+1
 2090 0aec AB89      		ldd r26,Y+19
 2091 0aee BC89      		ldd r27,Y+20
 2092 0af0 A81B      		sub r26,r24
 2093 0af2 B90B      		sbc r27,r25
 2094 0af4 AB8B      		std Y+19,r26
 2095 0af6 BC8B      		std Y+20,r27
 2096               	.LM246:
 2097 0af8 0983      		std Y+1,r16
 2098 0afa 1A83      		std Y+2,r17
 2099 0afc EB82      		std Y+3,r14
 2100 0afe FC82      		std Y+4,r15
 2101 0b00 4D82      		std Y+5,r4
 2102 0b02 5E82      		std Y+6,r5
 2103 0b04 2F82      		std Y+7,r2
 2104 0b06 3886      		std Y+8,r3
 2105 0b08 2987      		std Y+9,r18
 2106 0b0a 3A87      		std Y+10,r19
 2107 0b0c AB87      		std Y+11,r26
 2108 0b0e BC87      		std Y+12,r27
 2109               	.LVL163:
GAS LISTING /tmp/ccq5P7XK.s 			page 38


 2110 0b10 FE01      		movw r30,r28
 2111 0b12 3396      		adiw r30,3
 2112               	.LM247:
 2113 0b14 AE01      		movw r20,r28
 2114 0b16 435F      		subi r20,lo8(-(13))
 2115 0b18 5F4F      		sbci r21,hi8(-(13))
 2116               	.LM248:
 2117 0b1a B801      		movw r22,r16
 2118               	.LVL164:
 2119               	.L188:
 2120               	.LM249:
 2121 0b1c B081      		ld r27,Z
 2122 0b1e A181      		ldd r26,Z+1
 2123 0b20 3296      		adiw r30,2
 2124 0b22 9D01      		movw r18,r26
 2125 0b24 832F      		mov r24,r19
 2126 0b26 922F      		mov r25,r18
 2127 0b28 97FF      		sbrs r25,7
 2128 0b2a 00C0      		rjmp .L186
 2129 0b2c 9095      		com r25
 2130 0b2e 8195      		neg r24
 2131 0b30 9F4F      		sbci r25,lo8(-1)
 2132               	.L186:
 2133 0b32 9B01      		movw r18,r22
 2134 0b34 77FF      		sbrs r23,7
 2135 0b36 00C0      		rjmp .L187
 2136               	.LVL165:
 2137 0b38 2227      		clr r18
 2138 0b3a 3327      		clr r19
 2139 0b3c 261B      		sub r18,r22
 2140 0b3e 370B      		sbc r19,r23
 2141               	.LVL166:
 2142               	.L187:
 2143 0b40 2817      		cp r18,r24
 2144 0b42 3907      		cpc r19,r25
 2145 0b44 04F4      		brge .L185
 2146               	.LM250:
 2147 0b46 CD01      		movw r24,r26
 2148 0b48 692F      		mov r22,r25
 2149               	.LVL167:
 2150 0b4a 7A2F      		mov r23,r26
 2151               	.L185:
 2152               	.LVL168:
 2153               	.LM251:
 2154 0b4c E417      		cp r30,r20
 2155 0b4e F507      		cpc r31,r21
 2156 0b50 01F4      		brne .L188
 2157               	.LM252:
 2158 0b52 8827      		clr r24
 2159 0b54 77FD      		sbrc r23,7
 2160 0b56 8095      		com r24
 2161 0b58 982F      		mov r25,r24
 2162 0b5a 0E94 0000 		call __floatsisf
 2163               	.LVL169:
 2164 0b5e 6D87      		std Y+13,r22
 2165 0b60 7E87      		std Y+14,r23
 2166 0b62 8F87      		std Y+15,r24
GAS LISTING /tmp/ccq5P7XK.s 			page 39


 2167 0b64 988B      		std Y+16,r25
 2168               	.LVL170:
 2169               	.LBB70:
 2170               	.LBB71:
 2171               	.LM253:
 2172 0b66 2091 0000 		lds r18,Base+10
 2173 0b6a 3091 0000 		lds r19,Base+10+1
 2174 0b6e 4427      		clr r20
 2175 0b70 37FD      		sbrc r19,7
 2176 0b72 4095      		com r20
 2177 0b74 542F      		mov r21,r20
 2178 0b76 70E6      		ldi r23,lo8(60000)
 2179 0b78 672E      		mov r6,r23
 2180 0b7a 7AEE      		ldi r23,hi8(60000)
 2181 0b7c 772E      		mov r7,r23
 2182 0b7e 812C      		mov r8,__zero_reg__
 2183 0b80 912C      		mov r9,__zero_reg__
 2184 0b82 C401      		movw r24,r8
 2185 0b84 B301      		movw r22,r6
 2186 0b86 0E94 0000 		call __divmodsi4
 2187 0b8a 5901      		movw r10,r18
 2188 0b8c 6A01      		movw r12,r20
 2189               	.LBE71:
 2190               	.LBE70:
 2191               	.LM254:
 2192 0b8e B801      		movw r22,r16
 2193 0b90 8827      		clr r24
 2194 0b92 77FD      		sbrc r23,7
 2195 0b94 8095      		com r24
 2196 0b96 982F      		mov r25,r24
 2197 0b98 0E94 0000 		call __floatsisf
 2198 0b9c 2D85      		ldd r18,Y+13
 2199 0b9e 3E85      		ldd r19,Y+14
 2200 0ba0 4F85      		ldd r20,Y+15
 2201 0ba2 5889      		ldd r21,Y+16
 2202 0ba4 0E94 0000 		call __divsf3
 2203 0ba8 20E0      		ldi r18,lo8(0x420c0000)
 2204 0baa 30E0      		ldi r19,hi8(0x420c0000)
 2205 0bac 4CE0      		ldi r20,hlo8(0x420c0000)
 2206 0bae 52E4      		ldi r21,hhi8(0x420c0000)
 2207 0bb0 0E94 0000 		call __mulsf3
 2208 0bb4 0E94 0000 		call __fixsfsi
 2209 0bb8 9B01      		movw r18,r22
 2210 0bba 4427      		clr r20
 2211 0bbc 37FD      		sbrc r19,7
 2212 0bbe 4095      		com r20
 2213 0bc0 542F      		mov r21,r20
 2214               	.LBB73:
 2215               	.LBB72:
 2216               	.LM255:
 2217 0bc2 C601      		movw r24,r12
 2218 0bc4 B501      		movw r22,r10
 2219 0bc6 0E94 0000 		call __divmodsi4
 2220 0bca 2093 0000 		sts Base+6,r18
 2221 0bce 3093 0000 		sts Base+6+1,r19
 2222 0bd2 4093 0000 		sts Base+6+2,r20
 2223 0bd6 5093 0000 		sts Base+6+3,r21
GAS LISTING /tmp/ccq5P7XK.s 			page 40


 2224               	.LVL171:
 2225               	.LBE72:
 2226               	.LBE73:
 2227               	.LBB74:
 2228               	.LBB75:
 2229 0bda 2091 0000 		lds r18,Shoulder+10
 2230 0bde 3091 0000 		lds r19,Shoulder+10+1
 2231 0be2 4427      		clr r20
 2232 0be4 37FD      		sbrc r19,7
 2233 0be6 4095      		com r20
 2234 0be8 542F      		mov r21,r20
 2235 0bea C401      		movw r24,r8
 2236 0bec B301      		movw r22,r6
 2237 0bee 0E94 0000 		call __divmodsi4
 2238 0bf2 5901      		movw r10,r18
 2239 0bf4 6A01      		movw r12,r20
 2240               	.LBE75:
 2241               	.LBE74:
 2242               	.LM256:
 2243 0bf6 B701      		movw r22,r14
 2244 0bf8 8827      		clr r24
 2245 0bfa 77FD      		sbrc r23,7
 2246 0bfc 8095      		com r24
 2247 0bfe 982F      		mov r25,r24
 2248 0c00 0E94 0000 		call __floatsisf
 2249 0c04 2D85      		ldd r18,Y+13
 2250 0c06 3E85      		ldd r19,Y+14
 2251 0c08 4F85      		ldd r20,Y+15
 2252 0c0a 5889      		ldd r21,Y+16
 2253 0c0c 0E94 0000 		call __divsf3
 2254 0c10 20E0      		ldi r18,lo8(0x420c0000)
 2255 0c12 30E0      		ldi r19,hi8(0x420c0000)
 2256 0c14 4CE0      		ldi r20,hlo8(0x420c0000)
 2257 0c16 52E4      		ldi r21,hhi8(0x420c0000)
 2258 0c18 0E94 0000 		call __mulsf3
 2259 0c1c 0E94 0000 		call __fixsfsi
 2260 0c20 9B01      		movw r18,r22
 2261 0c22 4427      		clr r20
 2262 0c24 37FD      		sbrc r19,7
 2263 0c26 4095      		com r20
 2264 0c28 542F      		mov r21,r20
 2265               	.LBB77:
 2266               	.LBB76:
 2267               	.LM257:
 2268 0c2a C601      		movw r24,r12
 2269 0c2c B501      		movw r22,r10
 2270 0c2e 0E94 0000 		call __divmodsi4
 2271 0c32 2093 0000 		sts Shoulder+6,r18
 2272 0c36 3093 0000 		sts Shoulder+6+1,r19
 2273 0c3a 4093 0000 		sts Shoulder+6+2,r20
 2274 0c3e 5093 0000 		sts Shoulder+6+3,r21
 2275               	.LVL172:
 2276               	.LBE76:
 2277               	.LBE77:
 2278               	.LBB78:
 2279               	.LBB79:
 2280 0c42 2091 0000 		lds r18,Elbow+10
GAS LISTING /tmp/ccq5P7XK.s 			page 41


 2281 0c46 3091 0000 		lds r19,Elbow+10+1
 2282 0c4a 4427      		clr r20
 2283 0c4c 37FD      		sbrc r19,7
 2284 0c4e 4095      		com r20
 2285 0c50 542F      		mov r21,r20
 2286 0c52 C401      		movw r24,r8
 2287 0c54 B301      		movw r22,r6
 2288 0c56 0E94 0000 		call __divmodsi4
 2289 0c5a 7901      		movw r14,r18
 2290 0c5c 8A01      		movw r16,r20
 2291               	.LBE79:
 2292               	.LBE78:
 2293               	.LM258:
 2294 0c5e B201      		movw r22,r4
 2295 0c60 8827      		clr r24
 2296 0c62 77FD      		sbrc r23,7
 2297 0c64 8095      		com r24
 2298 0c66 982F      		mov r25,r24
 2299 0c68 0E94 0000 		call __floatsisf
 2300 0c6c 2D85      		ldd r18,Y+13
 2301 0c6e 3E85      		ldd r19,Y+14
 2302 0c70 4F85      		ldd r20,Y+15
 2303 0c72 5889      		ldd r21,Y+16
 2304 0c74 0E94 0000 		call __divsf3
 2305 0c78 20E0      		ldi r18,lo8(0x420c0000)
 2306 0c7a 30E0      		ldi r19,hi8(0x420c0000)
 2307 0c7c 4CE0      		ldi r20,hlo8(0x420c0000)
 2308 0c7e 52E4      		ldi r21,hhi8(0x420c0000)
 2309 0c80 0E94 0000 		call __mulsf3
 2310 0c84 0E94 0000 		call __fixsfsi
 2311 0c88 9B01      		movw r18,r22
 2312 0c8a 4427      		clr r20
 2313 0c8c 37FD      		sbrc r19,7
 2314 0c8e 4095      		com r20
 2315 0c90 542F      		mov r21,r20
 2316               	.LBB81:
 2317               	.LBB80:
 2318               	.LM259:
 2319 0c92 C801      		movw r24,r16
 2320 0c94 B701      		movw r22,r14
 2321 0c96 0E94 0000 		call __divmodsi4
 2322 0c9a 2093 0000 		sts Elbow+6,r18
 2323 0c9e 3093 0000 		sts Elbow+6+1,r19
 2324 0ca2 4093 0000 		sts Elbow+6+2,r20
 2325 0ca6 5093 0000 		sts Elbow+6+3,r21
 2326               	.LVL173:
 2327               	.LBE80:
 2328               	.LBE81:
 2329               	.LBB82:
 2330               	.LBB83:
 2331 0caa 2091 0000 		lds r18,Right_Wrist+10
 2332 0cae 3091 0000 		lds r19,Right_Wrist+10+1
 2333 0cb2 4427      		clr r20
 2334 0cb4 37FD      		sbrc r19,7
 2335 0cb6 4095      		com r20
 2336 0cb8 542F      		mov r21,r20
 2337 0cba C401      		movw r24,r8
GAS LISTING /tmp/ccq5P7XK.s 			page 42


 2338 0cbc B301      		movw r22,r6
 2339 0cbe 0E94 0000 		call __divmodsi4
 2340 0cc2 7901      		movw r14,r18
 2341 0cc4 8A01      		movw r16,r20
 2342               	.LBE83:
 2343               	.LBE82:
 2344               	.LM260:
 2345 0cc6 B101      		movw r22,r2
 2346 0cc8 8827      		clr r24
 2347 0cca 77FD      		sbrc r23,7
 2348 0ccc 8095      		com r24
 2349 0cce 982F      		mov r25,r24
 2350 0cd0 0E94 0000 		call __floatsisf
 2351 0cd4 2D85      		ldd r18,Y+13
 2352 0cd6 3E85      		ldd r19,Y+14
 2353 0cd8 4F85      		ldd r20,Y+15
 2354 0cda 5889      		ldd r21,Y+16
 2355 0cdc 0E94 0000 		call __divsf3
 2356 0ce0 20E0      		ldi r18,lo8(0x420c0000)
 2357 0ce2 30E0      		ldi r19,hi8(0x420c0000)
 2358 0ce4 4CE0      		ldi r20,hlo8(0x420c0000)
 2359 0ce6 52E4      		ldi r21,hhi8(0x420c0000)
 2360 0ce8 0E94 0000 		call __mulsf3
 2361 0cec 0E94 0000 		call __fixsfsi
 2362 0cf0 9B01      		movw r18,r22
 2363 0cf2 4427      		clr r20
 2364 0cf4 37FD      		sbrc r19,7
 2365 0cf6 4095      		com r20
 2366 0cf8 542F      		mov r21,r20
 2367               	.LBB85:
 2368               	.LBB84:
 2369               	.LM261:
 2370 0cfa C801      		movw r24,r16
 2371 0cfc B701      		movw r22,r14
 2372 0cfe 0E94 0000 		call __divmodsi4
 2373 0d02 2093 0000 		sts Right_Wrist+6,r18
 2374 0d06 3093 0000 		sts Right_Wrist+6+1,r19
 2375 0d0a 4093 0000 		sts Right_Wrist+6+2,r20
 2376 0d0e 5093 0000 		sts Right_Wrist+6+3,r21
 2377               	.LVL174:
 2378               	.LBE84:
 2379               	.LBE85:
 2380               	.LBB86:
 2381               	.LBB87:
 2382 0d12 2091 0000 		lds r18,Left_Wrist+10
 2383 0d16 3091 0000 		lds r19,Left_Wrist+10+1
 2384 0d1a 4427      		clr r20
 2385 0d1c 37FD      		sbrc r19,7
 2386 0d1e 4095      		com r20
 2387 0d20 542F      		mov r21,r20
 2388 0d22 C401      		movw r24,r8
 2389 0d24 B301      		movw r22,r6
 2390 0d26 0E94 0000 		call __divmodsi4
 2391 0d2a 7901      		movw r14,r18
 2392 0d2c 8A01      		movw r16,r20
 2393               	.LBE87:
 2394               	.LBE86:
GAS LISTING /tmp/ccq5P7XK.s 			page 43


 2395               	.LM262:
 2396 0d2e 2989      		ldd r18,Y+17
 2397 0d30 3A89      		ldd r19,Y+18
 2398 0d32 B901      		movw r22,r18
 2399 0d34 8827      		clr r24
 2400 0d36 77FD      		sbrc r23,7
 2401 0d38 8095      		com r24
 2402 0d3a 982F      		mov r25,r24
 2403 0d3c 0E94 0000 		call __floatsisf
 2404 0d40 2D85      		ldd r18,Y+13
 2405 0d42 3E85      		ldd r19,Y+14
 2406 0d44 4F85      		ldd r20,Y+15
 2407 0d46 5889      		ldd r21,Y+16
 2408 0d48 0E94 0000 		call __divsf3
 2409 0d4c 20E0      		ldi r18,lo8(0x420c0000)
 2410 0d4e 30E0      		ldi r19,hi8(0x420c0000)
 2411 0d50 4CE0      		ldi r20,hlo8(0x420c0000)
 2412 0d52 52E4      		ldi r21,hhi8(0x420c0000)
 2413 0d54 0E94 0000 		call __mulsf3
 2414 0d58 0E94 0000 		call __fixsfsi
 2415 0d5c 9B01      		movw r18,r22
 2416 0d5e 4427      		clr r20
 2417 0d60 37FD      		sbrc r19,7
 2418 0d62 4095      		com r20
 2419 0d64 542F      		mov r21,r20
 2420               	.LBB89:
 2421               	.LBB88:
 2422               	.LM263:
 2423 0d66 C801      		movw r24,r16
 2424 0d68 B701      		movw r22,r14
 2425 0d6a 0E94 0000 		call __divmodsi4
 2426 0d6e 2093 0000 		sts Left_Wrist+6,r18
 2427 0d72 3093 0000 		sts Left_Wrist+6+1,r19
 2428 0d76 4093 0000 		sts Left_Wrist+6+2,r20
 2429 0d7a 5093 0000 		sts Left_Wrist+6+3,r21
 2430               	.LVL175:
 2431               	.LBE88:
 2432               	.LBE89:
 2433               	.LBB90:
 2434               	.LBB91:
 2435 0d7e 2091 0000 		lds r18,Gripper+10
 2436 0d82 3091 0000 		lds r19,Gripper+10+1
 2437 0d86 4427      		clr r20
 2438 0d88 37FD      		sbrc r19,7
 2439 0d8a 4095      		com r20
 2440 0d8c 542F      		mov r21,r20
 2441 0d8e C401      		movw r24,r8
 2442 0d90 B301      		movw r22,r6
 2443 0d92 0E94 0000 		call __divmodsi4
 2444 0d96 7901      		movw r14,r18
 2445 0d98 8A01      		movw r16,r20
 2446               	.LBE91:
 2447               	.LBE90:
 2448               	.LM264:
 2449 0d9a AB89      		ldd r26,Y+19
 2450 0d9c BC89      		ldd r27,Y+20
 2451 0d9e BD01      		movw r22,r26
GAS LISTING /tmp/ccq5P7XK.s 			page 44


 2452 0da0 8827      		clr r24
 2453 0da2 77FD      		sbrc r23,7
 2454 0da4 8095      		com r24
 2455 0da6 982F      		mov r25,r24
 2456 0da8 0E94 0000 		call __floatsisf
 2457 0dac 2D85      		ldd r18,Y+13
 2458 0dae 3E85      		ldd r19,Y+14
 2459 0db0 4F85      		ldd r20,Y+15
 2460 0db2 5889      		ldd r21,Y+16
 2461 0db4 0E94 0000 		call __divsf3
 2462 0db8 20E0      		ldi r18,lo8(0x420c0000)
 2463 0dba 30E0      		ldi r19,hi8(0x420c0000)
 2464 0dbc 4CE0      		ldi r20,hlo8(0x420c0000)
 2465 0dbe 52E4      		ldi r21,hhi8(0x420c0000)
 2466 0dc0 0E94 0000 		call __mulsf3
 2467 0dc4 0E94 0000 		call __fixsfsi
 2468 0dc8 9B01      		movw r18,r22
 2469 0dca 4427      		clr r20
 2470 0dcc 37FD      		sbrc r19,7
 2471 0dce 4095      		com r20
 2472 0dd0 542F      		mov r21,r20
 2473               	.LBB93:
 2474               	.LBB92:
 2475               	.LM265:
 2476 0dd2 C801      		movw r24,r16
 2477 0dd4 B701      		movw r22,r14
 2478 0dd6 0E94 0000 		call __divmodsi4
 2479 0dda 2093 0000 		sts Gripper+6,r18
 2480 0dde 3093 0000 		sts Gripper+6+1,r19
 2481 0de2 4093 0000 		sts Gripper+6+2,r20
 2482 0de6 5093 0000 		sts Gripper+6+3,r21
 2483               	.LBE92:
 2484               	.LBE93:
 2485               	.LM266:
 2486 0dea 8E01      		movw r16,r28
 2487 0dec 0F5F      		subi r16,lo8(-(1))
 2488 0dee 1F4F      		sbci r17,hi8(-(1))
 2489 0df0 00C0      		rjmp .L221
 2490               	.L190:
 2491               	.LM267:
 2492 0df2 8191      		ld r24,Z+
 2493 0df4 9191      		ld r25,Z+
 2494 0df6 D901      		movw r26,r18
 2495 0df8 4D91      		ld r20,X+
 2496 0dfa 5D91      		ld r21,X+
 2497 0dfc 9D01      		movw r18,r26
 2498 0dfe 841B      		sub r24,r20
 2499 0e00 950B      		sbc r25,r21
 2500 0e02 DB01      		movw r26,r22
 2501 0e04 8D93      		st X+,r24
 2502 0e06 9D93      		st X+,r25
 2503 0e08 BD01      		movw r22,r26
 2504               	.LM268:
 2505 0e0a B0E0      		ldi r27,hi8(goal+12)
 2506 0e0c E030      		cpi r30,lo8(goal+12)
 2507 0e0e FB07      		cpc r31,r27
 2508 0e10 01F4      		brne .L190
GAS LISTING /tmp/ccq5P7XK.s 			page 45


 2509               	.LBB94:
 2510               	.LBB95:
 2511               	.LM269:
 2512 0e12 8091 0000 		lds r24,elapsedMillis
 2513 0e16 9091 0000 		lds r25,elapsedMillis+1
 2514 0e1a A091 0000 		lds r26,elapsedMillis+2
 2515 0e1e B091 0000 		lds r27,elapsedMillis+3
 2516               	.LBE95:
 2517               	.LBE94:
 2518               	.LM270:
 2519 0e22 2091 0000 		lds r18,Base+32
 2520 0e26 3091 0000 		lds r19,Base+32+1
 2521 0e2a 4091 0000 		lds r20,Base+32+2
 2522 0e2e 5091 0000 		lds r21,Base+32+3
 2523 0e32 821B      		sub r24,r18
 2524 0e34 930B      		sbc r25,r19
 2525 0e36 A40B      		sbc r26,r20
 2526 0e38 B50B      		sbc r27,r21
 2527 0e3a 2091 0000 		lds r18,Base+6
 2528 0e3e 3091 0000 		lds r19,Base+6+1
 2529 0e42 4091 0000 		lds r20,Base+6+2
 2530 0e46 5091 0000 		lds r21,Base+6+3
 2531 0e4a 8217      		cp r24,r18
 2532 0e4c 9307      		cpc r25,r19
 2533 0e4e A407      		cpc r26,r20
 2534 0e50 B507      		cpc r27,r21
 2535 0e52 00F0      		brlo .L191
 2536               	.LBB96:
 2537               	.LBB97:
 2538               	.LM271:
 2539 0e54 8091 0000 		lds r24,elapsedMillis
 2540 0e58 9091 0000 		lds r25,elapsedMillis+1
 2541 0e5c A091 0000 		lds r26,elapsedMillis+2
 2542 0e60 B091 0000 		lds r27,elapsedMillis+3
 2543               	.LBE97:
 2544               	.LBE96:
 2545               	.LM272:
 2546 0e64 8093 0000 		sts Base+32,r24
 2547 0e68 9093 0000 		sts Base+32+1,r25
 2548 0e6c A093 0000 		sts Base+32+2,r26
 2549 0e70 B093 0000 		sts Base+32+3,r27
 2550               	.LM273:
 2551 0e74 8981      		ldd r24,Y+1
 2552 0e76 9A81      		ldd r25,Y+2
 2553               	.LVL176:
 2554               	.LBB98:
 2555               	.LBB99:
 2556               	.LM274:
 2557 0e78 97FD      		sbrc r25,7
 2558 0e7a 00C0      		rjmp .L211
 2559 0e7c 61E0      		ldi r22,lo8(1)
 2560 0e7e 70E0      		ldi r23,hi8(1)
 2561 0e80 1816      		cp __zero_reg__,r24
 2562 0e82 1906      		cpc __zero_reg__,r25
 2563 0e84 04F0      		brlt .L192
 2564 0e86 60E0      		ldi r22,lo8(0)
 2565 0e88 70E0      		ldi r23,hi8(0)
GAS LISTING /tmp/ccq5P7XK.s 			page 46


 2566 0e8a 00C0      		rjmp .L192
 2567               	.L211:
 2568 0e8c 6FEF      		ldi r22,lo8(-1)
 2569 0e8e 7FEF      		ldi r23,hi8(-1)
 2570               	.L192:
 2571               	.LBE99:
 2572               	.LBE98:
 2573               	.LM275:
 2574 0e90 80E0      		ldi r24,lo8(Base)
 2575 0e92 90E0      		ldi r25,hi8(Base)
 2576 0e94 0E94 0000 		call stepOne
 2577               	.LVL177:
 2578               	.L191:
 2579               	.LBB100:
 2580               	.LBB101:
 2581               	.LM276:
 2582 0e98 8091 0000 		lds r24,elapsedMillis
 2583 0e9c 9091 0000 		lds r25,elapsedMillis+1
 2584 0ea0 A091 0000 		lds r26,elapsedMillis+2
 2585 0ea4 B091 0000 		lds r27,elapsedMillis+3
 2586               	.LBE101:
 2587               	.LBE100:
 2588               	.LM277:
 2589 0ea8 2091 0000 		lds r18,Shoulder+32
 2590 0eac 3091 0000 		lds r19,Shoulder+32+1
 2591 0eb0 4091 0000 		lds r20,Shoulder+32+2
 2592 0eb4 5091 0000 		lds r21,Shoulder+32+3
 2593 0eb8 821B      		sub r24,r18
 2594 0eba 930B      		sbc r25,r19
 2595 0ebc A40B      		sbc r26,r20
 2596 0ebe B50B      		sbc r27,r21
 2597 0ec0 2091 0000 		lds r18,Shoulder+6
 2598 0ec4 3091 0000 		lds r19,Shoulder+6+1
 2599 0ec8 4091 0000 		lds r20,Shoulder+6+2
 2600 0ecc 5091 0000 		lds r21,Shoulder+6+3
 2601 0ed0 8217      		cp r24,r18
 2602 0ed2 9307      		cpc r25,r19
 2603 0ed4 A407      		cpc r26,r20
 2604 0ed6 B507      		cpc r27,r21
 2605 0ed8 00F0      		brlo .L194
 2606               	.LBB102:
 2607               	.LBB103:
 2608               	.LM278:
 2609 0eda 8091 0000 		lds r24,elapsedMillis
 2610 0ede 9091 0000 		lds r25,elapsedMillis+1
 2611 0ee2 A091 0000 		lds r26,elapsedMillis+2
 2612 0ee6 B091 0000 		lds r27,elapsedMillis+3
 2613               	.LBE103:
 2614               	.LBE102:
 2615               	.LM279:
 2616 0eea 8093 0000 		sts Shoulder+32,r24
 2617 0eee 9093 0000 		sts Shoulder+32+1,r25
 2618 0ef2 A093 0000 		sts Shoulder+32+2,r26
 2619 0ef6 B093 0000 		sts Shoulder+32+3,r27
 2620               	.LM280:
 2621 0efa 8B81      		ldd r24,Y+3
 2622 0efc 9C81      		ldd r25,Y+4
GAS LISTING /tmp/ccq5P7XK.s 			page 47


 2623               	.LVL178:
 2624               	.LBB104:
 2625               	.LBB105:
 2626               	.LM281:
 2627 0efe 97FD      		sbrc r25,7
 2628 0f00 00C0      		rjmp .L212
 2629 0f02 61E0      		ldi r22,lo8(1)
 2630 0f04 70E0      		ldi r23,hi8(1)
 2631 0f06 1816      		cp __zero_reg__,r24
 2632 0f08 1906      		cpc __zero_reg__,r25
 2633 0f0a 04F0      		brlt .L195
 2634 0f0c 60E0      		ldi r22,lo8(0)
 2635 0f0e 70E0      		ldi r23,hi8(0)
 2636 0f10 00C0      		rjmp .L195
 2637               	.L212:
 2638 0f12 6FEF      		ldi r22,lo8(-1)
 2639 0f14 7FEF      		ldi r23,hi8(-1)
 2640               	.L195:
 2641               	.LBE105:
 2642               	.LBE104:
 2643               	.LM282:
 2644 0f16 80E0      		ldi r24,lo8(Shoulder)
 2645 0f18 90E0      		ldi r25,hi8(Shoulder)
 2646 0f1a 0E94 0000 		call stepOne
 2647               	.LVL179:
 2648               	.L194:
 2649               	.LBB106:
 2650               	.LBB107:
 2651               	.LM283:
 2652 0f1e 8091 0000 		lds r24,elapsedMillis
 2653 0f22 9091 0000 		lds r25,elapsedMillis+1
 2654 0f26 A091 0000 		lds r26,elapsedMillis+2
 2655 0f2a B091 0000 		lds r27,elapsedMillis+3
 2656               	.LBE107:
 2657               	.LBE106:
 2658               	.LM284:
 2659 0f2e 2091 0000 		lds r18,Elbow+32
 2660 0f32 3091 0000 		lds r19,Elbow+32+1
 2661 0f36 4091 0000 		lds r20,Elbow+32+2
 2662 0f3a 5091 0000 		lds r21,Elbow+32+3
 2663 0f3e 821B      		sub r24,r18
 2664 0f40 930B      		sbc r25,r19
 2665 0f42 A40B      		sbc r26,r20
 2666 0f44 B50B      		sbc r27,r21
 2667 0f46 2091 0000 		lds r18,Elbow+6
 2668 0f4a 3091 0000 		lds r19,Elbow+6+1
 2669 0f4e 4091 0000 		lds r20,Elbow+6+2
 2670 0f52 5091 0000 		lds r21,Elbow+6+3
 2671 0f56 8217      		cp r24,r18
 2672 0f58 9307      		cpc r25,r19
 2673 0f5a A407      		cpc r26,r20
 2674 0f5c B507      		cpc r27,r21
 2675 0f5e 00F0      		brlo .L197
 2676               	.LBB108:
 2677               	.LBB109:
 2678               	.LM285:
 2679 0f60 8091 0000 		lds r24,elapsedMillis
GAS LISTING /tmp/ccq5P7XK.s 			page 48


 2680 0f64 9091 0000 		lds r25,elapsedMillis+1
 2681 0f68 A091 0000 		lds r26,elapsedMillis+2
 2682 0f6c B091 0000 		lds r27,elapsedMillis+3
 2683               	.LBE109:
 2684               	.LBE108:
 2685               	.LM286:
 2686 0f70 8093 0000 		sts Elbow+32,r24
 2687 0f74 9093 0000 		sts Elbow+32+1,r25
 2688 0f78 A093 0000 		sts Elbow+32+2,r26
 2689 0f7c B093 0000 		sts Elbow+32+3,r27
 2690               	.LM287:
 2691 0f80 8D81      		ldd r24,Y+5
 2692 0f82 9E81      		ldd r25,Y+6
 2693               	.LVL180:
 2694               	.LBB110:
 2695               	.LBB111:
 2696               	.LM288:
 2697 0f84 97FD      		sbrc r25,7
 2698 0f86 00C0      		rjmp .L213
 2699 0f88 61E0      		ldi r22,lo8(1)
 2700 0f8a 70E0      		ldi r23,hi8(1)
 2701 0f8c 1816      		cp __zero_reg__,r24
 2702 0f8e 1906      		cpc __zero_reg__,r25
 2703 0f90 04F0      		brlt .L198
 2704 0f92 60E0      		ldi r22,lo8(0)
 2705 0f94 70E0      		ldi r23,hi8(0)
 2706 0f96 00C0      		rjmp .L198
 2707               	.L213:
 2708 0f98 6FEF      		ldi r22,lo8(-1)
 2709 0f9a 7FEF      		ldi r23,hi8(-1)
 2710               	.L198:
 2711               	.LBE111:
 2712               	.LBE110:
 2713               	.LM289:
 2714 0f9c 80E0      		ldi r24,lo8(Elbow)
 2715 0f9e 90E0      		ldi r25,hi8(Elbow)
 2716 0fa0 0E94 0000 		call stepOne
 2717               	.LVL181:
 2718               	.L197:
 2719               	.LBB112:
 2720               	.LBB113:
 2721               	.LM290:
 2722 0fa4 8091 0000 		lds r24,elapsedMillis
 2723 0fa8 9091 0000 		lds r25,elapsedMillis+1
 2724 0fac A091 0000 		lds r26,elapsedMillis+2
 2725 0fb0 B091 0000 		lds r27,elapsedMillis+3
 2726               	.LBE113:
 2727               	.LBE112:
 2728               	.LM291:
 2729 0fb4 2091 0000 		lds r18,Right_Wrist+32
 2730 0fb8 3091 0000 		lds r19,Right_Wrist+32+1
 2731 0fbc 4091 0000 		lds r20,Right_Wrist+32+2
 2732 0fc0 5091 0000 		lds r21,Right_Wrist+32+3
 2733 0fc4 821B      		sub r24,r18
 2734 0fc6 930B      		sbc r25,r19
 2735 0fc8 A40B      		sbc r26,r20
 2736 0fca B50B      		sbc r27,r21
GAS LISTING /tmp/ccq5P7XK.s 			page 49


 2737 0fcc 2091 0000 		lds r18,Right_Wrist+6
 2738 0fd0 3091 0000 		lds r19,Right_Wrist+6+1
 2739 0fd4 4091 0000 		lds r20,Right_Wrist+6+2
 2740 0fd8 5091 0000 		lds r21,Right_Wrist+6+3
 2741 0fdc 8217      		cp r24,r18
 2742 0fde 9307      		cpc r25,r19
 2743 0fe0 A407      		cpc r26,r20
 2744 0fe2 B507      		cpc r27,r21
 2745 0fe4 00F0      		brlo .L200
 2746               	.LBB114:
 2747               	.LBB115:
 2748               	.LM292:
 2749 0fe6 8091 0000 		lds r24,elapsedMillis
 2750 0fea 9091 0000 		lds r25,elapsedMillis+1
 2751 0fee A091 0000 		lds r26,elapsedMillis+2
 2752 0ff2 B091 0000 		lds r27,elapsedMillis+3
 2753               	.LBE115:
 2754               	.LBE114:
 2755               	.LM293:
 2756 0ff6 8093 0000 		sts Right_Wrist+32,r24
 2757 0ffa 9093 0000 		sts Right_Wrist+32+1,r25
 2758 0ffe A093 0000 		sts Right_Wrist+32+2,r26
 2759 1002 B093 0000 		sts Right_Wrist+32+3,r27
 2760               	.LM294:
 2761 1006 8F81      		ldd r24,Y+7
 2762 1008 9885      		ldd r25,Y+8
 2763               	.LVL182:
 2764               	.LBB116:
 2765               	.LBB117:
 2766               	.LM295:
 2767 100a 97FD      		sbrc r25,7
 2768 100c 00C0      		rjmp .L214
 2769 100e 61E0      		ldi r22,lo8(1)
 2770 1010 70E0      		ldi r23,hi8(1)
 2771 1012 1816      		cp __zero_reg__,r24
 2772 1014 1906      		cpc __zero_reg__,r25
 2773 1016 04F0      		brlt .L201
 2774 1018 60E0      		ldi r22,lo8(0)
 2775 101a 70E0      		ldi r23,hi8(0)
 2776 101c 00C0      		rjmp .L201
 2777               	.L214:
 2778 101e 6FEF      		ldi r22,lo8(-1)
 2779 1020 7FEF      		ldi r23,hi8(-1)
 2780               	.L201:
 2781               	.LBE117:
 2782               	.LBE116:
 2783               	.LM296:
 2784 1022 80E0      		ldi r24,lo8(Right_Wrist)
 2785 1024 90E0      		ldi r25,hi8(Right_Wrist)
 2786 1026 0E94 0000 		call stepOne
 2787               	.LVL183:
 2788               	.L200:
 2789               	.LBB118:
 2790               	.LBB119:
 2791               	.LM297:
 2792 102a 8091 0000 		lds r24,elapsedMillis
 2793 102e 9091 0000 		lds r25,elapsedMillis+1
GAS LISTING /tmp/ccq5P7XK.s 			page 50


 2794 1032 A091 0000 		lds r26,elapsedMillis+2
 2795 1036 B091 0000 		lds r27,elapsedMillis+3
 2796               	.LBE119:
 2797               	.LBE118:
 2798               	.LM298:
 2799 103a 2091 0000 		lds r18,Left_Wrist+32
 2800 103e 3091 0000 		lds r19,Left_Wrist+32+1
 2801 1042 4091 0000 		lds r20,Left_Wrist+32+2
 2802 1046 5091 0000 		lds r21,Left_Wrist+32+3
 2803 104a 821B      		sub r24,r18
 2804 104c 930B      		sbc r25,r19
 2805 104e A40B      		sbc r26,r20
 2806 1050 B50B      		sbc r27,r21
 2807 1052 2091 0000 		lds r18,Left_Wrist+6
 2808 1056 3091 0000 		lds r19,Left_Wrist+6+1
 2809 105a 4091 0000 		lds r20,Left_Wrist+6+2
 2810 105e 5091 0000 		lds r21,Left_Wrist+6+3
 2811 1062 8217      		cp r24,r18
 2812 1064 9307      		cpc r25,r19
 2813 1066 A407      		cpc r26,r20
 2814 1068 B507      		cpc r27,r21
 2815 106a 00F0      		brlo .L203
 2816               	.LBB120:
 2817               	.LBB121:
 2818               	.LM299:
 2819 106c 8091 0000 		lds r24,elapsedMillis
 2820 1070 9091 0000 		lds r25,elapsedMillis+1
 2821 1074 A091 0000 		lds r26,elapsedMillis+2
 2822 1078 B091 0000 		lds r27,elapsedMillis+3
 2823               	.LBE121:
 2824               	.LBE120:
 2825               	.LM300:
 2826 107c 8093 0000 		sts Left_Wrist+32,r24
 2827 1080 9093 0000 		sts Left_Wrist+32+1,r25
 2828 1084 A093 0000 		sts Left_Wrist+32+2,r26
 2829 1088 B093 0000 		sts Left_Wrist+32+3,r27
 2830               	.LM301:
 2831 108c 8985      		ldd r24,Y+9
 2832 108e 9A85      		ldd r25,Y+10
 2833               	.LVL184:
 2834               	.LBB122:
 2835               	.LBB123:
 2836               	.LM302:
 2837 1090 97FD      		sbrc r25,7
 2838 1092 00C0      		rjmp .L215
 2839 1094 61E0      		ldi r22,lo8(1)
 2840 1096 70E0      		ldi r23,hi8(1)
 2841 1098 1816      		cp __zero_reg__,r24
 2842 109a 1906      		cpc __zero_reg__,r25
 2843 109c 04F0      		brlt .L204
 2844 109e 60E0      		ldi r22,lo8(0)
 2845 10a0 70E0      		ldi r23,hi8(0)
 2846 10a2 00C0      		rjmp .L204
 2847               	.L215:
 2848 10a4 6FEF      		ldi r22,lo8(-1)
 2849 10a6 7FEF      		ldi r23,hi8(-1)
 2850               	.L204:
GAS LISTING /tmp/ccq5P7XK.s 			page 51


 2851               	.LBE123:
 2852               	.LBE122:
 2853               	.LM303:
 2854 10a8 80E0      		ldi r24,lo8(Left_Wrist)
 2855 10aa 90E0      		ldi r25,hi8(Left_Wrist)
 2856 10ac 0E94 0000 		call stepOne
 2857               	.LVL185:
 2858               	.L203:
 2859               	.LBB124:
 2860               	.LBB125:
 2861               	.LM304:
 2862 10b0 8091 0000 		lds r24,elapsedMillis
 2863 10b4 9091 0000 		lds r25,elapsedMillis+1
 2864 10b8 A091 0000 		lds r26,elapsedMillis+2
 2865 10bc B091 0000 		lds r27,elapsedMillis+3
 2866               	.LBE125:
 2867               	.LBE124:
 2868               	.LM305:
 2869 10c0 2091 0000 		lds r18,Gripper+32
 2870 10c4 3091 0000 		lds r19,Gripper+32+1
 2871 10c8 4091 0000 		lds r20,Gripper+32+2
 2872 10cc 5091 0000 		lds r21,Gripper+32+3
 2873 10d0 821B      		sub r24,r18
 2874 10d2 930B      		sbc r25,r19
 2875 10d4 A40B      		sbc r26,r20
 2876 10d6 B50B      		sbc r27,r21
 2877 10d8 2091 0000 		lds r18,Gripper+6
 2878 10dc 3091 0000 		lds r19,Gripper+6+1
 2879 10e0 4091 0000 		lds r20,Gripper+6+2
 2880 10e4 5091 0000 		lds r21,Gripper+6+3
 2881 10e8 8217      		cp r24,r18
 2882 10ea 9307      		cpc r25,r19
 2883 10ec A407      		cpc r26,r20
 2884 10ee B507      		cpc r27,r21
 2885 10f0 00F0      		brlo .L221
 2886               	.LBB126:
 2887               	.LBB127:
 2888               	.LM306:
 2889 10f2 8091 0000 		lds r24,elapsedMillis
 2890 10f6 9091 0000 		lds r25,elapsedMillis+1
 2891 10fa A091 0000 		lds r26,elapsedMillis+2
 2892 10fe B091 0000 		lds r27,elapsedMillis+3
 2893               	.LBE127:
 2894               	.LBE126:
 2895               	.LM307:
 2896 1102 8093 0000 		sts Gripper+32,r24
 2897 1106 9093 0000 		sts Gripper+32+1,r25
 2898 110a A093 0000 		sts Gripper+32+2,r26
 2899 110e B093 0000 		sts Gripper+32+3,r27
 2900               	.LM308:
 2901 1112 8B85      		ldd r24,Y+11
 2902 1114 9C85      		ldd r25,Y+12
 2903               	.LVL186:
 2904               	.LBB128:
 2905               	.LBB129:
 2906               	.LM309:
 2907 1116 97FD      		sbrc r25,7
GAS LISTING /tmp/ccq5P7XK.s 			page 52


 2908 1118 00C0      		rjmp .L216
 2909 111a 61E0      		ldi r22,lo8(1)
 2910 111c 70E0      		ldi r23,hi8(1)
 2911 111e 1816      		cp __zero_reg__,r24
 2912 1120 1906      		cpc __zero_reg__,r25
 2913 1122 04F0      		brlt .L207
 2914 1124 60E0      		ldi r22,lo8(0)
 2915 1126 70E0      		ldi r23,hi8(0)
 2916 1128 00C0      		rjmp .L207
 2917               	.L216:
 2918 112a 6FEF      		ldi r22,lo8(-1)
 2919 112c 7FEF      		ldi r23,hi8(-1)
 2920               	.L207:
 2921               	.LBE129:
 2922               	.LBE128:
 2923               	.LM310:
 2924 112e 80E0      		ldi r24,lo8(Gripper)
 2925 1130 90E0      		ldi r25,hi8(Gripper)
 2926 1132 0E94 0000 		call stepOne
 2927               	.LVL187:
 2928               	.L221:
 2929               	.LM311:
 2930 1136 80E0      		ldi r24,lo8(pose)
 2931 1138 90E0      		ldi r25,hi8(pose)
 2932 113a 60E0      		ldi r22,lo8(goal)
 2933 113c 70E0      		ldi r23,hi8(goal)
 2934 113e 0E94 0000 		call compareArray
 2935 1142 0097      		sbiw r24,0
 2936 1144 01F4      		brne .L184
 2937               	.LM312:
 2938 1146 E0E0      		ldi r30,lo8(goal)
 2939 1148 F0E0      		ldi r31,hi8(goal)
 2940 114a 20E0      		ldi r18,lo8(pose)
 2941 114c 30E0      		ldi r19,hi8(pose)
 2942 114e B801      		movw r22,r16
 2943 1150 00C0      		rjmp .L190
 2944               	.L184:
 2945               	/* epilogue start */
 2946               	.LM313:
 2947 1152 6496      		adiw r28,20
 2948 1154 CDBF      		out __SP_L__,r28
 2949 1156 DEBF      		out __SP_H__,r29
 2950 1158 CF91      		pop r28
 2951 115a DF91      		pop r29
 2952 115c 1F91      		pop r17
 2953 115e 0F91      		pop r16
 2954 1160 FF90      		pop r15
 2955 1162 EF90      		pop r14
 2956 1164 DF90      		pop r13
 2957 1166 CF90      		pop r12
 2958 1168 BF90      		pop r11
 2959 116a AF90      		pop r10
 2960 116c 9F90      		pop r9
 2961 116e 8F90      		pop r8
 2962 1170 7F90      		pop r7
 2963 1172 6F90      		pop r6
 2964 1174 5F90      		pop r5
GAS LISTING /tmp/ccq5P7XK.s 			page 53


 2965 1176 4F90      		pop r4
 2966 1178 3F90      		pop r3
 2967 117a 2F90      		pop r2
 2968 117c 0895      		ret
 2969               	.LFE30:
 2970               		.size	moveToGoal, .-moveToGoal
 2971               	.global	usbUpdate
 2972               		.type	usbUpdate, @function
 2973               	usbUpdate:
 2974               	.LFB31:
 2975               	.LM314:
 2976               	/* prologue: function */
 2977               	/* frame size = 0 */
 2978               	/* stack size = 0 */
 2979               	.L__stack_usage = 0
 2980               	.LM315:
 2981 117e 8091 0000 		lds r24,debugFlag
 2982 1182 9091 0000 		lds r25,debugFlag+1
 2983 1186 8430      		cpi r24,4
 2984 1188 9105      		cpc r25,__zero_reg__
 2985 118a 04F0      		brlt .L223
 2986               	.LM316:
 2987 118c 1092 0000 		sts debugFlag,__zero_reg__
 2988 1190 1092 0000 		sts debugFlag+1,__zero_reg__
 2989               	.L223:
 2990               	.LM317:
 2991 1194 8091 0000 		lds r24,debugFlag
 2992 1198 9091 0000 		lds r25,debugFlag+1
 2993 119c 0097      		sbiw r24,0
 2994 119e 01F0      		breq .L228
 2995               	.L224:
 2996               	.LM318:
 2997 11a0 8130      		cpi r24,1
 2998 11a2 9105      		cpc r25,__zero_reg__
 2999 11a4 01F4      		brne .L226
 3000               	.LVL188:
 3001               	.LBB130:
 3002               	.LBB131:
 3003               	.LM319:
 3004 11a6 8CE5      		ldi r24,lo8(-1700)
 3005 11a8 99EF      		ldi r25,hi8(-1700)
 3006 11aa 8093 0000 		sts goal,r24
 3007 11ae 9093 0000 		sts goal+1,r25
 3008               	.LM320:
 3009 11b2 80E7      		ldi r24,lo8(-400)
 3010 11b4 9EEF      		ldi r25,hi8(-400)
 3011 11b6 00C0      		rjmp .L229
 3012               	.LVL189:
 3013               	.L226:
 3014               	.LBE131:
 3015               	.LBE130:
 3016               	.LM321:
 3017 11b8 8230      		cpi r24,2
 3018 11ba 9105      		cpc r25,__zero_reg__
 3019 11bc 01F4      		brne .L227
 3020               	.L228:
 3021               	.LVL190:
GAS LISTING /tmp/ccq5P7XK.s 			page 54


 3022               	.LBB132:
 3023               	.LBB133:
 3024               	.LM322:
 3025 11be 8EEA      		ldi r24,lo8(-850)
 3026 11c0 9CEF      		ldi r25,hi8(-850)
 3027 11c2 8093 0000 		sts goal,r24
 3028 11c6 9093 0000 		sts goal+1,r25
 3029               	.LM323:
 3030 11ca 88E3      		ldi r24,lo8(-200)
 3031 11cc 9FEF      		ldi r25,hi8(-200)
 3032               	.LVL191:
 3033               	.L229:
 3034 11ce 8093 0000 		sts goal+2,r24
 3035 11d2 9093 0000 		sts goal+2+1,r25
 3036               	.LM324:
 3037 11d6 8093 0000 		sts goal+4,r24
 3038 11da 9093 0000 		sts goal+4+1,r25
 3039               	.LM325:
 3040 11de 8093 0000 		sts goal+6,r24
 3041 11e2 9093 0000 		sts goal+6+1,r25
 3042               	.LM326:
 3043 11e6 8093 0000 		sts goal+8,r24
 3044 11ea 9093 0000 		sts goal+8+1,r25
 3045               	.LM327:
 3046 11ee 1092 0000 		sts goal+10,__zero_reg__
 3047 11f2 1092 0000 		sts goal+10+1,__zero_reg__
 3048 11f6 0895      		ret
 3049               	.L227:
 3050               	.LBE133:
 3051               	.LBE132:
 3052               	.LM328:
 3053 11f8 8330      		cpi r24,3
 3054 11fa 9105      		cpc r25,__zero_reg__
 3055 11fc 01F4      		brne .L222
 3056               	.LVL192:
 3057               	.LBB134:
 3058               	.LBB135:
 3059               	.LM329:
 3060 11fe 1092 0000 		sts goal,__zero_reg__
 3061 1202 1092 0000 		sts goal+1,__zero_reg__
 3062               	.LM330:
 3063 1206 1092 0000 		sts goal+2,__zero_reg__
 3064 120a 1092 0000 		sts goal+2+1,__zero_reg__
 3065               	.LM331:
 3066 120e 1092 0000 		sts goal+4,__zero_reg__
 3067 1212 1092 0000 		sts goal+4+1,__zero_reg__
 3068               	.LM332:
 3069 1216 1092 0000 		sts goal+6,__zero_reg__
 3070 121a 1092 0000 		sts goal+6+1,__zero_reg__
 3071               	.LM333:
 3072 121e 1092 0000 		sts goal+8,__zero_reg__
 3073 1222 1092 0000 		sts goal+8+1,__zero_reg__
 3074               	.LM334:
 3075 1226 1092 0000 		sts goal+10,__zero_reg__
 3076 122a 1092 0000 		sts goal+10+1,__zero_reg__
 3077               	.LVL193:
 3078               	.L222:
GAS LISTING /tmp/ccq5P7XK.s 			page 55


 3079 122e 0895      		ret
 3080               	.LBE135:
 3081               	.LBE134:
 3082               	.LFE31:
 3083               		.size	usbUpdate, .-usbUpdate
 3084               	.global	mainLoop
 3085               		.type	mainLoop, @function
 3086               	mainLoop:
 3087               	.LFB32:
 3088               	.LM335:
 3089 1230 EF92      		push r14
 3090 1232 FF92      		push r15
 3091 1234 0F93      		push r16
 3092 1236 1F93      		push r17
 3093 1238 CF93      		push r28
 3094 123a DF93      		push r29
 3095               	/* prologue: function */
 3096               	/* frame size = 0 */
 3097               	/* stack size = 6 */
 3098               	.L__stack_usage = 6
 3099               	.LM336:
 3100 123c C2E0      		ldi r28,lo8(2)
 3101 123e D0E0      		ldi r29,hi8(2)
 3102               	.LM337:
 3103 1240 03E0      		ldi r16,lo8(3)
 3104 1242 10E0      		ldi r17,hi8(3)
 3105               	.LM338:
 3106 1244 EEEA      		ldi r30,lo8(-850)
 3107 1246 EE2E      		mov r14,r30
 3108 1248 ECEF      		ldi r30,hi8(-850)
 3109 124a FE2E      		mov r15,r30
 3110               	.L239:
 3111               	.LM339:
 3112 124c 8091 0000 		lds r24,state
 3113 1250 9091 0000 		lds r25,state+1
 3114 1254 0097      		sbiw r24,0
 3115 1256 01F4      		brne .+2
 3116 1258 00C0      		rjmp .L232
 3117               	.LM340:
 3118 125a 8130      		cpi r24,1
 3119 125c 9105      		cpc r25,__zero_reg__
 3120 125e 01F4      		brne .L233
 3121               	.LM341:
 3122 1260 8091 6806 		lds r24,1640
 3123               	.LM342:
 3124 1264 E092 0000 		sts pose,r14
 3125 1268 F092 0000 		sts pose+1,r15
 3126               	.LM343:
 3127 126c 8091 6806 		lds r24,1640
 3128               	.LM344:
 3129 1270 1092 0000 		sts pose+2,__zero_reg__
 3130 1274 1092 0000 		sts pose+2+1,__zero_reg__
 3131               	.LM345:
 3132 1278 1092 0000 		sts pose+4,__zero_reg__
 3133 127c 1092 0000 		sts pose+4+1,__zero_reg__
 3134               	.LM346:
 3135 1280 8091 8806 		lds r24,1672
GAS LISTING /tmp/ccq5P7XK.s 			page 56


 3136               	.LM347:
 3137 1284 1092 0000 		sts pose+6,__zero_reg__
 3138 1288 1092 0000 		sts pose+6+1,__zero_reg__
 3139               	.LM348:
 3140 128c 8091 8806 		lds r24,1672
 3141               	.LM349:
 3142 1290 1092 0000 		sts pose+8,__zero_reg__
 3143 1294 1092 0000 		sts pose+8+1,__zero_reg__
 3144               	.LM350:
 3145 1298 8091 8806 		lds r24,1672
 3146               	.LM351:
 3147 129c 1092 0000 		sts pose+10,__zero_reg__
 3148 12a0 1092 0000 		sts pose+10+1,__zero_reg__
 3149               	.LM352:
 3150 12a4 C093 0000 		sts state,r28
 3151 12a8 D093 0000 		sts state+1,r29
 3152 12ac 00C0      		rjmp .L239
 3153               	.L233:
 3154               	.LM353:
 3155 12ae 8230      		cpi r24,2
 3156 12b0 9105      		cpc r25,__zero_reg__
 3157 12b2 01F4      		brne .L235
 3158               	.LM354:
 3159 12b4 0E94 0000 		call usbUpdate
 3160               	.LM355:
 3161 12b8 0093 0000 		sts state,r16
 3162 12bc 1093 0000 		sts state+1,r17
 3163 12c0 00C0      		rjmp .L239
 3164               	.L235:
 3165               	.LM356:
 3166 12c2 8330      		cpi r24,3
 3167 12c4 9105      		cpc r25,__zero_reg__
 3168 12c6 01F4      		brne .L239
 3169               	.LM357:
 3170 12c8 80E0      		ldi r24,lo8(pose)
 3171 12ca 90E0      		ldi r25,hi8(pose)
 3172 12cc 60E0      		ldi r22,lo8(goal)
 3173 12ce 70E0      		ldi r23,hi8(goal)
 3174 12d0 0E94 0000 		call compareArray
 3175 12d4 0097      		sbiw r24,0
 3176 12d6 01F4      		brne .L236
 3177               	.LM358:
 3178 12d8 0E94 0000 		call moveToGoal
 3179 12dc 00C0      		rjmp .L239
 3180               	.L236:
 3181               	.LM359:
 3182 12de C093 0000 		sts state,r28
 3183 12e2 D093 0000 		sts state+1,r29
 3184               	.LM360:
 3185 12e6 8091 0000 		lds r24,debugFlag
 3186 12ea 9091 0000 		lds r25,debugFlag+1
 3187 12ee 0196      		adiw r24,1
 3188 12f0 8093 0000 		sts debugFlag,r24
 3189 12f4 9093 0000 		sts debugFlag+1,r25
 3190 12f8 00C0      		rjmp .L239
 3191               	.L232:
 3192               	.L240:
GAS LISTING /tmp/ccq5P7XK.s 			page 57


 3193 12fa 00C0      		rjmp .L240
 3194               	.LFE32:
 3195               		.size	mainLoop, .-mainLoop
 3196               	.global	main
 3197               		.type	main, @function
 3198               	main:
 3199               	.LFB33:
 3200               	.LM361:
 3201               	/* prologue: function */
 3202               	/* frame size = 0 */
 3203               	/* stack size = 0 */
 3204               	.L__stack_usage = 0
 3205               	.LM362:
 3206 12fc 0E94 0000 		call Config32MHzClock
 3207               	.LM363:
 3208 1300 E0E8      		ldi r30,lo8(1664)
 3209 1302 F6E0      		ldi r31,hi8(1664)
 3210 1304 8181      		ldd r24,Z+1
 3211 1306 8160      		ori r24,lo8(1)
 3212 1308 8183      		std Z+1,r24
 3213               	.LM364:
 3214 130a A0E0      		ldi r26,lo8(2048)
 3215 130c B8E0      		ldi r27,hi8(2048)
 3216 130e 80EA      		ldi r24,lo8(4000)
 3217 1310 9FE0      		ldi r25,hi8(4000)
 3218 1312 9696      		adiw r26,38
 3219 1314 8D93      		st X+,r24
 3220 1316 9C93      		st X,r25
 3221 1318 9797      		sbiw r26,38+1
 3222               	.LM365:
 3223 131a 8C91      		ld r24,X
 3224 131c 807F      		andi r24,lo8(-16)
 3225 131e 8460      		ori r24,lo8(4)
 3226 1320 8C93      		st X,r24
 3227               	.LM366:
 3228 1322 1696      		adiw r26,6
 3229 1324 8C91      		ld r24,X
 3230 1326 1697      		sbiw r26,6
 3231 1328 8360      		ori r24,lo8(3)
 3232 132a 1696      		adiw r26,6
 3233 132c 8C93      		st X,r24
 3234               	.LM367:
 3235 132e A0EA      		ldi r26,lo8(160)
 3236 1330 B0E0      		ldi r27,hi8(160)
 3237 1332 1296      		adiw r26,2
 3238 1334 8C91      		ld r24,X
 3239 1336 1297      		sbiw r26,2
 3240 1338 8460      		ori r24,lo8(4)
 3241 133a 1296      		adiw r26,2
 3242 133c 8C93      		st X,r24
 3243               	.LM368:
 3244               	/* #APP */
 3245               	 ;  690 "AdDemo.c" 1
 3246 133e 7894      		sei
 3247               	 ;  0 "" 2
 3248               	.LM369:
 3249               	/* #NOAPP */
GAS LISTING /tmp/ccq5P7XK.s 			page 58


 3250 1340 A0E0      		ldi r26,lo8(1536)
 3251 1342 B6E0      		ldi r27,hi8(1536)
 3252 1344 1196      		adiw r26,1
 3253 1346 8C91      		ld r24,X
 3254 1348 1197      		sbiw r26,1
 3255 134a 8FEF      		ldi r24,lo8(-1)
 3256 134c 1196      		adiw r26,1
 3257 134e 8C93      		st X,r24
 3258               	.LM370:
 3259 1350 A0E2      		ldi r26,lo8(1568)
 3260 1352 B6E0      		ldi r27,hi8(1568)
 3261 1354 1196      		adiw r26,1
 3262 1356 9C91      		ld r25,X
 3263 1358 1197      		sbiw r26,1
 3264 135a 1196      		adiw r26,1
 3265 135c 8C93      		st X,r24
 3266               	.LM371:
 3267 135e A0E4      		ldi r26,lo8(1600)
 3268 1360 B6E0      		ldi r27,hi8(1600)
 3269 1362 1196      		adiw r26,1
 3270 1364 9C91      		ld r25,X
 3271 1366 1197      		sbiw r26,1
 3272 1368 1196      		adiw r26,1
 3273 136a 8C93      		st X,r24
 3274               	.LM372:
 3275 136c A0E6      		ldi r26,lo8(1632)
 3276 136e B6E0      		ldi r27,hi8(1632)
 3277 1370 1196      		adiw r26,1
 3278 1372 8C91      		ld r24,X
 3279 1374 1197      		sbiw r26,1
 3280 1376 8F60      		ori r24,lo8(15)
 3281 1378 1196      		adiw r26,1
 3282 137a 8C93      		st X,r24
 3283 137c 1197      		sbiw r26,1
 3284               	.LM373:
 3285 137e 88E1      		ldi r24,lo8(24)
 3286 1380 5496      		adiw r26,20
 3287 1382 8C93      		st X,r24
 3288 1384 5497      		sbiw r26,20
 3289               	.LM374:
 3290 1386 5596      		adiw r26,21
 3291 1388 8C93      		st X,r24
 3292               	.LM375:
 3293 138a 818B      		std Z+17,r24
 3294               	.LM376:
 3295 138c 828B      		std Z+18,r24
 3296               	.LM377:
 3297 138e 838B      		std Z+19,r24
 3298               	.LM378:
 3299 1390 0E94 0000 		call mainLoop
 3300               	.LM379:
 3301 1394 80E0      		ldi r24,lo8(0)
 3302 1396 90E0      		ldi r25,hi8(0)
 3303               	/* epilogue start */
 3304 1398 0895      		ret
 3305               	.LFE33:
 3306               		.size	main, .-main
GAS LISTING /tmp/ccq5P7XK.s 			page 59


 3307               	.global	state
 3308               		.data
 3309               		.type	state, @object
 3310               		.size	state, 2
 3311               	state:
 3312 0000 0100      		.word	1
 3313               	.global	debugFlag
 3314               	.global	debugFlag
 3315               		.section .bss
 3316               		.type	debugFlag, @object
 3317               		.size	debugFlag, 2
 3318               	debugFlag:
 3319 0000 0000      		.skip 2,0
 3320               	.global	goal
 3321               	.global	goal
 3322               		.type	goal, @object
 3323               		.size	goal, 12
 3324               	goal:
 3325 0002 0000 0000 		.skip 12,0
 3325      0000 0000 
 3325      0000 0000 
 3326               	.global	pose
 3327               	.global	pose
 3328               		.type	pose, @object
 3329               		.size	pose, 12
 3330               	pose:
 3331 000e 0000 0000 		.skip 12,0
 3331      0000 0000 
 3331      0000 0000 
 3332               	.global	elapsedMillis
 3333               	.global	elapsedMillis
 3334               		.type	elapsedMillis, @object
 3335               		.size	elapsedMillis, 4
 3336               	elapsedMillis:
 3337 001a 0000 0000 		.skip 4,0
 3338               	.global	Base
 3339               		.data
 3340               		.type	Base, @object
 3341               		.size	Base, 36
 3342               	Base:
 3343 0002 0100      		.word	1
 3344 0004 0100      		.word	1
 3345 0006 2800      		.word	40
 3346 0008 0A        		.byte	10
 3347 0009 00        		.byte	0
 3348 000a 00        		.byte	0
 3349 000b 00        		.byte	0
 3350 000c C800      		.word	200
 3351 000e 0400      		.word	4
 3352 0010 0000      		.word	0
 3353 0012 AEFC      		.word	-850
 3354 0014 5203      		.word	850
 3355 0016 41        		.byte	65
 3356 0017 0000      		.word	0
 3357 0019 41        		.byte	65
 3358 001a 0100      		.word	1
 3359 001c 41        		.byte	65
GAS LISTING /tmp/ccq5P7XK.s 			page 60


 3360 001d 0200      		.word	2
 3361 001f 41        		.byte	65
 3362 0020 0300      		.word	3
 3363 0022 0000 0000 		.skip 4,0
 3364               	.global	Shoulder
 3365               		.type	Shoulder, @object
 3366               		.size	Shoulder, 36
 3367               	Shoulder:
 3368 0026 0200      		.word	2
 3369 0028 0100      		.word	1
 3370 002a 2800      		.word	40
 3371 002c 0A        		.byte	10
 3372 002d 00        		.byte	0
 3373 002e 00        		.byte	0
 3374 002f 00        		.byte	0
 3375 0030 C800      		.word	200
 3376 0032 0400      		.word	4
 3377 0034 0000      		.word	0
 3378 0036 0000      		.word	0
 3379 0038 56FA      		.word	-1450
 3380 003a 41        		.byte	65
 3381 003b 0400      		.word	4
 3382 003d 41        		.byte	65
 3383 003e 0500      		.word	5
 3384 0040 41        		.byte	65
 3385 0041 0600      		.word	6
 3386 0043 41        		.byte	65
 3387 0044 0700      		.word	7
 3388 0046 0000 0000 		.skip 4,0
 3389               	.global	Elbow
 3390               		.type	Elbow, @object
 3391               		.size	Elbow, 36
 3392               	Elbow:
 3393 004a 0300      		.word	3
 3394 004c 0100      		.word	1
 3395 004e 2800      		.word	40
 3396 0050 0A        		.byte	10
 3397 0051 00        		.byte	0
 3398 0052 00        		.byte	0
 3399 0053 00        		.byte	0
 3400 0054 C800      		.word	200
 3401 0056 0400      		.word	4
 3402 0058 0000      		.word	0
 3403 005a 0000      		.word	0
 3404 005c AA05      		.word	1450
 3405 005e 42        		.byte	66
 3406 005f 0000      		.word	0
 3407 0061 42        		.byte	66
 3408 0062 0100      		.word	1
 3409 0064 42        		.byte	66
 3410 0065 0200      		.word	2
 3411 0067 42        		.byte	66
 3412 0068 0300      		.word	3
 3413 006a 0000 0000 		.skip 4,0
 3414               	.global	Right_Wrist
 3415               		.type	Right_Wrist, @object
 3416               		.size	Right_Wrist, 36
GAS LISTING /tmp/ccq5P7XK.s 			page 61


 3417               	Right_Wrist:
 3418 006e 0400      		.word	4
 3419 0070 0100      		.word	1
 3420 0072 2800      		.word	40
 3421 0074 0A        		.byte	10
 3422 0075 00        		.byte	0
 3423 0076 00        		.byte	0
 3424 0077 00        		.byte	0
 3425 0078 C800      		.word	200
 3426 007a 0400      		.word	4
 3427 007c 0000      		.word	0
 3428 007e C800      		.word	200
 3429 0080 38FF      		.word	-200
 3430 0082 43        		.byte	67
 3431 0083 0000      		.word	0
 3432 0085 43        		.byte	67
 3433 0086 0100      		.word	1
 3434 0088 43        		.byte	67
 3435 0089 0200      		.word	2
 3436 008b 43        		.byte	67
 3437 008c 0300      		.word	3
 3438 008e 0000 0000 		.skip 4,0
 3439               	.global	Left_Wrist
 3440               		.type	Left_Wrist, @object
 3441               		.size	Left_Wrist, 36
 3442               	Left_Wrist:
 3443 0092 0500      		.word	5
 3444 0094 0100      		.word	1
 3445 0096 2800      		.word	40
 3446 0098 0A        		.byte	10
 3447 0099 00        		.byte	0
 3448 009a 00        		.byte	0
 3449 009b 00        		.byte	0
 3450 009c C800      		.word	200
 3451 009e 0400      		.word	4
 3452 00a0 0000      		.word	0
 3453 00a2 38FF      		.word	-200
 3454 00a4 C800      		.word	200
 3455 00a6 43        		.byte	67
 3456 00a7 0400      		.word	4
 3457 00a9 43        		.byte	67
 3458 00aa 0500      		.word	5
 3459 00ac 43        		.byte	67
 3460 00ad 0600      		.word	6
 3461 00af 43        		.byte	67
 3462 00b0 0700      		.word	7
 3463 00b2 0000 0000 		.skip 4,0
 3464               	.global	Gripper
 3465               		.type	Gripper, @object
 3466               		.size	Gripper, 36
 3467               	Gripper:
 3468 00b6 0600      		.word	6
 3469 00b8 0100      		.word	1
 3470 00ba 2800      		.word	40
 3471 00bc 0A        		.byte	10
 3472 00bd 00        		.byte	0
 3473 00be 00        		.byte	0
GAS LISTING /tmp/ccq5P7XK.s 			page 62


 3474 00bf 00        		.byte	0
 3475 00c0 C800      		.word	200
 3476 00c2 0400      		.word	4
 3477 00c4 0000      		.word	0
 3478 00c6 0000      		.word	0
 3479 00c8 2003      		.word	800
 3480 00ca 44        		.byte	68
 3481 00cb 0000      		.word	0
 3482 00cd 44        		.byte	68
 3483 00ce 0100      		.word	1
 3484 00d0 44        		.byte	68
 3485 00d1 0200      		.word	2
 3486 00d3 44        		.byte	68
 3487 00d4 0300      		.word	3
 3488 00d6 0000 0000 		.skip 4,0
 3489               		.section	.debug_frame,"",@progbits
 3490               	.Lframe0:
 3491 0000 0C00 0000 		.long	.LECIE0-.LSCIE0
 3492               	.LSCIE0:
 3493 0004 FFFF FFFF 		.long	0xffffffff
 3494 0008 01        		.byte	0x1
 3495 0009 00        		.string	""
 3496 000a 01        		.uleb128 0x1
 3497 000b 7F        		.sleb128 -1
 3498 000c 24        		.byte	0x24
 3499 000d 0C        		.byte	0xc
 3500 000e 20        		.uleb128 0x20
 3501 000f 00        		.uleb128 0x0
 3502               		.p2align	2
 3503               	.LECIE0:
 3504               	.LSFDE0:
 3505 0010 0C00 0000 		.long	.LEFDE0-.LASFDE0
 3506               	.LASFDE0:
 3507 0014 0000 0000 		.long	.Lframe0
 3508 0018 0000 0000 		.long	.LFB6
 3509 001c 2A00 0000 		.long	.LFE6-.LFB6
 3510               		.p2align	2
 3511               	.LEFDE0:
 3512               	.LSFDE2:
 3513 0020 0C00 0000 		.long	.LEFDE2-.LASFDE2
 3514               	.LASFDE2:
 3515 0024 0000 0000 		.long	.Lframe0
 3516 0028 0000 0000 		.long	.LFB7
 3517 002c 1600 0000 		.long	.LFE7-.LFB7
 3518               		.p2align	2
 3519               	.LEFDE2:
 3520               	.LSFDE4:
 3521 0030 0C00 0000 		.long	.LEFDE4-.LASFDE4
 3522               	.LASFDE4:
 3523 0034 0000 0000 		.long	.Lframe0
 3524 0038 0000 0000 		.long	.LFB8
 3525 003c 0C00 0000 		.long	.LFE8-.LFB8
 3526               		.p2align	2
 3527               	.LEFDE4:
 3528               	.LSFDE6:
 3529 0040 0C00 0000 		.long	.LEFDE6-.LASFDE6
 3530               	.LASFDE6:
GAS LISTING /tmp/ccq5P7XK.s 			page 63


 3531 0044 0000 0000 		.long	.Lframe0
 3532 0048 0000 0000 		.long	.LFB9
 3533 004c 1400 0000 		.long	.LFE9-.LFB9
 3534               		.p2align	2
 3535               	.LEFDE6:
 3536               	.LSFDE8:
 3537 0050 0C00 0000 		.long	.LEFDE8-.LASFDE8
 3538               	.LASFDE8:
 3539 0054 0000 0000 		.long	.Lframe0
 3540 0058 0000 0000 		.long	.LFB10
 3541 005c 0C00 0000 		.long	.LFE10-.LFB10
 3542               		.p2align	2
 3543               	.LEFDE8:
 3544               	.LSFDE10:
 3545 0060 0C00 0000 		.long	.LEFDE10-.LASFDE10
 3546               	.LASFDE10:
 3547 0064 0000 0000 		.long	.Lframe0
 3548 0068 0000 0000 		.long	.LFB11
 3549 006c 2600 0000 		.long	.LFE11-.LFB11
 3550               		.p2align	2
 3551               	.LEFDE10:
 3552               	.LSFDE12:
 3553 0070 0C00 0000 		.long	.LEFDE12-.LASFDE12
 3554               	.LASFDE12:
 3555 0074 0000 0000 		.long	.Lframe0
 3556 0078 0000 0000 		.long	.LFB12
 3557 007c 1000 0000 		.long	.LFE12-.LFB12
 3558               		.p2align	2
 3559               	.LEFDE12:
 3560               	.LSFDE14:
 3561 0080 0C00 0000 		.long	.LEFDE14-.LASFDE14
 3562               	.LASFDE14:
 3563 0084 0000 0000 		.long	.Lframe0
 3564 0088 0000 0000 		.long	.LFB13
 3565 008c 3A00 0000 		.long	.LFE13-.LFB13
 3566               		.p2align	2
 3567               	.LEFDE14:
 3568               	.LSFDE16:
 3569 0090 0C00 0000 		.long	.LEFDE16-.LASFDE16
 3570               	.LASFDE16:
 3571 0094 0000 0000 		.long	.Lframe0
 3572 0098 0000 0000 		.long	.LFB14
 3573 009c 0C00 0000 		.long	.LFE14-.LFB14
 3574               		.p2align	2
 3575               	.LEFDE16:
 3576               	.LSFDE18:
 3577 00a0 0C00 0000 		.long	.LEFDE18-.LASFDE18
 3578               	.LASFDE18:
 3579 00a4 0000 0000 		.long	.Lframe0
 3580 00a8 0000 0000 		.long	.LFB15
 3581 00ac 0C00 0000 		.long	.LFE15-.LFB15
 3582               		.p2align	2
 3583               	.LEFDE18:
 3584               	.LSFDE20:
 3585 00b0 0C00 0000 		.long	.LEFDE20-.LASFDE20
 3586               	.LASFDE20:
 3587 00b4 0000 0000 		.long	.Lframe0
GAS LISTING /tmp/ccq5P7XK.s 			page 64


 3588 00b8 0000 0000 		.long	.LFB16
 3589 00bc 4A00 0000 		.long	.LFE16-.LFB16
 3590               		.p2align	2
 3591               	.LEFDE20:
 3592               	.LSFDE22:
 3593 00c0 0C00 0000 		.long	.LEFDE22-.LASFDE22
 3594               	.LASFDE22:
 3595 00c4 0000 0000 		.long	.Lframe0
 3596 00c8 0000 0000 		.long	.LFB17
 3597 00cc 1C00 0000 		.long	.LFE17-.LFB17
 3598               		.p2align	2
 3599               	.LEFDE22:
 3600               	.LSFDE24:
 3601 00d0 0C00 0000 		.long	.LEFDE24-.LASFDE24
 3602               	.LASFDE24:
 3603 00d4 0000 0000 		.long	.Lframe0
 3604 00d8 0000 0000 		.long	.LFB18
 3605 00dc 7A00 0000 		.long	.LFE18-.LFB18
 3606               		.p2align	2
 3607               	.LEFDE24:
 3608               	.LSFDE26:
 3609 00e0 0C00 0000 		.long	.LEFDE26-.LASFDE26
 3610               	.LASFDE26:
 3611 00e4 0000 0000 		.long	.Lframe0
 3612 00e8 0000 0000 		.long	.LFB19
 3613 00ec 1C00 0000 		.long	.LFE19-.LFB19
 3614               		.p2align	2
 3615               	.LEFDE26:
 3616               	.LSFDE28:
 3617 00f0 0C00 0000 		.long	.LEFDE28-.LASFDE28
 3618               	.LASFDE28:
 3619 00f4 0000 0000 		.long	.Lframe0
 3620 00f8 0000 0000 		.long	.LFB20
 3621 00fc 1E00 0000 		.long	.LFE20-.LFB20
 3622               		.p2align	2
 3623               	.LEFDE28:
 3624               	.LSFDE30:
 3625 0100 0C00 0000 		.long	.LEFDE30-.LASFDE30
 3626               	.LASFDE30:
 3627 0104 0000 0000 		.long	.Lframe0
 3628 0108 0000 0000 		.long	.LFB21
 3629 010c 1600 0000 		.long	.LFE21-.LFB21
 3630               		.p2align	2
 3631               	.LEFDE30:
 3632               	.LSFDE32:
 3633 0110 0C00 0000 		.long	.LEFDE32-.LASFDE32
 3634               	.LASFDE32:
 3635 0114 0000 0000 		.long	.Lframe0
 3636 0118 0000 0000 		.long	.LFB22
 3637 011c 3200 0000 		.long	.LFE22-.LFB22
 3638               		.p2align	2
 3639               	.LEFDE32:
 3640               	.LSFDE34:
 3641 0120 0C00 0000 		.long	.LEFDE34-.LASFDE34
 3642               	.LASFDE34:
 3643 0124 0000 0000 		.long	.Lframe0
 3644 0128 0000 0000 		.long	.LFB23
GAS LISTING /tmp/ccq5P7XK.s 			page 65


 3645 012c 4E01 0000 		.long	.LFE23-.LFB23
 3646               		.p2align	2
 3647               	.LEFDE34:
 3648               	.LSFDE36:
 3649 0130 0C00 0000 		.long	.LEFDE36-.LASFDE36
 3650               	.LASFDE36:
 3651 0134 0000 0000 		.long	.Lframe0
 3652 0138 0000 0000 		.long	.LFB24
 3653 013c 4E01 0000 		.long	.LFE24-.LFB24
 3654               		.p2align	2
 3655               	.LEFDE36:
 3656               	.LSFDE38:
 3657 0140 0C00 0000 		.long	.LEFDE38-.LASFDE38
 3658               	.LASFDE38:
 3659 0144 0000 0000 		.long	.Lframe0
 3660 0148 0000 0000 		.long	.LFB25
 3661 014c 4C00 0000 		.long	.LFE25-.LFB25
 3662               		.p2align	2
 3663               	.LEFDE38:
 3664               	.LSFDE40:
 3665 0150 0C00 0000 		.long	.LEFDE40-.LASFDE40
 3666               	.LASFDE40:
 3667 0154 0000 0000 		.long	.Lframe0
 3668 0158 0000 0000 		.long	.LFB26
 3669 015c 1A01 0000 		.long	.LFE26-.LFB26
 3670               		.p2align	2
 3671               	.LEFDE40:
 3672               	.LSFDE42:
 3673 0160 0C00 0000 		.long	.LEFDE42-.LASFDE42
 3674               	.LASFDE42:
 3675 0164 0000 0000 		.long	.Lframe0
 3676 0168 0000 0000 		.long	.LFB27
 3677 016c 1C02 0000 		.long	.LFE27-.LFB27
 3678               		.p2align	2
 3679               	.LEFDE42:
 3680               	.LSFDE44:
 3681 0170 0C00 0000 		.long	.LEFDE44-.LASFDE44
 3682               	.LASFDE44:
 3683 0174 0000 0000 		.long	.Lframe0
 3684 0178 0000 0000 		.long	.LFB28
 3685 017c 8C01 0000 		.long	.LFE28-.LFB28
 3686               		.p2align	2
 3687               	.LEFDE44:
 3688               	.LSFDE46:
 3689 0180 0C00 0000 		.long	.LEFDE46-.LASFDE46
 3690               	.LASFDE46:
 3691 0184 0000 0000 		.long	.Lframe0
 3692 0188 0000 0000 		.long	.LFB29
 3693 018c 4200 0000 		.long	.LFE29-.LFB29
 3694               		.p2align	2
 3695               	.LEFDE46:
 3696               	.LSFDE48:
 3697 0190 0C00 0000 		.long	.LEFDE48-.LASFDE48
 3698               	.LASFDE48:
 3699 0194 0000 0000 		.long	.Lframe0
 3700 0198 0000 0000 		.long	.LFB30
 3701 019c 3C07 0000 		.long	.LFE30-.LFB30
GAS LISTING /tmp/ccq5P7XK.s 			page 66


 3702               		.p2align	2
 3703               	.LEFDE48:
 3704               	.LSFDE50:
 3705 01a0 0C00 0000 		.long	.LEFDE50-.LASFDE50
 3706               	.LASFDE50:
 3707 01a4 0000 0000 		.long	.Lframe0
 3708 01a8 0000 0000 		.long	.LFB31
 3709 01ac B200 0000 		.long	.LFE31-.LFB31
 3710               		.p2align	2
 3711               	.LEFDE50:
 3712               	.LSFDE52:
 3713 01b0 0C00 0000 		.long	.LEFDE52-.LASFDE52
 3714               	.LASFDE52:
 3715 01b4 0000 0000 		.long	.Lframe0
 3716 01b8 0000 0000 		.long	.LFB32
 3717 01bc CC00 0000 		.long	.LFE32-.LFB32
 3718               		.p2align	2
 3719               	.LEFDE52:
 3720               	.LSFDE54:
 3721 01c0 0C00 0000 		.long	.LEFDE54-.LASFDE54
 3722               	.LASFDE54:
 3723 01c4 0000 0000 		.long	.Lframe0
 3724 01c8 0000 0000 		.long	.LFB33
 3725 01cc 9E00 0000 		.long	.LFE33-.LFB33
 3726               		.p2align	2
 3727               	.LEFDE54:
 3728               		.text
 3729               	.Letext0:
 3730               		.section	.debug_loc,"",@progbits
 3731               	.Ldebug_loc0:
 3732               	.LLST0:
 3733 0000 0000 0000 		.long	.LVL0-.Ltext0
 3734 0004 1E00 0000 		.long	.LVL3-.Ltext0
 3735 0008 0600      		.word	0x6
 3736 000a 68        		.byte	0x68
 3737 000b 93        		.byte	0x93
 3738 000c 01        		.uleb128 0x1
 3739 000d 69        		.byte	0x69
 3740 000e 93        		.byte	0x93
 3741 000f 01        		.uleb128 0x1
 3742 0010 0000 0000 		.long	0x0
 3743 0014 0000 0000 		.long	0x0
 3744               	.LLST1:
 3745 0018 1200 0000 		.long	.LVL2-.Ltext0
 3746 001c 1E00 0000 		.long	.LVL3-.Ltext0
 3747 0020 0600      		.word	0x6
 3748 0022 68        		.byte	0x68
 3749 0023 93        		.byte	0x93
 3750 0024 01        		.uleb128 0x1
 3751 0025 69        		.byte	0x69
 3752 0026 93        		.byte	0x93
 3753 0027 01        		.uleb128 0x1
 3754 0028 0000 0000 		.long	0x0
 3755 002c 0000 0000 		.long	0x0
 3756               	.LLST2:
 3757 0030 2A00 0000 		.long	.LVL4-.Ltext0
 3758 0034 3600 0000 		.long	.LVL5-.Ltext0
GAS LISTING /tmp/ccq5P7XK.s 			page 67


 3759 0038 0100      		.word	0x1
 3760 003a 68        		.byte	0x68
 3761 003b 0000 0000 		.long	0x0
 3762 003f 0000 0000 		.long	0x0
 3763               	.LLST3:
 3764 0043 4000 0000 		.long	.LVL6-.Ltext0
 3765 0047 4200 0000 		.long	.LVL7-.Ltext0
 3766 004b 0500      		.word	0x5
 3767 004d 86        		.byte	0x86
 3768 004e 00        		.sleb128 0
 3769 004f 4F        		.byte	0x4f
 3770 0050 1A        		.byte	0x1a
 3771 0051 9F        		.byte	0x9f
 3772 0052 4200 0000 		.long	.LVL7-.Ltext0
 3773 0056 4400 0000 		.long	.LVL8-.Ltext0
 3774 005a 0100      		.word	0x1
 3775 005c 66        		.byte	0x66
 3776 005d 0000 0000 		.long	0x0
 3777 0061 0000 0000 		.long	0x0
 3778               	.LLST4:
 3779 0065 4C00 0000 		.long	.LVL9-.Ltext0
 3780 0069 5E00 0000 		.long	.LVL11-.Ltext0
 3781 006d 0100      		.word	0x1
 3782 006f 68        		.byte	0x68
 3783 0070 0000 0000 		.long	0x0
 3784 0074 0000 0000 		.long	0x0
 3785               	.LLST5:
 3786 0078 5C00 0000 		.long	.LVL10-.Ltext0
 3787 007c 5E00 0000 		.long	.LVL11-.Ltext0
 3788 0080 0600      		.word	0x6
 3789 0082 88        		.byte	0x88
 3790 0083 00        		.sleb128 0
 3791 0084 89        		.byte	0x89
 3792 0085 00        		.sleb128 0
 3793 0086 1A        		.byte	0x1a
 3794 0087 9F        		.byte	0x9f
 3795 0088 5E00 0000 		.long	.LVL11-.Ltext0
 3796 008c 6000 0000 		.long	.LFE9-.Ltext0
 3797 0090 0100      		.word	0x1
 3798 0092 68        		.byte	0x68
 3799 0093 0000 0000 		.long	0x0
 3800 0097 0000 0000 		.long	0x0
 3801               	.LLST6:
 3802 009b 6000 0000 		.long	.LVL12-.Ltext0
 3803 009f 6600 0000 		.long	.LVL14-.Ltext0
 3804 00a3 0100      		.word	0x1
 3805 00a5 68        		.byte	0x68
 3806 00a6 0000 0000 		.long	0x0
 3807 00aa 0000 0000 		.long	0x0
 3808               	.LLST7:
 3809 00ae 6000 0000 		.long	.LVL12-.Ltext0
 3810 00b2 6200 0000 		.long	.LVL13-.Ltext0
 3811 00b6 0100      		.word	0x1
 3812 00b8 66        		.byte	0x66
 3813 00b9 0000 0000 		.long	0x0
 3814 00bd 0000 0000 		.long	0x0
 3815               	.LLST8:
GAS LISTING /tmp/ccq5P7XK.s 			page 68


 3816 00c1 6000 0000 		.long	.LVL12-.Ltext0
 3817 00c5 6200 0000 		.long	.LVL13-.Ltext0
 3818 00c9 0600      		.word	0x6
 3819 00cb 86        		.byte	0x86
 3820 00cc 00        		.sleb128 0
 3821 00cd 88        		.byte	0x88
 3822 00ce 00        		.sleb128 0
 3823 00cf 21        		.byte	0x21
 3824 00d0 9F        		.byte	0x9f
 3825 00d1 6200 0000 		.long	.LVL13-.Ltext0
 3826 00d5 6900 0000 		.long	.LVL15-1-.Ltext0
 3827 00d9 0100      		.word	0x1
 3828 00db 66        		.byte	0x66
 3829 00dc 0000 0000 		.long	0x0
 3830 00e0 0000 0000 		.long	0x0
 3831               	.LLST9:
 3832 00e4 6C00 0000 		.long	.LVL16-.Ltext0
 3833 00e8 8200 0000 		.long	.LVL20-.Ltext0
 3834 00ec 0100      		.word	0x1
 3835 00ee 68        		.byte	0x68
 3836 00ef 8200 0000 		.long	.LVL20-.Ltext0
 3837 00f3 9000 0000 		.long	.LVL24-.Ltext0
 3838 00f7 0100      		.word	0x1
 3839 00f9 61        		.byte	0x61
 3840 00fa 0000 0000 		.long	0x0
 3841 00fe 0000 0000 		.long	0x0
 3842               	.LLST10:
 3843 0102 7A00 0000 		.long	.LVL17-.Ltext0
 3844 0106 7C00 0000 		.long	.LVL18-.Ltext0
 3845 010a 0900      		.word	0x9
 3846 010c 86        		.byte	0x86
 3847 010d 00        		.sleb128 0
 3848 010e 09        		.byte	0x9
 3849 010f F8        		.byte	0xf8
 3850 0110 1A        		.byte	0x1a
 3851 0111 88        		.byte	0x88
 3852 0112 00        		.sleb128 0
 3853 0113 21        		.byte	0x21
 3854 0114 9F        		.byte	0x9f
 3855 0115 7E00 0000 		.long	.LVL19-.Ltext0
 3856 0119 8500 0000 		.long	.LVL21-1-.Ltext0
 3857 011d 0100      		.word	0x1
 3858 011f 66        		.byte	0x66
 3859 0120 8800 0000 		.long	.LVL22-.Ltext0
 3860 0124 8A00 0000 		.long	.LVL23-.Ltext0
 3861 0128 0600      		.word	0x6
 3862 012a 81        		.byte	0x81
 3863 012b 00        		.sleb128 0
 3864 012c 88        		.byte	0x88
 3865 012d 00        		.sleb128 0
 3866 012e 1A        		.byte	0x1a
 3867 012f 9F        		.byte	0x9f
 3868 0130 8A00 0000 		.long	.LVL23-.Ltext0
 3869 0134 9200 0000 		.long	.LFE11-.Ltext0
 3870 0138 0100      		.word	0x1
 3871 013a 68        		.byte	0x68
 3872 013b 0000 0000 		.long	0x0
GAS LISTING /tmp/ccq5P7XK.s 			page 69


 3873 013f 0000 0000 		.long	0x0
 3874               	.LLST11:
 3875 0143 A200 0000 		.long	.LVL26-.Ltext0
 3876 0147 B200 0000 		.long	.LVL27-.Ltext0
 3877 014b 0100      		.word	0x1
 3878 014d 68        		.byte	0x68
 3879 014e B200 0000 		.long	.LVL27-.Ltext0
 3880 0152 B400 0000 		.long	.LVL28-.Ltext0
 3881 0156 0100      		.word	0x1
 3882 0158 62        		.byte	0x62
 3883 0159 B400 0000 		.long	.LVL28-.Ltext0
 3884 015d C400 0000 		.long	.LVL29-.Ltext0
 3885 0161 0100      		.word	0x1
 3886 0163 68        		.byte	0x68
 3887 0164 CC00 0000 		.long	.LVL30-.Ltext0
 3888 0168 D400 0000 		.long	.LVL31-.Ltext0
 3889 016c 0100      		.word	0x1
 3890 016e 68        		.byte	0x68
 3891 016f 0000 0000 		.long	0x0
 3892 0173 0000 0000 		.long	0x0
 3893               	.LLST12:
 3894 0177 3E01 0000 		.long	.LVL32-.Ltext0
 3895 017b 4401 0000 		.long	.LVL33-.Ltext0
 3896 017f 0600      		.word	0x6
 3897 0181 68        		.byte	0x68
 3898 0182 93        		.byte	0x93
 3899 0183 01        		.uleb128 0x1
 3900 0184 69        		.byte	0x69
 3901 0185 93        		.byte	0x93
 3902 0186 01        		.uleb128 0x1
 3903 0187 0000 0000 		.long	0x0
 3904 018b 0000 0000 		.long	0x0
 3905               	.LLST13:
 3906 018f 4601 0000 		.long	.LVL34-.Ltext0
 3907 0193 5401 0000 		.long	.LVL35-.Ltext0
 3908 0197 0600      		.word	0x6
 3909 0199 9E        		.byte	0x9e
 3910 019a 04        		.uleb128 0x4
 3911 019b 0000 7A44 		.long	0x447a0000
 3912 019f 0000 0000 		.long	0x0
 3913 01a3 0000 0000 		.long	0x0
 3914               	.LLST14:
 3915 01a7 4601 0000 		.long	.LVL34-.Ltext0
 3916 01ab 5401 0000 		.long	.LVL35-.Ltext0
 3917 01af 0600      		.word	0x6
 3918 01b1 9E        		.byte	0x9e
 3919 01b2 04        		.uleb128 0x4
 3920 01b3 0000 FA46 		.long	0x46fa0000
 3921 01b7 0000 0000 		.long	0x0
 3922 01bb 0000 0000 		.long	0x0
 3923               	.LLST15:
 3924 01bf 4601 0000 		.long	.LVL34-.Ltext0
 3925 01c3 5401 0000 		.long	.LVL35-.Ltext0
 3926 01c7 0400      		.word	0x4
 3927 01c9 0A        		.byte	0xa
 3928 01ca 007D      		.word	0x7d00
 3929 01cc 9F        		.byte	0x9f
GAS LISTING /tmp/ccq5P7XK.s 			page 70


 3930 01cd 0000 0000 		.long	0x0
 3931 01d1 0000 0000 		.long	0x0
 3932               	.LLST16:
 3933 01d5 5A01 0000 		.long	.LVL36-.Ltext0
 3934 01d9 6801 0000 		.long	.LVL37-.Ltext0
 3935 01dd 0600      		.word	0x6
 3936 01df 68        		.byte	0x68
 3937 01e0 93        		.byte	0x93
 3938 01e1 01        		.uleb128 0x1
 3939 01e2 69        		.byte	0x69
 3940 01e3 93        		.byte	0x93
 3941 01e4 01        		.uleb128 0x1
 3942 01e5 6801 0000 		.long	.LVL37-.Ltext0
 3943 01e9 D401 0000 		.long	.LFE18-.Ltext0
 3944 01ed 0600      		.word	0x6
 3945 01ef 6E        		.byte	0x6e
 3946 01f0 93        		.byte	0x93
 3947 01f1 01        		.uleb128 0x1
 3948 01f2 6F        		.byte	0x6f
 3949 01f3 93        		.byte	0x93
 3950 01f4 01        		.uleb128 0x1
 3951 01f5 0000 0000 		.long	0x0
 3952 01f9 0000 0000 		.long	0x0
 3953               	.LLST17:
 3954 01fd D401 0000 		.long	.LVL38-.Ltext0
 3955 0201 EE01 0000 		.long	.LVL39-.Ltext0
 3956 0205 0600      		.word	0x6
 3957 0207 68        		.byte	0x68
 3958 0208 93        		.byte	0x93
 3959 0209 01        		.uleb128 0x1
 3960 020a 69        		.byte	0x69
 3961 020b 93        		.byte	0x93
 3962 020c 01        		.uleb128 0x1
 3963 020d 0000 0000 		.long	0x0
 3964 0211 0000 0000 		.long	0x0
 3965               	.LLST18:
 3966 0215 2402 0000 		.long	.LVL40-.Ltext0
 3967 0219 3F02 0000 		.long	.LVL41-1-.Ltext0
 3968 021d 0600      		.word	0x6
 3969 021f 68        		.byte	0x68
 3970 0220 93        		.byte	0x93
 3971 0221 01        		.uleb128 0x1
 3972 0222 69        		.byte	0x69
 3973 0223 93        		.byte	0x93
 3974 0224 01        		.uleb128 0x1
 3975 0225 3F02 0000 		.long	.LVL41-1-.Ltext0
 3976 0229 4E02 0000 		.long	.LVL42-.Ltext0
 3977 022d 0600      		.word	0x6
 3978 022f 6C        		.byte	0x6c
 3979 0230 93        		.byte	0x93
 3980 0231 01        		.uleb128 0x1
 3981 0232 6D        		.byte	0x6d
 3982 0233 93        		.byte	0x93
 3983 0234 01        		.uleb128 0x1
 3984 0235 0000 0000 		.long	0x0
 3985 0239 0000 0000 		.long	0x0
 3986               	.LLST19:
GAS LISTING /tmp/ccq5P7XK.s 			page 71


 3987 023d 5602 0000 		.long	.LVL43-.Ltext0
 3988 0241 B202 0000 		.long	.LVL44-.Ltext0
 3989 0245 0100      		.word	0x1
 3990 0247 68        		.byte	0x68
 3991 0248 B402 0000 		.long	.LVL45-.Ltext0
 3992 024c B602 0000 		.long	.LVL46-.Ltext0
 3993 0250 0100      		.word	0x1
 3994 0252 68        		.byte	0x68
 3995 0253 B802 0000 		.long	.LVL47-.Ltext0
 3996 0257 BA02 0000 		.long	.LVL48-.Ltext0
 3997 025b 0100      		.word	0x1
 3998 025d 68        		.byte	0x68
 3999 025e BC02 0000 		.long	.LVL49-.Ltext0
 4000 0262 BE02 0000 		.long	.LVL50-.Ltext0
 4001 0266 0100      		.word	0x1
 4002 0268 68        		.byte	0x68
 4003 0269 C002 0000 		.long	.LVL51-.Ltext0
 4004 026d C202 0000 		.long	.LVL52-.Ltext0
 4005 0271 0100      		.word	0x1
 4006 0273 68        		.byte	0x68
 4007 0274 C402 0000 		.long	.LVL53-.Ltext0
 4008 0278 C602 0000 		.long	.LVL54-.Ltext0
 4009 027c 0100      		.word	0x1
 4010 027e 68        		.byte	0x68
 4011 027f C802 0000 		.long	.LVL55-.Ltext0
 4012 0283 CA02 0000 		.long	.LVL56-.Ltext0
 4013 0287 0100      		.word	0x1
 4014 0289 68        		.byte	0x68
 4015 028a CC02 0000 		.long	.LVL57-.Ltext0
 4016 028e CE02 0000 		.long	.LVL58-.Ltext0
 4017 0292 0100      		.word	0x1
 4018 0294 68        		.byte	0x68
 4019 0295 D402 0000 		.long	.LVL59-.Ltext0
 4020 0299 FA02 0000 		.long	.LVL60-.Ltext0
 4021 029d 0100      		.word	0x1
 4022 029f 68        		.byte	0x68
 4023 02a0 FC02 0000 		.long	.LVL61-.Ltext0
 4024 02a4 FE02 0000 		.long	.LVL62-.Ltext0
 4025 02a8 0100      		.word	0x1
 4026 02aa 68        		.byte	0x68
 4027 02ab 0003 0000 		.long	.LVL63-.Ltext0
 4028 02af 0203 0000 		.long	.LVL64-.Ltext0
 4029 02b3 0100      		.word	0x1
 4030 02b5 68        		.byte	0x68
 4031 02b6 0403 0000 		.long	.LVL65-.Ltext0
 4032 02ba 0603 0000 		.long	.LVL66-.Ltext0
 4033 02be 0100      		.word	0x1
 4034 02c0 68        		.byte	0x68
 4035 02c1 0C03 0000 		.long	.LVL67-.Ltext0
 4036 02c5 4803 0000 		.long	.LVL68-.Ltext0
 4037 02c9 0100      		.word	0x1
 4038 02cb 68        		.byte	0x68
 4039 02cc 4A03 0000 		.long	.LVL69-.Ltext0
 4040 02d0 4C03 0000 		.long	.LVL70-.Ltext0
 4041 02d4 0100      		.word	0x1
 4042 02d6 68        		.byte	0x68
 4043 02d7 4E03 0000 		.long	.LVL71-.Ltext0
GAS LISTING /tmp/ccq5P7XK.s 			page 72


 4044 02db 5003 0000 		.long	.LVL72-.Ltext0
 4045 02df 0100      		.word	0x1
 4046 02e1 68        		.byte	0x68
 4047 02e2 5203 0000 		.long	.LVL73-.Ltext0
 4048 02e6 5403 0000 		.long	.LVL74-.Ltext0
 4049 02ea 0100      		.word	0x1
 4050 02ec 68        		.byte	0x68
 4051 02ed 5603 0000 		.long	.LVL75-.Ltext0
 4052 02f1 5803 0000 		.long	.LVL76-.Ltext0
 4053 02f5 0100      		.word	0x1
 4054 02f7 68        		.byte	0x68
 4055 02f8 5A03 0000 		.long	.LVL77-.Ltext0
 4056 02fc 5C03 0000 		.long	.LVL78-.Ltext0
 4057 0300 0100      		.word	0x1
 4058 0302 68        		.byte	0x68
 4059 0303 5E03 0000 		.long	.LVL79-.Ltext0
 4060 0307 6003 0000 		.long	.LVL80-.Ltext0
 4061 030b 0100      		.word	0x1
 4062 030d 68        		.byte	0x68
 4063 030e 6203 0000 		.long	.LVL81-.Ltext0
 4064 0312 6403 0000 		.long	.LVL82-.Ltext0
 4065 0316 0100      		.word	0x1
 4066 0318 68        		.byte	0x68
 4067 0319 6A03 0000 		.long	.LVL83-.Ltext0
 4068 031d 8E03 0000 		.long	.LVL84-.Ltext0
 4069 0321 0100      		.word	0x1
 4070 0323 68        		.byte	0x68
 4071 0324 9003 0000 		.long	.LVL85-.Ltext0
 4072 0328 9203 0000 		.long	.LVL86-.Ltext0
 4073 032c 0100      		.word	0x1
 4074 032e 68        		.byte	0x68
 4075 032f 9403 0000 		.long	.LVL87-.Ltext0
 4076 0333 9603 0000 		.long	.LVL88-.Ltext0
 4077 0337 0100      		.word	0x1
 4078 0339 68        		.byte	0x68
 4079 033a 9C03 0000 		.long	.LVL89-.Ltext0
 4080 033e 9E03 0000 		.long	.LVL90-.Ltext0
 4081 0342 0100      		.word	0x1
 4082 0344 68        		.byte	0x68
 4083 0345 0000 0000 		.long	0x0
 4084 0349 0000 0000 		.long	0x0
 4085               	.LLST20:
 4086 034d A403 0000 		.long	.LVL91-.Ltext0
 4087 0351 0004 0000 		.long	.LVL92-.Ltext0
 4088 0355 0100      		.word	0x1
 4089 0357 68        		.byte	0x68
 4090 0358 0204 0000 		.long	.LVL93-.Ltext0
 4091 035c 0404 0000 		.long	.LVL94-.Ltext0
 4092 0360 0100      		.word	0x1
 4093 0362 68        		.byte	0x68
 4094 0363 0604 0000 		.long	.LVL95-.Ltext0
 4095 0367 0804 0000 		.long	.LVL96-.Ltext0
 4096 036b 0100      		.word	0x1
 4097 036d 68        		.byte	0x68
 4098 036e 0A04 0000 		.long	.LVL97-.Ltext0
 4099 0372 0C04 0000 		.long	.LVL98-.Ltext0
 4100 0376 0100      		.word	0x1
GAS LISTING /tmp/ccq5P7XK.s 			page 73


 4101 0378 68        		.byte	0x68
 4102 0379 0E04 0000 		.long	.LVL99-.Ltext0
 4103 037d 1004 0000 		.long	.LVL100-.Ltext0
 4104 0381 0100      		.word	0x1
 4105 0383 68        		.byte	0x68
 4106 0384 1204 0000 		.long	.LVL101-.Ltext0
 4107 0388 1404 0000 		.long	.LVL102-.Ltext0
 4108 038c 0100      		.word	0x1
 4109 038e 68        		.byte	0x68
 4110 038f 1604 0000 		.long	.LVL103-.Ltext0
 4111 0393 1804 0000 		.long	.LVL104-.Ltext0
 4112 0397 0100      		.word	0x1
 4113 0399 68        		.byte	0x68
 4114 039a 1A04 0000 		.long	.LVL105-.Ltext0
 4115 039e 1C04 0000 		.long	.LVL106-.Ltext0
 4116 03a2 0100      		.word	0x1
 4117 03a4 68        		.byte	0x68
 4118 03a5 2204 0000 		.long	.LVL107-.Ltext0
 4119 03a9 4804 0000 		.long	.LVL108-.Ltext0
 4120 03ad 0100      		.word	0x1
 4121 03af 68        		.byte	0x68
 4122 03b0 4A04 0000 		.long	.LVL109-.Ltext0
 4123 03b4 4C04 0000 		.long	.LVL110-.Ltext0
 4124 03b8 0100      		.word	0x1
 4125 03ba 68        		.byte	0x68
 4126 03bb 4E04 0000 		.long	.LVL111-.Ltext0
 4127 03bf 5004 0000 		.long	.LVL112-.Ltext0
 4128 03c3 0100      		.word	0x1
 4129 03c5 68        		.byte	0x68
 4130 03c6 5204 0000 		.long	.LVL113-.Ltext0
 4131 03ca 5404 0000 		.long	.LVL114-.Ltext0
 4132 03ce 0100      		.word	0x1
 4133 03d0 68        		.byte	0x68
 4134 03d1 5A04 0000 		.long	.LVL115-.Ltext0
 4135 03d5 9604 0000 		.long	.LVL116-.Ltext0
 4136 03d9 0100      		.word	0x1
 4137 03db 68        		.byte	0x68
 4138 03dc 9804 0000 		.long	.LVL117-.Ltext0
 4139 03e0 9A04 0000 		.long	.LVL118-.Ltext0
 4140 03e4 0100      		.word	0x1
 4141 03e6 68        		.byte	0x68
 4142 03e7 9C04 0000 		.long	.LVL119-.Ltext0
 4143 03eb 9E04 0000 		.long	.LVL120-.Ltext0
 4144 03ef 0100      		.word	0x1
 4145 03f1 68        		.byte	0x68
 4146 03f2 A004 0000 		.long	.LVL121-.Ltext0
 4147 03f6 A204 0000 		.long	.LVL122-.Ltext0
 4148 03fa 0100      		.word	0x1
 4149 03fc 68        		.byte	0x68
 4150 03fd A404 0000 		.long	.LVL123-.Ltext0
 4151 0401 A604 0000 		.long	.LVL124-.Ltext0
 4152 0405 0100      		.word	0x1
 4153 0407 68        		.byte	0x68
 4154 0408 A804 0000 		.long	.LVL125-.Ltext0
 4155 040c AA04 0000 		.long	.LVL126-.Ltext0
 4156 0410 0100      		.word	0x1
 4157 0412 68        		.byte	0x68
GAS LISTING /tmp/ccq5P7XK.s 			page 74


 4158 0413 AC04 0000 		.long	.LVL127-.Ltext0
 4159 0417 AE04 0000 		.long	.LVL128-.Ltext0
 4160 041b 0100      		.word	0x1
 4161 041d 68        		.byte	0x68
 4162 041e B004 0000 		.long	.LVL129-.Ltext0
 4163 0422 B204 0000 		.long	.LVL130-.Ltext0
 4164 0426 0100      		.word	0x1
 4165 0428 68        		.byte	0x68
 4166 0429 B804 0000 		.long	.LVL131-.Ltext0
 4167 042d DC04 0000 		.long	.LVL132-.Ltext0
 4168 0431 0100      		.word	0x1
 4169 0433 68        		.byte	0x68
 4170 0434 DE04 0000 		.long	.LVL133-.Ltext0
 4171 0438 E004 0000 		.long	.LVL134-.Ltext0
 4172 043c 0100      		.word	0x1
 4173 043e 68        		.byte	0x68
 4174 043f E204 0000 		.long	.LVL135-.Ltext0
 4175 0443 E404 0000 		.long	.LVL136-.Ltext0
 4176 0447 0100      		.word	0x1
 4177 0449 68        		.byte	0x68
 4178 044a EA04 0000 		.long	.LVL137-.Ltext0
 4179 044e EC04 0000 		.long	.LVL138-.Ltext0
 4180 0452 0100      		.word	0x1
 4181 0454 68        		.byte	0x68
 4182 0455 0000 0000 		.long	0x0
 4183 0459 0000 0000 		.long	0x0
 4184               	.LLST21:
 4185 045d 5806 0000 		.long	.LVL141-.Ltext0
 4186 0461 7A06 0000 		.long	.LVL144-.Ltext0
 4187 0465 0600      		.word	0x6
 4188 0467 68        		.byte	0x68
 4189 0468 93        		.byte	0x93
 4190 0469 01        		.uleb128 0x1
 4191 046a 69        		.byte	0x69
 4192 046b 93        		.byte	0x93
 4193 046c 01        		.uleb128 0x1
 4194 046d 7A06 0000 		.long	.LVL144-.Ltext0
 4195 0471 6208 0000 		.long	.LVL151-.Ltext0
 4196 0475 0600      		.word	0x6
 4197 0477 6C        		.byte	0x6c
 4198 0478 93        		.byte	0x93
 4199 0479 01        		.uleb128 0x1
 4200 047a 6D        		.byte	0x6d
 4201 047b 93        		.byte	0x93
 4202 047c 01        		.uleb128 0x1
 4203 047d 0000 0000 		.long	0x0
 4204 0481 0000 0000 		.long	0x0
 4205               	.LLST22:
 4206 0485 5806 0000 		.long	.LVL141-.Ltext0
 4207 0489 7606 0000 		.long	.LVL143-.Ltext0
 4208 048d 0600      		.word	0x6
 4209 048f 66        		.byte	0x66
 4210 0490 93        		.byte	0x93
 4211 0491 01        		.uleb128 0x1
 4212 0492 67        		.byte	0x67
 4213 0493 93        		.byte	0x93
 4214 0494 01        		.uleb128 0x1
GAS LISTING /tmp/ccq5P7XK.s 			page 75


 4215 0495 7606 0000 		.long	.LVL143-.Ltext0
 4216 0499 8606 0000 		.long	.LVL146-.Ltext0
 4217 049d 0600      		.word	0x6
 4218 049f 60        		.byte	0x60
 4219 04a0 93        		.byte	0x93
 4220 04a1 01        		.uleb128 0x1
 4221 04a2 61        		.byte	0x61
 4222 04a3 93        		.byte	0x93
 4223 04a4 01        		.uleb128 0x1
 4224 04a5 8606 0000 		.long	.LVL146-.Ltext0
 4225 04a9 8C06 0000 		.long	.LVL147-.Ltext0
 4226 04ad 0600      		.word	0x6
 4227 04af 66        		.byte	0x66
 4228 04b0 93        		.byte	0x93
 4229 04b1 01        		.uleb128 0x1
 4230 04b2 67        		.byte	0x67
 4231 04b3 93        		.byte	0x93
 4232 04b4 01        		.uleb128 0x1
 4233 04b5 4008 0000 		.long	.LVL149-.Ltext0
 4234 04b9 4608 0000 		.long	.LVL150-.Ltext0
 4235 04bd 0600      		.word	0x6
 4236 04bf 66        		.byte	0x66
 4237 04c0 93        		.byte	0x93
 4238 04c1 01        		.uleb128 0x1
 4239 04c2 67        		.byte	0x67
 4240 04c3 93        		.byte	0x93
 4241 04c4 01        		.uleb128 0x1
 4242 04c5 0000 0000 		.long	0x0
 4243 04c9 0000 0000 		.long	0x0
 4244               	.LLST23:
 4245 04cd 7006 0000 		.long	.LVL142-.Ltext0
 4246 04d1 7606 0000 		.long	.LVL143-.Ltext0
 4247 04d5 0200      		.word	0x2
 4248 04d7 30        		.byte	0x30
 4249 04d8 9F        		.byte	0x9f
 4250 04d9 7606 0000 		.long	.LVL143-.Ltext0
 4251 04dd 8006 0000 		.long	.LVL145-.Ltext0
 4252 04e1 0600      		.word	0x6
 4253 04e3 60        		.byte	0x60
 4254 04e4 93        		.byte	0x93
 4255 04e5 01        		.uleb128 0x1
 4256 04e6 61        		.byte	0x61
 4257 04e7 93        		.byte	0x93
 4258 04e8 01        		.uleb128 0x1
 4259 04e9 8006 0000 		.long	.LVL145-.Ltext0
 4260 04ed 8606 0000 		.long	.LVL146-.Ltext0
 4261 04f1 0200      		.word	0x2
 4262 04f3 30        		.byte	0x30
 4263 04f4 9F        		.byte	0x9f
 4264 04f5 8606 0000 		.long	.LVL146-.Ltext0
 4265 04f9 3407 0000 		.long	.LVL148-.Ltext0
 4266 04fd 0600      		.word	0x6
 4267 04ff 60        		.byte	0x60
 4268 0500 93        		.byte	0x93
 4269 0501 01        		.uleb128 0x1
 4270 0502 61        		.byte	0x61
 4271 0503 93        		.byte	0x93
GAS LISTING /tmp/ccq5P7XK.s 			page 76


 4272 0504 01        		.uleb128 0x1
 4273 0505 3407 0000 		.long	.LVL148-.Ltext0
 4274 0509 6608 0000 		.long	.LVL152-.Ltext0
 4275 050d 0600      		.word	0x6
 4276 050f 60        		.byte	0x60
 4277 0510 93        		.byte	0x93
 4278 0511 01        		.uleb128 0x1
 4279 0512 61        		.byte	0x61
 4280 0513 93        		.byte	0x93
 4281 0514 01        		.uleb128 0x1
 4282 0515 0000 0000 		.long	0x0
 4283 0519 0000 0000 		.long	0x0
 4284               	.LLST24:
 4285 051d 7408 0000 		.long	.LVL153-.Ltext0
 4286 0521 8C08 0000 		.long	.LVL154-.Ltext0
 4287 0525 0600      		.word	0x6
 4288 0527 68        		.byte	0x68
 4289 0528 93        		.byte	0x93
 4290 0529 01        		.uleb128 0x1
 4291 052a 69        		.byte	0x69
 4292 052b 93        		.byte	0x93
 4293 052c 01        		.uleb128 0x1
 4294 052d 8C08 0000 		.long	.LVL154-.Ltext0
 4295 0531 C609 0000 		.long	.LVL157-.Ltext0
 4296 0535 0600      		.word	0x6
 4297 0537 6C        		.byte	0x6c
 4298 0538 93        		.byte	0x93
 4299 0539 01        		.uleb128 0x1
 4300 053a 6D        		.byte	0x6d
 4301 053b 93        		.byte	0x93
 4302 053c 01        		.uleb128 0x1
 4303 053d C609 0000 		.long	.LVL157-.Ltext0
 4304 0541 CC09 0000 		.long	.LVL158-.Ltext0
 4305 0545 0400      		.word	0x4
 4306 0547 92        		.byte	0x92
 4307 0548 20        		.uleb128 0x20
 4308 0549 2A        		.sleb128 42
 4309 054a 9F        		.byte	0x9f
 4310 054b CC09 0000 		.long	.LVL158-.Ltext0
 4311 054f FE09 0000 		.long	.LVL159-.Ltext0
 4312 0553 0300      		.word	0x3
 4313 0555 80        		.byte	0x80
 4314 0556 03        		.sleb128 3
 4315 0557 9F        		.byte	0x9f
 4316 0558 0000 0000 		.long	0x0
 4317 055c 0000 0000 		.long	0x0
 4318               	.LLST25:
 4319 0560 7408 0000 		.long	.LVL153-.Ltext0
 4320 0564 9A08 0000 		.long	.LVL155-.Ltext0
 4321 0568 0600      		.word	0x6
 4322 056a 66        		.byte	0x66
 4323 056b 93        		.byte	0x93
 4324 056c 01        		.uleb128 0x1
 4325 056d 67        		.byte	0x67
 4326 056e 93        		.byte	0x93
 4327 056f 01        		.uleb128 0x1
 4328 0570 9A08 0000 		.long	.LVL155-.Ltext0
GAS LISTING /tmp/ccq5P7XK.s 			page 77


 4329 0574 2909 0000 		.long	.LVL156-1-.Ltext0
 4330 0578 0200      		.word	0x2
 4331 057a 8C        		.byte	0x8c
 4332 057b 02        		.sleb128 2
 4333 057c 0000 0000 		.long	0x0
 4334 0580 0000 0000 		.long	0x0
 4335               	.LLST26:
 4336 0584 000A 0000 		.long	.LVL160-.Ltext0
 4337 0588 3C0A 0000 		.long	.LVL161-.Ltext0
 4338 058c 0600      		.word	0x6
 4339 058e 60        		.byte	0x60
 4340 058f 93        		.byte	0x93
 4341 0590 01        		.uleb128 0x1
 4342 0591 61        		.byte	0x61
 4343 0592 93        		.byte	0x93
 4344 0593 01        		.uleb128 0x1
 4345 0594 3C0A 0000 		.long	.LVL161-.Ltext0
 4346 0598 420A 0000 		.long	.LFE29-.Ltext0
 4347 059c 0500      		.word	0x5
 4348 059e 03        		.byte	0x3
 4349 059f 0000 0000 		.long	goal+8
 4350 05a3 0000 0000 		.long	0x0
 4351 05a7 0000 0000 		.long	0x0
 4352               	.LLST27:
 4353 05ab 000A 0000 		.long	.LVL160-.Ltext0
 4354 05af 400A 0000 		.long	.LVL162-.Ltext0
 4355 05b3 0600      		.word	0x6
 4356 05b5 5E        		.byte	0x5e
 4357 05b6 93        		.byte	0x93
 4358 05b7 01        		.uleb128 0x1
 4359 05b8 5F        		.byte	0x5f
 4360 05b9 93        		.byte	0x93
 4361 05ba 01        		.uleb128 0x1
 4362 05bb 400A 0000 		.long	.LVL162-.Ltext0
 4363 05bf 420A 0000 		.long	.LFE29-.Ltext0
 4364 05c3 0500      		.word	0x5
 4365 05c5 03        		.byte	0x3
 4366 05c6 0000 0000 		.long	goal+10
 4367 05ca 0000 0000 		.long	0x0
 4368 05ce 0000 0000 		.long	0x0
 4369               	.LLST28:
 4370 05d2 100B 0000 		.long	.LVL163-.Ltext0
 4371 05d6 1C0B 0000 		.long	.LVL164-.Ltext0
 4372 05da 0600      		.word	0x6
 4373 05dc 60        		.byte	0x60
 4374 05dd 93        		.byte	0x93
 4375 05de 01        		.uleb128 0x1
 4376 05df 61        		.byte	0x61
 4377 05e0 93        		.byte	0x93
 4378 05e1 01        		.uleb128 0x1
 4379 05e2 1C0B 0000 		.long	.LVL164-.Ltext0
 4380 05e6 380B 0000 		.long	.LVL165-.Ltext0
 4381 05ea 0600      		.word	0x6
 4382 05ec 66        		.byte	0x66
 4383 05ed 93        		.byte	0x93
 4384 05ee 01        		.uleb128 0x1
 4385 05ef 67        		.byte	0x67
GAS LISTING /tmp/ccq5P7XK.s 			page 78


 4386 05f0 93        		.byte	0x93
 4387 05f1 01        		.uleb128 0x1
 4388 05f2 380B 0000 		.long	.LVL165-.Ltext0
 4389 05f6 400B 0000 		.long	.LVL166-.Ltext0
 4390 05fa 0600      		.word	0x6
 4391 05fc 62        		.byte	0x62
 4392 05fd 93        		.byte	0x93
 4393 05fe 01        		.uleb128 0x1
 4394 05ff 63        		.byte	0x63
 4395 0600 93        		.byte	0x93
 4396 0601 01        		.uleb128 0x1
 4397 0602 400B 0000 		.long	.LVL166-.Ltext0
 4398 0606 4A0B 0000 		.long	.LVL167-.Ltext0
 4399 060a 0600      		.word	0x6
 4400 060c 66        		.byte	0x66
 4401 060d 93        		.byte	0x93
 4402 060e 01        		.uleb128 0x1
 4403 060f 67        		.byte	0x67
 4404 0610 93        		.byte	0x93
 4405 0611 01        		.uleb128 0x1
 4406 0612 4C0B 0000 		.long	.LVL168-.Ltext0
 4407 0616 5D0B 0000 		.long	.LVL169-1-.Ltext0
 4408 061a 0600      		.word	0x6
 4409 061c 66        		.byte	0x66
 4410 061d 93        		.byte	0x93
 4411 061e 01        		.uleb128 0x1
 4412 061f 67        		.byte	0x67
 4413 0620 93        		.byte	0x93
 4414 0621 01        		.uleb128 0x1
 4415 0622 0000 0000 		.long	0x0
 4416 0626 0000 0000 		.long	0x0
 4417               	.LLST29:
 4418 062a 100B 0000 		.long	.LVL163-.Ltext0
 4419 062e 1C0B 0000 		.long	.LVL164-.Ltext0
 4420 0632 0200      		.word	0x2
 4421 0634 31        		.byte	0x31
 4422 0635 9F        		.byte	0x9f
 4423 0636 0000 0000 		.long	0x0
 4424 063a 0000 0000 		.long	0x0
 4425               	.LLST30:
 4426 063e 780E 0000 		.long	.LVL176-.Ltext0
 4427 0642 970E 0000 		.long	.LVL177-1-.Ltext0
 4428 0646 0200      		.word	0x2
 4429 0648 8C        		.byte	0x8c
 4430 0649 01        		.sleb128 1
 4431 064a 0000 0000 		.long	0x0
 4432 064e 0000 0000 		.long	0x0
 4433               	.LLST31:
 4434 0652 FE0E 0000 		.long	.LVL178-.Ltext0
 4435 0656 1D0F 0000 		.long	.LVL179-1-.Ltext0
 4436 065a 0200      		.word	0x2
 4437 065c 8C        		.byte	0x8c
 4438 065d 03        		.sleb128 3
 4439 065e 0000 0000 		.long	0x0
 4440 0662 0000 0000 		.long	0x0
 4441               	.LLST32:
 4442 0666 840F 0000 		.long	.LVL180-.Ltext0
GAS LISTING /tmp/ccq5P7XK.s 			page 79


 4443 066a A30F 0000 		.long	.LVL181-1-.Ltext0
 4444 066e 0200      		.word	0x2
 4445 0670 8C        		.byte	0x8c
 4446 0671 05        		.sleb128 5
 4447 0672 0000 0000 		.long	0x0
 4448 0676 0000 0000 		.long	0x0
 4449               	.LLST33:
 4450 067a 0A10 0000 		.long	.LVL182-.Ltext0
 4451 067e 2910 0000 		.long	.LVL183-1-.Ltext0
 4452 0682 0200      		.word	0x2
 4453 0684 8C        		.byte	0x8c
 4454 0685 07        		.sleb128 7
 4455 0686 0000 0000 		.long	0x0
 4456 068a 0000 0000 		.long	0x0
 4457               	.LLST34:
 4458 068e 9010 0000 		.long	.LVL184-.Ltext0
 4459 0692 AF10 0000 		.long	.LVL185-1-.Ltext0
 4460 0696 0200      		.word	0x2
 4461 0698 8C        		.byte	0x8c
 4462 0699 09        		.sleb128 9
 4463 069a 0000 0000 		.long	0x0
 4464 069e 0000 0000 		.long	0x0
 4465               	.LLST35:
 4466 06a2 1611 0000 		.long	.LVL186-.Ltext0
 4467 06a6 3511 0000 		.long	.LVL187-1-.Ltext0
 4468 06aa 0200      		.word	0x2
 4469 06ac 8C        		.byte	0x8c
 4470 06ad 0B        		.sleb128 11
 4471 06ae 0000 0000 		.long	0x0
 4472 06b2 0000 0000 		.long	0x0
 4473               	.LLST36:
 4474 06b6 A611 0000 		.long	.LVL188-.Ltext0
 4475 06ba B811 0000 		.long	.LVL189-.Ltext0
 4476 06be 0200      		.word	0x2
 4477 06c0 30        		.byte	0x30
 4478 06c1 9F        		.byte	0x9f
 4479 06c2 0000 0000 		.long	0x0
 4480 06c6 0000 0000 		.long	0x0
 4481               	.LLST37:
 4482 06ca A611 0000 		.long	.LVL188-.Ltext0
 4483 06ce B811 0000 		.long	.LVL189-.Ltext0
 4484 06d2 0400      		.word	0x4
 4485 06d4 0B        		.byte	0xb
 4486 06d5 70FE      		.word	0xfe70
 4487 06d7 9F        		.byte	0x9f
 4488 06d8 0000 0000 		.long	0x0
 4489 06dc 0000 0000 		.long	0x0
 4490               	.LLST38:
 4491 06e0 A611 0000 		.long	.LVL188-.Ltext0
 4492 06e4 B811 0000 		.long	.LVL189-.Ltext0
 4493 06e8 0400      		.word	0x4
 4494 06ea 0B        		.byte	0xb
 4495 06eb 70FE      		.word	0xfe70
 4496 06ed 9F        		.byte	0x9f
 4497 06ee 0000 0000 		.long	0x0
 4498 06f2 0000 0000 		.long	0x0
 4499               	.LLST39:
GAS LISTING /tmp/ccq5P7XK.s 			page 80


 4500 06f6 A611 0000 		.long	.LVL188-.Ltext0
 4501 06fa B811 0000 		.long	.LVL189-.Ltext0
 4502 06fe 0400      		.word	0x4
 4503 0700 0B        		.byte	0xb
 4504 0701 70FE      		.word	0xfe70
 4505 0703 9F        		.byte	0x9f
 4506 0704 0000 0000 		.long	0x0
 4507 0708 0000 0000 		.long	0x0
 4508               	.LLST40:
 4509 070c A611 0000 		.long	.LVL188-.Ltext0
 4510 0710 B811 0000 		.long	.LVL189-.Ltext0
 4511 0714 0400      		.word	0x4
 4512 0716 0B        		.byte	0xb
 4513 0717 70FE      		.word	0xfe70
 4514 0719 9F        		.byte	0x9f
 4515 071a 0000 0000 		.long	0x0
 4516 071e 0000 0000 		.long	0x0
 4517               	.LLST41:
 4518 0722 A611 0000 		.long	.LVL188-.Ltext0
 4519 0726 B811 0000 		.long	.LVL189-.Ltext0
 4520 072a 0400      		.word	0x4
 4521 072c 0B        		.byte	0xb
 4522 072d 5CF9      		.word	0xf95c
 4523 072f 9F        		.byte	0x9f
 4524 0730 0000 0000 		.long	0x0
 4525 0734 0000 0000 		.long	0x0
 4526               	.LLST42:
 4527 0738 BE11 0000 		.long	.LVL190-.Ltext0
 4528 073c CE11 0000 		.long	.LVL191-.Ltext0
 4529 0740 0200      		.word	0x2
 4530 0742 30        		.byte	0x30
 4531 0743 9F        		.byte	0x9f
 4532 0744 0000 0000 		.long	0x0
 4533 0748 0000 0000 		.long	0x0
 4534               	.LLST43:
 4535 074c BE11 0000 		.long	.LVL190-.Ltext0
 4536 0750 CE11 0000 		.long	.LVL191-.Ltext0
 4537 0754 0400      		.word	0x4
 4538 0756 0B        		.byte	0xb
 4539 0757 38FF      		.word	0xff38
 4540 0759 9F        		.byte	0x9f
 4541 075a 0000 0000 		.long	0x0
 4542 075e 0000 0000 		.long	0x0
 4543               	.LLST44:
 4544 0762 BE11 0000 		.long	.LVL190-.Ltext0
 4545 0766 CE11 0000 		.long	.LVL191-.Ltext0
 4546 076a 0400      		.word	0x4
 4547 076c 0B        		.byte	0xb
 4548 076d 38FF      		.word	0xff38
 4549 076f 9F        		.byte	0x9f
 4550 0770 0000 0000 		.long	0x0
 4551 0774 0000 0000 		.long	0x0
 4552               	.LLST45:
 4553 0778 BE11 0000 		.long	.LVL190-.Ltext0
 4554 077c CE11 0000 		.long	.LVL191-.Ltext0
 4555 0780 0400      		.word	0x4
 4556 0782 0B        		.byte	0xb
GAS LISTING /tmp/ccq5P7XK.s 			page 81


 4557 0783 38FF      		.word	0xff38
 4558 0785 9F        		.byte	0x9f
 4559 0786 0000 0000 		.long	0x0
 4560 078a 0000 0000 		.long	0x0
 4561               	.LLST46:
 4562 078e BE11 0000 		.long	.LVL190-.Ltext0
 4563 0792 CE11 0000 		.long	.LVL191-.Ltext0
 4564 0796 0400      		.word	0x4
 4565 0798 0B        		.byte	0xb
 4566 0799 38FF      		.word	0xff38
 4567 079b 9F        		.byte	0x9f
 4568 079c 0000 0000 		.long	0x0
 4569 07a0 0000 0000 		.long	0x0
 4570               	.LLST47:
 4571 07a4 BE11 0000 		.long	.LVL190-.Ltext0
 4572 07a8 CE11 0000 		.long	.LVL191-.Ltext0
 4573 07ac 0400      		.word	0x4
 4574 07ae 0B        		.byte	0xb
 4575 07af AEFC      		.word	0xfcae
 4576 07b1 9F        		.byte	0x9f
 4577 07b2 0000 0000 		.long	0x0
 4578 07b6 0000 0000 		.long	0x0
 4579               	.LLST48:
 4580 07ba FE11 0000 		.long	.LVL192-.Ltext0
 4581 07be 2E12 0000 		.long	.LVL193-.Ltext0
 4582 07c2 0200      		.word	0x2
 4583 07c4 30        		.byte	0x30
 4584 07c5 9F        		.byte	0x9f
 4585 07c6 0000 0000 		.long	0x0
 4586 07ca 0000 0000 		.long	0x0
 4587               	.LLST49:
 4588 07ce FE11 0000 		.long	.LVL192-.Ltext0
 4589 07d2 2E12 0000 		.long	.LVL193-.Ltext0
 4590 07d6 0200      		.word	0x2
 4591 07d8 30        		.byte	0x30
 4592 07d9 9F        		.byte	0x9f
 4593 07da 0000 0000 		.long	0x0
 4594 07de 0000 0000 		.long	0x0
 4595               	.LLST50:
 4596 07e2 FE11 0000 		.long	.LVL192-.Ltext0
 4597 07e6 2E12 0000 		.long	.LVL193-.Ltext0
 4598 07ea 0200      		.word	0x2
 4599 07ec 30        		.byte	0x30
 4600 07ed 9F        		.byte	0x9f
 4601 07ee 0000 0000 		.long	0x0
 4602 07f2 0000 0000 		.long	0x0
 4603               	.LLST51:
 4604 07f6 FE11 0000 		.long	.LVL192-.Ltext0
 4605 07fa 2E12 0000 		.long	.LVL193-.Ltext0
 4606 07fe 0200      		.word	0x2
 4607 0800 30        		.byte	0x30
 4608 0801 9F        		.byte	0x9f
 4609 0802 0000 0000 		.long	0x0
 4610 0806 0000 0000 		.long	0x0
 4611               	.LLST52:
 4612 080a FE11 0000 		.long	.LVL192-.Ltext0
 4613 080e 2E12 0000 		.long	.LVL193-.Ltext0
GAS LISTING /tmp/ccq5P7XK.s 			page 82


 4614 0812 0200      		.word	0x2
 4615 0814 30        		.byte	0x30
 4616 0815 9F        		.byte	0x9f
 4617 0816 0000 0000 		.long	0x0
 4618 081a 0000 0000 		.long	0x0
 4619               	.LLST53:
 4620 081e FE11 0000 		.long	.LVL192-.Ltext0
 4621 0822 2E12 0000 		.long	.LVL193-.Ltext0
 4622 0826 0200      		.word	0x2
 4623 0828 30        		.byte	0x30
 4624 0829 9F        		.byte	0x9f
 4625 082a 0000 0000 		.long	0x0
 4626 082e 0000 0000 		.long	0x0
 4627               		.section	.debug_info
 4628 0000 6418 0000 		.long	0x1864
 4629 0004 0200      		.word	0x2
 4630 0006 0000 0000 		.long	.Ldebug_abbrev0
 4631 000a 04        		.byte	0x4
 4632 000b 01        		.uleb128 0x1
 4633 000c 0000 0000 		.long	.LASF306
 4634 0010 01        		.byte	0x1
 4635 0011 0000 0000 		.long	.LASF307
 4636 0015 0000 0000 		.long	.LASF308
 4637 0019 0000 0000 		.long	.Ltext0
 4638 001d 0000 0000 		.long	.Letext0
 4639 0021 0000 0000 		.long	.Ldebug_line0
 4640 0025 02        		.uleb128 0x2
 4641 0026 01        		.byte	0x1
 4642 0027 06        		.byte	0x6
 4643 0028 0000 0000 		.long	.LASF0
 4644 002c 03        		.uleb128 0x3
 4645 002d 0000 0000 		.long	.LASF4
 4646 0031 04        		.byte	0x4
 4647 0032 7A        		.byte	0x7a
 4648 0033 3700 0000 		.long	0x37
 4649 0037 02        		.uleb128 0x2
 4650 0038 01        		.byte	0x1
 4651 0039 08        		.byte	0x8
 4652 003a 0000 0000 		.long	.LASF1
 4653 003e 04        		.uleb128 0x4
 4654 003f 02        		.byte	0x2
 4655 0040 05        		.byte	0x5
 4656 0041 696E 7400 		.string	"int"
 4657 0045 02        		.uleb128 0x2
 4658 0046 02        		.byte	0x2
 4659 0047 07        		.byte	0x7
 4660 0048 0000 0000 		.long	.LASF2
 4661 004c 02        		.uleb128 0x2
 4662 004d 04        		.byte	0x4
 4663 004e 05        		.byte	0x5
 4664 004f 0000 0000 		.long	.LASF3
 4665 0053 03        		.uleb128 0x3
 4666 0054 0000 0000 		.long	.LASF5
 4667 0058 04        		.byte	0x4
 4668 0059 7E        		.byte	0x7e
 4669 005a 5E00 0000 		.long	0x5e
 4670 005e 02        		.uleb128 0x2
GAS LISTING /tmp/ccq5P7XK.s 			page 83


 4671 005f 04        		.byte	0x4
 4672 0060 07        		.byte	0x7
 4673 0061 0000 0000 		.long	.LASF6
 4674 0065 02        		.uleb128 0x2
 4675 0066 08        		.byte	0x8
 4676 0067 05        		.byte	0x5
 4677 0068 0000 0000 		.long	.LASF7
 4678 006c 02        		.uleb128 0x2
 4679 006d 08        		.byte	0x8
 4680 006e 07        		.byte	0x7
 4681 006f 0000 0000 		.long	.LASF8
 4682 0073 05        		.uleb128 0x5
 4683 0074 2C00 0000 		.long	0x2c
 4684 0078 05        		.uleb128 0x5
 4685 0079 3700 0000 		.long	0x37
 4686 007d 06        		.uleb128 0x6
 4687 007e 0000 0000 		.long	.LASF16
 4688 0082 01        		.byte	0x1
 4689 0083 05        		.byte	0x5
 4690 0084 A2        		.byte	0xa2
 4691 0085 9800 0000 		.long	0x98
 4692 0089 07        		.uleb128 0x7
 4693 008a 0000 0000 		.long	.LASF9
 4694 008e 9D01      		.sleb128 157
 4695 0090 07        		.uleb128 0x7
 4696 0091 0000 0000 		.long	.LASF10
 4697 0095 D801      		.sleb128 216
 4698 0097 00        		.byte	0x0
 4699 0098 08        		.uleb128 0x8
 4700 0099 0000 0000 		.long	.LASF48
 4701 009d 04        		.byte	0x4
 4702 009e 05        		.byte	0x5
 4703 009f B0        		.byte	0xb0
 4704 00a0 DD00 0000 		.long	0xdd
 4705 00a4 09        		.uleb128 0x9
 4706 00a5 0000 0000 		.long	.LASF11
 4707 00a9 05        		.byte	0x5
 4708 00aa B2        		.byte	0xb2
 4709 00ab 7800 0000 		.long	0x78
 4710 00af 02        		.byte	0x2
 4711 00b0 23        		.byte	0x23
 4712 00b1 00        		.uleb128 0x0
 4713 00b2 09        		.uleb128 0x9
 4714 00b3 0000 0000 		.long	.LASF12
 4715 00b7 05        		.byte	0x5
 4716 00b8 B3        		.byte	0xb3
 4717 00b9 7800 0000 		.long	0x78
 4718 00bd 02        		.byte	0x2
 4719 00be 23        		.byte	0x23
 4720 00bf 01        		.uleb128 0x1
 4721 00c0 09        		.uleb128 0x9
 4722 00c1 0000 0000 		.long	.LASF13
 4723 00c5 05        		.byte	0x5
 4724 00c6 B4        		.byte	0xb4
 4725 00c7 7800 0000 		.long	0x78
 4726 00cb 02        		.byte	0x2
 4727 00cc 23        		.byte	0x23
GAS LISTING /tmp/ccq5P7XK.s 			page 84


 4728 00cd 02        		.uleb128 0x2
 4729 00ce 09        		.uleb128 0x9
 4730 00cf 0000 0000 		.long	.LASF14
 4731 00d3 05        		.byte	0x5
 4732 00d4 B5        		.byte	0xb5
 4733 00d5 7800 0000 		.long	0x78
 4734 00d9 02        		.byte	0x2
 4735 00da 23        		.byte	0x23
 4736 00db 03        		.uleb128 0x3
 4737 00dc 00        		.byte	0x0
 4738 00dd 03        		.uleb128 0x3
 4739 00de 0000 0000 		.long	.LASF15
 4740 00e2 05        		.byte	0x5
 4741 00e3 B6        		.byte	0xb6
 4742 00e4 9800 0000 		.long	0x98
 4743 00e8 06        		.uleb128 0x6
 4744 00e9 0000 0000 		.long	.LASF17
 4745 00ed 01        		.byte	0x1
 4746 00ee 05        		.byte	0x5
 4747 00ef CB        		.byte	0xcb
 4748 00f0 1301 0000 		.long	0x113
 4749 00f4 07        		.uleb128 0x7
 4750 00f5 0000 0000 		.long	.LASF18
 4751 00f9 00        		.sleb128 0
 4752 00fa 07        		.uleb128 0x7
 4753 00fb 0000 0000 		.long	.LASF19
 4754 00ff 01        		.sleb128 1
 4755 0100 07        		.uleb128 0x7
 4756 0101 0000 0000 		.long	.LASF20
 4757 0105 02        		.sleb128 2
 4758 0106 07        		.uleb128 0x7
 4759 0107 0000 0000 		.long	.LASF21
 4760 010b 03        		.sleb128 3
 4761 010c 07        		.uleb128 0x7
 4762 010d 0000 0000 		.long	.LASF22
 4763 0111 04        		.sleb128 4
 4764 0112 00        		.byte	0x0
 4765 0113 03        		.uleb128 0x3
 4766 0114 0000 0000 		.long	.LASF23
 4767 0118 05        		.byte	0x5
 4768 0119 D2        		.byte	0xd2
 4769 011a E800 0000 		.long	0xe8
 4770 011e 06        		.uleb128 0x6
 4771 011f 0000 0000 		.long	.LASF24
 4772 0123 01        		.byte	0x1
 4773 0124 05        		.byte	0x5
 4774 0125 D5        		.byte	0xd5
 4775 0126 6801 0000 		.long	0x168
 4776 012a 07        		.uleb128 0x7
 4777 012b 0000 0000 		.long	.LASF25
 4778 012f 00        		.sleb128 0
 4779 0130 07        		.uleb128 0x7
 4780 0131 0000 0000 		.long	.LASF26
 4781 0135 04        		.sleb128 4
 4782 0136 07        		.uleb128 0x7
 4783 0137 0000 0000 		.long	.LASF27
 4784 013b 0C        		.sleb128 12
GAS LISTING /tmp/ccq5P7XK.s 			page 85


 4785 013c 07        		.uleb128 0x7
 4786 013d 0000 0000 		.long	.LASF28
 4787 0141 14        		.sleb128 20
 4788 0142 07        		.uleb128 0x7
 4789 0143 0000 0000 		.long	.LASF29
 4790 0147 1C        		.sleb128 28
 4791 0148 07        		.uleb128 0x7
 4792 0149 0000 0000 		.long	.LASF30
 4793 014d 24        		.sleb128 36
 4794 014e 07        		.uleb128 0x7
 4795 014f 0000 0000 		.long	.LASF31
 4796 0153 2C        		.sleb128 44
 4797 0154 07        		.uleb128 0x7
 4798 0155 0000 0000 		.long	.LASF32
 4799 0159 34        		.sleb128 52
 4800 015a 07        		.uleb128 0x7
 4801 015b 0000 0000 		.long	.LASF33
 4802 015f 3C        		.sleb128 60
 4803 0160 07        		.uleb128 0x7
 4804 0161 0000 0000 		.long	.LASF34
 4805 0165 C400      		.sleb128 68
 4806 0167 00        		.byte	0x0
 4807 0168 03        		.uleb128 0x3
 4808 0169 0000 0000 		.long	.LASF35
 4809 016d 05        		.byte	0x5
 4810 016e E1        		.byte	0xe1
 4811 016f 1E01 0000 		.long	0x11e
 4812 0173 06        		.uleb128 0x6
 4813 0174 0000 0000 		.long	.LASF36
 4814 0178 01        		.byte	0x1
 4815 0179 05        		.byte	0x5
 4816 017a E4        		.byte	0xe4
 4817 017b 9801 0000 		.long	0x198
 4818 017f 07        		.uleb128 0x7
 4819 0180 0000 0000 		.long	.LASF37
 4820 0184 00        		.sleb128 0
 4821 0185 07        		.uleb128 0x7
 4822 0186 0000 0000 		.long	.LASF38
 4823 018a 01        		.sleb128 1
 4824 018b 07        		.uleb128 0x7
 4825 018c 0000 0000 		.long	.LASF39
 4826 0190 02        		.sleb128 2
 4827 0191 07        		.uleb128 0x7
 4828 0192 0000 0000 		.long	.LASF40
 4829 0196 03        		.sleb128 3
 4830 0197 00        		.byte	0x0
 4831 0198 03        		.uleb128 0x3
 4832 0199 0000 0000 		.long	.LASF41
 4833 019d 05        		.byte	0x5
 4834 019e EA        		.byte	0xea
 4835 019f 7301 0000 		.long	0x173
 4836 01a3 06        		.uleb128 0x6
 4837 01a4 0000 0000 		.long	.LASF42
 4838 01a8 01        		.byte	0x1
 4839 01a9 05        		.byte	0x5
 4840 01aa ED        		.byte	0xed
 4841 01ab C801 0000 		.long	0x1c8
GAS LISTING /tmp/ccq5P7XK.s 			page 86


 4842 01af 07        		.uleb128 0x7
 4843 01b0 0000 0000 		.long	.LASF43
 4844 01b4 00        		.sleb128 0
 4845 01b5 07        		.uleb128 0x7
 4846 01b6 0000 0000 		.long	.LASF44
 4847 01ba 02        		.sleb128 2
 4848 01bb 07        		.uleb128 0x7
 4849 01bc 0000 0000 		.long	.LASF45
 4850 01c0 04        		.sleb128 4
 4851 01c1 07        		.uleb128 0x7
 4852 01c2 0000 0000 		.long	.LASF46
 4853 01c6 0A        		.sleb128 10
 4854 01c7 00        		.byte	0x0
 4855 01c8 03        		.uleb128 0x3
 4856 01c9 0000 0000 		.long	.LASF47
 4857 01cd 05        		.byte	0x5
 4858 01ce F3        		.byte	0xf3
 4859 01cf A301 0000 		.long	0x1a3
 4860 01d3 0A        		.uleb128 0xa
 4861 01d4 0000 0000 		.long	.LASF49
 4862 01d8 07        		.byte	0x7
 4863 01d9 05        		.byte	0x5
 4864 01da 1401      		.word	0x114
 4865 01dc 4A02 0000 		.long	0x24a
 4866 01e0 0B        		.uleb128 0xb
 4867 01e1 0000 0000 		.long	.LASF11
 4868 01e5 05        		.byte	0x5
 4869 01e6 1601      		.word	0x116
 4870 01e8 7800 0000 		.long	0x78
 4871 01ec 02        		.byte	0x2
 4872 01ed 23        		.byte	0x23
 4873 01ee 00        		.uleb128 0x0
 4874 01ef 0B        		.uleb128 0xb
 4875 01f0 0000 0000 		.long	.LASF50
 4876 01f4 05        		.byte	0x5
 4877 01f5 1701      		.word	0x117
 4878 01f7 7800 0000 		.long	0x78
 4879 01fb 02        		.byte	0x2
 4880 01fc 23        		.byte	0x23
 4881 01fd 01        		.uleb128 0x1
 4882 01fe 0B        		.uleb128 0xb
 4883 01ff 0000 0000 		.long	.LASF51
 4884 0203 05        		.byte	0x5
 4885 0204 1801      		.word	0x118
 4886 0206 7800 0000 		.long	0x78
 4887 020a 02        		.byte	0x2
 4888 020b 23        		.byte	0x23
 4889 020c 02        		.uleb128 0x2
 4890 020d 0B        		.uleb128 0xb
 4891 020e 0000 0000 		.long	.LASF52
 4892 0212 05        		.byte	0x5
 4893 0213 1901      		.word	0x119
 4894 0215 7800 0000 		.long	0x78
 4895 0219 02        		.byte	0x2
 4896 021a 23        		.byte	0x23
 4897 021b 03        		.uleb128 0x3
 4898 021c 0B        		.uleb128 0xb
GAS LISTING /tmp/ccq5P7XK.s 			page 87


 4899 021d 0000 0000 		.long	.LASF53
 4900 0221 05        		.byte	0x5
 4901 0222 1A01      		.word	0x11a
 4902 0224 7800 0000 		.long	0x78
 4903 0228 02        		.byte	0x2
 4904 0229 23        		.byte	0x23
 4905 022a 04        		.uleb128 0x4
 4906 022b 0B        		.uleb128 0xb
 4907 022c 0000 0000 		.long	.LASF54
 4908 0230 05        		.byte	0x5
 4909 0231 1B01      		.word	0x11b
 4910 0233 7800 0000 		.long	0x78
 4911 0237 02        		.byte	0x2
 4912 0238 23        		.byte	0x23
 4913 0239 05        		.uleb128 0x5
 4914 023a 0B        		.uleb128 0xb
 4915 023b 0000 0000 		.long	.LASF55
 4916 023f 05        		.byte	0x5
 4917 0240 1C01      		.word	0x11c
 4918 0242 7800 0000 		.long	0x78
 4919 0246 02        		.byte	0x2
 4920 0247 23        		.byte	0x23
 4921 0248 06        		.uleb128 0x6
 4922 0249 00        		.byte	0x0
 4923 024a 0C        		.uleb128 0xc
 4924 024b 0000 0000 		.long	.LASF56
 4925 024f 05        		.byte	0x5
 4926 0250 1D01      		.word	0x11d
 4927 0252 D301 0000 		.long	0x1d3
 4928 0256 0D        		.uleb128 0xd
 4929 0257 0000 0000 		.long	.LASF57
 4930 025b 01        		.byte	0x1
 4931 025c 05        		.byte	0x5
 4932 025d 2001      		.word	0x120
 4933 025f 7F02 0000 		.long	0x27f
 4934 0263 07        		.uleb128 0x7
 4935 0264 0000 0000 		.long	.LASF58
 4936 0268 00        		.sleb128 0
 4937 0269 07        		.uleb128 0x7
 4938 026a 0000 0000 		.long	.LASF59
 4939 026e C000      		.sleb128 64
 4940 0270 07        		.uleb128 0x7
 4941 0271 0000 0000 		.long	.LASF60
 4942 0275 8001      		.sleb128 128
 4943 0277 07        		.uleb128 0x7
 4944 0278 0000 0000 		.long	.LASF61
 4945 027c C001      		.sleb128 192
 4946 027e 00        		.byte	0x0
 4947 027f 0C        		.uleb128 0xc
 4948 0280 0000 0000 		.long	.LASF62
 4949 0284 05        		.byte	0x5
 4950 0285 2601      		.word	0x126
 4951 0287 5602 0000 		.long	0x256
 4952 028b 0D        		.uleb128 0xd
 4953 028c 0000 0000 		.long	.LASF63
 4954 0290 01        		.byte	0x1
 4955 0291 05        		.byte	0x5
GAS LISTING /tmp/ccq5P7XK.s 			page 88


 4956 0292 2901      		.word	0x129
 4957 0294 B702 0000 		.long	0x2b7
 4958 0298 07        		.uleb128 0x7
 4959 0299 0000 0000 		.long	.LASF64
 4960 029d 00        		.sleb128 0
 4961 029e 07        		.uleb128 0x7
 4962 029f 0000 0000 		.long	.LASF65
 4963 02a3 02        		.sleb128 2
 4964 02a4 07        		.uleb128 0x7
 4965 02a5 0000 0000 		.long	.LASF66
 4966 02a9 03        		.sleb128 3
 4967 02aa 07        		.uleb128 0x7
 4968 02ab 0000 0000 		.long	.LASF67
 4969 02af 07        		.sleb128 7
 4970 02b0 07        		.uleb128 0x7
 4971 02b1 0000 0000 		.long	.LASF68
 4972 02b5 0B        		.sleb128 11
 4973 02b6 00        		.byte	0x0
 4974 02b7 0C        		.uleb128 0xc
 4975 02b8 0000 0000 		.long	.LASF69
 4976 02bc 05        		.byte	0x5
 4977 02bd 3001      		.word	0x130
 4978 02bf 8B02 0000 		.long	0x28b
 4979 02c3 0D        		.uleb128 0xd
 4980 02c4 0000 0000 		.long	.LASF70
 4981 02c8 01        		.byte	0x1
 4982 02c9 05        		.byte	0x5
 4983 02ca 3301      		.word	0x133
 4984 02cc E502 0000 		.long	0x2e5
 4985 02d0 07        		.uleb128 0x7
 4986 02d1 0000 0000 		.long	.LASF71
 4987 02d5 00        		.sleb128 0
 4988 02d6 07        		.uleb128 0x7
 4989 02d7 0000 0000 		.long	.LASF72
 4990 02db 8001      		.sleb128 128
 4991 02dd 07        		.uleb128 0x7
 4992 02de 0000 0000 		.long	.LASF73
 4993 02e2 C001      		.sleb128 192
 4994 02e4 00        		.byte	0x0
 4995 02e5 0C        		.uleb128 0xc
 4996 02e6 0000 0000 		.long	.LASF74
 4997 02ea 05        		.byte	0x5
 4998 02eb 3801      		.word	0x138
 4999 02ed C302 0000 		.long	0x2c3
 5000 02f1 0A        		.uleb128 0xa
 5001 02f2 0000 0000 		.long	.LASF75
 5002 02f6 08        		.byte	0x8
 5003 02f7 05        		.byte	0x5
 5004 02f8 4201      		.word	0x142
 5005 02fa 7703 0000 		.long	0x377
 5006 02fe 0B        		.uleb128 0xb
 5007 02ff 0000 0000 		.long	.LASF11
 5008 0303 05        		.byte	0x5
 5009 0304 4401      		.word	0x144
 5010 0306 7800 0000 		.long	0x78
 5011 030a 02        		.byte	0x2
 5012 030b 23        		.byte	0x23
GAS LISTING /tmp/ccq5P7XK.s 			page 89


 5013 030c 00        		.uleb128 0x0
 5014 030d 0B        		.uleb128 0xb
 5015 030e 0000 0000 		.long	.LASF76
 5016 0312 05        		.byte	0x5
 5017 0313 4501      		.word	0x145
 5018 0315 7800 0000 		.long	0x78
 5019 0319 02        		.byte	0x2
 5020 031a 23        		.byte	0x23
 5021 031b 01        		.uleb128 0x1
 5022 031c 0B        		.uleb128 0xb
 5023 031d 0000 0000 		.long	.LASF77
 5024 0321 05        		.byte	0x5
 5025 0322 4601      		.word	0x146
 5026 0324 7800 0000 		.long	0x78
 5027 0328 02        		.byte	0x2
 5028 0329 23        		.byte	0x23
 5029 032a 02        		.uleb128 0x2
 5030 032b 0B        		.uleb128 0xb
 5031 032c 0000 0000 		.long	.LASF78
 5032 0330 05        		.byte	0x5
 5033 0331 4701      		.word	0x147
 5034 0333 7800 0000 		.long	0x78
 5035 0337 02        		.byte	0x2
 5036 0338 23        		.byte	0x23
 5037 0339 03        		.uleb128 0x3
 5038 033a 0B        		.uleb128 0xb
 5039 033b 0000 0000 		.long	.LASF79
 5040 033f 05        		.byte	0x5
 5041 0340 4801      		.word	0x148
 5042 0342 7800 0000 		.long	0x78
 5043 0346 02        		.byte	0x2
 5044 0347 23        		.byte	0x23
 5045 0348 04        		.uleb128 0x4
 5046 0349 0B        		.uleb128 0xb
 5047 034a 0000 0000 		.long	.LASF80
 5048 034e 05        		.byte	0x5
 5049 034f 4901      		.word	0x149
 5050 0351 7800 0000 		.long	0x78
 5051 0355 02        		.byte	0x2
 5052 0356 23        		.byte	0x23
 5053 0357 05        		.uleb128 0x5
 5054 0358 0B        		.uleb128 0xb
 5055 0359 0000 0000 		.long	.LASF81
 5056 035d 05        		.byte	0x5
 5057 035e 4A01      		.word	0x14a
 5058 0360 7800 0000 		.long	0x78
 5059 0364 02        		.byte	0x2
 5060 0365 23        		.byte	0x23
 5061 0366 06        		.uleb128 0x6
 5062 0367 0B        		.uleb128 0xb
 5063 0368 0000 0000 		.long	.LASF82
 5064 036c 05        		.byte	0x5
 5065 036d 4B01      		.word	0x14b
 5066 036f 7800 0000 		.long	0x78
 5067 0373 02        		.byte	0x2
 5068 0374 23        		.byte	0x23
 5069 0375 07        		.uleb128 0x7
GAS LISTING /tmp/ccq5P7XK.s 			page 90


 5070 0376 00        		.byte	0x0
 5071 0377 0C        		.uleb128 0xc
 5072 0378 0000 0000 		.long	.LASF83
 5073 037c 05        		.byte	0x5
 5074 037d 4C01      		.word	0x14c
 5075 037f F102 0000 		.long	0x2f1
 5076 0383 0A        		.uleb128 0xa
 5077 0384 0000 0000 		.long	.LASF84
 5078 0388 03        		.byte	0x3
 5079 0389 05        		.byte	0x5
 5080 038a AB01      		.word	0x1ab
 5081 038c BE03 0000 		.long	0x3be
 5082 0390 0B        		.uleb128 0xb
 5083 0391 0000 0000 		.long	.LASF50
 5084 0395 05        		.byte	0x5
 5085 0396 AD01      		.word	0x1ad
 5086 0398 7800 0000 		.long	0x78
 5087 039c 02        		.byte	0x2
 5088 039d 23        		.byte	0x23
 5089 039e 00        		.uleb128 0x0
 5090 039f 0B        		.uleb128 0xb
 5091 03a0 0000 0000 		.long	.LASF85
 5092 03a4 05        		.byte	0x5
 5093 03a5 AE01      		.word	0x1ae
 5094 03a7 7800 0000 		.long	0x78
 5095 03ab 02        		.byte	0x2
 5096 03ac 23        		.byte	0x23
 5097 03ad 01        		.uleb128 0x1
 5098 03ae 0B        		.uleb128 0xb
 5099 03af 0000 0000 		.long	.LASF11
 5100 03b3 05        		.byte	0x5
 5101 03b4 AF01      		.word	0x1af
 5102 03b6 7800 0000 		.long	0x78
 5103 03ba 02        		.byte	0x2
 5104 03bb 23        		.byte	0x23
 5105 03bc 02        		.uleb128 0x2
 5106 03bd 00        		.byte	0x0
 5107 03be 0C        		.uleb128 0xc
 5108 03bf 0000 0000 		.long	.LASF86
 5109 03c3 05        		.byte	0x5
 5110 03c4 B001      		.word	0x1b0
 5111 03c6 8303 0000 		.long	0x383
 5112 03ca 05        		.uleb128 0x5
 5113 03cb 4500 0000 		.long	0x45
 5114 03cf 0A        		.uleb128 0xa
 5115 03d0 0000 0000 		.long	.LASF87
 5116 03d4 18        		.byte	0x18
 5117 03d5 05        		.byte	0x5
 5118 03d6 6E07      		.word	0x76e
 5119 03d8 4405 0000 		.long	0x544
 5120 03dc 0E        		.uleb128 0xe
 5121 03dd 4449 5200 		.string	"DIR"
 5122 03e1 05        		.byte	0x5
 5123 03e2 7007      		.word	0x770
 5124 03e4 7800 0000 		.long	0x78
 5125 03e8 02        		.byte	0x2
 5126 03e9 23        		.byte	0x23
GAS LISTING /tmp/ccq5P7XK.s 			page 91


 5127 03ea 00        		.uleb128 0x0
 5128 03eb 0B        		.uleb128 0xb
 5129 03ec 0000 0000 		.long	.LASF88
 5130 03f0 05        		.byte	0x5
 5131 03f1 7107      		.word	0x771
 5132 03f3 7800 0000 		.long	0x78
 5133 03f7 02        		.byte	0x2
 5134 03f8 23        		.byte	0x23
 5135 03f9 01        		.uleb128 0x1
 5136 03fa 0B        		.uleb128 0xb
 5137 03fb 0000 0000 		.long	.LASF89
 5138 03ff 05        		.byte	0x5
 5139 0400 7207      		.word	0x772
 5140 0402 7800 0000 		.long	0x78
 5141 0406 02        		.byte	0x2
 5142 0407 23        		.byte	0x23
 5143 0408 02        		.uleb128 0x2
 5144 0409 0B        		.uleb128 0xb
 5145 040a 0000 0000 		.long	.LASF90
 5146 040e 05        		.byte	0x5
 5147 040f 7307      		.word	0x773
 5148 0411 7800 0000 		.long	0x78
 5149 0415 02        		.byte	0x2
 5150 0416 23        		.byte	0x23
 5151 0417 03        		.uleb128 0x3
 5152 0418 0E        		.uleb128 0xe
 5153 0419 4F55 5400 		.string	"OUT"
 5154 041d 05        		.byte	0x5
 5155 041e 7407      		.word	0x774
 5156 0420 7800 0000 		.long	0x78
 5157 0424 02        		.byte	0x2
 5158 0425 23        		.byte	0x23
 5159 0426 04        		.uleb128 0x4
 5160 0427 0B        		.uleb128 0xb
 5161 0428 0000 0000 		.long	.LASF91
 5162 042c 05        		.byte	0x5
 5163 042d 7507      		.word	0x775
 5164 042f 7800 0000 		.long	0x78
 5165 0433 02        		.byte	0x2
 5166 0434 23        		.byte	0x23
 5167 0435 05        		.uleb128 0x5
 5168 0436 0B        		.uleb128 0xb
 5169 0437 0000 0000 		.long	.LASF92
 5170 043b 05        		.byte	0x5
 5171 043c 7607      		.word	0x776
 5172 043e 7800 0000 		.long	0x78
 5173 0442 02        		.byte	0x2
 5174 0443 23        		.byte	0x23
 5175 0444 06        		.uleb128 0x6
 5176 0445 0B        		.uleb128 0xb
 5177 0446 0000 0000 		.long	.LASF93
 5178 044a 05        		.byte	0x5
 5179 044b 7707      		.word	0x777
 5180 044d 7800 0000 		.long	0x78
 5181 0451 02        		.byte	0x2
 5182 0452 23        		.byte	0x23
 5183 0453 07        		.uleb128 0x7
GAS LISTING /tmp/ccq5P7XK.s 			page 92


 5184 0454 0E        		.uleb128 0xe
 5185 0455 494E 00   		.string	"IN"
 5186 0458 05        		.byte	0x5
 5187 0459 7807      		.word	0x778
 5188 045b 7800 0000 		.long	0x78
 5189 045f 02        		.byte	0x2
 5190 0460 23        		.byte	0x23
 5191 0461 08        		.uleb128 0x8
 5192 0462 0B        		.uleb128 0xb
 5193 0463 0000 0000 		.long	.LASF94
 5194 0467 05        		.byte	0x5
 5195 0468 7907      		.word	0x779
 5196 046a 7800 0000 		.long	0x78
 5197 046e 02        		.byte	0x2
 5198 046f 23        		.byte	0x23
 5199 0470 09        		.uleb128 0x9
 5200 0471 0B        		.uleb128 0xb
 5201 0472 0000 0000 		.long	.LASF95
 5202 0476 05        		.byte	0x5
 5203 0477 7A07      		.word	0x77a
 5204 0479 7800 0000 		.long	0x78
 5205 047d 02        		.byte	0x2
 5206 047e 23        		.byte	0x23
 5207 047f 0A        		.uleb128 0xa
 5208 0480 0B        		.uleb128 0xb
 5209 0481 0000 0000 		.long	.LASF96
 5210 0485 05        		.byte	0x5
 5211 0486 7B07      		.word	0x77b
 5212 0488 7800 0000 		.long	0x78
 5213 048c 02        		.byte	0x2
 5214 048d 23        		.byte	0x23
 5215 048e 0B        		.uleb128 0xb
 5216 048f 0B        		.uleb128 0xb
 5217 0490 0000 0000 		.long	.LASF97
 5218 0494 05        		.byte	0x5
 5219 0495 7C07      		.word	0x77c
 5220 0497 7800 0000 		.long	0x78
 5221 049b 02        		.byte	0x2
 5222 049c 23        		.byte	0x23
 5223 049d 0C        		.uleb128 0xc
 5224 049e 0B        		.uleb128 0xb
 5225 049f 0000 0000 		.long	.LASF98
 5226 04a3 05        		.byte	0x5
 5227 04a4 7D07      		.word	0x77d
 5228 04a6 7800 0000 		.long	0x78
 5229 04aa 02        		.byte	0x2
 5230 04ab 23        		.byte	0x23
 5231 04ac 0D        		.uleb128 0xd
 5232 04ad 0B        		.uleb128 0xb
 5233 04ae 0000 0000 		.long	.LASF99
 5234 04b2 05        		.byte	0x5
 5235 04b3 7E07      		.word	0x77e
 5236 04b5 7800 0000 		.long	0x78
 5237 04b9 02        		.byte	0x2
 5238 04ba 23        		.byte	0x23
 5239 04bb 0E        		.uleb128 0xe
 5240 04bc 0B        		.uleb128 0xb
GAS LISTING /tmp/ccq5P7XK.s 			page 93


 5241 04bd 0000 0000 		.long	.LASF100
 5242 04c1 05        		.byte	0x5
 5243 04c2 7F07      		.word	0x77f
 5244 04c4 7800 0000 		.long	0x78
 5245 04c8 02        		.byte	0x2
 5246 04c9 23        		.byte	0x23
 5247 04ca 0F        		.uleb128 0xf
 5248 04cb 0B        		.uleb128 0xb
 5249 04cc 0000 0000 		.long	.LASF101
 5250 04d0 05        		.byte	0x5
 5251 04d1 8007      		.word	0x780
 5252 04d3 7800 0000 		.long	0x78
 5253 04d7 02        		.byte	0x2
 5254 04d8 23        		.byte	0x23
 5255 04d9 10        		.uleb128 0x10
 5256 04da 0B        		.uleb128 0xb
 5257 04db 0000 0000 		.long	.LASF102
 5258 04df 05        		.byte	0x5
 5259 04e0 8107      		.word	0x781
 5260 04e2 7800 0000 		.long	0x78
 5261 04e6 02        		.byte	0x2
 5262 04e7 23        		.byte	0x23
 5263 04e8 11        		.uleb128 0x11
 5264 04e9 0B        		.uleb128 0xb
 5265 04ea 0000 0000 		.long	.LASF103
 5266 04ee 05        		.byte	0x5
 5267 04ef 8207      		.word	0x782
 5268 04f1 7800 0000 		.long	0x78
 5269 04f5 02        		.byte	0x2
 5270 04f6 23        		.byte	0x23
 5271 04f7 12        		.uleb128 0x12
 5272 04f8 0B        		.uleb128 0xb
 5273 04f9 0000 0000 		.long	.LASF104
 5274 04fd 05        		.byte	0x5
 5275 04fe 8307      		.word	0x783
 5276 0500 7800 0000 		.long	0x78
 5277 0504 02        		.byte	0x2
 5278 0505 23        		.byte	0x23
 5279 0506 13        		.uleb128 0x13
 5280 0507 0B        		.uleb128 0xb
 5281 0508 0000 0000 		.long	.LASF105
 5282 050c 05        		.byte	0x5
 5283 050d 8407      		.word	0x784
 5284 050f 7800 0000 		.long	0x78
 5285 0513 02        		.byte	0x2
 5286 0514 23        		.byte	0x23
 5287 0515 14        		.uleb128 0x14
 5288 0516 0B        		.uleb128 0xb
 5289 0517 0000 0000 		.long	.LASF106
 5290 051b 05        		.byte	0x5
 5291 051c 8507      		.word	0x785
 5292 051e 7800 0000 		.long	0x78
 5293 0522 02        		.byte	0x2
 5294 0523 23        		.byte	0x23
 5295 0524 15        		.uleb128 0x15
 5296 0525 0B        		.uleb128 0xb
 5297 0526 0000 0000 		.long	.LASF107
GAS LISTING /tmp/ccq5P7XK.s 			page 94


 5298 052a 05        		.byte	0x5
 5299 052b 8607      		.word	0x786
 5300 052d 7800 0000 		.long	0x78
 5301 0531 02        		.byte	0x2
 5302 0532 23        		.byte	0x23
 5303 0533 16        		.uleb128 0x16
 5304 0534 0B        		.uleb128 0xb
 5305 0535 0000 0000 		.long	.LASF108
 5306 0539 05        		.byte	0x5
 5307 053a 8707      		.word	0x787
 5308 053c 7800 0000 		.long	0x78
 5309 0540 02        		.byte	0x2
 5310 0541 23        		.byte	0x23
 5311 0542 17        		.uleb128 0x17
 5312 0543 00        		.byte	0x0
 5313 0544 0C        		.uleb128 0xc
 5314 0545 0000 0000 		.long	.LASF109
 5315 0549 05        		.byte	0x5
 5316 054a 8807      		.word	0x788
 5317 054c CF03 0000 		.long	0x3cf
 5318 0550 0D        		.uleb128 0xd
 5319 0551 0000 0000 		.long	.LASF110
 5320 0555 01        		.byte	0x1
 5321 0556 05        		.byte	0x5
 5322 0557 0308      		.word	0x803
 5323 0559 8E05 0000 		.long	0x58e
 5324 055d 07        		.uleb128 0x7
 5325 055e 0000 0000 		.long	.LASF111
 5326 0562 00        		.sleb128 0
 5327 0563 07        		.uleb128 0x7
 5328 0564 0000 0000 		.long	.LASF112
 5329 0568 08        		.sleb128 8
 5330 0569 07        		.uleb128 0x7
 5331 056a 0000 0000 		.long	.LASF113
 5332 056e 10        		.sleb128 16
 5333 056f 07        		.uleb128 0x7
 5334 0570 0000 0000 		.long	.LASF114
 5335 0574 18        		.sleb128 24
 5336 0575 07        		.uleb128 0x7
 5337 0576 0000 0000 		.long	.LASF115
 5338 057a 20        		.sleb128 32
 5339 057b 07        		.uleb128 0x7
 5340 057c 0000 0000 		.long	.LASF116
 5341 0580 28        		.sleb128 40
 5342 0581 07        		.uleb128 0x7
 5343 0582 0000 0000 		.long	.LASF117
 5344 0586 30        		.sleb128 48
 5345 0587 07        		.uleb128 0x7
 5346 0588 0000 0000 		.long	.LASF118
 5347 058c 38        		.sleb128 56
 5348 058d 00        		.byte	0x0
 5349 058e 0F        		.uleb128 0xf
 5350 058f 02        		.byte	0x2
 5351 0590 05        		.byte	0x5
 5352 0591 4308      		.word	0x843
 5353 0593 B605 0000 		.long	0x5b6
 5354 0597 0B        		.uleb128 0xb
GAS LISTING /tmp/ccq5P7XK.s 			page 95


 5355 0598 0000 0000 		.long	.LASF119
 5356 059c 05        		.byte	0x5
 5357 059d 4308      		.word	0x843
 5358 059f 7800 0000 		.long	0x78
 5359 05a3 02        		.byte	0x2
 5360 05a4 23        		.byte	0x23
 5361 05a5 00        		.uleb128 0x0
 5362 05a6 0B        		.uleb128 0xb
 5363 05a7 0000 0000 		.long	.LASF120
 5364 05ab 05        		.byte	0x5
 5365 05ac 4308      		.word	0x843
 5366 05ae 7800 0000 		.long	0x78
 5367 05b2 02        		.byte	0x2
 5368 05b3 23        		.byte	0x23
 5369 05b4 01        		.uleb128 0x1
 5370 05b5 00        		.byte	0x0
 5371 05b6 10        		.uleb128 0x10
 5372 05b7 02        		.byte	0x2
 5373 05b8 05        		.byte	0x5
 5374 05b9 4308      		.word	0x843
 5375 05bb D105 0000 		.long	0x5d1
 5376 05bf 11        		.uleb128 0x11
 5377 05c0 434E 5400 		.string	"CNT"
 5378 05c4 05        		.byte	0x5
 5379 05c5 4308      		.word	0x843
 5380 05c7 CA03 0000 		.long	0x3ca
 5381 05cb 12        		.uleb128 0x12
 5382 05cc 8E05 0000 		.long	0x58e
 5383 05d0 00        		.byte	0x0
 5384 05d1 0F        		.uleb128 0xf
 5385 05d2 02        		.byte	0x2
 5386 05d3 05        		.byte	0x5
 5387 05d4 4808      		.word	0x848
 5388 05d6 F905 0000 		.long	0x5f9
 5389 05da 0B        		.uleb128 0xb
 5390 05db 0000 0000 		.long	.LASF121
 5391 05df 05        		.byte	0x5
 5392 05e0 4808      		.word	0x848
 5393 05e2 7800 0000 		.long	0x78
 5394 05e6 02        		.byte	0x2
 5395 05e7 23        		.byte	0x23
 5396 05e8 00        		.uleb128 0x0
 5397 05e9 0B        		.uleb128 0xb
 5398 05ea 0000 0000 		.long	.LASF122
 5399 05ee 05        		.byte	0x5
 5400 05ef 4808      		.word	0x848
 5401 05f1 7800 0000 		.long	0x78
 5402 05f5 02        		.byte	0x2
 5403 05f6 23        		.byte	0x23
 5404 05f7 01        		.uleb128 0x1
 5405 05f8 00        		.byte	0x0
 5406 05f9 10        		.uleb128 0x10
 5407 05fa 02        		.byte	0x2
 5408 05fb 05        		.byte	0x5
 5409 05fc 4808      		.word	0x848
 5410 05fe 1406 0000 		.long	0x614
 5411 0602 11        		.uleb128 0x11
GAS LISTING /tmp/ccq5P7XK.s 			page 96


 5412 0603 5045 5200 		.string	"PER"
 5413 0607 05        		.byte	0x5
 5414 0608 4808      		.word	0x848
 5415 060a CA03 0000 		.long	0x3ca
 5416 060e 12        		.uleb128 0x12
 5417 060f D105 0000 		.long	0x5d1
 5418 0613 00        		.byte	0x0
 5419 0614 0F        		.uleb128 0xf
 5420 0615 02        		.byte	0x2
 5421 0616 05        		.byte	0x5
 5422 0617 4908      		.word	0x849
 5423 0619 3C06 0000 		.long	0x63c
 5424 061d 0B        		.uleb128 0xb
 5425 061e 0000 0000 		.long	.LASF123
 5426 0622 05        		.byte	0x5
 5427 0623 4908      		.word	0x849
 5428 0625 7800 0000 		.long	0x78
 5429 0629 02        		.byte	0x2
 5430 062a 23        		.byte	0x23
 5431 062b 00        		.uleb128 0x0
 5432 062c 0B        		.uleb128 0xb
 5433 062d 0000 0000 		.long	.LASF124
 5434 0631 05        		.byte	0x5
 5435 0632 4908      		.word	0x849
 5436 0634 7800 0000 		.long	0x78
 5437 0638 02        		.byte	0x2
 5438 0639 23        		.byte	0x23
 5439 063a 01        		.uleb128 0x1
 5440 063b 00        		.byte	0x0
 5441 063c 10        		.uleb128 0x10
 5442 063d 02        		.byte	0x2
 5443 063e 05        		.byte	0x5
 5444 063f 4908      		.word	0x849
 5445 0641 5706 0000 		.long	0x657
 5446 0645 11        		.uleb128 0x11
 5447 0646 4343 4100 		.string	"CCA"
 5448 064a 05        		.byte	0x5
 5449 064b 4908      		.word	0x849
 5450 064d CA03 0000 		.long	0x3ca
 5451 0651 12        		.uleb128 0x12
 5452 0652 1406 0000 		.long	0x614
 5453 0656 00        		.byte	0x0
 5454 0657 0F        		.uleb128 0xf
 5455 0658 02        		.byte	0x2
 5456 0659 05        		.byte	0x5
 5457 065a 4A08      		.word	0x84a
 5458 065c 7F06 0000 		.long	0x67f
 5459 0660 0B        		.uleb128 0xb
 5460 0661 0000 0000 		.long	.LASF125
 5461 0665 05        		.byte	0x5
 5462 0666 4A08      		.word	0x84a
 5463 0668 7800 0000 		.long	0x78
 5464 066c 02        		.byte	0x2
 5465 066d 23        		.byte	0x23
 5466 066e 00        		.uleb128 0x0
 5467 066f 0B        		.uleb128 0xb
 5468 0670 0000 0000 		.long	.LASF126
GAS LISTING /tmp/ccq5P7XK.s 			page 97


 5469 0674 05        		.byte	0x5
 5470 0675 4A08      		.word	0x84a
 5471 0677 7800 0000 		.long	0x78
 5472 067b 02        		.byte	0x2
 5473 067c 23        		.byte	0x23
 5474 067d 01        		.uleb128 0x1
 5475 067e 00        		.byte	0x0
 5476 067f 10        		.uleb128 0x10
 5477 0680 02        		.byte	0x2
 5478 0681 05        		.byte	0x5
 5479 0682 4A08      		.word	0x84a
 5480 0684 9A06 0000 		.long	0x69a
 5481 0688 11        		.uleb128 0x11
 5482 0689 4343 4200 		.string	"CCB"
 5483 068d 05        		.byte	0x5
 5484 068e 4A08      		.word	0x84a
 5485 0690 CA03 0000 		.long	0x3ca
 5486 0694 12        		.uleb128 0x12
 5487 0695 5706 0000 		.long	0x657
 5488 0699 00        		.byte	0x0
 5489 069a 0F        		.uleb128 0xf
 5490 069b 02        		.byte	0x2
 5491 069c 05        		.byte	0x5
 5492 069d 4B08      		.word	0x84b
 5493 069f C206 0000 		.long	0x6c2
 5494 06a3 0B        		.uleb128 0xb
 5495 06a4 0000 0000 		.long	.LASF127
 5496 06a8 05        		.byte	0x5
 5497 06a9 4B08      		.word	0x84b
 5498 06ab 7800 0000 		.long	0x78
 5499 06af 02        		.byte	0x2
 5500 06b0 23        		.byte	0x23
 5501 06b1 00        		.uleb128 0x0
 5502 06b2 0B        		.uleb128 0xb
 5503 06b3 0000 0000 		.long	.LASF128
 5504 06b7 05        		.byte	0x5
 5505 06b8 4B08      		.word	0x84b
 5506 06ba 7800 0000 		.long	0x78
 5507 06be 02        		.byte	0x2
 5508 06bf 23        		.byte	0x23
 5509 06c0 01        		.uleb128 0x1
 5510 06c1 00        		.byte	0x0
 5511 06c2 10        		.uleb128 0x10
 5512 06c3 02        		.byte	0x2
 5513 06c4 05        		.byte	0x5
 5514 06c5 4B08      		.word	0x84b
 5515 06c7 DD06 0000 		.long	0x6dd
 5516 06cb 11        		.uleb128 0x11
 5517 06cc 4343 4300 		.string	"CCC"
 5518 06d0 05        		.byte	0x5
 5519 06d1 4B08      		.word	0x84b
 5520 06d3 CA03 0000 		.long	0x3ca
 5521 06d7 12        		.uleb128 0x12
 5522 06d8 9A06 0000 		.long	0x69a
 5523 06dc 00        		.byte	0x0
 5524 06dd 0F        		.uleb128 0xf
 5525 06de 02        		.byte	0x2
GAS LISTING /tmp/ccq5P7XK.s 			page 98


 5526 06df 05        		.byte	0x5
 5527 06e0 4C08      		.word	0x84c
 5528 06e2 0507 0000 		.long	0x705
 5529 06e6 0B        		.uleb128 0xb
 5530 06e7 0000 0000 		.long	.LASF129
 5531 06eb 05        		.byte	0x5
 5532 06ec 4C08      		.word	0x84c
 5533 06ee 7800 0000 		.long	0x78
 5534 06f2 02        		.byte	0x2
 5535 06f3 23        		.byte	0x23
 5536 06f4 00        		.uleb128 0x0
 5537 06f5 0B        		.uleb128 0xb
 5538 06f6 0000 0000 		.long	.LASF130
 5539 06fa 05        		.byte	0x5
 5540 06fb 4C08      		.word	0x84c
 5541 06fd 7800 0000 		.long	0x78
 5542 0701 02        		.byte	0x2
 5543 0702 23        		.byte	0x23
 5544 0703 01        		.uleb128 0x1
 5545 0704 00        		.byte	0x0
 5546 0705 10        		.uleb128 0x10
 5547 0706 02        		.byte	0x2
 5548 0707 05        		.byte	0x5
 5549 0708 4C08      		.word	0x84c
 5550 070a 2007 0000 		.long	0x720
 5551 070e 11        		.uleb128 0x11
 5552 070f 4343 4400 		.string	"CCD"
 5553 0713 05        		.byte	0x5
 5554 0714 4C08      		.word	0x84c
 5555 0716 CA03 0000 		.long	0x3ca
 5556 071a 12        		.uleb128 0x12
 5557 071b DD06 0000 		.long	0x6dd
 5558 071f 00        		.byte	0x0
 5559 0720 0F        		.uleb128 0xf
 5560 0721 02        		.byte	0x2
 5561 0722 05        		.byte	0x5
 5562 0723 5308      		.word	0x853
 5563 0725 4807 0000 		.long	0x748
 5564 0729 0B        		.uleb128 0xb
 5565 072a 0000 0000 		.long	.LASF131
 5566 072e 05        		.byte	0x5
 5567 072f 5308      		.word	0x853
 5568 0731 7800 0000 		.long	0x78
 5569 0735 02        		.byte	0x2
 5570 0736 23        		.byte	0x23
 5571 0737 00        		.uleb128 0x0
 5572 0738 0B        		.uleb128 0xb
 5573 0739 0000 0000 		.long	.LASF132
 5574 073d 05        		.byte	0x5
 5575 073e 5308      		.word	0x853
 5576 0740 7800 0000 		.long	0x78
 5577 0744 02        		.byte	0x2
 5578 0745 23        		.byte	0x23
 5579 0746 01        		.uleb128 0x1
 5580 0747 00        		.byte	0x0
 5581 0748 10        		.uleb128 0x10
 5582 0749 02        		.byte	0x2
GAS LISTING /tmp/ccq5P7XK.s 			page 99


 5583 074a 05        		.byte	0x5
 5584 074b 5308      		.word	0x853
 5585 074d 6307 0000 		.long	0x763
 5586 0751 13        		.uleb128 0x13
 5587 0752 0000 0000 		.long	.LASF133
 5588 0756 05        		.byte	0x5
 5589 0757 5308      		.word	0x853
 5590 0759 CA03 0000 		.long	0x3ca
 5591 075d 12        		.uleb128 0x12
 5592 075e 2007 0000 		.long	0x720
 5593 0762 00        		.byte	0x0
 5594 0763 0F        		.uleb128 0xf
 5595 0764 02        		.byte	0x2
 5596 0765 05        		.byte	0x5
 5597 0766 5408      		.word	0x854
 5598 0768 8B07 0000 		.long	0x78b
 5599 076c 0B        		.uleb128 0xb
 5600 076d 0000 0000 		.long	.LASF134
 5601 0771 05        		.byte	0x5
 5602 0772 5408      		.word	0x854
 5603 0774 7800 0000 		.long	0x78
 5604 0778 02        		.byte	0x2
 5605 0779 23        		.byte	0x23
 5606 077a 00        		.uleb128 0x0
 5607 077b 0B        		.uleb128 0xb
 5608 077c 0000 0000 		.long	.LASF135
 5609 0780 05        		.byte	0x5
 5610 0781 5408      		.word	0x854
 5611 0783 7800 0000 		.long	0x78
 5612 0787 02        		.byte	0x2
 5613 0788 23        		.byte	0x23
 5614 0789 01        		.uleb128 0x1
 5615 078a 00        		.byte	0x0
 5616 078b 10        		.uleb128 0x10
 5617 078c 02        		.byte	0x2
 5618 078d 05        		.byte	0x5
 5619 078e 5408      		.word	0x854
 5620 0790 A607 0000 		.long	0x7a6
 5621 0794 13        		.uleb128 0x13
 5622 0795 0000 0000 		.long	.LASF136
 5623 0799 05        		.byte	0x5
 5624 079a 5408      		.word	0x854
 5625 079c CA03 0000 		.long	0x3ca
 5626 07a0 12        		.uleb128 0x12
 5627 07a1 6307 0000 		.long	0x763
 5628 07a5 00        		.byte	0x0
 5629 07a6 0F        		.uleb128 0xf
 5630 07a7 02        		.byte	0x2
 5631 07a8 05        		.byte	0x5
 5632 07a9 5508      		.word	0x855
 5633 07ab CE07 0000 		.long	0x7ce
 5634 07af 0B        		.uleb128 0xb
 5635 07b0 0000 0000 		.long	.LASF137
 5636 07b4 05        		.byte	0x5
 5637 07b5 5508      		.word	0x855
 5638 07b7 7800 0000 		.long	0x78
 5639 07bb 02        		.byte	0x2
GAS LISTING /tmp/ccq5P7XK.s 			page 100


 5640 07bc 23        		.byte	0x23
 5641 07bd 00        		.uleb128 0x0
 5642 07be 0B        		.uleb128 0xb
 5643 07bf 0000 0000 		.long	.LASF138
 5644 07c3 05        		.byte	0x5
 5645 07c4 5508      		.word	0x855
 5646 07c6 7800 0000 		.long	0x78
 5647 07ca 02        		.byte	0x2
 5648 07cb 23        		.byte	0x23
 5649 07cc 01        		.uleb128 0x1
 5650 07cd 00        		.byte	0x0
 5651 07ce 10        		.uleb128 0x10
 5652 07cf 02        		.byte	0x2
 5653 07d0 05        		.byte	0x5
 5654 07d1 5508      		.word	0x855
 5655 07d3 E907 0000 		.long	0x7e9
 5656 07d7 13        		.uleb128 0x13
 5657 07d8 0000 0000 		.long	.LASF139
 5658 07dc 05        		.byte	0x5
 5659 07dd 5508      		.word	0x855
 5660 07df CA03 0000 		.long	0x3ca
 5661 07e3 12        		.uleb128 0x12
 5662 07e4 A607 0000 		.long	0x7a6
 5663 07e8 00        		.byte	0x0
 5664 07e9 0F        		.uleb128 0xf
 5665 07ea 02        		.byte	0x2
 5666 07eb 05        		.byte	0x5
 5667 07ec 5608      		.word	0x856
 5668 07ee 1108 0000 		.long	0x811
 5669 07f2 0B        		.uleb128 0xb
 5670 07f3 0000 0000 		.long	.LASF140
 5671 07f7 05        		.byte	0x5
 5672 07f8 5608      		.word	0x856
 5673 07fa 7800 0000 		.long	0x78
 5674 07fe 02        		.byte	0x2
 5675 07ff 23        		.byte	0x23
 5676 0800 00        		.uleb128 0x0
 5677 0801 0B        		.uleb128 0xb
 5678 0802 0000 0000 		.long	.LASF141
 5679 0806 05        		.byte	0x5
 5680 0807 5608      		.word	0x856
 5681 0809 7800 0000 		.long	0x78
 5682 080d 02        		.byte	0x2
 5683 080e 23        		.byte	0x23
 5684 080f 01        		.uleb128 0x1
 5685 0810 00        		.byte	0x0
 5686 0811 10        		.uleb128 0x10
 5687 0812 02        		.byte	0x2
 5688 0813 05        		.byte	0x5
 5689 0814 5608      		.word	0x856
 5690 0816 2C08 0000 		.long	0x82c
 5691 081a 13        		.uleb128 0x13
 5692 081b 0000 0000 		.long	.LASF142
 5693 081f 05        		.byte	0x5
 5694 0820 5608      		.word	0x856
 5695 0822 CA03 0000 		.long	0x3ca
 5696 0826 12        		.uleb128 0x12
GAS LISTING /tmp/ccq5P7XK.s 			page 101


 5697 0827 E907 0000 		.long	0x7e9
 5698 082b 00        		.byte	0x0
 5699 082c 0F        		.uleb128 0xf
 5700 082d 02        		.byte	0x2
 5701 082e 05        		.byte	0x5
 5702 082f 5708      		.word	0x857
 5703 0831 5408 0000 		.long	0x854
 5704 0835 0B        		.uleb128 0xb
 5705 0836 0000 0000 		.long	.LASF143
 5706 083a 05        		.byte	0x5
 5707 083b 5708      		.word	0x857
 5708 083d 7800 0000 		.long	0x78
 5709 0841 02        		.byte	0x2
 5710 0842 23        		.byte	0x23
 5711 0843 00        		.uleb128 0x0
 5712 0844 0B        		.uleb128 0xb
 5713 0845 0000 0000 		.long	.LASF144
 5714 0849 05        		.byte	0x5
 5715 084a 5708      		.word	0x857
 5716 084c 7800 0000 		.long	0x78
 5717 0850 02        		.byte	0x2
 5718 0851 23        		.byte	0x23
 5719 0852 01        		.uleb128 0x1
 5720 0853 00        		.byte	0x0
 5721 0854 10        		.uleb128 0x10
 5722 0855 02        		.byte	0x2
 5723 0856 05        		.byte	0x5
 5724 0857 5708      		.word	0x857
 5725 0859 6F08 0000 		.long	0x86f
 5726 085d 13        		.uleb128 0x13
 5727 085e 0000 0000 		.long	.LASF145
 5728 0862 05        		.byte	0x5
 5729 0863 5708      		.word	0x857
 5730 0865 CA03 0000 		.long	0x3ca
 5731 0869 12        		.uleb128 0x12
 5732 086a 2C08 0000 		.long	0x82c
 5733 086e 00        		.byte	0x0
 5734 086f 0A        		.uleb128 0xa
 5735 0870 0000 0000 		.long	.LASF146
 5736 0874 40        		.byte	0x40
 5737 0875 05        		.byte	0x5
 5738 0876 2108      		.word	0x821
 5739 0878 4B0B 0000 		.long	0xb4b
 5740 087c 0B        		.uleb128 0xb
 5741 087d 0000 0000 		.long	.LASF147
 5742 0881 05        		.byte	0x5
 5743 0882 2308      		.word	0x823
 5744 0884 7800 0000 		.long	0x78
 5745 0888 02        		.byte	0x2
 5746 0889 23        		.byte	0x23
 5747 088a 00        		.uleb128 0x0
 5748 088b 0B        		.uleb128 0xb
 5749 088c 0000 0000 		.long	.LASF148
 5750 0890 05        		.byte	0x5
 5751 0891 2408      		.word	0x824
 5752 0893 7800 0000 		.long	0x78
 5753 0897 02        		.byte	0x2
GAS LISTING /tmp/ccq5P7XK.s 			page 102


 5754 0898 23        		.byte	0x23
 5755 0899 01        		.uleb128 0x1
 5756 089a 0B        		.uleb128 0xb
 5757 089b 0000 0000 		.long	.LASF149
 5758 089f 05        		.byte	0x5
 5759 08a0 2508      		.word	0x825
 5760 08a2 7800 0000 		.long	0x78
 5761 08a6 02        		.byte	0x2
 5762 08a7 23        		.byte	0x23
 5763 08a8 02        		.uleb128 0x2
 5764 08a9 0B        		.uleb128 0xb
 5765 08aa 0000 0000 		.long	.LASF150
 5766 08ae 05        		.byte	0x5
 5767 08af 2608      		.word	0x826
 5768 08b1 7800 0000 		.long	0x78
 5769 08b5 02        		.byte	0x2
 5770 08b6 23        		.byte	0x23
 5771 08b7 03        		.uleb128 0x3
 5772 08b8 0B        		.uleb128 0xb
 5773 08b9 0000 0000 		.long	.LASF151
 5774 08bd 05        		.byte	0x5
 5775 08be 2708      		.word	0x827
 5776 08c0 7800 0000 		.long	0x78
 5777 08c4 02        		.byte	0x2
 5778 08c5 23        		.byte	0x23
 5779 08c6 04        		.uleb128 0x4
 5780 08c7 0B        		.uleb128 0xb
 5781 08c8 0000 0000 		.long	.LASF152
 5782 08cc 05        		.byte	0x5
 5783 08cd 2808      		.word	0x828
 5784 08cf 7800 0000 		.long	0x78
 5785 08d3 02        		.byte	0x2
 5786 08d4 23        		.byte	0x23
 5787 08d5 05        		.uleb128 0x5
 5788 08d6 0B        		.uleb128 0xb
 5789 08d7 0000 0000 		.long	.LASF153
 5790 08db 05        		.byte	0x5
 5791 08dc 2908      		.word	0x829
 5792 08de 7800 0000 		.long	0x78
 5793 08e2 02        		.byte	0x2
 5794 08e3 23        		.byte	0x23
 5795 08e4 06        		.uleb128 0x6
 5796 08e5 0B        		.uleb128 0xb
 5797 08e6 0000 0000 		.long	.LASF154
 5798 08ea 05        		.byte	0x5
 5799 08eb 2A08      		.word	0x82a
 5800 08ed 7800 0000 		.long	0x78
 5801 08f1 02        		.byte	0x2
 5802 08f2 23        		.byte	0x23
 5803 08f3 07        		.uleb128 0x7
 5804 08f4 0B        		.uleb128 0xb
 5805 08f5 0000 0000 		.long	.LASF155
 5806 08f9 05        		.byte	0x5
 5807 08fa 2B08      		.word	0x82b
 5808 08fc 7800 0000 		.long	0x78
 5809 0900 02        		.byte	0x2
 5810 0901 23        		.byte	0x23
GAS LISTING /tmp/ccq5P7XK.s 			page 103


 5811 0902 08        		.uleb128 0x8
 5812 0903 0B        		.uleb128 0xb
 5813 0904 0000 0000 		.long	.LASF156
 5814 0908 05        		.byte	0x5
 5815 0909 2C08      		.word	0x82c
 5816 090b 7800 0000 		.long	0x78
 5817 090f 02        		.byte	0x2
 5818 0910 23        		.byte	0x23
 5819 0911 09        		.uleb128 0x9
 5820 0912 0B        		.uleb128 0xb
 5821 0913 0000 0000 		.long	.LASF157
 5822 0917 05        		.byte	0x5
 5823 0918 2D08      		.word	0x82d
 5824 091a 7800 0000 		.long	0x78
 5825 091e 02        		.byte	0x2
 5826 091f 23        		.byte	0x23
 5827 0920 0A        		.uleb128 0xa
 5828 0921 0B        		.uleb128 0xb
 5829 0922 0000 0000 		.long	.LASF158
 5830 0926 05        		.byte	0x5
 5831 0927 2E08      		.word	0x82e
 5832 0929 7800 0000 		.long	0x78
 5833 092d 02        		.byte	0x2
 5834 092e 23        		.byte	0x23
 5835 092f 0B        		.uleb128 0xb
 5836 0930 0B        		.uleb128 0xb
 5837 0931 0000 0000 		.long	.LASF97
 5838 0935 05        		.byte	0x5
 5839 0936 2F08      		.word	0x82f
 5840 0938 7800 0000 		.long	0x78
 5841 093c 02        		.byte	0x2
 5842 093d 23        		.byte	0x23
 5843 093e 0C        		.uleb128 0xc
 5844 093f 0B        		.uleb128 0xb
 5845 0940 0000 0000 		.long	.LASF98
 5846 0944 05        		.byte	0x5
 5847 0945 3008      		.word	0x830
 5848 0947 7800 0000 		.long	0x78
 5849 094b 02        		.byte	0x2
 5850 094c 23        		.byte	0x23
 5851 094d 0D        		.uleb128 0xd
 5852 094e 0B        		.uleb128 0xb
 5853 094f 0000 0000 		.long	.LASF99
 5854 0953 05        		.byte	0x5
 5855 0954 3108      		.word	0x831
 5856 0956 7800 0000 		.long	0x78
 5857 095a 02        		.byte	0x2
 5858 095b 23        		.byte	0x23
 5859 095c 0E        		.uleb128 0xe
 5860 095d 0B        		.uleb128 0xb
 5861 095e 0000 0000 		.long	.LASF159
 5862 0962 05        		.byte	0x5
 5863 0963 3208      		.word	0x832
 5864 0965 7800 0000 		.long	0x78
 5865 0969 02        		.byte	0x2
 5866 096a 23        		.byte	0x23
 5867 096b 0F        		.uleb128 0xf
GAS LISTING /tmp/ccq5P7XK.s 			page 104


 5868 096c 0B        		.uleb128 0xb
 5869 096d 0000 0000 		.long	.LASF160
 5870 0971 05        		.byte	0x5
 5871 0972 3308      		.word	0x833
 5872 0974 7800 0000 		.long	0x78
 5873 0978 02        		.byte	0x2
 5874 0979 23        		.byte	0x23
 5875 097a 10        		.uleb128 0x10
 5876 097b 0B        		.uleb128 0xb
 5877 097c 0000 0000 		.long	.LASF161
 5878 0980 05        		.byte	0x5
 5879 0981 3408      		.word	0x834
 5880 0983 7800 0000 		.long	0x78
 5881 0987 02        		.byte	0x2
 5882 0988 23        		.byte	0x23
 5883 0989 11        		.uleb128 0x11
 5884 098a 0B        		.uleb128 0xb
 5885 098b 0000 0000 		.long	.LASF162
 5886 098f 05        		.byte	0x5
 5887 0990 3508      		.word	0x835
 5888 0992 7800 0000 		.long	0x78
 5889 0996 02        		.byte	0x2
 5890 0997 23        		.byte	0x23
 5891 0998 12        		.uleb128 0x12
 5892 0999 0B        		.uleb128 0xb
 5893 099a 0000 0000 		.long	.LASF163
 5894 099e 05        		.byte	0x5
 5895 099f 3608      		.word	0x836
 5896 09a1 7800 0000 		.long	0x78
 5897 09a5 02        		.byte	0x2
 5898 09a6 23        		.byte	0x23
 5899 09a7 13        		.uleb128 0x13
 5900 09a8 0B        		.uleb128 0xb
 5901 09a9 0000 0000 		.long	.LASF164
 5902 09ad 05        		.byte	0x5
 5903 09ae 3708      		.word	0x837
 5904 09b0 7800 0000 		.long	0x78
 5905 09b4 02        		.byte	0x2
 5906 09b5 23        		.byte	0x23
 5907 09b6 14        		.uleb128 0x14
 5908 09b7 0B        		.uleb128 0xb
 5909 09b8 0000 0000 		.long	.LASF165
 5910 09bc 05        		.byte	0x5
 5911 09bd 3808      		.word	0x838
 5912 09bf 7800 0000 		.long	0x78
 5913 09c3 02        		.byte	0x2
 5914 09c4 23        		.byte	0x23
 5915 09c5 15        		.uleb128 0x15
 5916 09c6 0B        		.uleb128 0xb
 5917 09c7 0000 0000 		.long	.LASF166
 5918 09cb 05        		.byte	0x5
 5919 09cc 3908      		.word	0x839
 5920 09ce 7800 0000 		.long	0x78
 5921 09d2 02        		.byte	0x2
 5922 09d3 23        		.byte	0x23
 5923 09d4 16        		.uleb128 0x16
 5924 09d5 0B        		.uleb128 0xb
GAS LISTING /tmp/ccq5P7XK.s 			page 105


 5925 09d6 0000 0000 		.long	.LASF167
 5926 09da 05        		.byte	0x5
 5927 09db 3A08      		.word	0x83a
 5928 09dd 7800 0000 		.long	0x78
 5929 09e1 02        		.byte	0x2
 5930 09e2 23        		.byte	0x23
 5931 09e3 17        		.uleb128 0x17
 5932 09e4 0B        		.uleb128 0xb
 5933 09e5 0000 0000 		.long	.LASF168
 5934 09e9 05        		.byte	0x5
 5935 09ea 3B08      		.word	0x83b
 5936 09ec 7800 0000 		.long	0x78
 5937 09f0 02        		.byte	0x2
 5938 09f1 23        		.byte	0x23
 5939 09f2 18        		.uleb128 0x18
 5940 09f3 0B        		.uleb128 0xb
 5941 09f4 0000 0000 		.long	.LASF169
 5942 09f8 05        		.byte	0x5
 5943 09f9 3C08      		.word	0x83c
 5944 09fb 7800 0000 		.long	0x78
 5945 09ff 02        		.byte	0x2
 5946 0a00 23        		.byte	0x23
 5947 0a01 19        		.uleb128 0x19
 5948 0a02 0B        		.uleb128 0xb
 5949 0a03 0000 0000 		.long	.LASF170
 5950 0a07 05        		.byte	0x5
 5951 0a08 3D08      		.word	0x83d
 5952 0a0a 7800 0000 		.long	0x78
 5953 0a0e 02        		.byte	0x2
 5954 0a0f 23        		.byte	0x23
 5955 0a10 1A        		.uleb128 0x1a
 5956 0a11 0B        		.uleb128 0xb
 5957 0a12 0000 0000 		.long	.LASF171
 5958 0a16 05        		.byte	0x5
 5959 0a17 3E08      		.word	0x83e
 5960 0a19 7800 0000 		.long	0x78
 5961 0a1d 02        		.byte	0x2
 5962 0a1e 23        		.byte	0x23
 5963 0a1f 1B        		.uleb128 0x1b
 5964 0a20 0B        		.uleb128 0xb
 5965 0a21 0000 0000 		.long	.LASF172
 5966 0a25 05        		.byte	0x5
 5967 0a26 3F08      		.word	0x83f
 5968 0a28 7800 0000 		.long	0x78
 5969 0a2c 02        		.byte	0x2
 5970 0a2d 23        		.byte	0x23
 5971 0a2e 1C        		.uleb128 0x1c
 5972 0a2f 0B        		.uleb128 0xb
 5973 0a30 0000 0000 		.long	.LASF173
 5974 0a34 05        		.byte	0x5
 5975 0a35 4008      		.word	0x840
 5976 0a37 7800 0000 		.long	0x78
 5977 0a3b 02        		.byte	0x2
 5978 0a3c 23        		.byte	0x23
 5979 0a3d 1D        		.uleb128 0x1d
 5980 0a3e 0B        		.uleb128 0xb
 5981 0a3f 0000 0000 		.long	.LASF174
GAS LISTING /tmp/ccq5P7XK.s 			page 106


 5982 0a43 05        		.byte	0x5
 5983 0a44 4108      		.word	0x841
 5984 0a46 7800 0000 		.long	0x78
 5985 0a4a 02        		.byte	0x2
 5986 0a4b 23        		.byte	0x23
 5987 0a4c 1E        		.uleb128 0x1e
 5988 0a4d 0B        		.uleb128 0xb
 5989 0a4e 0000 0000 		.long	.LASF175
 5990 0a52 05        		.byte	0x5
 5991 0a53 4208      		.word	0x842
 5992 0a55 7800 0000 		.long	0x78
 5993 0a59 02        		.byte	0x2
 5994 0a5a 23        		.byte	0x23
 5995 0a5b 1F        		.uleb128 0x1f
 5996 0a5c 14        		.uleb128 0x14
 5997 0a5d B605 0000 		.long	0x5b6
 5998 0a61 02        		.byte	0x2
 5999 0a62 23        		.byte	0x23
 6000 0a63 20        		.uleb128 0x20
 6001 0a64 0B        		.uleb128 0xb
 6002 0a65 0000 0000 		.long	.LASF176
 6003 0a69 05        		.byte	0x5
 6004 0a6a 4408      		.word	0x844
 6005 0a6c 7800 0000 		.long	0x78
 6006 0a70 02        		.byte	0x2
 6007 0a71 23        		.byte	0x23
 6008 0a72 22        		.uleb128 0x22
 6009 0a73 0B        		.uleb128 0xb
 6010 0a74 0000 0000 		.long	.LASF177
 6011 0a78 05        		.byte	0x5
 6012 0a79 4508      		.word	0x845
 6013 0a7b 7800 0000 		.long	0x78
 6014 0a7f 02        		.byte	0x2
 6015 0a80 23        		.byte	0x23
 6016 0a81 23        		.uleb128 0x23
 6017 0a82 0B        		.uleb128 0xb
 6018 0a83 0000 0000 		.long	.LASF178
 6019 0a87 05        		.byte	0x5
 6020 0a88 4608      		.word	0x846
 6021 0a8a 7800 0000 		.long	0x78
 6022 0a8e 02        		.byte	0x2
 6023 0a8f 23        		.byte	0x23
 6024 0a90 24        		.uleb128 0x24
 6025 0a91 0B        		.uleb128 0xb
 6026 0a92 0000 0000 		.long	.LASF179
 6027 0a96 05        		.byte	0x5
 6028 0a97 4708      		.word	0x847
 6029 0a99 7800 0000 		.long	0x78
 6030 0a9d 02        		.byte	0x2
 6031 0a9e 23        		.byte	0x23
 6032 0a9f 25        		.uleb128 0x25
 6033 0aa0 14        		.uleb128 0x14
 6034 0aa1 F905 0000 		.long	0x5f9
 6035 0aa5 02        		.byte	0x2
 6036 0aa6 23        		.byte	0x23
 6037 0aa7 26        		.uleb128 0x26
 6038 0aa8 14        		.uleb128 0x14
GAS LISTING /tmp/ccq5P7XK.s 			page 107


 6039 0aa9 3C06 0000 		.long	0x63c
 6040 0aad 02        		.byte	0x2
 6041 0aae 23        		.byte	0x23
 6042 0aaf 28        		.uleb128 0x28
 6043 0ab0 14        		.uleb128 0x14
 6044 0ab1 7F06 0000 		.long	0x67f
 6045 0ab5 02        		.byte	0x2
 6046 0ab6 23        		.byte	0x23
 6047 0ab7 2A        		.uleb128 0x2a
 6048 0ab8 14        		.uleb128 0x14
 6049 0ab9 C206 0000 		.long	0x6c2
 6050 0abd 02        		.byte	0x2
 6051 0abe 23        		.byte	0x23
 6052 0abf 2C        		.uleb128 0x2c
 6053 0ac0 14        		.uleb128 0x14
 6054 0ac1 0507 0000 		.long	0x705
 6055 0ac5 02        		.byte	0x2
 6056 0ac6 23        		.byte	0x23
 6057 0ac7 2E        		.uleb128 0x2e
 6058 0ac8 0B        		.uleb128 0xb
 6059 0ac9 0000 0000 		.long	.LASF180
 6060 0acd 05        		.byte	0x5
 6061 0ace 4D08      		.word	0x84d
 6062 0ad0 7800 0000 		.long	0x78
 6063 0ad4 02        		.byte	0x2
 6064 0ad5 23        		.byte	0x23
 6065 0ad6 30        		.uleb128 0x30
 6066 0ad7 0B        		.uleb128 0xb
 6067 0ad8 0000 0000 		.long	.LASF181
 6068 0adc 05        		.byte	0x5
 6069 0add 4E08      		.word	0x84e
 6070 0adf 7800 0000 		.long	0x78
 6071 0ae3 02        		.byte	0x2
 6072 0ae4 23        		.byte	0x23
 6073 0ae5 31        		.uleb128 0x31
 6074 0ae6 0B        		.uleb128 0xb
 6075 0ae7 0000 0000 		.long	.LASF182
 6076 0aeb 05        		.byte	0x5
 6077 0aec 4F08      		.word	0x84f
 6078 0aee 7800 0000 		.long	0x78
 6079 0af2 02        		.byte	0x2
 6080 0af3 23        		.byte	0x23
 6081 0af4 32        		.uleb128 0x32
 6082 0af5 0B        		.uleb128 0xb
 6083 0af6 0000 0000 		.long	.LASF183
 6084 0afa 05        		.byte	0x5
 6085 0afb 5008      		.word	0x850
 6086 0afd 7800 0000 		.long	0x78
 6087 0b01 02        		.byte	0x2
 6088 0b02 23        		.byte	0x23
 6089 0b03 33        		.uleb128 0x33
 6090 0b04 0B        		.uleb128 0xb
 6091 0b05 0000 0000 		.long	.LASF184
 6092 0b09 05        		.byte	0x5
 6093 0b0a 5108      		.word	0x851
 6094 0b0c 7800 0000 		.long	0x78
 6095 0b10 02        		.byte	0x2
GAS LISTING /tmp/ccq5P7XK.s 			page 108


 6096 0b11 23        		.byte	0x23
 6097 0b12 34        		.uleb128 0x34
 6098 0b13 0B        		.uleb128 0xb
 6099 0b14 0000 0000 		.long	.LASF185
 6100 0b18 05        		.byte	0x5
 6101 0b19 5208      		.word	0x852
 6102 0b1b 7800 0000 		.long	0x78
 6103 0b1f 02        		.byte	0x2
 6104 0b20 23        		.byte	0x23
 6105 0b21 35        		.uleb128 0x35
 6106 0b22 14        		.uleb128 0x14
 6107 0b23 4807 0000 		.long	0x748
 6108 0b27 02        		.byte	0x2
 6109 0b28 23        		.byte	0x23
 6110 0b29 36        		.uleb128 0x36
 6111 0b2a 14        		.uleb128 0x14
 6112 0b2b 8B07 0000 		.long	0x78b
 6113 0b2f 02        		.byte	0x2
 6114 0b30 23        		.byte	0x23
 6115 0b31 38        		.uleb128 0x38
 6116 0b32 14        		.uleb128 0x14
 6117 0b33 CE07 0000 		.long	0x7ce
 6118 0b37 02        		.byte	0x2
 6119 0b38 23        		.byte	0x23
 6120 0b39 3A        		.uleb128 0x3a
 6121 0b3a 14        		.uleb128 0x14
 6122 0b3b 1108 0000 		.long	0x811
 6123 0b3f 02        		.byte	0x2
 6124 0b40 23        		.byte	0x23
 6125 0b41 3C        		.uleb128 0x3c
 6126 0b42 14        		.uleb128 0x14
 6127 0b43 5408 0000 		.long	0x854
 6128 0b47 02        		.byte	0x2
 6129 0b48 23        		.byte	0x23
 6130 0b49 3E        		.uleb128 0x3e
 6131 0b4a 00        		.byte	0x0
 6132 0b4b 0C        		.uleb128 0xc
 6133 0b4c 0000 0000 		.long	.LASF186
 6134 0b50 05        		.byte	0x5
 6135 0b51 5808      		.word	0x858
 6136 0b53 6F08 0000 		.long	0x86f
 6137 0b57 0D        		.uleb128 0xd
 6138 0b58 0000 0000 		.long	.LASF187
 6139 0b5c 01        		.byte	0x1
 6140 0b5d 05        		.byte	0x5
 6141 0b5e BF08      		.word	0x8bf
 6142 0b60 C50B 0000 		.long	0xbc5
 6143 0b64 07        		.uleb128 0x7
 6144 0b65 0000 0000 		.long	.LASF188
 6145 0b69 00        		.sleb128 0
 6146 0b6a 07        		.uleb128 0x7
 6147 0b6b 0000 0000 		.long	.LASF189
 6148 0b6f 01        		.sleb128 1
 6149 0b70 07        		.uleb128 0x7
 6150 0b71 0000 0000 		.long	.LASF190
 6151 0b75 02        		.sleb128 2
 6152 0b76 07        		.uleb128 0x7
GAS LISTING /tmp/ccq5P7XK.s 			page 109


 6153 0b77 0000 0000 		.long	.LASF191
 6154 0b7b 03        		.sleb128 3
 6155 0b7c 07        		.uleb128 0x7
 6156 0b7d 0000 0000 		.long	.LASF192
 6157 0b81 04        		.sleb128 4
 6158 0b82 07        		.uleb128 0x7
 6159 0b83 0000 0000 		.long	.LASF193
 6160 0b87 05        		.sleb128 5
 6161 0b88 07        		.uleb128 0x7
 6162 0b89 0000 0000 		.long	.LASF194
 6163 0b8d 06        		.sleb128 6
 6164 0b8e 07        		.uleb128 0x7
 6165 0b8f 0000 0000 		.long	.LASF195
 6166 0b93 07        		.sleb128 7
 6167 0b94 07        		.uleb128 0x7
 6168 0b95 0000 0000 		.long	.LASF196
 6169 0b99 08        		.sleb128 8
 6170 0b9a 07        		.uleb128 0x7
 6171 0b9b 0000 0000 		.long	.LASF197
 6172 0b9f 09        		.sleb128 9
 6173 0ba0 07        		.uleb128 0x7
 6174 0ba1 0000 0000 		.long	.LASF198
 6175 0ba5 0A        		.sleb128 10
 6176 0ba6 07        		.uleb128 0x7
 6177 0ba7 0000 0000 		.long	.LASF199
 6178 0bab 0B        		.sleb128 11
 6179 0bac 07        		.uleb128 0x7
 6180 0bad 0000 0000 		.long	.LASF200
 6181 0bb1 0C        		.sleb128 12
 6182 0bb2 07        		.uleb128 0x7
 6183 0bb3 0000 0000 		.long	.LASF201
 6184 0bb7 0D        		.sleb128 13
 6185 0bb8 07        		.uleb128 0x7
 6186 0bb9 0000 0000 		.long	.LASF202
 6187 0bbd 0E        		.sleb128 14
 6188 0bbe 07        		.uleb128 0x7
 6189 0bbf 0000 0000 		.long	.LASF203
 6190 0bc3 0F        		.sleb128 15
 6191 0bc4 00        		.byte	0x0
 6192 0bc5 0D        		.uleb128 0xd
 6193 0bc6 0000 0000 		.long	.LASF204
 6194 0bca 01        		.byte	0x1
 6195 0bcb 05        		.byte	0x5
 6196 0bcc 0209      		.word	0x902
 6197 0bce EB0B 0000 		.long	0xbeb
 6198 0bd2 07        		.uleb128 0x7
 6199 0bd3 0000 0000 		.long	.LASF205
 6200 0bd7 00        		.sleb128 0
 6201 0bd8 07        		.uleb128 0x7
 6202 0bd9 0000 0000 		.long	.LASF206
 6203 0bdd 01        		.sleb128 1
 6204 0bde 07        		.uleb128 0x7
 6205 0bdf 0000 0000 		.long	.LASF207
 6206 0be3 02        		.sleb128 2
 6207 0be4 07        		.uleb128 0x7
 6208 0be5 0000 0000 		.long	.LASF208
 6209 0be9 03        		.sleb128 3
GAS LISTING /tmp/ccq5P7XK.s 			page 110


 6210 0bea 00        		.byte	0x0
 6211 0beb 02        		.uleb128 0x2
 6212 0bec 01        		.byte	0x1
 6213 0bed 08        		.byte	0x8
 6214 0bee 0000 0000 		.long	.LASF209
 6215 0bf2 02        		.uleb128 0x2
 6216 0bf3 01        		.byte	0x1
 6217 0bf4 08        		.byte	0x8
 6218 0bf5 0000 0000 		.long	.LASF209
 6219 0bf9 08        		.uleb128 0x8
 6220 0bfa 0000 0000 		.long	.LASF210
 6221 0bfe 24        		.byte	0x24
 6222 0bff 02        		.byte	0x2
 6223 0c00 D5        		.byte	0xd5
 6224 0c01 020D 0000 		.long	0xd02
 6225 0c05 09        		.uleb128 0x9
 6226 0c06 0000 0000 		.long	.LASF211
 6227 0c0a 02        		.byte	0x2
 6228 0c0b D6        		.byte	0xd6
 6229 0c0c 3E00 0000 		.long	0x3e
 6230 0c10 02        		.byte	0x2
 6231 0c11 23        		.byte	0x23
 6232 0c12 00        		.uleb128 0x0
 6233 0c13 09        		.uleb128 0x9
 6234 0c14 0000 0000 		.long	.LASF212
 6235 0c18 02        		.byte	0x2
 6236 0c19 D7        		.byte	0xd7
 6237 0c1a 3E00 0000 		.long	0x3e
 6238 0c1e 02        		.byte	0x2
 6239 0c1f 23        		.byte	0x23
 6240 0c20 02        		.uleb128 0x2
 6241 0c21 09        		.uleb128 0x9
 6242 0c22 0000 0000 		.long	.LASF213
 6243 0c26 02        		.byte	0x2
 6244 0c27 D8        		.byte	0xd8
 6245 0c28 3E00 0000 		.long	0x3e
 6246 0c2c 02        		.byte	0x2
 6247 0c2d 23        		.byte	0x23
 6248 0c2e 04        		.uleb128 0x4
 6249 0c2f 09        		.uleb128 0x9
 6250 0c30 0000 0000 		.long	.LASF214
 6251 0c34 02        		.byte	0x2
 6252 0c35 D9        		.byte	0xd9
 6253 0c36 5E00 0000 		.long	0x5e
 6254 0c3a 02        		.byte	0x2
 6255 0c3b 23        		.byte	0x23
 6256 0c3c 06        		.uleb128 0x6
 6257 0c3d 09        		.uleb128 0x9
 6258 0c3e 0000 0000 		.long	.LASF215
 6259 0c42 02        		.byte	0x2
 6260 0c43 DA        		.byte	0xda
 6261 0c44 3E00 0000 		.long	0x3e
 6262 0c48 02        		.byte	0x2
 6263 0c49 23        		.byte	0x23
 6264 0c4a 0A        		.uleb128 0xa
 6265 0c4b 09        		.uleb128 0x9
 6266 0c4c 0000 0000 		.long	.LASF216
GAS LISTING /tmp/ccq5P7XK.s 			page 111


 6267 0c50 02        		.byte	0x2
 6268 0c51 DB        		.byte	0xdb
 6269 0c52 3E00 0000 		.long	0x3e
 6270 0c56 02        		.byte	0x2
 6271 0c57 23        		.byte	0x23
 6272 0c58 0C        		.uleb128 0xc
 6273 0c59 09        		.uleb128 0x9
 6274 0c5a 0000 0000 		.long	.LASF217
 6275 0c5e 02        		.byte	0x2
 6276 0c5f DC        		.byte	0xdc
 6277 0c60 3E00 0000 		.long	0x3e
 6278 0c64 02        		.byte	0x2
 6279 0c65 23        		.byte	0x23
 6280 0c66 0E        		.uleb128 0xe
 6281 0c67 09        		.uleb128 0x9
 6282 0c68 0000 0000 		.long	.LASF218
 6283 0c6c 02        		.byte	0x2
 6284 0c6d DD        		.byte	0xdd
 6285 0c6e 3E00 0000 		.long	0x3e
 6286 0c72 02        		.byte	0x2
 6287 0c73 23        		.byte	0x23
 6288 0c74 10        		.uleb128 0x10
 6289 0c75 09        		.uleb128 0x9
 6290 0c76 0000 0000 		.long	.LASF219
 6291 0c7a 02        		.byte	0x2
 6292 0c7b DE        		.byte	0xde
 6293 0c7c 3E00 0000 		.long	0x3e
 6294 0c80 02        		.byte	0x2
 6295 0c81 23        		.byte	0x23
 6296 0c82 12        		.uleb128 0x12
 6297 0c83 09        		.uleb128 0x9
 6298 0c84 0000 0000 		.long	.LASF220
 6299 0c88 02        		.byte	0x2
 6300 0c89 E2        		.byte	0xe2
 6301 0c8a 020D 0000 		.long	0xd02
 6302 0c8e 02        		.byte	0x2
 6303 0c8f 23        		.byte	0x23
 6304 0c90 14        		.uleb128 0x14
 6305 0c91 09        		.uleb128 0x9
 6306 0c92 0000 0000 		.long	.LASF221
 6307 0c96 02        		.byte	0x2
 6308 0c97 E3        		.byte	0xe3
 6309 0c98 3E00 0000 		.long	0x3e
 6310 0c9c 02        		.byte	0x2
 6311 0c9d 23        		.byte	0x23
 6312 0c9e 15        		.uleb128 0x15
 6313 0c9f 09        		.uleb128 0x9
 6314 0ca0 0000 0000 		.long	.LASF222
 6315 0ca4 02        		.byte	0x2
 6316 0ca5 E4        		.byte	0xe4
 6317 0ca6 020D 0000 		.long	0xd02
 6318 0caa 02        		.byte	0x2
 6319 0cab 23        		.byte	0x23
 6320 0cac 17        		.uleb128 0x17
 6321 0cad 09        		.uleb128 0x9
 6322 0cae 0000 0000 		.long	.LASF223
 6323 0cb2 02        		.byte	0x2
GAS LISTING /tmp/ccq5P7XK.s 			page 112


 6324 0cb3 E5        		.byte	0xe5
 6325 0cb4 3E00 0000 		.long	0x3e
 6326 0cb8 02        		.byte	0x2
 6327 0cb9 23        		.byte	0x23
 6328 0cba 18        		.uleb128 0x18
 6329 0cbb 09        		.uleb128 0x9
 6330 0cbc 0000 0000 		.long	.LASF224
 6331 0cc0 02        		.byte	0x2
 6332 0cc1 E6        		.byte	0xe6
 6333 0cc2 020D 0000 		.long	0xd02
 6334 0cc6 02        		.byte	0x2
 6335 0cc7 23        		.byte	0x23
 6336 0cc8 1A        		.uleb128 0x1a
 6337 0cc9 09        		.uleb128 0x9
 6338 0cca 0000 0000 		.long	.LASF225
 6339 0cce 02        		.byte	0x2
 6340 0ccf E7        		.byte	0xe7
 6341 0cd0 3E00 0000 		.long	0x3e
 6342 0cd4 02        		.byte	0x2
 6343 0cd5 23        		.byte	0x23
 6344 0cd6 1B        		.uleb128 0x1b
 6345 0cd7 09        		.uleb128 0x9
 6346 0cd8 0000 0000 		.long	.LASF226
 6347 0cdc 02        		.byte	0x2
 6348 0cdd E8        		.byte	0xe8
 6349 0cde 020D 0000 		.long	0xd02
 6350 0ce2 02        		.byte	0x2
 6351 0ce3 23        		.byte	0x23
 6352 0ce4 1D        		.uleb128 0x1d
 6353 0ce5 09        		.uleb128 0x9
 6354 0ce6 0000 0000 		.long	.LASF227
 6355 0cea 02        		.byte	0x2
 6356 0ceb E9        		.byte	0xe9
 6357 0cec 3E00 0000 		.long	0x3e
 6358 0cf0 02        		.byte	0x2
 6359 0cf1 23        		.byte	0x23
 6360 0cf2 1E        		.uleb128 0x1e
 6361 0cf3 09        		.uleb128 0x9
 6362 0cf4 0000 0000 		.long	.LASF228
 6363 0cf8 02        		.byte	0x2
 6364 0cf9 EB        		.byte	0xeb
 6365 0cfa 4C00 0000 		.long	0x4c
 6366 0cfe 02        		.byte	0x2
 6367 0cff 23        		.byte	0x23
 6368 0d00 20        		.uleb128 0x20
 6369 0d01 00        		.byte	0x0
 6370 0d02 02        		.uleb128 0x2
 6371 0d03 01        		.byte	0x1
 6372 0d04 08        		.byte	0x8
 6373 0d05 0000 0000 		.long	.LASF229
 6374 0d09 15        		.uleb128 0x15
 6375 0d0a 0000 0000 		.long	.LASF309
 6376 0d0e 03        		.byte	0x3
 6377 0d0f D2        		.byte	0xd2
 6378 0d10 01        		.byte	0x1
 6379 0d11 03        		.byte	0x3
 6380 0d12 530D 0000 		.long	0xd53
GAS LISTING /tmp/ccq5P7XK.s 			page 113


 6381 0d16 16        		.uleb128 0x16
 6382 0d17 0000 0000 		.long	.LASF234
 6383 0d1b 03        		.byte	0x3
 6384 0d1c D2        		.byte	0xd2
 6385 0d1d 530D 0000 		.long	0xd53
 6386 0d21 17        		.uleb128 0x17
 6387 0d22 0000 0000 		.long	.LASF230
 6388 0d26 03        		.byte	0x3
 6389 0d27 D4        		.byte	0xd4
 6390 0d28 2C00 0000 		.long	0x2c
 6391 0d2c 17        		.uleb128 0x17
 6392 0d2d 0000 0000 		.long	.LASF231
 6393 0d31 03        		.byte	0x3
 6394 0d32 D5        		.byte	0xd5
 6395 0d33 530D 0000 		.long	0xd53
 6396 0d37 17        		.uleb128 0x17
 6397 0d38 0000 0000 		.long	.LASF232
 6398 0d3c 03        		.byte	0x3
 6399 0d3d D7        		.byte	0xd7
 6400 0d3e 5300 0000 		.long	0x53
 6401 0d42 18        		.uleb128 0x18
 6402 0d43 01        		.byte	0x1
 6403 0d44 0000 0000 		.long	.LASF310
 6404 0d48 03        		.byte	0x3
 6405 0d49 D8        		.byte	0xd8
 6406 0d4a 01        		.byte	0x1
 6407 0d4b 01        		.byte	0x1
 6408 0d4c 19        		.uleb128 0x19
 6409 0d4d 5E00 0000 		.long	0x5e
 6410 0d51 00        		.byte	0x0
 6411 0d52 00        		.byte	0x0
 6412 0d53 02        		.uleb128 0x2
 6413 0d54 04        		.byte	0x4
 6414 0d55 04        		.byte	0x4
 6415 0d56 0000 0000 		.long	.LASF233
 6416 0d5a 1A        		.uleb128 0x1a
 6417 0d5b 01        		.byte	0x1
 6418 0d5c 0000 0000 		.long	.LASF311
 6419 0d60 02        		.byte	0x2
 6420 0d61 5B        		.byte	0x5b
 6421 0d62 01        		.byte	0x1
 6422 0d63 4C00 0000 		.long	0x4c
 6423 0d67 01        		.byte	0x1
 6424 0d68 1B        		.uleb128 0x1b
 6425 0d69 01        		.byte	0x1
 6426 0d6a 0000 0000 		.long	.LASF237
 6427 0d6e 02        		.byte	0x2
 6428 0d6f 7101      		.word	0x171
 6429 0d71 01        		.byte	0x1
 6430 0d72 01        		.byte	0x1
 6431 0d73 900D 0000 		.long	0xd90
 6432 0d77 1C        		.uleb128 0x1c
 6433 0d78 0000 0000 		.long	.LASF235
 6434 0d7c 02        		.byte	0x2
 6435 0d7d 7101      		.word	0x171
 6436 0d7f 900D 0000 		.long	0xd90
 6437 0d83 1C        		.uleb128 0x1c
GAS LISTING /tmp/ccq5P7XK.s 			page 114


 6438 0d84 0000 0000 		.long	.LASF236
 6439 0d88 02        		.byte	0x2
 6440 0d89 7101      		.word	0x171
 6441 0d8b 4C00 0000 		.long	0x4c
 6442 0d8f 00        		.byte	0x0
 6443 0d90 1D        		.uleb128 0x1d
 6444 0d91 02        		.byte	0x2
 6445 0d92 F90B 0000 		.long	0xbf9
 6446 0d96 1E        		.uleb128 0x1e
 6447 0d97 01        		.byte	0x1
 6448 0d98 0000 0000 		.long	.LASF312
 6449 0d9c 02        		.byte	0x2
 6450 0d9d 4B        		.byte	0x4b
 6451 0d9e 01        		.byte	0x1
 6452 0d9f 3E00 0000 		.long	0x3e
 6453 0da3 01        		.byte	0x1
 6454 0da4 B20D 0000 		.long	0xdb2
 6455 0da8 1F        		.uleb128 0x1f
 6456 0da9 6E00      		.string	"n"
 6457 0dab 02        		.byte	0x2
 6458 0dac 4B        		.byte	0x4b
 6459 0dad 3E00 0000 		.long	0x3e
 6460 0db1 00        		.byte	0x0
 6461 0db2 1B        		.uleb128 0x1b
 6462 0db3 01        		.byte	0x1
 6463 0db4 0000 0000 		.long	.LASF238
 6464 0db8 02        		.byte	0x2
 6465 0db9 1902      		.word	0x219
 6466 0dbb 01        		.byte	0x1
 6467 0dbc 01        		.byte	0x1
 6468 0dbd 0A0E 0000 		.long	0xe0a
 6469 0dc1 1C        		.uleb128 0x1c
 6470 0dc2 0000 0000 		.long	.LASF239
 6471 0dc6 02        		.byte	0x2
 6472 0dc7 1902      		.word	0x219
 6473 0dc9 3E00 0000 		.long	0x3e
 6474 0dcd 1C        		.uleb128 0x1c
 6475 0dce 0000 0000 		.long	.LASF240
 6476 0dd2 02        		.byte	0x2
 6477 0dd3 1902      		.word	0x219
 6478 0dd5 3E00 0000 		.long	0x3e
 6479 0dd9 1C        		.uleb128 0x1c
 6480 0dda 0000 0000 		.long	.LASF241
 6481 0dde 02        		.byte	0x2
 6482 0ddf 1902      		.word	0x219
 6483 0de1 3E00 0000 		.long	0x3e
 6484 0de5 1C        		.uleb128 0x1c
 6485 0de6 0000 0000 		.long	.LASF242
 6486 0dea 02        		.byte	0x2
 6487 0deb 1902      		.word	0x219
 6488 0ded 3E00 0000 		.long	0x3e
 6489 0df1 1C        		.uleb128 0x1c
 6490 0df2 0000 0000 		.long	.LASF243
 6491 0df6 02        		.byte	0x2
 6492 0df7 1902      		.word	0x219
 6493 0df9 3E00 0000 		.long	0x3e
 6494 0dfd 1C        		.uleb128 0x1c
GAS LISTING /tmp/ccq5P7XK.s 			page 115


 6495 0dfe 0000 0000 		.long	.LASF244
 6496 0e02 02        		.byte	0x2
 6497 0e03 1902      		.word	0x219
 6498 0e05 3E00 0000 		.long	0x3e
 6499 0e09 00        		.byte	0x0
 6500 0e0a 20        		.uleb128 0x20
 6501 0e0b 01        		.byte	0x1
 6502 0e0c 0000 0000 		.long	.LASF249
 6503 0e10 01        		.byte	0x1
 6504 0e11 4D        		.byte	0x4d
 6505 0e12 01        		.byte	0x1
 6506 0e13 0000 0000 		.long	.LFB6
 6507 0e17 0000 0000 		.long	.LFE6
 6508 0e1b 03        		.byte	0x3
 6509 0e1c 92        		.byte	0x92
 6510 0e1d 20        		.uleb128 0x20
 6511 0e1e 00        		.sleb128 0
 6512 0e1f 5C0E 0000 		.long	0xe5c
 6513 0e23 21        		.uleb128 0x21
 6514 0e24 0000 0000 		.long	.LASF245
 6515 0e28 01        		.byte	0x1
 6516 0e29 4D        		.byte	0x4d
 6517 0e2a 5C0E 0000 		.long	0xe5c
 6518 0e2e 0000 0000 		.long	.LLST0
 6519 0e32 22        		.uleb128 0x22
 6520 0e33 0000 0000 		.long	.LASF246
 6521 0e37 01        		.byte	0x1
 6522 0e38 4D        		.byte	0x4d
 6523 0e39 2C00 0000 		.long	0x2c
 6524 0e3d 01        		.byte	0x1
 6525 0e3e 66        		.byte	0x66
 6526 0e3f 23        		.uleb128 0x23
 6527 0e40 0000 0000 		.long	.LASF247
 6528 0e44 01        		.byte	0x1
 6529 0e45 6C        		.byte	0x6c
 6530 0e46 7300 0000 		.long	0x73
 6531 0e4a 01        		.byte	0x1
 6532 0e4b 62        		.byte	0x62
 6533 0e4c 24        		.uleb128 0x24
 6534 0e4d 0000 0000 		.long	.LASF248
 6535 0e51 01        		.byte	0x1
 6536 0e52 6D        		.byte	0x6d
 6537 0e53 5C0E 0000 		.long	0xe5c
 6538 0e57 0000 0000 		.long	.LLST1
 6539 0e5b 00        		.byte	0x0
 6540 0e5c 1D        		.uleb128 0x1d
 6541 0e5d 02        		.byte	0x2
 6542 0e5e 7300 0000 		.long	0x73
 6543 0e62 20        		.uleb128 0x20
 6544 0e63 01        		.byte	0x1
 6545 0e64 0000 0000 		.long	.LASF250
 6546 0e68 01        		.byte	0x1
 6547 0e69 8D        		.byte	0x8d
 6548 0e6a 01        		.byte	0x1
 6549 0e6b 0000 0000 		.long	.LFB7
 6550 0e6f 0000 0000 		.long	.LFE7
 6551 0e73 03        		.byte	0x3
GAS LISTING /tmp/ccq5P7XK.s 			page 116


 6552 0e74 92        		.byte	0x92
 6553 0e75 20        		.uleb128 0x20
 6554 0e76 00        		.sleb128 0
 6555 0e77 A50E 0000 		.long	0xea5
 6556 0e7b 21        		.uleb128 0x21
 6557 0e7c 0000 0000 		.long	.LASF251
 6558 0e80 01        		.byte	0x1
 6559 0e81 8D        		.byte	0x8d
 6560 0e82 7F02 0000 		.long	0x27f
 6561 0e86 0000 0000 		.long	.LLST2
 6562 0e8a 22        		.uleb128 0x22
 6563 0e8b 0000 0000 		.long	.LASF252
 6564 0e8f 01        		.byte	0x1
 6565 0e90 8E        		.byte	0x8e
 6566 0e91 A50E 0000 		.long	0xea5
 6567 0e95 01        		.byte	0x1
 6568 0e96 66        		.byte	0x66
 6569 0e97 22        		.uleb128 0x22
 6570 0e98 0000 0000 		.long	.LASF253
 6571 0e9c 01        		.byte	0x1
 6572 0e9d 8F        		.byte	0x8f
 6573 0e9e B702 0000 		.long	0x2b7
 6574 0ea2 01        		.byte	0x1
 6575 0ea3 64        		.byte	0x64
 6576 0ea4 00        		.byte	0x0
 6577 0ea5 02        		.uleb128 0x2
 6578 0ea6 01        		.byte	0x1
 6579 0ea7 02        		.byte	0x2
 6580 0ea8 0000 0000 		.long	.LASF254
 6581 0eac 20        		.uleb128 0x20
 6582 0ead 01        		.byte	0x1
 6583 0eae 0000 0000 		.long	.LASF255
 6584 0eb2 01        		.byte	0x1
 6585 0eb3 A7        		.byte	0xa7
 6586 0eb4 01        		.byte	0x1
 6587 0eb5 0000 0000 		.long	.LFB8
 6588 0eb9 0000 0000 		.long	.LFE8
 6589 0ebd 03        		.byte	0x3
 6590 0ebe 92        		.byte	0x92
 6591 0ebf 20        		.uleb128 0x20
 6592 0ec0 00        		.sleb128 0
 6593 0ec1 E20E 0000 		.long	0xee2
 6594 0ec5 22        		.uleb128 0x22
 6595 0ec6 0000 0000 		.long	.LASF256
 6596 0eca 01        		.byte	0x1
 6597 0ecb A7        		.byte	0xa7
 6598 0ecc E502 0000 		.long	0x2e5
 6599 0ed0 01        		.byte	0x1
 6600 0ed1 68        		.byte	0x68
 6601 0ed2 21        		.uleb128 0x21
 6602 0ed3 0000 0000 		.long	.LASF257
 6603 0ed7 01        		.byte	0x1
 6604 0ed8 A7        		.byte	0xa7
 6605 0ed9 2C00 0000 		.long	0x2c
 6606 0edd 0000 0000 		.long	.LLST3
 6607 0ee1 00        		.byte	0x0
 6608 0ee2 25        		.uleb128 0x25
GAS LISTING /tmp/ccq5P7XK.s 			page 117


 6609 0ee3 01        		.byte	0x1
 6610 0ee4 0000 0000 		.long	.LASF264
 6611 0ee8 01        		.byte	0x1
 6612 0ee9 BB        		.byte	0xbb
 6613 0eea 01        		.byte	0x1
 6614 0eeb 2C00 0000 		.long	0x2c
 6615 0eef 0000 0000 		.long	.LFB9
 6616 0ef3 0000 0000 		.long	.LFE9
 6617 0ef7 03        		.byte	0x3
 6618 0ef8 92        		.byte	0x92
 6619 0ef9 20        		.uleb128 0x20
 6620 0efa 00        		.sleb128 0
 6621 0efb 1E0F 0000 		.long	0xf1e
 6622 0eff 21        		.uleb128 0x21
 6623 0f00 0000 0000 		.long	.LASF258
 6624 0f04 01        		.byte	0x1
 6625 0f05 BB        		.byte	0xbb
 6626 0f06 2C00 0000 		.long	0x2c
 6627 0f0a 0000 0000 		.long	.LLST4
 6628 0f0e 24        		.uleb128 0x24
 6629 0f0f 0000 0000 		.long	.LASF259
 6630 0f13 01        		.byte	0x1
 6631 0f14 BE        		.byte	0xbe
 6632 0f15 2C00 0000 		.long	0x2c
 6633 0f19 0000 0000 		.long	.LLST5
 6634 0f1d 00        		.byte	0x0
 6635 0f1e 20        		.uleb128 0x20
 6636 0f1f 01        		.byte	0x1
 6637 0f20 0000 0000 		.long	.LASF260
 6638 0f24 01        		.byte	0x1
 6639 0f25 CE        		.byte	0xce
 6640 0f26 01        		.byte	0x1
 6641 0f27 0000 0000 		.long	.LFB10
 6642 0f2b 0000 0000 		.long	.LFE10
 6643 0f2f 03        		.byte	0x3
 6644 0f30 92        		.byte	0x92
 6645 0f31 20        		.uleb128 0x20
 6646 0f32 00        		.sleb128 0
 6647 0f33 650F 0000 		.long	0xf65
 6648 0f37 21        		.uleb128 0x21
 6649 0f38 0000 0000 		.long	.LASF261
 6650 0f3c 01        		.byte	0x1
 6651 0f3d CE        		.byte	0xce
 6652 0f3e 6801 0000 		.long	0x168
 6653 0f42 0000 0000 		.long	.LLST6
 6654 0f46 21        		.uleb128 0x21
 6655 0f47 0000 0000 		.long	.LASF262
 6656 0f4b 01        		.byte	0x1
 6657 0f4c CF        		.byte	0xcf
 6658 0f4d 9801 0000 		.long	0x198
 6659 0f51 0000 0000 		.long	.LLST7
 6660 0f55 24        		.uleb128 0x24
 6661 0f56 0000 0000 		.long	.LASF263
 6662 0f5a 01        		.byte	0x1
 6663 0f5b D1        		.byte	0xd1
 6664 0f5c 2C00 0000 		.long	0x2c
 6665 0f60 0000 0000 		.long	.LLST8
GAS LISTING /tmp/ccq5P7XK.s 			page 118


 6666 0f64 00        		.byte	0x0
 6667 0f65 25        		.uleb128 0x25
 6668 0f66 01        		.byte	0x1
 6669 0f67 0000 0000 		.long	.LASF265
 6670 0f6b 01        		.byte	0x1
 6671 0f6c E1        		.byte	0xe1
 6672 0f6d 01        		.byte	0x1
 6673 0f6e 2C00 0000 		.long	0x2c
 6674 0f72 0000 0000 		.long	.LFB11
 6675 0f76 0000 0000 		.long	.LFE11
 6676 0f7a 03        		.byte	0x3
 6677 0f7b 92        		.byte	0x92
 6678 0f7c 20        		.uleb128 0x20
 6679 0f7d 00        		.sleb128 0
 6680 0f7e A10F 0000 		.long	0xfa1
 6681 0f82 21        		.uleb128 0x21
 6682 0f83 0000 0000 		.long	.LASF256
 6683 0f87 01        		.byte	0x1
 6684 0f88 E1        		.byte	0xe1
 6685 0f89 1301 0000 		.long	0x113
 6686 0f8d 0000 0000 		.long	.LLST9
 6687 0f91 24        		.uleb128 0x24
 6688 0f92 0000 0000 		.long	.LASF266
 6689 0f96 01        		.byte	0x1
 6690 0f97 E3        		.byte	0xe3
 6691 0f98 2C00 0000 		.long	0x2c
 6692 0f9c 0000 0000 		.long	.LLST10
 6693 0fa0 00        		.byte	0x0
 6694 0fa1 20        		.uleb128 0x20
 6695 0fa2 01        		.byte	0x1
 6696 0fa3 0000 0000 		.long	.LASF267
 6697 0fa7 01        		.byte	0x1
 6698 0fa8 F1        		.byte	0xf1
 6699 0fa9 01        		.byte	0x1
 6700 0faa 0000 0000 		.long	.LFB12
 6701 0fae 0000 0000 		.long	.LFE12
 6702 0fb2 03        		.byte	0x3
 6703 0fb3 92        		.byte	0x92
 6704 0fb4 20        		.uleb128 0x20
 6705 0fb5 00        		.sleb128 0
 6706 0fb6 C80F 0000 		.long	0xfc8
 6707 0fba 22        		.uleb128 0x22
 6708 0fbb 0000 0000 		.long	.LASF256
 6709 0fbf 01        		.byte	0x1
 6710 0fc0 F1        		.byte	0xf1
 6711 0fc1 C801 0000 		.long	0x1c8
 6712 0fc5 01        		.byte	0x1
 6713 0fc6 68        		.byte	0x68
 6714 0fc7 00        		.byte	0x0
 6715 0fc8 26        		.uleb128 0x26
 6716 0fc9 01        		.byte	0x1
 6717 0fca 0000 0000 		.long	.LASF268
 6718 0fce 01        		.byte	0x1
 6719 0fcf 0401      		.word	0x104
 6720 0fd1 01        		.byte	0x1
 6721 0fd2 0000 0000 		.long	.LFB13
 6722 0fd6 0000 0000 		.long	.LFE13
GAS LISTING /tmp/ccq5P7XK.s 			page 119


 6723 0fda 03        		.byte	0x3
 6724 0fdb 92        		.byte	0x92
 6725 0fdc 20        		.uleb128 0x20
 6726 0fdd 00        		.sleb128 0
 6727 0fde 0110 0000 		.long	0x1001
 6728 0fe2 27        		.uleb128 0x27
 6729 0fe3 0000 0000 		.long	.LASF269
 6730 0fe7 01        		.byte	0x1
 6731 0fe8 0401      		.word	0x104
 6732 0fea 2C00 0000 		.long	0x2c
 6733 0fee 0000 0000 		.long	.LLST11
 6734 0ff2 28        		.uleb128 0x28
 6735 0ff3 0000 0000 		.long	.LASF270
 6736 0ff7 01        		.byte	0x1
 6737 0ff8 0401      		.word	0x104
 6738 0ffa A50E 0000 		.long	0xea5
 6739 0ffe 01        		.byte	0x1
 6740 0fff 66        		.byte	0x66
 6741 1000 00        		.byte	0x0
 6742 1001 29        		.uleb128 0x29
 6743 1002 01        		.byte	0x1
 6744 1003 0000 0000 		.long	.LASF271
 6745 1007 01        		.byte	0x1
 6746 1008 1801      		.word	0x118
 6747 100a 01        		.byte	0x1
 6748 100b 0000 0000 		.long	.LFB14
 6749 100f 0000 0000 		.long	.LFE14
 6750 1013 03        		.byte	0x3
 6751 1014 92        		.byte	0x92
 6752 1015 20        		.uleb128 0x20
 6753 1016 00        		.sleb128 0
 6754 1017 29        		.uleb128 0x29
 6755 1018 01        		.byte	0x1
 6756 1019 0000 0000 		.long	.LASF272
 6757 101d 01        		.byte	0x1
 6758 101e 2401      		.word	0x124
 6759 1020 01        		.byte	0x1
 6760 1021 0000 0000 		.long	.LFB15
 6761 1025 0000 0000 		.long	.LFE15
 6762 1029 03        		.byte	0x3
 6763 102a 92        		.byte	0x92
 6764 102b 20        		.uleb128 0x20
 6765 102c 00        		.sleb128 0
 6766 102d 2A        		.uleb128 0x2a
 6767 102e 01        		.byte	0x1
 6768 102f 0000 0000 		.long	.LASF273
 6769 1033 02        		.byte	0x2
 6770 1034 35        		.byte	0x35
 6771 1035 01        		.byte	0x1
 6772 1036 0000 0000 		.long	.LFB16
 6773 103a 0000 0000 		.long	.LFE16
 6774 103e 03        		.byte	0x3
 6775 103f 92        		.byte	0x92
 6776 1040 20        		.uleb128 0x20
 6777 1041 00        		.sleb128 0
 6778 1042 20        		.uleb128 0x20
 6779 1043 01        		.byte	0x1
GAS LISTING /tmp/ccq5P7XK.s 			page 120


 6780 1044 0000 0000 		.long	.LASF274
 6781 1048 02        		.byte	0x2
 6782 1049 3A        		.byte	0x3a
 6783 104a 01        		.byte	0x1
 6784 104b 0000 0000 		.long	.LFB17
 6785 104f 0000 0000 		.long	.LFE17
 6786 1053 03        		.byte	0x3
 6787 1054 92        		.byte	0x92
 6788 1055 20        		.uleb128 0x20
 6789 1056 00        		.sleb128 0
 6790 1057 A410 0000 		.long	0x10a4
 6791 105b 2B        		.uleb128 0x2b
 6792 105c 6D73 00   		.string	"ms"
 6793 105f 02        		.byte	0x2
 6794 1060 3A        		.byte	0x3a
 6795 1061 3E00 0000 		.long	0x3e
 6796 1065 0000 0000 		.long	.LLST12
 6797 1069 2C        		.uleb128 0x2c
 6798 106a 090D 0000 		.long	0xd09
 6799 106e 0000 0000 		.long	.LBB64
 6800 1072 0000 0000 		.long	.LBE64
 6801 1076 02        		.byte	0x2
 6802 1077 3D        		.byte	0x3d
 6803 1078 2D        		.uleb128 0x2d
 6804 1079 160D 0000 		.long	0xd16
 6805 107d 0000 0000 		.long	.LLST13
 6806 1081 2E        		.uleb128 0x2e
 6807 1082 0000 0000 		.long	.LBB65
 6808 1086 0000 0000 		.long	.LBE65
 6809 108a 2F        		.uleb128 0x2f
 6810 108b 210D 0000 		.long	0xd21
 6811 108f 30        		.uleb128 0x30
 6812 1090 2C0D 0000 		.long	0xd2c
 6813 1094 0000 0000 		.long	.LLST14
 6814 1098 30        		.uleb128 0x30
 6815 1099 370D 0000 		.long	0xd37
 6816 109d 0000 0000 		.long	.LLST15
 6817 10a1 00        		.byte	0x0
 6818 10a2 00        		.byte	0x0
 6819 10a3 00        		.byte	0x0
 6820 10a4 25        		.uleb128 0x25
 6821 10a5 01        		.byte	0x1
 6822 10a6 0000 0000 		.long	.LASF275
 6823 10aa 02        		.byte	0x2
 6824 10ab 41        		.byte	0x41
 6825 10ac 01        		.byte	0x1
 6826 10ad 3E00 0000 		.long	0x3e
 6827 10b1 0000 0000 		.long	.LFB18
 6828 10b5 0000 0000 		.long	.LFE18
 6829 10b9 03        		.byte	0x3
 6830 10ba 92        		.byte	0x92
 6831 10bb 20        		.uleb128 0x20
 6832 10bc 00        		.sleb128 0
 6833 10bd DF10 0000 		.long	0x10df
 6834 10c1 2B        		.uleb128 0x2b
 6835 10c2 6100      		.string	"a"
 6836 10c4 02        		.byte	0x2
GAS LISTING /tmp/ccq5P7XK.s 			page 121


 6837 10c5 41        		.byte	0x41
 6838 10c6 DF10 0000 		.long	0x10df
 6839 10ca 0000 0000 		.long	.LLST16
 6840 10ce 31        		.uleb128 0x31
 6841 10cf 6200      		.string	"b"
 6842 10d1 02        		.byte	0x2
 6843 10d2 41        		.byte	0x41
 6844 10d3 DF10 0000 		.long	0x10df
 6845 10d7 06        		.byte	0x6
 6846 10d8 66        		.byte	0x66
 6847 10d9 93        		.byte	0x93
 6848 10da 01        		.uleb128 0x1
 6849 10db 67        		.byte	0x67
 6850 10dc 93        		.byte	0x93
 6851 10dd 01        		.uleb128 0x1
 6852 10de 00        		.byte	0x0
 6853 10df 1D        		.uleb128 0x1d
 6854 10e0 02        		.byte	0x2
 6855 10e1 3E00 0000 		.long	0x3e
 6856 10e5 32        		.uleb128 0x32
 6857 10e6 960D 0000 		.long	0xd96
 6858 10ea 0000 0000 		.long	.LFB19
 6859 10ee 0000 0000 		.long	.LFE19
 6860 10f2 03        		.byte	0x3
 6861 10f3 92        		.byte	0x92
 6862 10f4 20        		.uleb128 0x20
 6863 10f5 00        		.sleb128 0
 6864 10f6 0411 0000 		.long	0x1104
 6865 10fa 2D        		.uleb128 0x2d
 6866 10fb A80D 0000 		.long	0xda8
 6867 10ff 0000 0000 		.long	.LLST17
 6868 1103 00        		.byte	0x0
 6869 1104 2A        		.uleb128 0x2a
 6870 1105 01        		.byte	0x1
 6871 1106 0000 0000 		.long	.LASF276
 6872 110a 02        		.byte	0x2
 6873 110b 50        		.byte	0x50
 6874 110c 01        		.byte	0x1
 6875 110d 0000 0000 		.long	.LFB20
 6876 1111 0000 0000 		.long	.LFE20
 6877 1115 03        		.byte	0x3
 6878 1116 92        		.byte	0x92
 6879 1117 20        		.uleb128 0x20
 6880 1118 00        		.sleb128 0
 6881 1119 33        		.uleb128 0x33
 6882 111a 5A0D 0000 		.long	0xd5a
 6883 111e 0000 0000 		.long	.LFB21
 6884 1122 0000 0000 		.long	.LFE21
 6885 1126 03        		.byte	0x3
 6886 1127 92        		.byte	0x92
 6887 1128 20        		.uleb128 0x20
 6888 1129 00        		.sleb128 0
 6889 112a 20        		.uleb128 0x20
 6890 112b 01        		.byte	0x1
 6891 112c 0000 0000 		.long	.LASF277
 6892 1130 02        		.byte	0x2
 6893 1131 5F        		.byte	0x5f
GAS LISTING /tmp/ccq5P7XK.s 			page 122


 6894 1132 01        		.byte	0x1
 6895 1133 0000 0000 		.long	.LFB22
 6896 1137 0000 0000 		.long	.LFE22
 6897 113b 03        		.byte	0x3
 6898 113c 92        		.byte	0x92
 6899 113d 20        		.uleb128 0x20
 6900 113e 00        		.sleb128 0
 6901 113f 5311 0000 		.long	0x1153
 6902 1143 21        		.uleb128 0x21
 6903 1144 0000 0000 		.long	.LASF278
 6904 1148 02        		.byte	0x2
 6905 1149 5F        		.byte	0x5f
 6906 114a 3E00 0000 		.long	0x3e
 6907 114e 0000 0000 		.long	.LLST18
 6908 1152 00        		.byte	0x0
 6909 1153 20        		.uleb128 0x20
 6910 1154 01        		.byte	0x1
 6911 1155 0000 0000 		.long	.LASF279
 6912 1159 02        		.byte	0x2
 6913 115a 68        		.byte	0x68
 6914 115b 01        		.byte	0x1
 6915 115c 0000 0000 		.long	.LFB23
 6916 1160 0000 0000 		.long	.LFE23
 6917 1164 03        		.byte	0x3
 6918 1165 92        		.byte	0x92
 6919 1166 20        		.uleb128 0x20
 6920 1167 00        		.sleb128 0
 6921 1168 8E11 0000 		.long	0x118e
 6922 116c 21        		.uleb128 0x21
 6923 116d 0000 0000 		.long	.LASF280
 6924 1171 02        		.byte	0x2
 6925 1172 68        		.byte	0x68
 6926 1173 020D 0000 		.long	0xd02
 6927 1177 0000 0000 		.long	.LLST19
 6928 117b 22        		.uleb128 0x22
 6929 117c 0000 0000 		.long	.LASF281
 6930 1180 02        		.byte	0x2
 6931 1181 68        		.byte	0x68
 6932 1182 3E00 0000 		.long	0x3e
 6933 1186 06        		.byte	0x6
 6934 1187 66        		.byte	0x66
 6935 1188 93        		.byte	0x93
 6936 1189 01        		.uleb128 0x1
 6937 118a 67        		.byte	0x67
 6938 118b 93        		.byte	0x93
 6939 118c 01        		.uleb128 0x1
 6940 118d 00        		.byte	0x0
 6941 118e 20        		.uleb128 0x20
 6942 118f 01        		.byte	0x1
 6943 1190 0000 0000 		.long	.LASF282
 6944 1194 02        		.byte	0x2
 6945 1195 9F        		.byte	0x9f
 6946 1196 01        		.byte	0x1
 6947 1197 0000 0000 		.long	.LFB24
 6948 119b 0000 0000 		.long	.LFE24
 6949 119f 03        		.byte	0x3
 6950 11a0 92        		.byte	0x92
GAS LISTING /tmp/ccq5P7XK.s 			page 123


 6951 11a1 20        		.uleb128 0x20
 6952 11a2 00        		.sleb128 0
 6953 11a3 C911 0000 		.long	0x11c9
 6954 11a7 21        		.uleb128 0x21
 6955 11a8 0000 0000 		.long	.LASF280
 6956 11ac 02        		.byte	0x2
 6957 11ad 9F        		.byte	0x9f
 6958 11ae 020D 0000 		.long	0xd02
 6959 11b2 0000 0000 		.long	.LLST20
 6960 11b6 22        		.uleb128 0x22
 6961 11b7 0000 0000 		.long	.LASF281
 6962 11bb 02        		.byte	0x2
 6963 11bc 9F        		.byte	0x9f
 6964 11bd 3E00 0000 		.long	0x3e
 6965 11c1 06        		.byte	0x6
 6966 11c2 66        		.byte	0x66
 6967 11c3 93        		.byte	0x93
 6968 11c4 01        		.uleb128 0x1
 6969 11c5 67        		.byte	0x67
 6970 11c6 93        		.byte	0x93
 6971 11c7 01        		.uleb128 0x1
 6972 11c8 00        		.byte	0x0
 6973 11c9 32        		.uleb128 0x32
 6974 11ca 680D 0000 		.long	0xd68
 6975 11ce 0000 0000 		.long	.LFB25
 6976 11d2 0000 0000 		.long	.LFE25
 6977 11d6 03        		.byte	0x3
 6978 11d7 92        		.byte	0x92
 6979 11d8 20        		.uleb128 0x20
 6980 11d9 00        		.sleb128 0
 6981 11da FD11 0000 		.long	0x11fd
 6982 11de 34        		.uleb128 0x34
 6983 11df 770D 0000 		.long	0xd77
 6984 11e3 06        		.byte	0x6
 6985 11e4 68        		.byte	0x68
 6986 11e5 93        		.byte	0x93
 6987 11e6 01        		.uleb128 0x1
 6988 11e7 69        		.byte	0x69
 6989 11e8 93        		.byte	0x93
 6990 11e9 01        		.uleb128 0x1
 6991 11ea 34        		.uleb128 0x34
 6992 11eb 830D 0000 		.long	0xd83
 6993 11ef 0C        		.byte	0xc
 6994 11f0 64        		.byte	0x64
 6995 11f1 93        		.byte	0x93
 6996 11f2 01        		.uleb128 0x1
 6997 11f3 65        		.byte	0x65
 6998 11f4 93        		.byte	0x93
 6999 11f5 01        		.uleb128 0x1
 7000 11f6 66        		.byte	0x66
 7001 11f7 93        		.byte	0x93
 7002 11f8 01        		.uleb128 0x1
 7003 11f9 67        		.byte	0x67
 7004 11fa 93        		.byte	0x93
 7005 11fb 01        		.uleb128 0x1
 7006 11fc 00        		.byte	0x0
 7007 11fd 26        		.uleb128 0x26
GAS LISTING /tmp/ccq5P7XK.s 			page 124


 7008 11fe 01        		.byte	0x1
 7009 11ff 0000 0000 		.long	.LASF283
 7010 1203 02        		.byte	0x2
 7011 1204 7601      		.word	0x176
 7012 1206 01        		.byte	0x1
 7013 1207 0000 0000 		.long	.LFB26
 7014 120b 0000 0000 		.long	.LFE26
 7015 120f 03        		.byte	0x3
 7016 1210 92        		.byte	0x92
 7017 1211 20        		.uleb128 0x20
 7018 1212 00        		.sleb128 0
 7019 1213 3612 0000 		.long	0x1236
 7020 1217 28        		.uleb128 0x28
 7021 1218 0000 0000 		.long	.LASF235
 7022 121c 02        		.byte	0x2
 7023 121d 7601      		.word	0x176
 7024 121f F90B 0000 		.long	0xbf9
 7025 1223 02        		.byte	0x2
 7026 1224 91        		.byte	0x91
 7027 1225 0E        		.sleb128 14
 7028 1226 28        		.uleb128 0x28
 7029 1227 0000 0000 		.long	.LASF284
 7030 122b 02        		.byte	0x2
 7031 122c 7601      		.word	0x176
 7032 122e 3E00 0000 		.long	0x3e
 7033 1232 02        		.byte	0x2
 7034 1233 91        		.byte	0x91
 7035 1234 32        		.sleb128 50
 7036 1235 00        		.byte	0x0
 7037 1236 26        		.uleb128 0x26
 7038 1237 01        		.byte	0x1
 7039 1238 0000 0000 		.long	.LASF285
 7040 123c 02        		.byte	0x2
 7041 123d AA01      		.word	0x1aa
 7042 123f 01        		.byte	0x1
 7043 1240 0000 0000 		.long	.LFB27
 7044 1244 0000 0000 		.long	.LFE27
 7045 1248 03        		.byte	0x3
 7046 1249 92        		.byte	0x92
 7047 124a 20        		.uleb128 0x20
 7048 124b 00        		.sleb128 0
 7049 124c A112 0000 		.long	0x12a1
 7050 1250 27        		.uleb128 0x27
 7051 1251 0000 0000 		.long	.LASF235
 7052 1255 02        		.byte	0x2
 7053 1256 AA01      		.word	0x1aa
 7054 1258 900D 0000 		.long	0xd90
 7055 125c 0000 0000 		.long	.LLST21
 7056 1260 27        		.uleb128 0x27
 7057 1261 0000 0000 		.long	.LASF286
 7058 1265 02        		.byte	0x2
 7059 1266 AA01      		.word	0x1aa
 7060 1268 3E00 0000 		.long	0x3e
 7061 126c 0000 0000 		.long	.LLST22
 7062 1270 35        		.uleb128 0x35
 7063 1271 0000 0000 		.long	.LASF287
 7064 1275 02        		.byte	0x2
GAS LISTING /tmp/ccq5P7XK.s 			page 125


 7065 1276 AB01      		.word	0x1ab
 7066 1278 3E00 0000 		.long	0x3e
 7067 127c 0000 0000 		.long	.LLST23
 7068 1280 36        		.uleb128 0x36
 7069 1281 5A0D 0000 		.long	0xd5a
 7070 1285 0000 0000 		.long	.LBB66
 7071 1289 0000 0000 		.long	.LBE66
 7072 128d 02        		.byte	0x2
 7073 128e B801      		.word	0x1b8
 7074 1290 36        		.uleb128 0x36
 7075 1291 5A0D 0000 		.long	0xd5a
 7076 1295 0000 0000 		.long	.LBB68
 7077 1299 0000 0000 		.long	.LBE68
 7078 129d 02        		.byte	0x2
 7079 129e BA01      		.word	0x1ba
 7080 12a0 00        		.byte	0x0
 7081 12a1 26        		.uleb128 0x26
 7082 12a2 01        		.byte	0x1
 7083 12a3 0000 0000 		.long	.LASF288
 7084 12a7 02        		.byte	0x2
 7085 12a8 EB01      		.word	0x1eb
 7086 12aa 01        		.byte	0x1
 7087 12ab 0000 0000 		.long	.LFB28
 7088 12af 0000 0000 		.long	.LFE28
 7089 12b3 03        		.byte	0x3
 7090 12b4 92        		.byte	0x92
 7091 12b5 20        		.uleb128 0x20
 7092 12b6 00        		.sleb128 0
 7093 12b7 DC12 0000 		.long	0x12dc
 7094 12bb 27        		.uleb128 0x27
 7095 12bc 0000 0000 		.long	.LASF235
 7096 12c0 02        		.byte	0x2
 7097 12c1 EB01      		.word	0x1eb
 7098 12c3 900D 0000 		.long	0xd90
 7099 12c7 0000 0000 		.long	.LLST24
 7100 12cb 27        		.uleb128 0x27
 7101 12cc 0000 0000 		.long	.LASF289
 7102 12d0 02        		.byte	0x2
 7103 12d1 EB01      		.word	0x1eb
 7104 12d3 3E00 0000 		.long	0x3e
 7105 12d7 0000 0000 		.long	.LLST25
 7106 12db 00        		.byte	0x0
 7107 12dc 32        		.uleb128 0x32
 7108 12dd B20D 0000 		.long	0xdb2
 7109 12e1 0000 0000 		.long	.LFB29
 7110 12e5 0000 0000 		.long	.LFE29
 7111 12e9 03        		.byte	0x3
 7112 12ea 92        		.byte	0x92
 7113 12eb 20        		.uleb128 0x20
 7114 12ec 00        		.sleb128 0
 7115 12ed 3413 0000 		.long	0x1334
 7116 12f1 34        		.uleb128 0x34
 7117 12f2 C10D 0000 		.long	0xdc1
 7118 12f6 06        		.byte	0x6
 7119 12f7 68        		.byte	0x68
 7120 12f8 93        		.byte	0x93
 7121 12f9 01        		.uleb128 0x1
GAS LISTING /tmp/ccq5P7XK.s 			page 126


 7122 12fa 69        		.byte	0x69
 7123 12fb 93        		.byte	0x93
 7124 12fc 01        		.uleb128 0x1
 7125 12fd 34        		.uleb128 0x34
 7126 12fe CD0D 0000 		.long	0xdcd
 7127 1302 06        		.byte	0x6
 7128 1303 66        		.byte	0x66
 7129 1304 93        		.byte	0x93
 7130 1305 01        		.uleb128 0x1
 7131 1306 67        		.byte	0x67
 7132 1307 93        		.byte	0x93
 7133 1308 01        		.uleb128 0x1
 7134 1309 34        		.uleb128 0x34
 7135 130a D90D 0000 		.long	0xdd9
 7136 130e 06        		.byte	0x6
 7137 130f 64        		.byte	0x64
 7138 1310 93        		.byte	0x93
 7139 1311 01        		.uleb128 0x1
 7140 1312 65        		.byte	0x65
 7141 1313 93        		.byte	0x93
 7142 1314 01        		.uleb128 0x1
 7143 1315 34        		.uleb128 0x34
 7144 1316 E50D 0000 		.long	0xde5
 7145 131a 06        		.byte	0x6
 7146 131b 62        		.byte	0x62
 7147 131c 93        		.byte	0x93
 7148 131d 01        		.uleb128 0x1
 7149 131e 63        		.byte	0x63
 7150 131f 93        		.byte	0x93
 7151 1320 01        		.uleb128 0x1
 7152 1321 2D        		.uleb128 0x2d
 7153 1322 F10D 0000 		.long	0xdf1
 7154 1326 0000 0000 		.long	.LLST26
 7155 132a 2D        		.uleb128 0x2d
 7156 132b FD0D 0000 		.long	0xdfd
 7157 132f 0000 0000 		.long	.LLST27
 7158 1333 00        		.byte	0x0
 7159 1334 26        		.uleb128 0x26
 7160 1335 01        		.byte	0x1
 7161 1336 0000 0000 		.long	.LASF290
 7162 133a 02        		.byte	0x2
 7163 133b 2202      		.word	0x222
 7164 133d 01        		.byte	0x1
 7165 133e 0000 0000 		.long	.LFB30
 7166 1342 0000 0000 		.long	.LFE30
 7167 1346 03        		.byte	0x3
 7168 1347 92        		.byte	0x92
 7169 1348 20        		.uleb128 0x20
 7170 1349 00        		.sleb128 0
 7171 134a D015 0000 		.long	0x15d0
 7172 134e 37        		.uleb128 0x37
 7173 134f 0000 0000 		.long	.LASF291
 7174 1353 02        		.byte	0x2
 7175 1354 2402      		.word	0x224
 7176 1356 D015 0000 		.long	0x15d0
 7177 135a 02        		.byte	0x2
 7178 135b 8C        		.byte	0x8c
GAS LISTING /tmp/ccq5P7XK.s 			page 127


 7179 135c 01        		.sleb128 1
 7180 135d 35        		.uleb128 0x35
 7181 135e 0000 0000 		.long	.LASF292
 7182 1362 02        		.byte	0x2
 7183 1363 2E02      		.word	0x22e
 7184 1365 3E00 0000 		.long	0x3e
 7185 1369 0000 0000 		.long	.LLST28
 7186 136d 38        		.uleb128 0x38
 7187 136e 6900      		.string	"i"
 7188 1370 02        		.byte	0x2
 7189 1371 2F02      		.word	0x22f
 7190 1373 3E00 0000 		.long	0x3e
 7191 1377 0000 0000 		.long	.LLST29
 7192 137b 39        		.uleb128 0x39
 7193 137c 680D 0000 		.long	0xd68
 7194 1380 0000 0000 		.long	.LBB70
 7195 1384 0000 0000 		.long	.Ldebug_ranges0+0x0
 7196 1388 02        		.byte	0x2
 7197 1389 3802      		.word	0x238
 7198 138b A113 0000 		.long	0x13a1
 7199 138f 3A        		.uleb128 0x3a
 7200 1390 830D 0000 		.long	0xd83
 7201 1394 34        		.uleb128 0x34
 7202 1395 770D 0000 		.long	0xd77
 7203 1399 06        		.byte	0x6
 7204 139a 03        		.byte	0x3
 7205 139b 0000 0000 		.long	Base
 7206 139f 9F        		.byte	0x9f
 7207 13a0 00        		.byte	0x0
 7208 13a1 39        		.uleb128 0x39
 7209 13a2 680D 0000 		.long	0xd68
 7210 13a6 0000 0000 		.long	.LBB74
 7211 13aa 0000 0000 		.long	.Ldebug_ranges0+0x18
 7212 13ae 02        		.byte	0x2
 7213 13af 3902      		.word	0x239
 7214 13b1 C713 0000 		.long	0x13c7
 7215 13b5 3A        		.uleb128 0x3a
 7216 13b6 830D 0000 		.long	0xd83
 7217 13ba 34        		.uleb128 0x34
 7218 13bb 770D 0000 		.long	0xd77
 7219 13bf 06        		.byte	0x6
 7220 13c0 03        		.byte	0x3
 7221 13c1 0000 0000 		.long	Shoulder
 7222 13c5 9F        		.byte	0x9f
 7223 13c6 00        		.byte	0x0
 7224 13c7 39        		.uleb128 0x39
 7225 13c8 680D 0000 		.long	0xd68
 7226 13cc 0000 0000 		.long	.LBB78
 7227 13d0 0000 0000 		.long	.Ldebug_ranges0+0x30
 7228 13d4 02        		.byte	0x2
 7229 13d5 3A02      		.word	0x23a
 7230 13d7 ED13 0000 		.long	0x13ed
 7231 13db 3A        		.uleb128 0x3a
 7232 13dc 830D 0000 		.long	0xd83
 7233 13e0 34        		.uleb128 0x34
 7234 13e1 770D 0000 		.long	0xd77
 7235 13e5 06        		.byte	0x6
GAS LISTING /tmp/ccq5P7XK.s 			page 128


 7236 13e6 03        		.byte	0x3
 7237 13e7 0000 0000 		.long	Elbow
 7238 13eb 9F        		.byte	0x9f
 7239 13ec 00        		.byte	0x0
 7240 13ed 39        		.uleb128 0x39
 7241 13ee 680D 0000 		.long	0xd68
 7242 13f2 0000 0000 		.long	.LBB82
 7243 13f6 0000 0000 		.long	.Ldebug_ranges0+0x48
 7244 13fa 02        		.byte	0x2
 7245 13fb 3B02      		.word	0x23b
 7246 13fd 1314 0000 		.long	0x1413
 7247 1401 3A        		.uleb128 0x3a
 7248 1402 830D 0000 		.long	0xd83
 7249 1406 34        		.uleb128 0x34
 7250 1407 770D 0000 		.long	0xd77
 7251 140b 06        		.byte	0x6
 7252 140c 03        		.byte	0x3
 7253 140d 0000 0000 		.long	Right_Wrist
 7254 1411 9F        		.byte	0x9f
 7255 1412 00        		.byte	0x0
 7256 1413 39        		.uleb128 0x39
 7257 1414 680D 0000 		.long	0xd68
 7258 1418 0000 0000 		.long	.LBB86
 7259 141c 0000 0000 		.long	.Ldebug_ranges0+0x60
 7260 1420 02        		.byte	0x2
 7261 1421 3C02      		.word	0x23c
 7262 1423 3914 0000 		.long	0x1439
 7263 1427 3A        		.uleb128 0x3a
 7264 1428 830D 0000 		.long	0xd83
 7265 142c 34        		.uleb128 0x34
 7266 142d 770D 0000 		.long	0xd77
 7267 1431 06        		.byte	0x6
 7268 1432 03        		.byte	0x3
 7269 1433 0000 0000 		.long	Left_Wrist
 7270 1437 9F        		.byte	0x9f
 7271 1438 00        		.byte	0x0
 7272 1439 39        		.uleb128 0x39
 7273 143a 680D 0000 		.long	0xd68
 7274 143e 0000 0000 		.long	.LBB90
 7275 1442 0000 0000 		.long	.Ldebug_ranges0+0x78
 7276 1446 02        		.byte	0x2
 7277 1447 3D02      		.word	0x23d
 7278 1449 5F14 0000 		.long	0x145f
 7279 144d 3A        		.uleb128 0x3a
 7280 144e 830D 0000 		.long	0xd83
 7281 1452 34        		.uleb128 0x34
 7282 1453 770D 0000 		.long	0xd77
 7283 1457 06        		.byte	0x6
 7284 1458 03        		.byte	0x3
 7285 1459 0000 0000 		.long	Gripper
 7286 145d 9F        		.byte	0x9f
 7287 145e 00        		.byte	0x0
 7288 145f 36        		.uleb128 0x36
 7289 1460 5A0D 0000 		.long	0xd5a
 7290 1464 0000 0000 		.long	.LBB94
 7291 1468 0000 0000 		.long	.LBE94
 7292 146c 02        		.byte	0x2
GAS LISTING /tmp/ccq5P7XK.s 			page 129


 7293 146d 4602      		.word	0x246
 7294 146f 36        		.uleb128 0x36
 7295 1470 5A0D 0000 		.long	0xd5a
 7296 1474 0000 0000 		.long	.LBB96
 7297 1478 0000 0000 		.long	.LBE96
 7298 147c 02        		.byte	0x2
 7299 147d 4702      		.word	0x247
 7300 147f 3B        		.uleb128 0x3b
 7301 1480 960D 0000 		.long	0xd96
 7302 1484 0000 0000 		.long	.LBB98
 7303 1488 0000 0000 		.long	.LBE98
 7304 148c 02        		.byte	0x2
 7305 148d 4802      		.word	0x248
 7306 148f 9D14 0000 		.long	0x149d
 7307 1493 2D        		.uleb128 0x2d
 7308 1494 A80D 0000 		.long	0xda8
 7309 1498 0000 0000 		.long	.LLST30
 7310 149c 00        		.byte	0x0
 7311 149d 36        		.uleb128 0x36
 7312 149e 5A0D 0000 		.long	0xd5a
 7313 14a2 0000 0000 		.long	.LBB100
 7314 14a6 0000 0000 		.long	.LBE100
 7315 14aa 02        		.byte	0x2
 7316 14ab 4A02      		.word	0x24a
 7317 14ad 36        		.uleb128 0x36
 7318 14ae 5A0D 0000 		.long	0xd5a
 7319 14b2 0000 0000 		.long	.LBB102
 7320 14b6 0000 0000 		.long	.LBE102
 7321 14ba 02        		.byte	0x2
 7322 14bb 4B02      		.word	0x24b
 7323 14bd 3B        		.uleb128 0x3b
 7324 14be 960D 0000 		.long	0xd96
 7325 14c2 0000 0000 		.long	.LBB104
 7326 14c6 0000 0000 		.long	.LBE104
 7327 14ca 02        		.byte	0x2
 7328 14cb 4C02      		.word	0x24c
 7329 14cd DB14 0000 		.long	0x14db
 7330 14d1 2D        		.uleb128 0x2d
 7331 14d2 A80D 0000 		.long	0xda8
 7332 14d6 0000 0000 		.long	.LLST31
 7333 14da 00        		.byte	0x0
 7334 14db 36        		.uleb128 0x36
 7335 14dc 5A0D 0000 		.long	0xd5a
 7336 14e0 0000 0000 		.long	.LBB106
 7337 14e4 0000 0000 		.long	.LBE106
 7338 14e8 02        		.byte	0x2
 7339 14e9 4E02      		.word	0x24e
 7340 14eb 36        		.uleb128 0x36
 7341 14ec 5A0D 0000 		.long	0xd5a
 7342 14f0 0000 0000 		.long	.LBB108
 7343 14f4 0000 0000 		.long	.LBE108
 7344 14f8 02        		.byte	0x2
 7345 14f9 4F02      		.word	0x24f
 7346 14fb 3B        		.uleb128 0x3b
 7347 14fc 960D 0000 		.long	0xd96
 7348 1500 0000 0000 		.long	.LBB110
 7349 1504 0000 0000 		.long	.LBE110
GAS LISTING /tmp/ccq5P7XK.s 			page 130


 7350 1508 02        		.byte	0x2
 7351 1509 5002      		.word	0x250
 7352 150b 1915 0000 		.long	0x1519
 7353 150f 2D        		.uleb128 0x2d
 7354 1510 A80D 0000 		.long	0xda8
 7355 1514 0000 0000 		.long	.LLST32
 7356 1518 00        		.byte	0x0
 7357 1519 36        		.uleb128 0x36
 7358 151a 5A0D 0000 		.long	0xd5a
 7359 151e 0000 0000 		.long	.LBB112
 7360 1522 0000 0000 		.long	.LBE112
 7361 1526 02        		.byte	0x2
 7362 1527 5202      		.word	0x252
 7363 1529 36        		.uleb128 0x36
 7364 152a 5A0D 0000 		.long	0xd5a
 7365 152e 0000 0000 		.long	.LBB114
 7366 1532 0000 0000 		.long	.LBE114
 7367 1536 02        		.byte	0x2
 7368 1537 5302      		.word	0x253
 7369 1539 3B        		.uleb128 0x3b
 7370 153a 960D 0000 		.long	0xd96
 7371 153e 0000 0000 		.long	.LBB116
 7372 1542 0000 0000 		.long	.LBE116
 7373 1546 02        		.byte	0x2
 7374 1547 5402      		.word	0x254
 7375 1549 5715 0000 		.long	0x1557
 7376 154d 2D        		.uleb128 0x2d
 7377 154e A80D 0000 		.long	0xda8
 7378 1552 0000 0000 		.long	.LLST33
 7379 1556 00        		.byte	0x0
 7380 1557 36        		.uleb128 0x36
 7381 1558 5A0D 0000 		.long	0xd5a
 7382 155c 0000 0000 		.long	.LBB118
 7383 1560 0000 0000 		.long	.LBE118
 7384 1564 02        		.byte	0x2
 7385 1565 5602      		.word	0x256
 7386 1567 36        		.uleb128 0x36
 7387 1568 5A0D 0000 		.long	0xd5a
 7388 156c 0000 0000 		.long	.LBB120
 7389 1570 0000 0000 		.long	.LBE120
 7390 1574 02        		.byte	0x2
 7391 1575 5702      		.word	0x257
 7392 1577 3B        		.uleb128 0x3b
 7393 1578 960D 0000 		.long	0xd96
 7394 157c 0000 0000 		.long	.LBB122
 7395 1580 0000 0000 		.long	.LBE122
 7396 1584 02        		.byte	0x2
 7397 1585 5802      		.word	0x258
 7398 1587 9515 0000 		.long	0x1595
 7399 158b 2D        		.uleb128 0x2d
 7400 158c A80D 0000 		.long	0xda8
 7401 1590 0000 0000 		.long	.LLST34
 7402 1594 00        		.byte	0x0
 7403 1595 36        		.uleb128 0x36
 7404 1596 5A0D 0000 		.long	0xd5a
 7405 159a 0000 0000 		.long	.LBB124
 7406 159e 0000 0000 		.long	.LBE124
GAS LISTING /tmp/ccq5P7XK.s 			page 131


 7407 15a2 02        		.byte	0x2
 7408 15a3 5A02      		.word	0x25a
 7409 15a5 36        		.uleb128 0x36
 7410 15a6 5A0D 0000 		.long	0xd5a
 7411 15aa 0000 0000 		.long	.LBB126
 7412 15ae 0000 0000 		.long	.LBE126
 7413 15b2 02        		.byte	0x2
 7414 15b3 5B02      		.word	0x25b
 7415 15b5 3C        		.uleb128 0x3c
 7416 15b6 960D 0000 		.long	0xd96
 7417 15ba 0000 0000 		.long	.LBB128
 7418 15be 0000 0000 		.long	.LBE128
 7419 15c2 02        		.byte	0x2
 7420 15c3 5C02      		.word	0x25c
 7421 15c5 2D        		.uleb128 0x2d
 7422 15c6 A80D 0000 		.long	0xda8
 7423 15ca 0000 0000 		.long	.LLST35
 7424 15ce 00        		.byte	0x0
 7425 15cf 00        		.byte	0x0
 7426 15d0 3D        		.uleb128 0x3d
 7427 15d1 3E00 0000 		.long	0x3e
 7428 15d5 E015 0000 		.long	0x15e0
 7429 15d9 3E        		.uleb128 0x3e
 7430 15da 4500 0000 		.long	0x45
 7431 15de 05        		.byte	0x5
 7432 15df 00        		.byte	0x0
 7433 15e0 26        		.uleb128 0x26
 7434 15e1 01        		.byte	0x1
 7435 15e2 0000 0000 		.long	.LASF293
 7436 15e6 02        		.byte	0x2
 7437 15e7 6202      		.word	0x262
 7438 15e9 01        		.byte	0x1
 7439 15ea 0000 0000 		.long	.LFB31
 7440 15ee 0000 0000 		.long	.LFE31
 7441 15f2 03        		.byte	0x3
 7442 15f3 92        		.byte	0x92
 7443 15f4 20        		.uleb128 0x20
 7444 15f5 00        		.sleb128 0
 7445 15f6 D816 0000 		.long	0x16d8
 7446 15fa 3B        		.uleb128 0x3b
 7447 15fb B20D 0000 		.long	0xdb2
 7448 15ff 0000 0000 		.long	.LBB130
 7449 1603 0000 0000 		.long	.LBE130
 7450 1607 02        		.byte	0x2
 7451 1608 6602      		.word	0x266
 7452 160a 4516 0000 		.long	0x1645
 7453 160e 2D        		.uleb128 0x2d
 7454 160f FD0D 0000 		.long	0xdfd
 7455 1613 0000 0000 		.long	.LLST36
 7456 1617 2D        		.uleb128 0x2d
 7457 1618 F10D 0000 		.long	0xdf1
 7458 161c 0000 0000 		.long	.LLST37
 7459 1620 2D        		.uleb128 0x2d
 7460 1621 E50D 0000 		.long	0xde5
 7461 1625 0000 0000 		.long	.LLST38
 7462 1629 2D        		.uleb128 0x2d
 7463 162a D90D 0000 		.long	0xdd9
GAS LISTING /tmp/ccq5P7XK.s 			page 132


 7464 162e 0000 0000 		.long	.LLST39
 7465 1632 2D        		.uleb128 0x2d
 7466 1633 CD0D 0000 		.long	0xdcd
 7467 1637 0000 0000 		.long	.LLST40
 7468 163b 2D        		.uleb128 0x2d
 7469 163c C10D 0000 		.long	0xdc1
 7470 1640 0000 0000 		.long	.LLST41
 7471 1644 00        		.byte	0x0
 7472 1645 3B        		.uleb128 0x3b
 7473 1646 B20D 0000 		.long	0xdb2
 7474 164a 0000 0000 		.long	.LBB132
 7475 164e 0000 0000 		.long	.LBE132
 7476 1652 02        		.byte	0x2
 7477 1653 6702      		.word	0x267
 7478 1655 9016 0000 		.long	0x1690
 7479 1659 2D        		.uleb128 0x2d
 7480 165a FD0D 0000 		.long	0xdfd
 7481 165e 0000 0000 		.long	.LLST42
 7482 1662 2D        		.uleb128 0x2d
 7483 1663 F10D 0000 		.long	0xdf1
 7484 1667 0000 0000 		.long	.LLST43
 7485 166b 2D        		.uleb128 0x2d
 7486 166c E50D 0000 		.long	0xde5
 7487 1670 0000 0000 		.long	.LLST44
 7488 1674 2D        		.uleb128 0x2d
 7489 1675 D90D 0000 		.long	0xdd9
 7490 1679 0000 0000 		.long	.LLST45
 7491 167d 2D        		.uleb128 0x2d
 7492 167e CD0D 0000 		.long	0xdcd
 7493 1682 0000 0000 		.long	.LLST46
 7494 1686 2D        		.uleb128 0x2d
 7495 1687 C10D 0000 		.long	0xdc1
 7496 168b 0000 0000 		.long	.LLST47
 7497 168f 00        		.byte	0x0
 7498 1690 3C        		.uleb128 0x3c
 7499 1691 B20D 0000 		.long	0xdb2
 7500 1695 0000 0000 		.long	.LBB134
 7501 1699 0000 0000 		.long	.LBE134
 7502 169d 02        		.byte	0x2
 7503 169e 6802      		.word	0x268
 7504 16a0 2D        		.uleb128 0x2d
 7505 16a1 FD0D 0000 		.long	0xdfd
 7506 16a5 0000 0000 		.long	.LLST48
 7507 16a9 2D        		.uleb128 0x2d
 7508 16aa F10D 0000 		.long	0xdf1
 7509 16ae 0000 0000 		.long	.LLST49
 7510 16b2 2D        		.uleb128 0x2d
 7511 16b3 E50D 0000 		.long	0xde5
 7512 16b7 0000 0000 		.long	.LLST50
 7513 16bb 2D        		.uleb128 0x2d
 7514 16bc D90D 0000 		.long	0xdd9
 7515 16c0 0000 0000 		.long	.LLST51
 7516 16c4 2D        		.uleb128 0x2d
 7517 16c5 CD0D 0000 		.long	0xdcd
 7518 16c9 0000 0000 		.long	.LLST52
 7519 16cd 2D        		.uleb128 0x2d
 7520 16ce C10D 0000 		.long	0xdc1
GAS LISTING /tmp/ccq5P7XK.s 			page 133


 7521 16d2 0000 0000 		.long	.LLST53
 7522 16d6 00        		.byte	0x0
 7523 16d7 00        		.byte	0x0
 7524 16d8 29        		.uleb128 0x29
 7525 16d9 01        		.byte	0x1
 7526 16da 0000 0000 		.long	.LASF294
 7527 16de 02        		.byte	0x2
 7528 16df 6D02      		.word	0x26d
 7529 16e1 01        		.byte	0x1
 7530 16e2 0000 0000 		.long	.LFB32
 7531 16e6 0000 0000 		.long	.LFE32
 7532 16ea 03        		.byte	0x3
 7533 16eb 92        		.byte	0x92
 7534 16ec 20        		.uleb128 0x20
 7535 16ed 00        		.sleb128 0
 7536 16ee 3F        		.uleb128 0x3f
 7537 16ef 01        		.byte	0x1
 7538 16f0 0000 0000 		.long	.LASF313
 7539 16f4 02        		.byte	0x2
 7540 16f5 A302      		.word	0x2a3
 7541 16f7 01        		.byte	0x1
 7542 16f8 3E00 0000 		.long	0x3e
 7543 16fc 0000 0000 		.long	.LFB33
 7544 1700 0000 0000 		.long	.LFE33
 7545 1704 03        		.byte	0x3
 7546 1705 92        		.byte	0x92
 7547 1706 20        		.uleb128 0x20
 7548 1707 00        		.sleb128 0
 7549 1708 40        		.uleb128 0x40
 7550 1709 0000 0000 		.long	.LASF295
 7551 170d 02        		.byte	0x2
 7552 170e 2E        		.byte	0x2e
 7553 170f 3E00 0000 		.long	0x3e
 7554 1713 01        		.byte	0x1
 7555 1714 01        		.byte	0x1
 7556 1715 40        		.uleb128 0x40
 7557 1716 0000 0000 		.long	.LASF296
 7558 171a 02        		.byte	0x2
 7559 171b 2F        		.byte	0x2f
 7560 171c 3E00 0000 		.long	0x3e
 7561 1720 01        		.byte	0x1
 7562 1721 01        		.byte	0x1
 7563 1722 40        		.uleb128 0x40
 7564 1723 0000 0000 		.long	.LASF297
 7565 1727 02        		.byte	0x2
 7566 1728 30        		.byte	0x30
 7567 1729 D015 0000 		.long	0x15d0
 7568 172d 01        		.byte	0x1
 7569 172e 01        		.byte	0x1
 7570 172f 40        		.uleb128 0x40
 7571 1730 0000 0000 		.long	.LASF298
 7572 1734 02        		.byte	0x2
 7573 1735 31        		.byte	0x31
 7574 1736 D015 0000 		.long	0x15d0
 7575 173a 01        		.byte	0x1
 7576 173b 01        		.byte	0x1
 7577 173c 40        		.uleb128 0x40
GAS LISTING /tmp/ccq5P7XK.s 			page 134


 7578 173d 0000 0000 		.long	.LASF299
 7579 1741 02        		.byte	0x2
 7580 1742 32        		.byte	0x32
 7581 1743 4917 0000 		.long	0x1749
 7582 1747 01        		.byte	0x1
 7583 1748 01        		.byte	0x1
 7584 1749 05        		.uleb128 0x5
 7585 174a 5E00 0000 		.long	0x5e
 7586 174e 40        		.uleb128 0x40
 7587 174f 0000 0000 		.long	.LASF300
 7588 1753 02        		.byte	0x2
 7589 1754 EC        		.byte	0xec
 7590 1755 F90B 0000 		.long	0xbf9
 7591 1759 01        		.byte	0x1
 7592 175a 01        		.byte	0x1
 7593 175b 40        		.uleb128 0x40
 7594 175c 0000 0000 		.long	.LASF301
 7595 1760 02        		.byte	0x2
 7596 1761 EC        		.byte	0xec
 7597 1762 F90B 0000 		.long	0xbf9
 7598 1766 01        		.byte	0x1
 7599 1767 01        		.byte	0x1
 7600 1768 40        		.uleb128 0x40
 7601 1769 0000 0000 		.long	.LASF302
 7602 176d 02        		.byte	0x2
 7603 176e EC        		.byte	0xec
 7604 176f F90B 0000 		.long	0xbf9
 7605 1773 01        		.byte	0x1
 7606 1774 01        		.byte	0x1
 7607 1775 40        		.uleb128 0x40
 7608 1776 0000 0000 		.long	.LASF303
 7609 177a 02        		.byte	0x2
 7610 177b EC        		.byte	0xec
 7611 177c F90B 0000 		.long	0xbf9
 7612 1780 01        		.byte	0x1
 7613 1781 01        		.byte	0x1
 7614 1782 40        		.uleb128 0x40
 7615 1783 0000 0000 		.long	.LASF304
 7616 1787 02        		.byte	0x2
 7617 1788 EC        		.byte	0xec
 7618 1789 F90B 0000 		.long	0xbf9
 7619 178d 01        		.byte	0x1
 7620 178e 01        		.byte	0x1
 7621 178f 40        		.uleb128 0x40
 7622 1790 0000 0000 		.long	.LASF305
 7623 1794 02        		.byte	0x2
 7624 1795 EC        		.byte	0xec
 7625 1796 F90B 0000 		.long	0xbf9
 7626 179a 01        		.byte	0x1
 7627 179b 01        		.byte	0x1
 7628 179c 41        		.uleb128 0x41
 7629 179d 0000 0000 		.long	.LASF295
 7630 17a1 02        		.byte	0x2
 7631 17a2 2E        		.byte	0x2e
 7632 17a3 3E00 0000 		.long	0x3e
 7633 17a7 01        		.byte	0x1
 7634 17a8 05        		.byte	0x5
GAS LISTING /tmp/ccq5P7XK.s 			page 135


 7635 17a9 03        		.byte	0x3
 7636 17aa 0000 0000 		.long	state
 7637 17ae 41        		.uleb128 0x41
 7638 17af 0000 0000 		.long	.LASF296
 7639 17b3 02        		.byte	0x2
 7640 17b4 2F        		.byte	0x2f
 7641 17b5 3E00 0000 		.long	0x3e
 7642 17b9 01        		.byte	0x1
 7643 17ba 05        		.byte	0x5
 7644 17bb 03        		.byte	0x3
 7645 17bc 0000 0000 		.long	debugFlag
 7646 17c0 41        		.uleb128 0x41
 7647 17c1 0000 0000 		.long	.LASF297
 7648 17c5 02        		.byte	0x2
 7649 17c6 30        		.byte	0x30
 7650 17c7 D015 0000 		.long	0x15d0
 7651 17cb 01        		.byte	0x1
 7652 17cc 05        		.byte	0x5
 7653 17cd 03        		.byte	0x3
 7654 17ce 0000 0000 		.long	goal
 7655 17d2 41        		.uleb128 0x41
 7656 17d3 0000 0000 		.long	.LASF298
 7657 17d7 02        		.byte	0x2
 7658 17d8 31        		.byte	0x31
 7659 17d9 D015 0000 		.long	0x15d0
 7660 17dd 01        		.byte	0x1
 7661 17de 05        		.byte	0x5
 7662 17df 03        		.byte	0x3
 7663 17e0 0000 0000 		.long	pose
 7664 17e4 41        		.uleb128 0x41
 7665 17e5 0000 0000 		.long	.LASF299
 7666 17e9 02        		.byte	0x2
 7667 17ea 32        		.byte	0x32
 7668 17eb 4917 0000 		.long	0x1749
 7669 17ef 01        		.byte	0x1
 7670 17f0 05        		.byte	0x5
 7671 17f1 03        		.byte	0x3
 7672 17f2 0000 0000 		.long	elapsedMillis
 7673 17f6 41        		.uleb128 0x41
 7674 17f7 0000 0000 		.long	.LASF300
 7675 17fb 02        		.byte	0x2
 7676 17fc F9        		.byte	0xf9
 7677 17fd F90B 0000 		.long	0xbf9
 7678 1801 01        		.byte	0x1
 7679 1802 05        		.byte	0x5
 7680 1803 03        		.byte	0x3
 7681 1804 0000 0000 		.long	Base
 7682 1808 42        		.uleb128 0x42
 7683 1809 0000 0000 		.long	.LASF301
 7684 180d 02        		.byte	0x2
 7685 180e 0D01      		.word	0x10d
 7686 1810 F90B 0000 		.long	0xbf9
 7687 1814 01        		.byte	0x1
 7688 1815 05        		.byte	0x5
 7689 1816 03        		.byte	0x3
 7690 1817 0000 0000 		.long	Shoulder
 7691 181b 42        		.uleb128 0x42
GAS LISTING /tmp/ccq5P7XK.s 			page 136


 7692 181c 0000 0000 		.long	.LASF302
 7693 1820 02        		.byte	0x2
 7694 1821 2001      		.word	0x120
 7695 1823 F90B 0000 		.long	0xbf9
 7696 1827 01        		.byte	0x1
 7697 1828 05        		.byte	0x5
 7698 1829 03        		.byte	0x3
 7699 182a 0000 0000 		.long	Elbow
 7700 182e 42        		.uleb128 0x42
 7701 182f 0000 0000 		.long	.LASF303
 7702 1833 02        		.byte	0x2
 7703 1834 4601      		.word	0x146
 7704 1836 F90B 0000 		.long	0xbf9
 7705 183a 01        		.byte	0x1
 7706 183b 05        		.byte	0x5
 7707 183c 03        		.byte	0x3
 7708 183d 0000 0000 		.long	Left_Wrist
 7709 1841 42        		.uleb128 0x42
 7710 1842 0000 0000 		.long	.LASF304
 7711 1846 02        		.byte	0x2
 7712 1847 3301      		.word	0x133
 7713 1849 F90B 0000 		.long	0xbf9
 7714 184d 01        		.byte	0x1
 7715 184e 05        		.byte	0x5
 7716 184f 03        		.byte	0x3
 7717 1850 0000 0000 		.long	Right_Wrist
 7718 1854 42        		.uleb128 0x42
 7719 1855 0000 0000 		.long	.LASF305
 7720 1859 02        		.byte	0x2
 7721 185a 5A01      		.word	0x15a
 7722 185c F90B 0000 		.long	0xbf9
 7723 1860 01        		.byte	0x1
 7724 1861 05        		.byte	0x5
 7725 1862 03        		.byte	0x3
 7726 1863 0000 0000 		.long	Gripper
 7727 1867 00        		.byte	0x0
 7728               		.section	.debug_abbrev
 7729 0000 01        		.uleb128 0x1
 7730 0001 11        		.uleb128 0x11
 7731 0002 01        		.byte	0x1
 7732 0003 25        		.uleb128 0x25
 7733 0004 0E        		.uleb128 0xe
 7734 0005 13        		.uleb128 0x13
 7735 0006 0B        		.uleb128 0xb
 7736 0007 03        		.uleb128 0x3
 7737 0008 0E        		.uleb128 0xe
 7738 0009 1B        		.uleb128 0x1b
 7739 000a 0E        		.uleb128 0xe
 7740 000b 11        		.uleb128 0x11
 7741 000c 01        		.uleb128 0x1
 7742 000d 12        		.uleb128 0x12
 7743 000e 01        		.uleb128 0x1
 7744 000f 10        		.uleb128 0x10
 7745 0010 06        		.uleb128 0x6
 7746 0011 00        		.byte	0x0
 7747 0012 00        		.byte	0x0
 7748 0013 02        		.uleb128 0x2
GAS LISTING /tmp/ccq5P7XK.s 			page 137


 7749 0014 24        		.uleb128 0x24
 7750 0015 00        		.byte	0x0
 7751 0016 0B        		.uleb128 0xb
 7752 0017 0B        		.uleb128 0xb
 7753 0018 3E        		.uleb128 0x3e
 7754 0019 0B        		.uleb128 0xb
 7755 001a 03        		.uleb128 0x3
 7756 001b 0E        		.uleb128 0xe
 7757 001c 00        		.byte	0x0
 7758 001d 00        		.byte	0x0
 7759 001e 03        		.uleb128 0x3
 7760 001f 16        		.uleb128 0x16
 7761 0020 00        		.byte	0x0
 7762 0021 03        		.uleb128 0x3
 7763 0022 0E        		.uleb128 0xe
 7764 0023 3A        		.uleb128 0x3a
 7765 0024 0B        		.uleb128 0xb
 7766 0025 3B        		.uleb128 0x3b
 7767 0026 0B        		.uleb128 0xb
 7768 0027 49        		.uleb128 0x49
 7769 0028 13        		.uleb128 0x13
 7770 0029 00        		.byte	0x0
 7771 002a 00        		.byte	0x0
 7772 002b 04        		.uleb128 0x4
 7773 002c 24        		.uleb128 0x24
 7774 002d 00        		.byte	0x0
 7775 002e 0B        		.uleb128 0xb
 7776 002f 0B        		.uleb128 0xb
 7777 0030 3E        		.uleb128 0x3e
 7778 0031 0B        		.uleb128 0xb
 7779 0032 03        		.uleb128 0x3
 7780 0033 08        		.uleb128 0x8
 7781 0034 00        		.byte	0x0
 7782 0035 00        		.byte	0x0
 7783 0036 05        		.uleb128 0x5
 7784 0037 35        		.uleb128 0x35
 7785 0038 00        		.byte	0x0
 7786 0039 49        		.uleb128 0x49
 7787 003a 13        		.uleb128 0x13
 7788 003b 00        		.byte	0x0
 7789 003c 00        		.byte	0x0
 7790 003d 06        		.uleb128 0x6
 7791 003e 04        		.uleb128 0x4
 7792 003f 01        		.byte	0x1
 7793 0040 03        		.uleb128 0x3
 7794 0041 0E        		.uleb128 0xe
 7795 0042 0B        		.uleb128 0xb
 7796 0043 0B        		.uleb128 0xb
 7797 0044 3A        		.uleb128 0x3a
 7798 0045 0B        		.uleb128 0xb
 7799 0046 3B        		.uleb128 0x3b
 7800 0047 0B        		.uleb128 0xb
 7801 0048 01        		.uleb128 0x1
 7802 0049 13        		.uleb128 0x13
 7803 004a 00        		.byte	0x0
 7804 004b 00        		.byte	0x0
 7805 004c 07        		.uleb128 0x7
GAS LISTING /tmp/ccq5P7XK.s 			page 138


 7806 004d 28        		.uleb128 0x28
 7807 004e 00        		.byte	0x0
 7808 004f 03        		.uleb128 0x3
 7809 0050 0E        		.uleb128 0xe
 7810 0051 1C        		.uleb128 0x1c
 7811 0052 0D        		.uleb128 0xd
 7812 0053 00        		.byte	0x0
 7813 0054 00        		.byte	0x0
 7814 0055 08        		.uleb128 0x8
 7815 0056 13        		.uleb128 0x13
 7816 0057 01        		.byte	0x1
 7817 0058 03        		.uleb128 0x3
 7818 0059 0E        		.uleb128 0xe
 7819 005a 0B        		.uleb128 0xb
 7820 005b 0B        		.uleb128 0xb
 7821 005c 3A        		.uleb128 0x3a
 7822 005d 0B        		.uleb128 0xb
 7823 005e 3B        		.uleb128 0x3b
 7824 005f 0B        		.uleb128 0xb
 7825 0060 01        		.uleb128 0x1
 7826 0061 13        		.uleb128 0x13
 7827 0062 00        		.byte	0x0
 7828 0063 00        		.byte	0x0
 7829 0064 09        		.uleb128 0x9
 7830 0065 0D        		.uleb128 0xd
 7831 0066 00        		.byte	0x0
 7832 0067 03        		.uleb128 0x3
 7833 0068 0E        		.uleb128 0xe
 7834 0069 3A        		.uleb128 0x3a
 7835 006a 0B        		.uleb128 0xb
 7836 006b 3B        		.uleb128 0x3b
 7837 006c 0B        		.uleb128 0xb
 7838 006d 49        		.uleb128 0x49
 7839 006e 13        		.uleb128 0x13
 7840 006f 38        		.uleb128 0x38
 7841 0070 0A        		.uleb128 0xa
 7842 0071 00        		.byte	0x0
 7843 0072 00        		.byte	0x0
 7844 0073 0A        		.uleb128 0xa
 7845 0074 13        		.uleb128 0x13
 7846 0075 01        		.byte	0x1
 7847 0076 03        		.uleb128 0x3
 7848 0077 0E        		.uleb128 0xe
 7849 0078 0B        		.uleb128 0xb
 7850 0079 0B        		.uleb128 0xb
 7851 007a 3A        		.uleb128 0x3a
 7852 007b 0B        		.uleb128 0xb
 7853 007c 3B        		.uleb128 0x3b
 7854 007d 05        		.uleb128 0x5
 7855 007e 01        		.uleb128 0x1
 7856 007f 13        		.uleb128 0x13
 7857 0080 00        		.byte	0x0
 7858 0081 00        		.byte	0x0
 7859 0082 0B        		.uleb128 0xb
 7860 0083 0D        		.uleb128 0xd
 7861 0084 00        		.byte	0x0
 7862 0085 03        		.uleb128 0x3
GAS LISTING /tmp/ccq5P7XK.s 			page 139


 7863 0086 0E        		.uleb128 0xe
 7864 0087 3A        		.uleb128 0x3a
 7865 0088 0B        		.uleb128 0xb
 7866 0089 3B        		.uleb128 0x3b
 7867 008a 05        		.uleb128 0x5
 7868 008b 49        		.uleb128 0x49
 7869 008c 13        		.uleb128 0x13
 7870 008d 38        		.uleb128 0x38
 7871 008e 0A        		.uleb128 0xa
 7872 008f 00        		.byte	0x0
 7873 0090 00        		.byte	0x0
 7874 0091 0C        		.uleb128 0xc
 7875 0092 16        		.uleb128 0x16
 7876 0093 00        		.byte	0x0
 7877 0094 03        		.uleb128 0x3
 7878 0095 0E        		.uleb128 0xe
 7879 0096 3A        		.uleb128 0x3a
 7880 0097 0B        		.uleb128 0xb
 7881 0098 3B        		.uleb128 0x3b
 7882 0099 05        		.uleb128 0x5
 7883 009a 49        		.uleb128 0x49
 7884 009b 13        		.uleb128 0x13
 7885 009c 00        		.byte	0x0
 7886 009d 00        		.byte	0x0
 7887 009e 0D        		.uleb128 0xd
 7888 009f 04        		.uleb128 0x4
 7889 00a0 01        		.byte	0x1
 7890 00a1 03        		.uleb128 0x3
 7891 00a2 0E        		.uleb128 0xe
 7892 00a3 0B        		.uleb128 0xb
 7893 00a4 0B        		.uleb128 0xb
 7894 00a5 3A        		.uleb128 0x3a
 7895 00a6 0B        		.uleb128 0xb
 7896 00a7 3B        		.uleb128 0x3b
 7897 00a8 05        		.uleb128 0x5
 7898 00a9 01        		.uleb128 0x1
 7899 00aa 13        		.uleb128 0x13
 7900 00ab 00        		.byte	0x0
 7901 00ac 00        		.byte	0x0
 7902 00ad 0E        		.uleb128 0xe
 7903 00ae 0D        		.uleb128 0xd
 7904 00af 00        		.byte	0x0
 7905 00b0 03        		.uleb128 0x3
 7906 00b1 08        		.uleb128 0x8
 7907 00b2 3A        		.uleb128 0x3a
 7908 00b3 0B        		.uleb128 0xb
 7909 00b4 3B        		.uleb128 0x3b
 7910 00b5 05        		.uleb128 0x5
 7911 00b6 49        		.uleb128 0x49
 7912 00b7 13        		.uleb128 0x13
 7913 00b8 38        		.uleb128 0x38
 7914 00b9 0A        		.uleb128 0xa
 7915 00ba 00        		.byte	0x0
 7916 00bb 00        		.byte	0x0
 7917 00bc 0F        		.uleb128 0xf
 7918 00bd 13        		.uleb128 0x13
 7919 00be 01        		.byte	0x1
GAS LISTING /tmp/ccq5P7XK.s 			page 140


 7920 00bf 0B        		.uleb128 0xb
 7921 00c0 0B        		.uleb128 0xb
 7922 00c1 3A        		.uleb128 0x3a
 7923 00c2 0B        		.uleb128 0xb
 7924 00c3 3B        		.uleb128 0x3b
 7925 00c4 05        		.uleb128 0x5
 7926 00c5 01        		.uleb128 0x1
 7927 00c6 13        		.uleb128 0x13
 7928 00c7 00        		.byte	0x0
 7929 00c8 00        		.byte	0x0
 7930 00c9 10        		.uleb128 0x10
 7931 00ca 17        		.uleb128 0x17
 7932 00cb 01        		.byte	0x1
 7933 00cc 0B        		.uleb128 0xb
 7934 00cd 0B        		.uleb128 0xb
 7935 00ce 3A        		.uleb128 0x3a
 7936 00cf 0B        		.uleb128 0xb
 7937 00d0 3B        		.uleb128 0x3b
 7938 00d1 05        		.uleb128 0x5
 7939 00d2 01        		.uleb128 0x1
 7940 00d3 13        		.uleb128 0x13
 7941 00d4 00        		.byte	0x0
 7942 00d5 00        		.byte	0x0
 7943 00d6 11        		.uleb128 0x11
 7944 00d7 0D        		.uleb128 0xd
 7945 00d8 00        		.byte	0x0
 7946 00d9 03        		.uleb128 0x3
 7947 00da 08        		.uleb128 0x8
 7948 00db 3A        		.uleb128 0x3a
 7949 00dc 0B        		.uleb128 0xb
 7950 00dd 3B        		.uleb128 0x3b
 7951 00de 05        		.uleb128 0x5
 7952 00df 49        		.uleb128 0x49
 7953 00e0 13        		.uleb128 0x13
 7954 00e1 00        		.byte	0x0
 7955 00e2 00        		.byte	0x0
 7956 00e3 12        		.uleb128 0x12
 7957 00e4 0D        		.uleb128 0xd
 7958 00e5 00        		.byte	0x0
 7959 00e6 49        		.uleb128 0x49
 7960 00e7 13        		.uleb128 0x13
 7961 00e8 00        		.byte	0x0
 7962 00e9 00        		.byte	0x0
 7963 00ea 13        		.uleb128 0x13
 7964 00eb 0D        		.uleb128 0xd
 7965 00ec 00        		.byte	0x0
 7966 00ed 03        		.uleb128 0x3
 7967 00ee 0E        		.uleb128 0xe
 7968 00ef 3A        		.uleb128 0x3a
 7969 00f0 0B        		.uleb128 0xb
 7970 00f1 3B        		.uleb128 0x3b
 7971 00f2 05        		.uleb128 0x5
 7972 00f3 49        		.uleb128 0x49
 7973 00f4 13        		.uleb128 0x13
 7974 00f5 00        		.byte	0x0
 7975 00f6 00        		.byte	0x0
 7976 00f7 14        		.uleb128 0x14
GAS LISTING /tmp/ccq5P7XK.s 			page 141


 7977 00f8 0D        		.uleb128 0xd
 7978 00f9 00        		.byte	0x0
 7979 00fa 49        		.uleb128 0x49
 7980 00fb 13        		.uleb128 0x13
 7981 00fc 38        		.uleb128 0x38
 7982 00fd 0A        		.uleb128 0xa
 7983 00fe 00        		.byte	0x0
 7984 00ff 00        		.byte	0x0
 7985 0100 15        		.uleb128 0x15
 7986 0101 2E        		.uleb128 0x2e
 7987 0102 01        		.byte	0x1
 7988 0103 03        		.uleb128 0x3
 7989 0104 0E        		.uleb128 0xe
 7990 0105 3A        		.uleb128 0x3a
 7991 0106 0B        		.uleb128 0xb
 7992 0107 3B        		.uleb128 0x3b
 7993 0108 0B        		.uleb128 0xb
 7994 0109 27        		.uleb128 0x27
 7995 010a 0C        		.uleb128 0xc
 7996 010b 20        		.uleb128 0x20
 7997 010c 0B        		.uleb128 0xb
 7998 010d 01        		.uleb128 0x1
 7999 010e 13        		.uleb128 0x13
 8000 010f 00        		.byte	0x0
 8001 0110 00        		.byte	0x0
 8002 0111 16        		.uleb128 0x16
 8003 0112 05        		.uleb128 0x5
 8004 0113 00        		.byte	0x0
 8005 0114 03        		.uleb128 0x3
 8006 0115 0E        		.uleb128 0xe
 8007 0116 3A        		.uleb128 0x3a
 8008 0117 0B        		.uleb128 0xb
 8009 0118 3B        		.uleb128 0x3b
 8010 0119 0B        		.uleb128 0xb
 8011 011a 49        		.uleb128 0x49
 8012 011b 13        		.uleb128 0x13
 8013 011c 00        		.byte	0x0
 8014 011d 00        		.byte	0x0
 8015 011e 17        		.uleb128 0x17
 8016 011f 34        		.uleb128 0x34
 8017 0120 00        		.byte	0x0
 8018 0121 03        		.uleb128 0x3
 8019 0122 0E        		.uleb128 0xe
 8020 0123 3A        		.uleb128 0x3a
 8021 0124 0B        		.uleb128 0xb
 8022 0125 3B        		.uleb128 0x3b
 8023 0126 0B        		.uleb128 0xb
 8024 0127 49        		.uleb128 0x49
 8025 0128 13        		.uleb128 0x13
 8026 0129 00        		.byte	0x0
 8027 012a 00        		.byte	0x0
 8028 012b 18        		.uleb128 0x18
 8029 012c 2E        		.uleb128 0x2e
 8030 012d 01        		.byte	0x1
 8031 012e 3F        		.uleb128 0x3f
 8032 012f 0C        		.uleb128 0xc
 8033 0130 03        		.uleb128 0x3
GAS LISTING /tmp/ccq5P7XK.s 			page 142


 8034 0131 0E        		.uleb128 0xe
 8035 0132 3A        		.uleb128 0x3a
 8036 0133 0B        		.uleb128 0xb
 8037 0134 3B        		.uleb128 0x3b
 8038 0135 0B        		.uleb128 0xb
 8039 0136 27        		.uleb128 0x27
 8040 0137 0C        		.uleb128 0xc
 8041 0138 3C        		.uleb128 0x3c
 8042 0139 0C        		.uleb128 0xc
 8043 013a 00        		.byte	0x0
 8044 013b 00        		.byte	0x0
 8045 013c 19        		.uleb128 0x19
 8046 013d 05        		.uleb128 0x5
 8047 013e 00        		.byte	0x0
 8048 013f 49        		.uleb128 0x49
 8049 0140 13        		.uleb128 0x13
 8050 0141 00        		.byte	0x0
 8051 0142 00        		.byte	0x0
 8052 0143 1A        		.uleb128 0x1a
 8053 0144 2E        		.uleb128 0x2e
 8054 0145 00        		.byte	0x0
 8055 0146 3F        		.uleb128 0x3f
 8056 0147 0C        		.uleb128 0xc
 8057 0148 03        		.uleb128 0x3
 8058 0149 0E        		.uleb128 0xe
 8059 014a 3A        		.uleb128 0x3a
 8060 014b 0B        		.uleb128 0xb
 8061 014c 3B        		.uleb128 0x3b
 8062 014d 0B        		.uleb128 0xb
 8063 014e 27        		.uleb128 0x27
 8064 014f 0C        		.uleb128 0xc
 8065 0150 49        		.uleb128 0x49
 8066 0151 13        		.uleb128 0x13
 8067 0152 20        		.uleb128 0x20
 8068 0153 0B        		.uleb128 0xb
 8069 0154 00        		.byte	0x0
 8070 0155 00        		.byte	0x0
 8071 0156 1B        		.uleb128 0x1b
 8072 0157 2E        		.uleb128 0x2e
 8073 0158 01        		.byte	0x1
 8074 0159 3F        		.uleb128 0x3f
 8075 015a 0C        		.uleb128 0xc
 8076 015b 03        		.uleb128 0x3
 8077 015c 0E        		.uleb128 0xe
 8078 015d 3A        		.uleb128 0x3a
 8079 015e 0B        		.uleb128 0xb
 8080 015f 3B        		.uleb128 0x3b
 8081 0160 05        		.uleb128 0x5
 8082 0161 27        		.uleb128 0x27
 8083 0162 0C        		.uleb128 0xc
 8084 0163 20        		.uleb128 0x20
 8085 0164 0B        		.uleb128 0xb
 8086 0165 01        		.uleb128 0x1
 8087 0166 13        		.uleb128 0x13
 8088 0167 00        		.byte	0x0
 8089 0168 00        		.byte	0x0
 8090 0169 1C        		.uleb128 0x1c
GAS LISTING /tmp/ccq5P7XK.s 			page 143


 8091 016a 05        		.uleb128 0x5
 8092 016b 00        		.byte	0x0
 8093 016c 03        		.uleb128 0x3
 8094 016d 0E        		.uleb128 0xe
 8095 016e 3A        		.uleb128 0x3a
 8096 016f 0B        		.uleb128 0xb
 8097 0170 3B        		.uleb128 0x3b
 8098 0171 05        		.uleb128 0x5
 8099 0172 49        		.uleb128 0x49
 8100 0173 13        		.uleb128 0x13
 8101 0174 00        		.byte	0x0
 8102 0175 00        		.byte	0x0
 8103 0176 1D        		.uleb128 0x1d
 8104 0177 0F        		.uleb128 0xf
 8105 0178 00        		.byte	0x0
 8106 0179 0B        		.uleb128 0xb
 8107 017a 0B        		.uleb128 0xb
 8108 017b 49        		.uleb128 0x49
 8109 017c 13        		.uleb128 0x13
 8110 017d 00        		.byte	0x0
 8111 017e 00        		.byte	0x0
 8112 017f 1E        		.uleb128 0x1e
 8113 0180 2E        		.uleb128 0x2e
 8114 0181 01        		.byte	0x1
 8115 0182 3F        		.uleb128 0x3f
 8116 0183 0C        		.uleb128 0xc
 8117 0184 03        		.uleb128 0x3
 8118 0185 0E        		.uleb128 0xe
 8119 0186 3A        		.uleb128 0x3a
 8120 0187 0B        		.uleb128 0xb
 8121 0188 3B        		.uleb128 0x3b
 8122 0189 0B        		.uleb128 0xb
 8123 018a 27        		.uleb128 0x27
 8124 018b 0C        		.uleb128 0xc
 8125 018c 49        		.uleb128 0x49
 8126 018d 13        		.uleb128 0x13
 8127 018e 20        		.uleb128 0x20
 8128 018f 0B        		.uleb128 0xb
 8129 0190 01        		.uleb128 0x1
 8130 0191 13        		.uleb128 0x13
 8131 0192 00        		.byte	0x0
 8132 0193 00        		.byte	0x0
 8133 0194 1F        		.uleb128 0x1f
 8134 0195 05        		.uleb128 0x5
 8135 0196 00        		.byte	0x0
 8136 0197 03        		.uleb128 0x3
 8137 0198 08        		.uleb128 0x8
 8138 0199 3A        		.uleb128 0x3a
 8139 019a 0B        		.uleb128 0xb
 8140 019b 3B        		.uleb128 0x3b
 8141 019c 0B        		.uleb128 0xb
 8142 019d 49        		.uleb128 0x49
 8143 019e 13        		.uleb128 0x13
 8144 019f 00        		.byte	0x0
 8145 01a0 00        		.byte	0x0
 8146 01a1 20        		.uleb128 0x20
 8147 01a2 2E        		.uleb128 0x2e
GAS LISTING /tmp/ccq5P7XK.s 			page 144


 8148 01a3 01        		.byte	0x1
 8149 01a4 3F        		.uleb128 0x3f
 8150 01a5 0C        		.uleb128 0xc
 8151 01a6 03        		.uleb128 0x3
 8152 01a7 0E        		.uleb128 0xe
 8153 01a8 3A        		.uleb128 0x3a
 8154 01a9 0B        		.uleb128 0xb
 8155 01aa 3B        		.uleb128 0x3b
 8156 01ab 0B        		.uleb128 0xb
 8157 01ac 27        		.uleb128 0x27
 8158 01ad 0C        		.uleb128 0xc
 8159 01ae 11        		.uleb128 0x11
 8160 01af 01        		.uleb128 0x1
 8161 01b0 12        		.uleb128 0x12
 8162 01b1 01        		.uleb128 0x1
 8163 01b2 40        		.uleb128 0x40
 8164 01b3 0A        		.uleb128 0xa
 8165 01b4 01        		.uleb128 0x1
 8166 01b5 13        		.uleb128 0x13
 8167 01b6 00        		.byte	0x0
 8168 01b7 00        		.byte	0x0
 8169 01b8 21        		.uleb128 0x21
 8170 01b9 05        		.uleb128 0x5
 8171 01ba 00        		.byte	0x0
 8172 01bb 03        		.uleb128 0x3
 8173 01bc 0E        		.uleb128 0xe
 8174 01bd 3A        		.uleb128 0x3a
 8175 01be 0B        		.uleb128 0xb
 8176 01bf 3B        		.uleb128 0x3b
 8177 01c0 0B        		.uleb128 0xb
 8178 01c1 49        		.uleb128 0x49
 8179 01c2 13        		.uleb128 0x13
 8180 01c3 02        		.uleb128 0x2
 8181 01c4 06        		.uleb128 0x6
 8182 01c5 00        		.byte	0x0
 8183 01c6 00        		.byte	0x0
 8184 01c7 22        		.uleb128 0x22
 8185 01c8 05        		.uleb128 0x5
 8186 01c9 00        		.byte	0x0
 8187 01ca 03        		.uleb128 0x3
 8188 01cb 0E        		.uleb128 0xe
 8189 01cc 3A        		.uleb128 0x3a
 8190 01cd 0B        		.uleb128 0xb
 8191 01ce 3B        		.uleb128 0x3b
 8192 01cf 0B        		.uleb128 0xb
 8193 01d0 49        		.uleb128 0x49
 8194 01d1 13        		.uleb128 0x13
 8195 01d2 02        		.uleb128 0x2
 8196 01d3 0A        		.uleb128 0xa
 8197 01d4 00        		.byte	0x0
 8198 01d5 00        		.byte	0x0
 8199 01d6 23        		.uleb128 0x23
 8200 01d7 34        		.uleb128 0x34
 8201 01d8 00        		.byte	0x0
 8202 01d9 03        		.uleb128 0x3
 8203 01da 0E        		.uleb128 0xe
 8204 01db 3A        		.uleb128 0x3a
GAS LISTING /tmp/ccq5P7XK.s 			page 145


 8205 01dc 0B        		.uleb128 0xb
 8206 01dd 3B        		.uleb128 0x3b
 8207 01de 0B        		.uleb128 0xb
 8208 01df 49        		.uleb128 0x49
 8209 01e0 13        		.uleb128 0x13
 8210 01e1 02        		.uleb128 0x2
 8211 01e2 0A        		.uleb128 0xa
 8212 01e3 00        		.byte	0x0
 8213 01e4 00        		.byte	0x0
 8214 01e5 24        		.uleb128 0x24
 8215 01e6 34        		.uleb128 0x34
 8216 01e7 00        		.byte	0x0
 8217 01e8 03        		.uleb128 0x3
 8218 01e9 0E        		.uleb128 0xe
 8219 01ea 3A        		.uleb128 0x3a
 8220 01eb 0B        		.uleb128 0xb
 8221 01ec 3B        		.uleb128 0x3b
 8222 01ed 0B        		.uleb128 0xb
 8223 01ee 49        		.uleb128 0x49
 8224 01ef 13        		.uleb128 0x13
 8225 01f0 02        		.uleb128 0x2
 8226 01f1 06        		.uleb128 0x6
 8227 01f2 00        		.byte	0x0
 8228 01f3 00        		.byte	0x0
 8229 01f4 25        		.uleb128 0x25
 8230 01f5 2E        		.uleb128 0x2e
 8231 01f6 01        		.byte	0x1
 8232 01f7 3F        		.uleb128 0x3f
 8233 01f8 0C        		.uleb128 0xc
 8234 01f9 03        		.uleb128 0x3
 8235 01fa 0E        		.uleb128 0xe
 8236 01fb 3A        		.uleb128 0x3a
 8237 01fc 0B        		.uleb128 0xb
 8238 01fd 3B        		.uleb128 0x3b
 8239 01fe 0B        		.uleb128 0xb
 8240 01ff 27        		.uleb128 0x27
 8241 0200 0C        		.uleb128 0xc
 8242 0201 49        		.uleb128 0x49
 8243 0202 13        		.uleb128 0x13
 8244 0203 11        		.uleb128 0x11
 8245 0204 01        		.uleb128 0x1
 8246 0205 12        		.uleb128 0x12
 8247 0206 01        		.uleb128 0x1
 8248 0207 40        		.uleb128 0x40
 8249 0208 0A        		.uleb128 0xa
 8250 0209 01        		.uleb128 0x1
 8251 020a 13        		.uleb128 0x13
 8252 020b 00        		.byte	0x0
 8253 020c 00        		.byte	0x0
 8254 020d 26        		.uleb128 0x26
 8255 020e 2E        		.uleb128 0x2e
 8256 020f 01        		.byte	0x1
 8257 0210 3F        		.uleb128 0x3f
 8258 0211 0C        		.uleb128 0xc
 8259 0212 03        		.uleb128 0x3
 8260 0213 0E        		.uleb128 0xe
 8261 0214 3A        		.uleb128 0x3a
GAS LISTING /tmp/ccq5P7XK.s 			page 146


 8262 0215 0B        		.uleb128 0xb
 8263 0216 3B        		.uleb128 0x3b
 8264 0217 05        		.uleb128 0x5
 8265 0218 27        		.uleb128 0x27
 8266 0219 0C        		.uleb128 0xc
 8267 021a 11        		.uleb128 0x11
 8268 021b 01        		.uleb128 0x1
 8269 021c 12        		.uleb128 0x12
 8270 021d 01        		.uleb128 0x1
 8271 021e 40        		.uleb128 0x40
 8272 021f 0A        		.uleb128 0xa
 8273 0220 01        		.uleb128 0x1
 8274 0221 13        		.uleb128 0x13
 8275 0222 00        		.byte	0x0
 8276 0223 00        		.byte	0x0
 8277 0224 27        		.uleb128 0x27
 8278 0225 05        		.uleb128 0x5
 8279 0226 00        		.byte	0x0
 8280 0227 03        		.uleb128 0x3
 8281 0228 0E        		.uleb128 0xe
 8282 0229 3A        		.uleb128 0x3a
 8283 022a 0B        		.uleb128 0xb
 8284 022b 3B        		.uleb128 0x3b
 8285 022c 05        		.uleb128 0x5
 8286 022d 49        		.uleb128 0x49
 8287 022e 13        		.uleb128 0x13
 8288 022f 02        		.uleb128 0x2
 8289 0230 06        		.uleb128 0x6
 8290 0231 00        		.byte	0x0
 8291 0232 00        		.byte	0x0
 8292 0233 28        		.uleb128 0x28
 8293 0234 05        		.uleb128 0x5
 8294 0235 00        		.byte	0x0
 8295 0236 03        		.uleb128 0x3
 8296 0237 0E        		.uleb128 0xe
 8297 0238 3A        		.uleb128 0x3a
 8298 0239 0B        		.uleb128 0xb
 8299 023a 3B        		.uleb128 0x3b
 8300 023b 05        		.uleb128 0x5
 8301 023c 49        		.uleb128 0x49
 8302 023d 13        		.uleb128 0x13
 8303 023e 02        		.uleb128 0x2
 8304 023f 0A        		.uleb128 0xa
 8305 0240 00        		.byte	0x0
 8306 0241 00        		.byte	0x0
 8307 0242 29        		.uleb128 0x29
 8308 0243 2E        		.uleb128 0x2e
 8309 0244 00        		.byte	0x0
 8310 0245 3F        		.uleb128 0x3f
 8311 0246 0C        		.uleb128 0xc
 8312 0247 03        		.uleb128 0x3
 8313 0248 0E        		.uleb128 0xe
 8314 0249 3A        		.uleb128 0x3a
 8315 024a 0B        		.uleb128 0xb
 8316 024b 3B        		.uleb128 0x3b
 8317 024c 05        		.uleb128 0x5
 8318 024d 27        		.uleb128 0x27
GAS LISTING /tmp/ccq5P7XK.s 			page 147


 8319 024e 0C        		.uleb128 0xc
 8320 024f 11        		.uleb128 0x11
 8321 0250 01        		.uleb128 0x1
 8322 0251 12        		.uleb128 0x12
 8323 0252 01        		.uleb128 0x1
 8324 0253 40        		.uleb128 0x40
 8325 0254 0A        		.uleb128 0xa
 8326 0255 00        		.byte	0x0
 8327 0256 00        		.byte	0x0
 8328 0257 2A        		.uleb128 0x2a
 8329 0258 2E        		.uleb128 0x2e
 8330 0259 00        		.byte	0x0
 8331 025a 3F        		.uleb128 0x3f
 8332 025b 0C        		.uleb128 0xc
 8333 025c 03        		.uleb128 0x3
 8334 025d 0E        		.uleb128 0xe
 8335 025e 3A        		.uleb128 0x3a
 8336 025f 0B        		.uleb128 0xb
 8337 0260 3B        		.uleb128 0x3b
 8338 0261 0B        		.uleb128 0xb
 8339 0262 27        		.uleb128 0x27
 8340 0263 0C        		.uleb128 0xc
 8341 0264 11        		.uleb128 0x11
 8342 0265 01        		.uleb128 0x1
 8343 0266 12        		.uleb128 0x12
 8344 0267 01        		.uleb128 0x1
 8345 0268 40        		.uleb128 0x40
 8346 0269 0A        		.uleb128 0xa
 8347 026a 00        		.byte	0x0
 8348 026b 00        		.byte	0x0
 8349 026c 2B        		.uleb128 0x2b
 8350 026d 05        		.uleb128 0x5
 8351 026e 00        		.byte	0x0
 8352 026f 03        		.uleb128 0x3
 8353 0270 08        		.uleb128 0x8
 8354 0271 3A        		.uleb128 0x3a
 8355 0272 0B        		.uleb128 0xb
 8356 0273 3B        		.uleb128 0x3b
 8357 0274 0B        		.uleb128 0xb
 8358 0275 49        		.uleb128 0x49
 8359 0276 13        		.uleb128 0x13
 8360 0277 02        		.uleb128 0x2
 8361 0278 06        		.uleb128 0x6
 8362 0279 00        		.byte	0x0
 8363 027a 00        		.byte	0x0
 8364 027b 2C        		.uleb128 0x2c
 8365 027c 1D        		.uleb128 0x1d
 8366 027d 01        		.byte	0x1
 8367 027e 31        		.uleb128 0x31
 8368 027f 13        		.uleb128 0x13
 8369 0280 11        		.uleb128 0x11
 8370 0281 01        		.uleb128 0x1
 8371 0282 12        		.uleb128 0x12
 8372 0283 01        		.uleb128 0x1
 8373 0284 58        		.uleb128 0x58
 8374 0285 0B        		.uleb128 0xb
 8375 0286 59        		.uleb128 0x59
GAS LISTING /tmp/ccq5P7XK.s 			page 148


 8376 0287 0B        		.uleb128 0xb
 8377 0288 00        		.byte	0x0
 8378 0289 00        		.byte	0x0
 8379 028a 2D        		.uleb128 0x2d
 8380 028b 05        		.uleb128 0x5
 8381 028c 00        		.byte	0x0
 8382 028d 31        		.uleb128 0x31
 8383 028e 13        		.uleb128 0x13
 8384 028f 02        		.uleb128 0x2
 8385 0290 06        		.uleb128 0x6
 8386 0291 00        		.byte	0x0
 8387 0292 00        		.byte	0x0
 8388 0293 2E        		.uleb128 0x2e
 8389 0294 0B        		.uleb128 0xb
 8390 0295 01        		.byte	0x1
 8391 0296 11        		.uleb128 0x11
 8392 0297 01        		.uleb128 0x1
 8393 0298 12        		.uleb128 0x12
 8394 0299 01        		.uleb128 0x1
 8395 029a 00        		.byte	0x0
 8396 029b 00        		.byte	0x0
 8397 029c 2F        		.uleb128 0x2f
 8398 029d 34        		.uleb128 0x34
 8399 029e 00        		.byte	0x0
 8400 029f 31        		.uleb128 0x31
 8401 02a0 13        		.uleb128 0x13
 8402 02a1 00        		.byte	0x0
 8403 02a2 00        		.byte	0x0
 8404 02a3 30        		.uleb128 0x30
 8405 02a4 34        		.uleb128 0x34
 8406 02a5 00        		.byte	0x0
 8407 02a6 31        		.uleb128 0x31
 8408 02a7 13        		.uleb128 0x13
 8409 02a8 02        		.uleb128 0x2
 8410 02a9 06        		.uleb128 0x6
 8411 02aa 00        		.byte	0x0
 8412 02ab 00        		.byte	0x0
 8413 02ac 31        		.uleb128 0x31
 8414 02ad 05        		.uleb128 0x5
 8415 02ae 00        		.byte	0x0
 8416 02af 03        		.uleb128 0x3
 8417 02b0 08        		.uleb128 0x8
 8418 02b1 3A        		.uleb128 0x3a
 8419 02b2 0B        		.uleb128 0xb
 8420 02b3 3B        		.uleb128 0x3b
 8421 02b4 0B        		.uleb128 0xb
 8422 02b5 49        		.uleb128 0x49
 8423 02b6 13        		.uleb128 0x13
 8424 02b7 02        		.uleb128 0x2
 8425 02b8 0A        		.uleb128 0xa
 8426 02b9 00        		.byte	0x0
 8427 02ba 00        		.byte	0x0
 8428 02bb 32        		.uleb128 0x32
 8429 02bc 2E        		.uleb128 0x2e
 8430 02bd 01        		.byte	0x1
 8431 02be 31        		.uleb128 0x31
 8432 02bf 13        		.uleb128 0x13
GAS LISTING /tmp/ccq5P7XK.s 			page 149


 8433 02c0 11        		.uleb128 0x11
 8434 02c1 01        		.uleb128 0x1
 8435 02c2 12        		.uleb128 0x12
 8436 02c3 01        		.uleb128 0x1
 8437 02c4 40        		.uleb128 0x40
 8438 02c5 0A        		.uleb128 0xa
 8439 02c6 01        		.uleb128 0x1
 8440 02c7 13        		.uleb128 0x13
 8441 02c8 00        		.byte	0x0
 8442 02c9 00        		.byte	0x0
 8443 02ca 33        		.uleb128 0x33
 8444 02cb 2E        		.uleb128 0x2e
 8445 02cc 00        		.byte	0x0
 8446 02cd 31        		.uleb128 0x31
 8447 02ce 13        		.uleb128 0x13
 8448 02cf 11        		.uleb128 0x11
 8449 02d0 01        		.uleb128 0x1
 8450 02d1 12        		.uleb128 0x12
 8451 02d2 01        		.uleb128 0x1
 8452 02d3 40        		.uleb128 0x40
 8453 02d4 0A        		.uleb128 0xa
 8454 02d5 00        		.byte	0x0
 8455 02d6 00        		.byte	0x0
 8456 02d7 34        		.uleb128 0x34
 8457 02d8 05        		.uleb128 0x5
 8458 02d9 00        		.byte	0x0
 8459 02da 31        		.uleb128 0x31
 8460 02db 13        		.uleb128 0x13
 8461 02dc 02        		.uleb128 0x2
 8462 02dd 0A        		.uleb128 0xa
 8463 02de 00        		.byte	0x0
 8464 02df 00        		.byte	0x0
 8465 02e0 35        		.uleb128 0x35
 8466 02e1 34        		.uleb128 0x34
 8467 02e2 00        		.byte	0x0
 8468 02e3 03        		.uleb128 0x3
 8469 02e4 0E        		.uleb128 0xe
 8470 02e5 3A        		.uleb128 0x3a
 8471 02e6 0B        		.uleb128 0xb
 8472 02e7 3B        		.uleb128 0x3b
 8473 02e8 05        		.uleb128 0x5
 8474 02e9 49        		.uleb128 0x49
 8475 02ea 13        		.uleb128 0x13
 8476 02eb 02        		.uleb128 0x2
 8477 02ec 06        		.uleb128 0x6
 8478 02ed 00        		.byte	0x0
 8479 02ee 00        		.byte	0x0
 8480 02ef 36        		.uleb128 0x36
 8481 02f0 1D        		.uleb128 0x1d
 8482 02f1 00        		.byte	0x0
 8483 02f2 31        		.uleb128 0x31
 8484 02f3 13        		.uleb128 0x13
 8485 02f4 11        		.uleb128 0x11
 8486 02f5 01        		.uleb128 0x1
 8487 02f6 12        		.uleb128 0x12
 8488 02f7 01        		.uleb128 0x1
 8489 02f8 58        		.uleb128 0x58
GAS LISTING /tmp/ccq5P7XK.s 			page 150


 8490 02f9 0B        		.uleb128 0xb
 8491 02fa 59        		.uleb128 0x59
 8492 02fb 05        		.uleb128 0x5
 8493 02fc 00        		.byte	0x0
 8494 02fd 00        		.byte	0x0
 8495 02fe 37        		.uleb128 0x37
 8496 02ff 34        		.uleb128 0x34
 8497 0300 00        		.byte	0x0
 8498 0301 03        		.uleb128 0x3
 8499 0302 0E        		.uleb128 0xe
 8500 0303 3A        		.uleb128 0x3a
 8501 0304 0B        		.uleb128 0xb
 8502 0305 3B        		.uleb128 0x3b
 8503 0306 05        		.uleb128 0x5
 8504 0307 49        		.uleb128 0x49
 8505 0308 13        		.uleb128 0x13
 8506 0309 02        		.uleb128 0x2
 8507 030a 0A        		.uleb128 0xa
 8508 030b 00        		.byte	0x0
 8509 030c 00        		.byte	0x0
 8510 030d 38        		.uleb128 0x38
 8511 030e 34        		.uleb128 0x34
 8512 030f 00        		.byte	0x0
 8513 0310 03        		.uleb128 0x3
 8514 0311 08        		.uleb128 0x8
 8515 0312 3A        		.uleb128 0x3a
 8516 0313 0B        		.uleb128 0xb
 8517 0314 3B        		.uleb128 0x3b
 8518 0315 05        		.uleb128 0x5
 8519 0316 49        		.uleb128 0x49
 8520 0317 13        		.uleb128 0x13
 8521 0318 02        		.uleb128 0x2
 8522 0319 06        		.uleb128 0x6
 8523 031a 00        		.byte	0x0
 8524 031b 00        		.byte	0x0
 8525 031c 39        		.uleb128 0x39
 8526 031d 1D        		.uleb128 0x1d
 8527 031e 01        		.byte	0x1
 8528 031f 31        		.uleb128 0x31
 8529 0320 13        		.uleb128 0x13
 8530 0321 52        		.uleb128 0x52
 8531 0322 01        		.uleb128 0x1
 8532 0323 55        		.uleb128 0x55
 8533 0324 06        		.uleb128 0x6
 8534 0325 58        		.uleb128 0x58
 8535 0326 0B        		.uleb128 0xb
 8536 0327 59        		.uleb128 0x59
 8537 0328 05        		.uleb128 0x5
 8538 0329 01        		.uleb128 0x1
 8539 032a 13        		.uleb128 0x13
 8540 032b 00        		.byte	0x0
 8541 032c 00        		.byte	0x0
 8542 032d 3A        		.uleb128 0x3a
 8543 032e 05        		.uleb128 0x5
 8544 032f 00        		.byte	0x0
 8545 0330 31        		.uleb128 0x31
 8546 0331 13        		.uleb128 0x13
GAS LISTING /tmp/ccq5P7XK.s 			page 151


 8547 0332 00        		.byte	0x0
 8548 0333 00        		.byte	0x0
 8549 0334 3B        		.uleb128 0x3b
 8550 0335 1D        		.uleb128 0x1d
 8551 0336 01        		.byte	0x1
 8552 0337 31        		.uleb128 0x31
 8553 0338 13        		.uleb128 0x13
 8554 0339 11        		.uleb128 0x11
 8555 033a 01        		.uleb128 0x1
 8556 033b 12        		.uleb128 0x12
 8557 033c 01        		.uleb128 0x1
 8558 033d 58        		.uleb128 0x58
 8559 033e 0B        		.uleb128 0xb
 8560 033f 59        		.uleb128 0x59
 8561 0340 05        		.uleb128 0x5
 8562 0341 01        		.uleb128 0x1
 8563 0342 13        		.uleb128 0x13
 8564 0343 00        		.byte	0x0
 8565 0344 00        		.byte	0x0
 8566 0345 3C        		.uleb128 0x3c
 8567 0346 1D        		.uleb128 0x1d
 8568 0347 01        		.byte	0x1
 8569 0348 31        		.uleb128 0x31
 8570 0349 13        		.uleb128 0x13
 8571 034a 11        		.uleb128 0x11
 8572 034b 01        		.uleb128 0x1
 8573 034c 12        		.uleb128 0x12
 8574 034d 01        		.uleb128 0x1
 8575 034e 58        		.uleb128 0x58
 8576 034f 0B        		.uleb128 0xb
 8577 0350 59        		.uleb128 0x59
 8578 0351 05        		.uleb128 0x5
 8579 0352 00        		.byte	0x0
 8580 0353 00        		.byte	0x0
 8581 0354 3D        		.uleb128 0x3d
 8582 0355 01        		.uleb128 0x1
 8583 0356 01        		.byte	0x1
 8584 0357 49        		.uleb128 0x49
 8585 0358 13        		.uleb128 0x13
 8586 0359 01        		.uleb128 0x1
 8587 035a 13        		.uleb128 0x13
 8588 035b 00        		.byte	0x0
 8589 035c 00        		.byte	0x0
 8590 035d 3E        		.uleb128 0x3e
 8591 035e 21        		.uleb128 0x21
 8592 035f 00        		.byte	0x0
 8593 0360 49        		.uleb128 0x49
 8594 0361 13        		.uleb128 0x13
 8595 0362 2F        		.uleb128 0x2f
 8596 0363 0B        		.uleb128 0xb
 8597 0364 00        		.byte	0x0
 8598 0365 00        		.byte	0x0
 8599 0366 3F        		.uleb128 0x3f
 8600 0367 2E        		.uleb128 0x2e
 8601 0368 00        		.byte	0x0
 8602 0369 3F        		.uleb128 0x3f
 8603 036a 0C        		.uleb128 0xc
GAS LISTING /tmp/ccq5P7XK.s 			page 152


 8604 036b 03        		.uleb128 0x3
 8605 036c 0E        		.uleb128 0xe
 8606 036d 3A        		.uleb128 0x3a
 8607 036e 0B        		.uleb128 0xb
 8608 036f 3B        		.uleb128 0x3b
 8609 0370 05        		.uleb128 0x5
 8610 0371 27        		.uleb128 0x27
 8611 0372 0C        		.uleb128 0xc
 8612 0373 49        		.uleb128 0x49
 8613 0374 13        		.uleb128 0x13
 8614 0375 11        		.uleb128 0x11
 8615 0376 01        		.uleb128 0x1
 8616 0377 12        		.uleb128 0x12
 8617 0378 01        		.uleb128 0x1
 8618 0379 40        		.uleb128 0x40
 8619 037a 0A        		.uleb128 0xa
 8620 037b 00        		.byte	0x0
 8621 037c 00        		.byte	0x0
 8622 037d 40        		.uleb128 0x40
 8623 037e 34        		.uleb128 0x34
 8624 037f 00        		.byte	0x0
 8625 0380 03        		.uleb128 0x3
 8626 0381 0E        		.uleb128 0xe
 8627 0382 3A        		.uleb128 0x3a
 8628 0383 0B        		.uleb128 0xb
 8629 0384 3B        		.uleb128 0x3b
 8630 0385 0B        		.uleb128 0xb
 8631 0386 49        		.uleb128 0x49
 8632 0387 13        		.uleb128 0x13
 8633 0388 3F        		.uleb128 0x3f
 8634 0389 0C        		.uleb128 0xc
 8635 038a 3C        		.uleb128 0x3c
 8636 038b 0C        		.uleb128 0xc
 8637 038c 00        		.byte	0x0
 8638 038d 00        		.byte	0x0
 8639 038e 41        		.uleb128 0x41
 8640 038f 34        		.uleb128 0x34
 8641 0390 00        		.byte	0x0
 8642 0391 03        		.uleb128 0x3
 8643 0392 0E        		.uleb128 0xe
 8644 0393 3A        		.uleb128 0x3a
 8645 0394 0B        		.uleb128 0xb
 8646 0395 3B        		.uleb128 0x3b
 8647 0396 0B        		.uleb128 0xb
 8648 0397 49        		.uleb128 0x49
 8649 0398 13        		.uleb128 0x13
 8650 0399 3F        		.uleb128 0x3f
 8651 039a 0C        		.uleb128 0xc
 8652 039b 02        		.uleb128 0x2
 8653 039c 0A        		.uleb128 0xa
 8654 039d 00        		.byte	0x0
 8655 039e 00        		.byte	0x0
 8656 039f 42        		.uleb128 0x42
 8657 03a0 34        		.uleb128 0x34
 8658 03a1 00        		.byte	0x0
 8659 03a2 03        		.uleb128 0x3
 8660 03a3 0E        		.uleb128 0xe
GAS LISTING /tmp/ccq5P7XK.s 			page 153


 8661 03a4 3A        		.uleb128 0x3a
 8662 03a5 0B        		.uleb128 0xb
 8663 03a6 3B        		.uleb128 0x3b
 8664 03a7 05        		.uleb128 0x5
 8665 03a8 49        		.uleb128 0x49
 8666 03a9 13        		.uleb128 0x13
 8667 03aa 3F        		.uleb128 0x3f
 8668 03ab 0C        		.uleb128 0xc
 8669 03ac 02        		.uleb128 0x2
 8670 03ad 0A        		.uleb128 0xa
 8671 03ae 00        		.byte	0x0
 8672 03af 00        		.byte	0x0
 8673 03b0 00        		.byte	0x0
 8674               		.section	.debug_pubnames,"",@progbits
 8675 0000 9902 0000 		.long	0x299
 8676 0004 0200      		.word	0x2
 8677 0006 0000 0000 		.long	.Ldebug_info0
 8678 000a 6818 0000 		.long	0x1868
 8679 000e 0A0E 0000 		.long	0xe0a
 8680 0012 4343 5057 		.string	"CCPWrite"
 8680      7269 7465 
 8680      00
 8681 001b 620E 0000 		.long	0xe62
 8682 001f 434C 4B53 		.string	"CLKSYS_XOSC_Config"
 8682      5953 5F58 
 8682      4F53 435F 
 8682      436F 6E66 
 8682      6967 00
 8683 0032 AC0E 0000 		.long	0xeac
 8684 0036 434C 4B53 		.string	"CLKSYS_PLL_Config"
 8684      5953 5F50 
 8684      4C4C 5F43 
 8684      6F6E 6669 
 8684      6700 
 8685 0048 E20E 0000 		.long	0xee2
 8686 004c 434C 4B53 		.string	"CLKSYS_Disable"
 8686      5953 5F44 
 8686      6973 6162 
 8686      6C65 00
 8687 005b 1E0F 0000 		.long	0xf1e
 8688 005f 434C 4B53 		.string	"CLKSYS_Prescalers_Config"
 8688      5953 5F50 
 8688      7265 7363 
 8688      616C 6572 
 8688      735F 436F 
 8689 0078 650F 0000 		.long	0xf65
 8690 007c 434C 4B53 		.string	"CLKSYS_Main_ClockSource_Select"
 8690      5953 5F4D 
 8690      6169 6E5F 
 8690      436C 6F63 
 8690      6B53 6F75 
 8691 009b A10F 0000 		.long	0xfa1
 8692 009f 434C 4B53 		.string	"CLKSYS_RTC_ClockSource_Enable"
 8692      5953 5F52 
 8692      5443 5F43 
 8692      6C6F 636B 
 8692      536F 7572 
GAS LISTING /tmp/ccq5P7XK.s 			page 154


 8693 00bd C80F 0000 		.long	0xfc8
 8694 00c1 434C 4B53 		.string	"CLKSYS_AutoCalibration_Enable"
 8694      5953 5F41 
 8694      7574 6F43 
 8694      616C 6962 
 8694      7261 7469 
 8695 00df 0110 0000 		.long	0x1001
 8696 00e3 434C 4B53 		.string	"CLKSYS_XOSC_FailureDetection_Enable"
 8696      5953 5F58 
 8696      4F53 435F 
 8696      4661 696C 
 8696      7572 6544 
 8697 0107 1710 0000 		.long	0x1017
 8698 010b 434C 4B53 		.string	"CLKSYS_Configuration_Lock"
 8698      5953 5F43 
 8698      6F6E 6669 
 8698      6775 7261 
 8698      7469 6F6E 
 8699 0125 2D10 0000 		.long	0x102d
 8700 0129 5F5F 7665 		.string	"__vector_14"
 8700      6374 6F72 
 8700      5F31 3400 
 8701 0135 4210 0000 		.long	0x1042
 8702 0139 6465 6C61 		.string	"delay_ms"
 8702      795F 6D73 
 8702      00
 8703 0142 A410 0000 		.long	0x10a4
 8704 0146 636F 6D70 		.string	"compareArray"
 8704      6172 6541 
 8704      7272 6179 
 8704      00
 8705 0153 E510 0000 		.long	0x10e5
 8706 0157 7369 676E 		.string	"signum"
 8706      756D 00
 8707 015e 0411 0000 		.long	0x1104
 8708 0162 436F 6E66 		.string	"Config32MHzClock"
 8708      6967 3332 
 8708      4D48 7A43 
 8708      6C6F 636B 
 8708      00
 8709 0173 1911 0000 		.long	0x1119
 8710 0177 6D69 6C6C 		.string	"millis"
 8710      6973 00
 8711 017e 2A11 0000 		.long	0x112a
 8712 0182 626C 696E 		.string	"blink"
 8712      6B00 
 8713 0188 5311 0000 		.long	0x1153
 8714 018c 7365 7450 		.string	"setPin"
 8714      696E 00
 8715 0193 8E11 0000 		.long	0x118e
 8716 0197 636C 6561 		.string	"clearPin"
 8716      7250 696E 
 8716      00
 8717 01a0 C911 0000 		.long	0x11c9
 8718 01a4 7365 7453 		.string	"setSpeed"
 8718      7065 6564 
 8718      00
GAS LISTING /tmp/ccq5P7XK.s 			page 155


 8719 01ad FD11 0000 		.long	0x11fd
 8720 01b1 7374 6570 		.string	"stepMotor"
 8720      4D6F 746F 
 8720      7200 
 8721 01bb 3612 0000 		.long	0x1236
 8722 01bf 7374 6570 		.string	"step"
 8722      00
 8723 01c4 A112 0000 		.long	0x12a1
 8724 01c8 7374 6570 		.string	"stepOne"
 8724      4F6E 6500 
 8725 01d0 DC12 0000 		.long	0x12dc
 8726 01d4 6368 616E 		.string	"changeGoal"
 8726      6765 476F 
 8726      616C 00
 8727 01df 3413 0000 		.long	0x1334
 8728 01e3 6D6F 7665 		.string	"moveToGoal"
 8728      546F 476F 
 8728      616C 00
 8729 01ee E015 0000 		.long	0x15e0
 8730 01f2 7573 6255 		.string	"usbUpdate"
 8730      7064 6174 
 8730      6500 
 8731 01fc D816 0000 		.long	0x16d8
 8732 0200 6D61 696E 		.string	"mainLoop"
 8732      4C6F 6F70 
 8732      00
 8733 0209 EE16 0000 		.long	0x16ee
 8734 020d 6D61 696E 		.string	"main"
 8734      00
 8735 0212 9C17 0000 		.long	0x179c
 8736 0216 7374 6174 		.string	"state"
 8736      6500 
 8737 021c AE17 0000 		.long	0x17ae
 8738 0220 6465 6275 		.string	"debugFlag"
 8738      6746 6C61 
 8738      6700 
 8739 022a C017 0000 		.long	0x17c0
 8740 022e 676F 616C 		.string	"goal"
 8740      00
 8741 0233 D217 0000 		.long	0x17d2
 8742 0237 706F 7365 		.string	"pose"
 8742      00
 8743 023c E417 0000 		.long	0x17e4
 8744 0240 656C 6170 		.string	"elapsedMillis"
 8744      7365 644D 
 8744      696C 6C69 
 8744      7300 
 8745 024e F617 0000 		.long	0x17f6
 8746 0252 4261 7365 		.string	"Base"
 8746      00
 8747 0257 0818 0000 		.long	0x1808
 8748 025b 5368 6F75 		.string	"Shoulder"
 8748      6C64 6572 
 8748      00
 8749 0264 1B18 0000 		.long	0x181b
 8750 0268 456C 626F 		.string	"Elbow"
 8750      7700 
GAS LISTING /tmp/ccq5P7XK.s 			page 156


 8751 026e 2E18 0000 		.long	0x182e
 8752 0272 4C65 6674 		.string	"Left_Wrist"
 8752      5F57 7269 
 8752      7374 00
 8753 027d 4118 0000 		.long	0x1841
 8754 0281 5269 6768 		.string	"Right_Wrist"
 8754      745F 5772 
 8754      6973 7400 
 8755 028d 5418 0000 		.long	0x1854
 8756 0291 4772 6970 		.string	"Gripper"
 8756      7065 7200 
 8757 0299 0000 0000 		.long	0x0
 8758               		.section	.debug_pubtypes,"",@progbits
 8759 0000 2402 0000 		.long	0x224
 8760 0004 0200      		.word	0x2
 8761 0006 0000 0000 		.long	.Ldebug_info0
 8762 000a 6818 0000 		.long	0x1868
 8763 000e 2C00 0000 		.long	0x2c
 8764 0012 7569 6E74 		.string	"uint8_t"
 8764      385F 7400 
 8765 001a 5300 0000 		.long	0x53
 8766 001e 7569 6E74 		.string	"uint32_t"
 8766      3332 5F74 
 8766      00
 8767 0027 7D00 0000 		.long	0x7d
 8768 002b 4343 505F 		.string	"CCP_enum"
 8768      656E 756D 
 8768      00
 8769 0034 9800 0000 		.long	0x98
 8770 0038 434C 4B5F 		.string	"CLK_struct"
 8770      7374 7275 
 8770      6374 00
 8771 0043 DD00 0000 		.long	0xdd
 8772 0047 434C 4B5F 		.string	"CLK_t"
 8772      7400 
 8773 004d E800 0000 		.long	0xe8
 8774 0051 434C 4B5F 		.string	"CLK_SCLKSEL_enum"
 8774      5343 4C4B 
 8774      5345 4C5F 
 8774      656E 756D 
 8774      00
 8775 0062 1301 0000 		.long	0x113
 8776 0066 434C 4B5F 		.string	"CLK_SCLKSEL_t"
 8776      5343 4C4B 
 8776      5345 4C5F 
 8776      7400 
 8777 0074 1E01 0000 		.long	0x11e
 8778 0078 434C 4B5F 		.string	"CLK_PSADIV_enum"
 8778      5053 4144 
 8778      4956 5F65 
 8778      6E75 6D00 
 8779 0088 6801 0000 		.long	0x168
 8780 008c 434C 4B5F 		.string	"CLK_PSADIV_t"
 8780      5053 4144 
 8780      4956 5F74 
 8780      00
 8781 0099 7301 0000 		.long	0x173
GAS LISTING /tmp/ccq5P7XK.s 			page 157


 8782 009d 434C 4B5F 		.string	"CLK_PSBCDIV_enum"
 8782      5053 4243 
 8782      4449 565F 
 8782      656E 756D 
 8782      00
 8783 00ae 9801 0000 		.long	0x198
 8784 00b2 434C 4B5F 		.string	"CLK_PSBCDIV_t"
 8784      5053 4243 
 8784      4449 565F 
 8784      7400 
 8785 00c0 A301 0000 		.long	0x1a3
 8786 00c4 434C 4B5F 		.string	"CLK_RTCSRC_enum"
 8786      5254 4353 
 8786      5243 5F65 
 8786      6E75 6D00 
 8787 00d4 C801 0000 		.long	0x1c8
 8788 00d8 434C 4B5F 		.string	"CLK_RTCSRC_t"
 8788      5254 4353 
 8788      5243 5F74 
 8788      00
 8789 00e5 D301 0000 		.long	0x1d3
 8790 00e9 4F53 435F 		.string	"OSC_struct"
 8790      7374 7275 
 8790      6374 00
 8791 00f4 4A02 0000 		.long	0x24a
 8792 00f8 4F53 435F 		.string	"OSC_t"
 8792      7400 
 8793 00fe 5602 0000 		.long	0x256
 8794 0102 4F53 435F 		.string	"OSC_FRQRANGE_enum"
 8794      4652 5152 
 8794      414E 4745 
 8794      5F65 6E75 
 8794      6D00 
 8795 0114 7F02 0000 		.long	0x27f
 8796 0118 4F53 435F 		.string	"OSC_FRQRANGE_t"
 8796      4652 5152 
 8796      414E 4745 
 8796      5F74 00
 8797 0127 8B02 0000 		.long	0x28b
 8798 012b 4F53 435F 		.string	"OSC_XOSCSEL_enum"
 8798      584F 5343 
 8798      5345 4C5F 
 8798      656E 756D 
 8798      00
 8799 013c B702 0000 		.long	0x2b7
 8800 0140 4F53 435F 		.string	"OSC_XOSCSEL_t"
 8800      584F 5343 
 8800      5345 4C5F 
 8800      7400 
 8801 014e C302 0000 		.long	0x2c3
 8802 0152 4F53 435F 		.string	"OSC_PLLSRC_enum"
 8802      504C 4C53 
 8802      5243 5F65 
 8802      6E75 6D00 
 8803 0162 E502 0000 		.long	0x2e5
 8804 0166 4F53 435F 		.string	"OSC_PLLSRC_t"
 8804      504C 4C53 
GAS LISTING /tmp/ccq5P7XK.s 			page 158


 8804      5243 5F74 
 8804      00
 8805 0173 F102 0000 		.long	0x2f1
 8806 0177 4446 4C4C 		.string	"DFLL_struct"
 8806      5F73 7472 
 8806      7563 7400 
 8807 0183 7703 0000 		.long	0x377
 8808 0187 4446 4C4C 		.string	"DFLL_t"
 8808      5F74 00
 8809 018e 8303 0000 		.long	0x383
 8810 0192 504D 4943 		.string	"PMIC_struct"
 8810      5F73 7472 
 8810      7563 7400 
 8811 019e BE03 0000 		.long	0x3be
 8812 01a2 504D 4943 		.string	"PMIC_t"
 8812      5F74 00
 8813 01a9 CF03 0000 		.long	0x3cf
 8814 01ad 504F 5254 		.string	"PORT_struct"
 8814      5F73 7472 
 8814      7563 7400 
 8815 01b9 4405 0000 		.long	0x544
 8816 01bd 504F 5254 		.string	"PORT_t"
 8816      5F74 00
 8817 01c4 5005 0000 		.long	0x550
 8818 01c8 504F 5254 		.string	"PORT_OPC_enum"
 8818      5F4F 5043 
 8818      5F65 6E75 
 8818      6D00 
 8819 01d6 6F08 0000 		.long	0x86f
 8820 01da 5443 305F 		.string	"TC0_struct"
 8820      7374 7275 
 8820      6374 00
 8821 01e5 4B0B 0000 		.long	0xb4b
 8822 01e9 5443 305F 		.string	"TC0_t"
 8822      7400 
 8823 01ef 570B 0000 		.long	0xb57
 8824 01f3 5443 5F43 		.string	"TC_CLKSEL_enum"
 8824      4C4B 5345 
 8824      4C5F 656E 
 8824      756D 00
 8825 0202 C50B 0000 		.long	0xbc5
 8826 0206 5443 5F4F 		.string	"TC_OVFINTLVL_enum"
 8826      5646 494E 
 8826      544C 564C 
 8826      5F65 6E75 
 8826      6D00 
 8827 0218 F90B 0000 		.long	0xbf9
 8828 021c 5374 6570 		.string	"Stepper"
 8828      7065 7200 
 8829 0224 0000 0000 		.long	0x0
 8830               		.section	.debug_aranges,"",@progbits
 8831 0000 1C00 0000 		.long	0x1c
 8832 0004 0200      		.word	0x2
 8833 0006 0000 0000 		.long	.Ldebug_info0
 8834 000a 04        		.byte	0x4
 8835 000b 00        		.byte	0x0
 8836 000c 0000      		.word	0x0
GAS LISTING /tmp/ccq5P7XK.s 			page 159


 8837 000e 0000      		.word	0x0
 8838 0010 0000 0000 		.long	.Ltext0
 8839 0014 9A13 0000 		.long	.Letext0-.Ltext0
 8840 0018 0000 0000 		.long	0x0
 8841 001c 0000 0000 		.long	0x0
 8842               		.section	.debug_ranges,"",@progbits
 8843               	.Ldebug_ranges0:
 8844 0000 660B 0000 		.long	.LBB70-.Ltext0
 8845 0004 8E0B 0000 		.long	.LBE70-.Ltext0
 8846 0008 C20B 0000 		.long	.LBB73-.Ltext0
 8847 000c DA0B 0000 		.long	.LBE73-.Ltext0
 8848 0010 0000 0000 		.long	0x0
 8849 0014 0000 0000 		.long	0x0
 8850 0018 DA0B 0000 		.long	.LBB74-.Ltext0
 8851 001c F60B 0000 		.long	.LBE74-.Ltext0
 8852 0020 2A0C 0000 		.long	.LBB77-.Ltext0
 8853 0024 420C 0000 		.long	.LBE77-.Ltext0
 8854 0028 0000 0000 		.long	0x0
 8855 002c 0000 0000 		.long	0x0
 8856 0030 420C 0000 		.long	.LBB78-.Ltext0
 8857 0034 5E0C 0000 		.long	.LBE78-.Ltext0
 8858 0038 920C 0000 		.long	.LBB81-.Ltext0
 8859 003c AA0C 0000 		.long	.LBE81-.Ltext0
 8860 0040 0000 0000 		.long	0x0
 8861 0044 0000 0000 		.long	0x0
 8862 0048 AA0C 0000 		.long	.LBB82-.Ltext0
 8863 004c C60C 0000 		.long	.LBE82-.Ltext0
 8864 0050 FA0C 0000 		.long	.LBB85-.Ltext0
 8865 0054 120D 0000 		.long	.LBE85-.Ltext0
 8866 0058 0000 0000 		.long	0x0
 8867 005c 0000 0000 		.long	0x0
 8868 0060 120D 0000 		.long	.LBB86-.Ltext0
 8869 0064 2E0D 0000 		.long	.LBE86-.Ltext0
 8870 0068 660D 0000 		.long	.LBB89-.Ltext0
 8871 006c 7E0D 0000 		.long	.LBE89-.Ltext0
 8872 0070 0000 0000 		.long	0x0
 8873 0074 0000 0000 		.long	0x0
 8874 0078 7E0D 0000 		.long	.LBB90-.Ltext0
 8875 007c 9A0D 0000 		.long	.LBE90-.Ltext0
 8876 0080 D20D 0000 		.long	.LBB93-.Ltext0
 8877 0084 EA0D 0000 		.long	.LBE93-.Ltext0
 8878 0088 0000 0000 		.long	0x0
 8879 008c 0000 0000 		.long	0x0
 8880               		.section	.debug_line
 8881 0000 890D 0000 		.long	.LELT0-.LSLT0
 8882               	.LSLT0:
 8883 0004 0200      		.word	0x2
 8884 0006 F700 0000 		.long	.LELTP0-.LASLTP0
 8885               	.LASLTP0:
 8886 000a 01        		.byte	0x1
 8887 000b 01        		.byte	0x1
 8888 000c F6        		.byte	0xf6
 8889 000d F5        		.byte	0xf5
 8890 000e 0A        		.byte	0xa
 8891 000f 00        		.byte	0x0
 8892 0010 01        		.byte	0x1
 8893 0011 01        		.byte	0x1
GAS LISTING /tmp/ccq5P7XK.s 			page 160


 8894 0012 01        		.byte	0x1
 8895 0013 01        		.byte	0x1
 8896 0014 00        		.byte	0x0
 8897 0015 00        		.byte	0x0
 8898 0016 00        		.byte	0x0
 8899 0017 01        		.byte	0x1
 8900 0018 7265 7175 		.ascii	"requiredFiles"
 8900      6972 6564 
 8900      4669 6C65 
 8900      73
 8901 0025 00        		.byte	0
 8902 0026 2F75 7372 		.ascii	"/usr/lib/gcc/avr/4.5.3/../../../avr/include"
 8902      2F6C 6962 
 8902      2F67 6363 
 8902      2F61 7672 
 8902      2F34 2E35 
 8903 0051 00        		.byte	0
 8904 0052 2F75 7372 		.ascii	"/usr/lib/gcc/avr/4.5.3/../../../avr/include/avr"
 8904      2F6C 6962 
 8904      2F67 6363 
 8904      2F61 7672 
 8904      2F34 2E35 
 8905 0081 00        		.byte	0
 8906 0082 2F75 7372 		.ascii	"/usr/lib/gcc/avr/4.5.3/../../../avr/include/util"
 8906      2F6C 6962 
 8906      2F67 6363 
 8906      2F61 7672 
 8906      2F34 2E35 
 8907 00b2 00        		.byte	0
 8908 00b3 00        		.byte	0x0
 8909 00b4 636C 6B73 		.string	"clksys_driver.c"
 8909      7973 5F64 
 8909      7269 7665 
 8909      722E 6300 
 8910 00c4 01        		.uleb128 0x1
 8911 00c5 00        		.uleb128 0x0
 8912 00c6 00        		.uleb128 0x0
 8913 00c7 4164 4465 		.string	"AdDemo.c"
 8913      6D6F 2E63 
 8913      00
 8914 00d0 00        		.uleb128 0x0
 8915 00d1 00        		.uleb128 0x0
 8916 00d2 00        		.uleb128 0x0
 8917 00d3 7574 696C 		.string	"util/delay.h"
 8917      2F64 656C 
 8917      6179 2E68 
 8917      00
 8918 00e0 02        		.uleb128 0x2
 8919 00e1 00        		.uleb128 0x0
 8920 00e2 00        		.uleb128 0x0
 8921 00e3 7374 6469 		.string	"stdint.h"
 8921      6E74 2E68 
 8921      00
 8922 00ec 02        		.uleb128 0x2
 8923 00ed 00        		.uleb128 0x0
 8924 00ee 00        		.uleb128 0x0
 8925 00ef 6176 722F 		.string	"avr/iox16a4.h"
GAS LISTING /tmp/ccq5P7XK.s 			page 161


 8925      696F 7831 
 8925      3661 342E 
 8925      6800 
 8926 00fd 02        		.uleb128 0x2
 8927 00fe 00        		.uleb128 0x0
 8928 00ff 00        		.uleb128 0x0
 8929 0100 00        		.byte	0x0
 8930               	.LELTP0:
 8931 0101 00        		.byte	0x0
 8932 0102 05        		.uleb128 0x5
 8933 0103 02        		.byte	0x2
 8934 0104 0000 0000 		.long	.LM1
 8935 0108 61        		.byte	0x61
 8936 0109 00        		.byte	0x0
 8937 010a 05        		.uleb128 0x5
 8938 010b 02        		.byte	0x2
 8939 010c 0000 0000 		.long	.LM2
 8940 0110 32        		.byte	0x32
 8941 0111 00        		.byte	0x0
 8942 0112 05        		.uleb128 0x5
 8943 0113 02        		.byte	0x2
 8944 0114 0000 0000 		.long	.LM3
 8945 0118 17        		.byte	0x17
 8946 0119 00        		.byte	0x0
 8947 011a 05        		.uleb128 0x5
 8948 011b 02        		.byte	0x2
 8949 011c 0000 0000 		.long	.LM4
 8950 0120 16        		.byte	0x16
 8951 0121 00        		.byte	0x0
 8952 0122 05        		.uleb128 0x5
 8953 0123 02        		.byte	0x2
 8954 0124 0000 0000 		.long	.LM5
 8955 0128 1E        		.byte	0x1e
 8956 0129 00        		.byte	0x0
 8957 012a 05        		.uleb128 0x5
 8958 012b 02        		.byte	0x2
 8959 012c 0000 0000 		.long	.LM6
 8960 0130 16        		.byte	0x16
 8961 0131 00        		.byte	0x0
 8962 0132 05        		.uleb128 0x5
 8963 0133 02        		.byte	0x2
 8964 0134 0000 0000 		.long	.LM7
 8965 0138 27        		.byte	0x27
 8966 0139 00        		.byte	0x0
 8967 013a 05        		.uleb128 0x5
 8968 013b 02        		.byte	0x2
 8969 013c 0000 0000 		.long	.LM8
 8970 0140 15        		.byte	0x15
 8971 0141 00        		.byte	0x0
 8972 0142 05        		.uleb128 0x5
 8973 0143 02        		.byte	0x2
 8974 0144 0000 0000 		.long	.LM9
 8975 0148 01        		.byte	0x1
 8976 0149 00        		.byte	0x0
 8977 014a 05        		.uleb128 0x5
 8978 014b 02        		.byte	0x2
 8979 014c 0000 0000 		.long	.LM10
GAS LISTING /tmp/ccq5P7XK.s 			page 162


 8980 0150 17        		.byte	0x17
 8981 0151 00        		.byte	0x0
 8982 0152 05        		.uleb128 0x5
 8983 0153 02        		.byte	0x2
 8984 0154 0000 0000 		.long	.LM11
 8985 0158 28        		.byte	0x28
 8986 0159 00        		.byte	0x0
 8987 015a 05        		.uleb128 0x5
 8988 015b 02        		.byte	0x2
 8989 015c 0000 0000 		.long	.LM12
 8990 0160 15        		.byte	0x15
 8991 0161 00        		.byte	0x0
 8992 0162 05        		.uleb128 0x5
 8993 0163 02        		.byte	0x2
 8994 0164 0000 0000 		.long	.LM13
 8995 0168 15        		.byte	0x15
 8996 0169 00        		.byte	0x0
 8997 016a 05        		.uleb128 0x5
 8998 016b 02        		.byte	0x2
 8999 016c 0000 0000 		.long	.LM14
 9000 0170 15        		.byte	0x15
 9001 0171 00        		.byte	0x0
 9002 0172 05        		.uleb128 0x5
 9003 0173 02        		.byte	0x2
 9004 0174 0000 0000 		.long	.LM15
 9005 0178 25        		.byte	0x25
 9006 0179 00        		.byte	0x0
 9007 017a 05        		.uleb128 0x5
 9008 017b 02        		.byte	0x2
 9009 017c 0000 0000 		.long	.LM16
 9010 0180 15        		.byte	0x15
 9011 0181 00        		.byte	0x0
 9012 0182 05        		.uleb128 0x5
 9013 0183 02        		.byte	0x2
 9014 0184 0000 0000 		.long	.LM17
 9015 0188 15        		.byte	0x15
 9016 0189 00        		.byte	0x0
 9017 018a 05        		.uleb128 0x5
 9018 018b 02        		.byte	0x2
 9019 018c 0000 0000 		.long	.LM18
 9020 0190 16        		.byte	0x16
 9021 0191 00        		.byte	0x0
 9022 0192 05        		.uleb128 0x5
 9023 0193 02        		.byte	0x2
 9024 0194 0000 0000 		.long	.LM19
 9025 0198 24        		.byte	0x24
 9026 0199 00        		.byte	0x0
 9027 019a 05        		.uleb128 0x5
 9028 019b 02        		.byte	0x2
 9029 019c 0000 0000 		.long	.LM20
 9030 01a0 15        		.byte	0x15
 9031 01a1 00        		.byte	0x0
 9032 01a2 05        		.uleb128 0x5
 9033 01a3 02        		.byte	0x2
 9034 01a4 0000 0000 		.long	.LM21
 9035 01a8 15        		.byte	0x15
 9036 01a9 00        		.byte	0x0
GAS LISTING /tmp/ccq5P7XK.s 			page 163


 9037 01aa 05        		.uleb128 0x5
 9038 01ab 02        		.byte	0x2
 9039 01ac 0000 0000 		.long	.LM22
 9040 01b0 15        		.byte	0x15
 9041 01b1 00        		.byte	0x0
 9042 01b2 05        		.uleb128 0x5
 9043 01b3 02        		.byte	0x2
 9044 01b4 0000 0000 		.long	.LM23
 9045 01b8 23        		.byte	0x23
 9046 01b9 00        		.byte	0x0
 9047 01ba 05        		.uleb128 0x5
 9048 01bb 02        		.byte	0x2
 9049 01bc 0000 0000 		.long	.LM24
 9050 01c0 15        		.byte	0x15
 9051 01c1 00        		.byte	0x0
 9052 01c2 05        		.uleb128 0x5
 9053 01c3 02        		.byte	0x2
 9054 01c4 0000 0000 		.long	.LM25
 9055 01c8 15        		.byte	0x15
 9056 01c9 00        		.byte	0x0
 9057 01ca 05        		.uleb128 0x5
 9058 01cb 02        		.byte	0x2
 9059 01cc 0000 0000 		.long	.LM26
 9060 01d0 15        		.byte	0x15
 9061 01d1 00        		.byte	0x0
 9062 01d2 05        		.uleb128 0x5
 9063 01d3 02        		.byte	0x2
 9064 01d4 0000 0000 		.long	.LM27
 9065 01d8 16        		.byte	0x16
 9066 01d9 00        		.byte	0x0
 9067 01da 05        		.uleb128 0x5
 9068 01db 02        		.byte	0x2
 9069 01dc 0000 0000 		.long	.LM28
 9070 01e0 1F        		.byte	0x1f
 9071 01e1 00        		.byte	0x0
 9072 01e2 05        		.uleb128 0x5
 9073 01e3 02        		.byte	0x2
 9074 01e4 0000 0000 		.long	.LM29
 9075 01e8 15        		.byte	0x15
 9076 01e9 00        		.byte	0x0
 9077 01ea 05        		.uleb128 0x5
 9078 01eb 02        		.byte	0x2
 9079 01ec 0000 0000 		.long	.LM30
 9080 01f0 17        		.byte	0x17
 9081 01f1 00        		.byte	0x0
 9082 01f2 05        		.uleb128 0x5
 9083 01f3 02        		.byte	0x2
 9084 01f4 0000 0000 		.long	.LM31
 9085 01f8 23        		.byte	0x23
 9086 01f9 00        		.byte	0x0
 9087 01fa 05        		.uleb128 0x5
 9088 01fb 02        		.byte	0x2
 9089 01fc 0000 0000 		.long	.LM32
 9090 0200 15        		.byte	0x15
 9091 0201 00        		.byte	0x0
 9092 0202 05        		.uleb128 0x5
 9093 0203 02        		.byte	0x2
GAS LISTING /tmp/ccq5P7XK.s 			page 164


 9094 0204 0000 0000 		.long	.LM33
 9095 0208 01        		.byte	0x1
 9096 0209 00        		.byte	0x0
 9097 020a 05        		.uleb128 0x5
 9098 020b 02        		.byte	0x2
 9099 020c 0000 0000 		.long	.LM34
 9100 0210 16        		.byte	0x16
 9101 0211 00        		.byte	0x0
 9102 0212 05        		.uleb128 0x5
 9103 0213 02        		.byte	0x2
 9104 0214 0000 0000 		.long	.LM35
 9105 0218 15        		.byte	0x15
 9106 0219 00        		.byte	0x0
 9107 021a 05        		.uleb128 0x5
 9108 021b 02        		.byte	0x2
 9109 021c 0000 0000 		.long	.LM36
 9110 0220 15        		.byte	0x15
 9111 0221 00        		.byte	0x0
 9112 0222 05        		.uleb128 0x5
 9113 0223 02        		.byte	0x2
 9114 0224 0000 0000 		.long	.LM37
 9115 0228 15        		.byte	0x15
 9116 0229 00        		.byte	0x0
 9117 022a 05        		.uleb128 0x5
 9118 022b 02        		.byte	0x2
 9119 022c 0000 0000 		.long	.LM38
 9120 0230 22        		.byte	0x22
 9121 0231 00        		.byte	0x0
 9122 0232 05        		.uleb128 0x5
 9123 0233 02        		.byte	0x2
 9124 0234 0000 0000 		.long	.LM39
 9125 0238 15        		.byte	0x15
 9126 0239 00        		.byte	0x0
 9127 023a 05        		.uleb128 0x5
 9128 023b 02        		.byte	0x2
 9129 023c 0000 0000 		.long	.LM40
 9130 0240 15        		.byte	0x15
 9131 0241 00        		.byte	0x0
 9132 0242 05        		.uleb128 0x5
 9133 0243 02        		.byte	0x2
 9134 0244 0000 0000 		.long	.LM41
 9135 0248 1E        		.byte	0x1e
 9136 0249 00        		.byte	0x0
 9137 024a 05        		.uleb128 0x5
 9138 024b 02        		.byte	0x2
 9139 024c 0000 0000 		.long	.LM42
 9140 0250 15        		.byte	0x15
 9141 0251 00        		.byte	0x0
 9142 0252 05        		.uleb128 0x5
 9143 0253 02        		.byte	0x2
 9144 0254 0000 0000 		.long	.LM43
 9145 0258 15        		.byte	0x15
 9146 0259 00        		.byte	0x0
 9147 025a 05        		.uleb128 0x5
 9148 025b 02        		.byte	0x2
 9149 025c 0000 0000 		.long	.LM44
 9150 0260 04        		.byte	0x4
GAS LISTING /tmp/ccq5P7XK.s 			page 165


 9151 0261 02        		.uleb128 0x2
 9152 0262 03        		.byte	0x3
 9153 0263 8E7E      		.sleb128 -242
 9154 0265 01        		.byte	0x1
 9155 0266 00        		.byte	0x0
 9156 0267 05        		.uleb128 0x5
 9157 0268 02        		.byte	0x2
 9158 0269 0000 0000 		.long	.LM45
 9159 026d 15        		.byte	0x15
 9160 026e 00        		.byte	0x0
 9161 026f 05        		.uleb128 0x5
 9162 0270 02        		.byte	0x2
 9163 0271 0000 0000 		.long	.LM46
 9164 0275 15        		.byte	0x15
 9165 0276 00        		.byte	0x0
 9166 0277 05        		.uleb128 0x5
 9167 0278 02        		.byte	0x2
 9168 0279 0000 0000 		.long	.LM47
 9169 027d 18        		.byte	0x18
 9170 027e 00        		.byte	0x0
 9171 027f 05        		.uleb128 0x5
 9172 0280 02        		.byte	0x2
 9173 0281 0000 0000 		.long	.LM48
 9174 0285 01        		.byte	0x1
 9175 0286 00        		.byte	0x0
 9176 0287 05        		.uleb128 0x5
 9177 0288 02        		.byte	0x2
 9178 0289 0000 0000 		.long	.LM49
 9179 028d 15        		.byte	0x15
 9180 028e 00        		.byte	0x0
 9181 028f 05        		.uleb128 0x5
 9182 0290 02        		.byte	0x2
 9183 0291 0000 0000 		.long	.LM50
 9184 0295 04        		.byte	0x4
 9185 0296 03        		.uleb128 0x3
 9186 0297 BE        		.byte	0xbe
 9187 0298 00        		.byte	0x0
 9188 0299 05        		.uleb128 0x5
 9189 029a 02        		.byte	0x2
 9190 029b 0000 0000 		.long	.LM51
 9191 029f 04        		.byte	0x4
 9192 02a0 02        		.uleb128 0x2
 9193 02a1 03        		.byte	0x3
 9194 02a2 D67E      		.sleb128 -170
 9195 02a4 01        		.byte	0x1
 9196 02a5 00        		.byte	0x0
 9197 02a6 05        		.uleb128 0x5
 9198 02a7 02        		.byte	0x2
 9199 02a8 0000 0000 		.long	.LM52
 9200 02ac 16        		.byte	0x16
 9201 02ad 00        		.byte	0x0
 9202 02ae 05        		.uleb128 0x5
 9203 02af 02        		.byte	0x2
 9204 02b0 0000 0000 		.long	.LM53
 9205 02b4 17        		.byte	0x17
 9206 02b5 00        		.byte	0x0
 9207 02b6 05        		.uleb128 0x5
GAS LISTING /tmp/ccq5P7XK.s 			page 166


 9208 02b7 02        		.byte	0x2
 9209 02b8 0000 0000 		.long	.LM54
 9210 02bc 15        		.byte	0x15
 9211 02bd 00        		.byte	0x0
 9212 02be 05        		.uleb128 0x5
 9213 02bf 02        		.byte	0x2
 9214 02c0 0000 0000 		.long	.LM55
 9215 02c4 01        		.byte	0x1
 9216 02c5 00        		.byte	0x0
 9217 02c6 05        		.uleb128 0x5
 9218 02c7 02        		.byte	0x2
 9219 02c8 0000 0000 		.long	.LM56
 9220 02cc 15        		.byte	0x15
 9221 02cd 00        		.byte	0x0
 9222 02ce 05        		.uleb128 0x5
 9223 02cf 02        		.byte	0x2
 9224 02d0 0000 0000 		.long	.LM57
 9225 02d4 15        		.byte	0x15
 9226 02d5 00        		.byte	0x0
 9227 02d6 05        		.uleb128 0x5
 9228 02d7 02        		.byte	0x2
 9229 02d8 0000 0000 		.long	.LM58
 9230 02dc 15        		.byte	0x15
 9231 02dd 00        		.byte	0x0
 9232 02de 05        		.uleb128 0x5
 9233 02df 02        		.byte	0x2
 9234 02e0 0000 0000 		.long	.LM59
 9235 02e4 10        		.byte	0x10
 9236 02e5 00        		.byte	0x0
 9237 02e6 05        		.uleb128 0x5
 9238 02e7 02        		.byte	0x2
 9239 02e8 0000 0000 		.long	.LM60
 9240 02ec 15        		.byte	0x15
 9241 02ed 00        		.byte	0x0
 9242 02ee 05        		.uleb128 0x5
 9243 02ef 02        		.byte	0x2
 9244 02f0 0000 0000 		.long	.LM61
 9245 02f4 1A        		.byte	0x1a
 9246 02f5 00        		.byte	0x0
 9247 02f6 05        		.uleb128 0x5
 9248 02f7 02        		.byte	0x2
 9249 02f8 0000 0000 		.long	.LM62
 9250 02fc 17        		.byte	0x17
 9251 02fd 00        		.byte	0x0
 9252 02fe 05        		.uleb128 0x5
 9253 02ff 02        		.byte	0x2
 9254 0300 0000 0000 		.long	.LM63
 9255 0304 15        		.byte	0x15
 9256 0305 00        		.byte	0x0
 9257 0306 05        		.uleb128 0x5
 9258 0307 02        		.byte	0x2
 9259 0308 0000 0000 		.long	.LM64
 9260 030c 01        		.byte	0x1
 9261 030d 00        		.byte	0x0
 9262 030e 05        		.uleb128 0x5
 9263 030f 02        		.byte	0x2
 9264 0310 0000 0000 		.long	.LM65
GAS LISTING /tmp/ccq5P7XK.s 			page 167


 9265 0314 01        		.byte	0x1
 9266 0315 00        		.byte	0x0
 9267 0316 05        		.uleb128 0x5
 9268 0317 02        		.byte	0x2
 9269 0318 0000 0000 		.long	.LM66
 9270 031c 15        		.byte	0x15
 9271 031d 00        		.byte	0x0
 9272 031e 05        		.uleb128 0x5
 9273 031f 02        		.byte	0x2
 9274 0320 0000 0000 		.long	.LM67
 9275 0324 18        		.byte	0x18
 9276 0325 00        		.byte	0x0
 9277 0326 05        		.uleb128 0x5
 9278 0327 02        		.byte	0x2
 9279 0328 0000 0000 		.long	.LM68
 9280 032c 15        		.byte	0x15
 9281 032d 00        		.byte	0x0
 9282 032e 05        		.uleb128 0x5
 9283 032f 02        		.byte	0x2
 9284 0330 0000 0000 		.long	.LM69
 9285 0334 16        		.byte	0x16
 9286 0335 00        		.byte	0x0
 9287 0336 05        		.uleb128 0x5
 9288 0337 02        		.byte	0x2
 9289 0338 0000 0000 		.long	.LM70
 9290 033c 15        		.byte	0x15
 9291 033d 00        		.byte	0x0
 9292 033e 05        		.uleb128 0x5
 9293 033f 02        		.byte	0x2
 9294 0340 0000 0000 		.long	.LM71
 9295 0344 15        		.byte	0x15
 9296 0345 00        		.byte	0x0
 9297 0346 05        		.uleb128 0x5
 9298 0347 02        		.byte	0x2
 9299 0348 0000 0000 		.long	.LM72
 9300 034c 15        		.byte	0x15
 9301 034d 00        		.byte	0x0
 9302 034e 05        		.uleb128 0x5
 9303 034f 02        		.byte	0x2
 9304 0350 0000 0000 		.long	.LM73
 9305 0354 15        		.byte	0x15
 9306 0355 00        		.byte	0x0
 9307 0356 05        		.uleb128 0x5
 9308 0357 02        		.byte	0x2
 9309 0358 0000 0000 		.long	.LM74
 9310 035c 17        		.byte	0x17
 9311 035d 00        		.byte	0x0
 9312 035e 05        		.uleb128 0x5
 9313 035f 02        		.byte	0x2
 9314 0360 0000 0000 		.long	.LM75
 9315 0364 15        		.byte	0x15
 9316 0365 00        		.byte	0x0
 9317 0366 05        		.uleb128 0x5
 9318 0367 02        		.byte	0x2
 9319 0368 0000 0000 		.long	.LM76
 9320 036c 15        		.byte	0x15
 9321 036d 00        		.byte	0x0
GAS LISTING /tmp/ccq5P7XK.s 			page 168


 9322 036e 05        		.uleb128 0x5
 9323 036f 02        		.byte	0x2
 9324 0370 0000 0000 		.long	.LM77
 9325 0374 16        		.byte	0x16
 9326 0375 00        		.byte	0x0
 9327 0376 05        		.uleb128 0x5
 9328 0377 02        		.byte	0x2
 9329 0378 0000 0000 		.long	.LM78
 9330 037c 15        		.byte	0x15
 9331 037d 00        		.byte	0x0
 9332 037e 05        		.uleb128 0x5
 9333 037f 02        		.byte	0x2
 9334 0380 0000 0000 		.long	.LM79
 9335 0384 15        		.byte	0x15
 9336 0385 00        		.byte	0x0
 9337 0386 05        		.uleb128 0x5
 9338 0387 02        		.byte	0x2
 9339 0388 0000 0000 		.long	.LM80
 9340 038c 15        		.byte	0x15
 9341 038d 00        		.byte	0x0
 9342 038e 05        		.uleb128 0x5
 9343 038f 02        		.byte	0x2
 9344 0390 0000 0000 		.long	.LM81
 9345 0394 15        		.byte	0x15
 9346 0395 00        		.byte	0x0
 9347 0396 05        		.uleb128 0x5
 9348 0397 02        		.byte	0x2
 9349 0398 0000 0000 		.long	.LM82
 9350 039c 15        		.byte	0x15
 9351 039d 00        		.byte	0x0
 9352 039e 05        		.uleb128 0x5
 9353 039f 02        		.byte	0x2
 9354 03a0 0000 0000 		.long	.LM83
 9355 03a4 18        		.byte	0x18
 9356 03a5 00        		.byte	0x0
 9357 03a6 05        		.uleb128 0x5
 9358 03a7 02        		.byte	0x2
 9359 03a8 0000 0000 		.long	.LM84
 9360 03ac 15        		.byte	0x15
 9361 03ad 00        		.byte	0x0
 9362 03ae 05        		.uleb128 0x5
 9363 03af 02        		.byte	0x2
 9364 03b0 0000 0000 		.long	.LM85
 9365 03b4 17        		.byte	0x17
 9366 03b5 00        		.byte	0x0
 9367 03b6 05        		.uleb128 0x5
 9368 03b7 02        		.byte	0x2
 9369 03b8 0000 0000 		.long	.LM86
 9370 03bc 15        		.byte	0x15
 9371 03bd 00        		.byte	0x0
 9372 03be 05        		.uleb128 0x5
 9373 03bf 02        		.byte	0x2
 9374 03c0 0000 0000 		.long	.LM87
 9375 03c4 15        		.byte	0x15
 9376 03c5 00        		.byte	0x0
 9377 03c6 05        		.uleb128 0x5
 9378 03c7 02        		.byte	0x2
GAS LISTING /tmp/ccq5P7XK.s 			page 169


 9379 03c8 0000 0000 		.long	.LM88
 9380 03cc 15        		.byte	0x15
 9381 03cd 00        		.byte	0x0
 9382 03ce 05        		.uleb128 0x5
 9383 03cf 02        		.byte	0x2
 9384 03d0 0000 0000 		.long	.LM89
 9385 03d4 15        		.byte	0x15
 9386 03d5 00        		.byte	0x0
 9387 03d6 05        		.uleb128 0x5
 9388 03d7 02        		.byte	0x2
 9389 03d8 0000 0000 		.long	.LM90
 9390 03dc 15        		.byte	0x15
 9391 03dd 00        		.byte	0x0
 9392 03de 05        		.uleb128 0x5
 9393 03df 02        		.byte	0x2
 9394 03e0 0000 0000 		.long	.LM91
 9395 03e4 15        		.byte	0x15
 9396 03e5 00        		.byte	0x0
 9397 03e6 05        		.uleb128 0x5
 9398 03e7 02        		.byte	0x2
 9399 03e8 0000 0000 		.long	.LM92
 9400 03ec 15        		.byte	0x15
 9401 03ed 00        		.byte	0x0
 9402 03ee 05        		.uleb128 0x5
 9403 03ef 02        		.byte	0x2
 9404 03f0 0000 0000 		.long	.LM93
 9405 03f4 15        		.byte	0x15
 9406 03f5 00        		.byte	0x0
 9407 03f6 05        		.uleb128 0x5
 9408 03f7 02        		.byte	0x2
 9409 03f8 0000 0000 		.long	.LM94
 9410 03fc 1A        		.byte	0x1a
 9411 03fd 00        		.byte	0x0
 9412 03fe 05        		.uleb128 0x5
 9413 03ff 02        		.byte	0x2
 9414 0400 0000 0000 		.long	.LM95
 9415 0404 15        		.byte	0x15
 9416 0405 00        		.byte	0x0
 9417 0406 05        		.uleb128 0x5
 9418 0407 02        		.byte	0x2
 9419 0408 0000 0000 		.long	.LM96
 9420 040c 15        		.byte	0x15
 9421 040d 00        		.byte	0x0
 9422 040e 05        		.uleb128 0x5
 9423 040f 02        		.byte	0x2
 9424 0410 0000 0000 		.long	.LM97
 9425 0414 15        		.byte	0x15
 9426 0415 00        		.byte	0x0
 9427 0416 05        		.uleb128 0x5
 9428 0417 02        		.byte	0x2
 9429 0418 0000 0000 		.long	.LM98
 9430 041c 15        		.byte	0x15
 9431 041d 00        		.byte	0x0
 9432 041e 05        		.uleb128 0x5
 9433 041f 02        		.byte	0x2
 9434 0420 0000 0000 		.long	.LM99
 9435 0424 1A        		.byte	0x1a
GAS LISTING /tmp/ccq5P7XK.s 			page 170


 9436 0425 00        		.byte	0x0
 9437 0426 05        		.uleb128 0x5
 9438 0427 02        		.byte	0x2
 9439 0428 0000 0000 		.long	.LM100
 9440 042c 15        		.byte	0x15
 9441 042d 00        		.byte	0x0
 9442 042e 05        		.uleb128 0x5
 9443 042f 02        		.byte	0x2
 9444 0430 0000 0000 		.long	.LM101
 9445 0434 15        		.byte	0x15
 9446 0435 00        		.byte	0x0
 9447 0436 05        		.uleb128 0x5
 9448 0437 02        		.byte	0x2
 9449 0438 0000 0000 		.long	.LM102
 9450 043c 15        		.byte	0x15
 9451 043d 00        		.byte	0x0
 9452 043e 05        		.uleb128 0x5
 9453 043f 02        		.byte	0x2
 9454 0440 0000 0000 		.long	.LM103
 9455 0444 15        		.byte	0x15
 9456 0445 00        		.byte	0x0
 9457 0446 05        		.uleb128 0x5
 9458 0447 02        		.byte	0x2
 9459 0448 0000 0000 		.long	.LM104
 9460 044c 15        		.byte	0x15
 9461 044d 00        		.byte	0x0
 9462 044e 05        		.uleb128 0x5
 9463 044f 02        		.byte	0x2
 9464 0450 0000 0000 		.long	.LM105
 9465 0454 15        		.byte	0x15
 9466 0455 00        		.byte	0x0
 9467 0456 05        		.uleb128 0x5
 9468 0457 02        		.byte	0x2
 9469 0458 0000 0000 		.long	.LM106
 9470 045c 15        		.byte	0x15
 9471 045d 00        		.byte	0x0
 9472 045e 05        		.uleb128 0x5
 9473 045f 02        		.byte	0x2
 9474 0460 0000 0000 		.long	.LM107
 9475 0464 15        		.byte	0x15
 9476 0465 00        		.byte	0x0
 9477 0466 05        		.uleb128 0x5
 9478 0467 02        		.byte	0x2
 9479 0468 0000 0000 		.long	.LM108
 9480 046c 1A        		.byte	0x1a
 9481 046d 00        		.byte	0x0
 9482 046e 05        		.uleb128 0x5
 9483 046f 02        		.byte	0x2
 9484 0470 0000 0000 		.long	.LM109
 9485 0474 15        		.byte	0x15
 9486 0475 00        		.byte	0x0
 9487 0476 05        		.uleb128 0x5
 9488 0477 02        		.byte	0x2
 9489 0478 0000 0000 		.long	.LM110
 9490 047c 15        		.byte	0x15
 9491 047d 00        		.byte	0x0
 9492 047e 05        		.uleb128 0x5
GAS LISTING /tmp/ccq5P7XK.s 			page 171


 9493 047f 02        		.byte	0x2
 9494 0480 0000 0000 		.long	.LM111
 9495 0484 15        		.byte	0x15
 9496 0485 00        		.byte	0x0
 9497 0486 05        		.uleb128 0x5
 9498 0487 02        		.byte	0x2
 9499 0488 0000 0000 		.long	.LM112
 9500 048c 15        		.byte	0x15
 9501 048d 00        		.byte	0x0
 9502 048e 05        		.uleb128 0x5
 9503 048f 02        		.byte	0x2
 9504 0490 0000 0000 		.long	.LM113
 9505 0494 1D        		.byte	0x1d
 9506 0495 00        		.byte	0x0
 9507 0496 05        		.uleb128 0x5
 9508 0497 02        		.byte	0x2
 9509 0498 0000 0000 		.long	.LM114
 9510 049c 15        		.byte	0x15
 9511 049d 00        		.byte	0x0
 9512 049e 05        		.uleb128 0x5
 9513 049f 02        		.byte	0x2
 9514 04a0 0000 0000 		.long	.LM115
 9515 04a4 17        		.byte	0x17
 9516 04a5 00        		.byte	0x0
 9517 04a6 05        		.uleb128 0x5
 9518 04a7 02        		.byte	0x2
 9519 04a8 0000 0000 		.long	.LM116
 9520 04ac 15        		.byte	0x15
 9521 04ad 00        		.byte	0x0
 9522 04ae 05        		.uleb128 0x5
 9523 04af 02        		.byte	0x2
 9524 04b0 0000 0000 		.long	.LM117
 9525 04b4 15        		.byte	0x15
 9526 04b5 00        		.byte	0x0
 9527 04b6 05        		.uleb128 0x5
 9528 04b7 02        		.byte	0x2
 9529 04b8 0000 0000 		.long	.LM118
 9530 04bc 15        		.byte	0x15
 9531 04bd 00        		.byte	0x0
 9532 04be 05        		.uleb128 0x5
 9533 04bf 02        		.byte	0x2
 9534 04c0 0000 0000 		.long	.LM119
 9535 04c4 15        		.byte	0x15
 9536 04c5 00        		.byte	0x0
 9537 04c6 05        		.uleb128 0x5
 9538 04c7 02        		.byte	0x2
 9539 04c8 0000 0000 		.long	.LM120
 9540 04cc 15        		.byte	0x15
 9541 04cd 00        		.byte	0x0
 9542 04ce 05        		.uleb128 0x5
 9543 04cf 02        		.byte	0x2
 9544 04d0 0000 0000 		.long	.LM121
 9545 04d4 15        		.byte	0x15
 9546 04d5 00        		.byte	0x0
 9547 04d6 05        		.uleb128 0x5
 9548 04d7 02        		.byte	0x2
 9549 04d8 0000 0000 		.long	.LM122
GAS LISTING /tmp/ccq5P7XK.s 			page 172


 9550 04dc 15        		.byte	0x15
 9551 04dd 00        		.byte	0x0
 9552 04de 05        		.uleb128 0x5
 9553 04df 02        		.byte	0x2
 9554 04e0 0000 0000 		.long	.LM123
 9555 04e4 15        		.byte	0x15
 9556 04e5 00        		.byte	0x0
 9557 04e6 05        		.uleb128 0x5
 9558 04e7 02        		.byte	0x2
 9559 04e8 0000 0000 		.long	.LM124
 9560 04ec 1A        		.byte	0x1a
 9561 04ed 00        		.byte	0x0
 9562 04ee 05        		.uleb128 0x5
 9563 04ef 02        		.byte	0x2
 9564 04f0 0000 0000 		.long	.LM125
 9565 04f4 15        		.byte	0x15
 9566 04f5 00        		.byte	0x0
 9567 04f6 05        		.uleb128 0x5
 9568 04f7 02        		.byte	0x2
 9569 04f8 0000 0000 		.long	.LM126
 9570 04fc 15        		.byte	0x15
 9571 04fd 00        		.byte	0x0
 9572 04fe 05        		.uleb128 0x5
 9573 04ff 02        		.byte	0x2
 9574 0500 0000 0000 		.long	.LM127
 9575 0504 15        		.byte	0x15
 9576 0505 00        		.byte	0x0
 9577 0506 05        		.uleb128 0x5
 9578 0507 02        		.byte	0x2
 9579 0508 0000 0000 		.long	.LM128
 9580 050c 15        		.byte	0x15
 9581 050d 00        		.byte	0x0
 9582 050e 05        		.uleb128 0x5
 9583 050f 02        		.byte	0x2
 9584 0510 0000 0000 		.long	.LM129
 9585 0514 1A        		.byte	0x1a
 9586 0515 00        		.byte	0x0
 9587 0516 05        		.uleb128 0x5
 9588 0517 02        		.byte	0x2
 9589 0518 0000 0000 		.long	.LM130
 9590 051c 15        		.byte	0x15
 9591 051d 00        		.byte	0x0
 9592 051e 05        		.uleb128 0x5
 9593 051f 02        		.byte	0x2
 9594 0520 0000 0000 		.long	.LM131
 9595 0524 15        		.byte	0x15
 9596 0525 00        		.byte	0x0
 9597 0526 05        		.uleb128 0x5
 9598 0527 02        		.byte	0x2
 9599 0528 0000 0000 		.long	.LM132
 9600 052c 15        		.byte	0x15
 9601 052d 00        		.byte	0x0
 9602 052e 05        		.uleb128 0x5
 9603 052f 02        		.byte	0x2
 9604 0530 0000 0000 		.long	.LM133
 9605 0534 15        		.byte	0x15
 9606 0535 00        		.byte	0x0
GAS LISTING /tmp/ccq5P7XK.s 			page 173


 9607 0536 05        		.uleb128 0x5
 9608 0537 02        		.byte	0x2
 9609 0538 0000 0000 		.long	.LM134
 9610 053c 15        		.byte	0x15
 9611 053d 00        		.byte	0x0
 9612 053e 05        		.uleb128 0x5
 9613 053f 02        		.byte	0x2
 9614 0540 0000 0000 		.long	.LM135
 9615 0544 15        		.byte	0x15
 9616 0545 00        		.byte	0x0
 9617 0546 05        		.uleb128 0x5
 9618 0547 02        		.byte	0x2
 9619 0548 0000 0000 		.long	.LM136
 9620 054c 15        		.byte	0x15
 9621 054d 00        		.byte	0x0
 9622 054e 05        		.uleb128 0x5
 9623 054f 02        		.byte	0x2
 9624 0550 0000 0000 		.long	.LM137
 9625 0554 15        		.byte	0x15
 9626 0555 00        		.byte	0x0
 9627 0556 05        		.uleb128 0x5
 9628 0557 02        		.byte	0x2
 9629 0558 0000 0000 		.long	.LM138
 9630 055c 1A        		.byte	0x1a
 9631 055d 00        		.byte	0x0
 9632 055e 05        		.uleb128 0x5
 9633 055f 02        		.byte	0x2
 9634 0560 0000 0000 		.long	.LM139
 9635 0564 15        		.byte	0x15
 9636 0565 00        		.byte	0x0
 9637 0566 05        		.uleb128 0x5
 9638 0567 02        		.byte	0x2
 9639 0568 0000 0000 		.long	.LM140
 9640 056c 15        		.byte	0x15
 9641 056d 00        		.byte	0x0
 9642 056e 05        		.uleb128 0x5
 9643 056f 02        		.byte	0x2
 9644 0570 0000 0000 		.long	.LM141
 9645 0574 15        		.byte	0x15
 9646 0575 00        		.byte	0x0
 9647 0576 05        		.uleb128 0x5
 9648 0577 02        		.byte	0x2
 9649 0578 0000 0000 		.long	.LM142
 9650 057c 15        		.byte	0x15
 9651 057d 00        		.byte	0x0
 9652 057e 05        		.uleb128 0x5
 9653 057f 02        		.byte	0x2
 9654 0580 0000 0000 		.long	.LM143
 9655 0584 B8        		.byte	0xb8
 9656 0585 00        		.byte	0x0
 9657 0586 05        		.uleb128 0x5
 9658 0587 02        		.byte	0x2
 9659 0588 0000 0000 		.long	.LM144
 9660 058c 15        		.byte	0x15
 9661 058d 00        		.byte	0x0
 9662 058e 05        		.uleb128 0x5
 9663 058f 02        		.byte	0x2
GAS LISTING /tmp/ccq5P7XK.s 			page 174


 9664 0590 0000 0000 		.long	.LM145
 9665 0594 15        		.byte	0x15
 9666 0595 00        		.byte	0x0
 9667 0596 05        		.uleb128 0x5
 9668 0597 02        		.byte	0x2
 9669 0598 0000 0000 		.long	.LM146
 9670 059c 17        		.byte	0x17
 9671 059d 00        		.byte	0x0
 9672 059e 05        		.uleb128 0x5
 9673 059f 02        		.byte	0x2
 9674 05a0 0000 0000 		.long	.LM147
 9675 05a4 01        		.byte	0x1
 9676 05a5 00        		.byte	0x0
 9677 05a6 05        		.uleb128 0x5
 9678 05a7 02        		.byte	0x2
 9679 05a8 0000 0000 		.long	.LM148
 9680 05ac 15        		.byte	0x15
 9681 05ad 00        		.byte	0x0
 9682 05ae 05        		.uleb128 0x5
 9683 05af 02        		.byte	0x2
 9684 05b0 0000 0000 		.long	.LM149
 9685 05b4 15        		.byte	0x15
 9686 05b5 00        		.byte	0x0
 9687 05b6 05        		.uleb128 0x5
 9688 05b7 02        		.byte	0x2
 9689 05b8 0000 0000 		.long	.LM150
 9690 05bc 16        		.byte	0x16
 9691 05bd 00        		.byte	0x0
 9692 05be 05        		.uleb128 0x5
 9693 05bf 02        		.byte	0x2
 9694 05c0 0000 0000 		.long	.LM151
 9695 05c4 18        		.byte	0x18
 9696 05c5 00        		.byte	0x0
 9697 05c6 05        		.uleb128 0x5
 9698 05c7 02        		.byte	0x2
 9699 05c8 0000 0000 		.long	.LM152
 9700 05cc 15        		.byte	0x15
 9701 05cd 00        		.byte	0x0
 9702 05ce 05        		.uleb128 0x5
 9703 05cf 02        		.byte	0x2
 9704 05d0 0000 0000 		.long	.LM153
 9705 05d4 17        		.byte	0x17
 9706 05d5 00        		.byte	0x0
 9707 05d6 05        		.uleb128 0x5
 9708 05d7 02        		.byte	0x2
 9709 05d8 0000 0000 		.long	.LM154
 9710 05dc 18        		.byte	0x18
 9711 05dd 00        		.byte	0x0
 9712 05de 05        		.uleb128 0x5
 9713 05df 02        		.byte	0x2
 9714 05e0 0000 0000 		.long	.LM155
 9715 05e4 15        		.byte	0x15
 9716 05e5 00        		.byte	0x0
 9717 05e6 05        		.uleb128 0x5
 9718 05e7 02        		.byte	0x2
 9719 05e8 0000 0000 		.long	.LM156
 9720 05ec 18        		.byte	0x18
GAS LISTING /tmp/ccq5P7XK.s 			page 175


 9721 05ed 00        		.byte	0x0
 9722 05ee 05        		.uleb128 0x5
 9723 05ef 02        		.byte	0x2
 9724 05f0 0000 0000 		.long	.LM157
 9725 05f4 15        		.byte	0x15
 9726 05f5 00        		.byte	0x0
 9727 05f6 05        		.uleb128 0x5
 9728 05f7 02        		.byte	0x2
 9729 05f8 0000 0000 		.long	.LM158
 9730 05fc 16        		.byte	0x16
 9731 05fd 00        		.byte	0x0
 9732 05fe 05        		.uleb128 0x5
 9733 05ff 02        		.byte	0x2
 9734 0600 0000 0000 		.long	.LM159
 9735 0604 15        		.byte	0x15
 9736 0605 00        		.byte	0x0
 9737 0606 05        		.uleb128 0x5
 9738 0607 02        		.byte	0x2
 9739 0608 0000 0000 		.long	.LM160
 9740 060c 19        		.byte	0x19
 9741 060d 00        		.byte	0x0
 9742 060e 05        		.uleb128 0x5
 9743 060f 02        		.byte	0x2
 9744 0610 0000 0000 		.long	.LM161
 9745 0614 15        		.byte	0x15
 9746 0615 00        		.byte	0x0
 9747 0616 05        		.uleb128 0x5
 9748 0617 02        		.byte	0x2
 9749 0618 0000 0000 		.long	.LM162
 9750 061c 15        		.byte	0x15
 9751 061d 00        		.byte	0x0
 9752 061e 05        		.uleb128 0x5
 9753 061f 02        		.byte	0x2
 9754 0620 0000 0000 		.long	.LM163
 9755 0624 15        		.byte	0x15
 9756 0625 00        		.byte	0x0
 9757 0626 05        		.uleb128 0x5
 9758 0627 02        		.byte	0x2
 9759 0628 0000 0000 		.long	.LM164
 9760 062c 15        		.byte	0x15
 9761 062d 00        		.byte	0x0
 9762 062e 05        		.uleb128 0x5
 9763 062f 02        		.byte	0x2
 9764 0630 0000 0000 		.long	.LM165
 9765 0634 16        		.byte	0x16
 9766 0635 00        		.byte	0x0
 9767 0636 05        		.uleb128 0x5
 9768 0637 02        		.byte	0x2
 9769 0638 0000 0000 		.long	.LM166
 9770 063c 15        		.byte	0x15
 9771 063d 00        		.byte	0x0
 9772 063e 05        		.uleb128 0x5
 9773 063f 02        		.byte	0x2
 9774 0640 0000 0000 		.long	.LM167
 9775 0644 19        		.byte	0x19
 9776 0645 00        		.byte	0x0
 9777 0646 05        		.uleb128 0x5
GAS LISTING /tmp/ccq5P7XK.s 			page 176


 9778 0647 02        		.byte	0x2
 9779 0648 0000 0000 		.long	.LM168
 9780 064c 15        		.byte	0x15
 9781 064d 00        		.byte	0x0
 9782 064e 05        		.uleb128 0x5
 9783 064f 02        		.byte	0x2
 9784 0650 0000 0000 		.long	.LM169
 9785 0654 15        		.byte	0x15
 9786 0655 00        		.byte	0x0
 9787 0656 05        		.uleb128 0x5
 9788 0657 02        		.byte	0x2
 9789 0658 0000 0000 		.long	.LM170
 9790 065c 15        		.byte	0x15
 9791 065d 00        		.byte	0x0
 9792 065e 05        		.uleb128 0x5
 9793 065f 02        		.byte	0x2
 9794 0660 0000 0000 		.long	.LM171
 9795 0664 18        		.byte	0x18
 9796 0665 00        		.byte	0x0
 9797 0666 05        		.uleb128 0x5
 9798 0667 02        		.byte	0x2
 9799 0668 0000 0000 		.long	.LM172
 9800 066c 17        		.byte	0x17
 9801 066d 00        		.byte	0x0
 9802 066e 05        		.uleb128 0x5
 9803 066f 02        		.byte	0x2
 9804 0670 0000 0000 		.long	.LM173
 9805 0674 17        		.byte	0x17
 9806 0675 00        		.byte	0x0
 9807 0676 05        		.uleb128 0x5
 9808 0677 02        		.byte	0x2
 9809 0678 0000 0000 		.long	.LM174
 9810 067c 16        		.byte	0x16
 9811 067d 00        		.byte	0x0
 9812 067e 05        		.uleb128 0x5
 9813 067f 02        		.byte	0x2
 9814 0680 0000 0000 		.long	.LM175
 9815 0684 17        		.byte	0x17
 9816 0685 00        		.byte	0x0
 9817 0686 05        		.uleb128 0x5
 9818 0687 02        		.byte	0x2
 9819 0688 0000 0000 		.long	.LM176
 9820 068c 15        		.byte	0x15
 9821 068d 00        		.byte	0x0
 9822 068e 05        		.uleb128 0x5
 9823 068f 02        		.byte	0x2
 9824 0690 0000 0000 		.long	.LM177
 9825 0694 03        		.byte	0x3
 9826 0695 A97D      		.sleb128 -343
 9827 0697 01        		.byte	0x1
 9828 0698 00        		.byte	0x0
 9829 0699 05        		.uleb128 0x5
 9830 069a 02        		.byte	0x2
 9831 069b 0000 0000 		.long	.LM178
 9832 069f 03        		.byte	0x3
 9833 06a0 DC02      		.sleb128 348
 9834 06a2 01        		.byte	0x1
GAS LISTING /tmp/ccq5P7XK.s 			page 177


 9835 06a3 00        		.byte	0x0
 9836 06a4 05        		.uleb128 0x5
 9837 06a5 02        		.byte	0x2
 9838 06a6 0000 0000 		.long	.LM179
 9839 06aa 03        		.byte	0x3
 9840 06ab A47D      		.sleb128 -348
 9841 06ad 01        		.byte	0x1
 9842 06ae 00        		.byte	0x0
 9843 06af 05        		.uleb128 0x5
 9844 06b0 02        		.byte	0x2
 9845 06b1 0000 0000 		.long	.LM180
 9846 06b5 03        		.byte	0x3
 9847 06b6 DE02      		.sleb128 350
 9848 06b8 01        		.byte	0x1
 9849 06b9 00        		.byte	0x0
 9850 06ba 05        		.uleb128 0x5
 9851 06bb 02        		.byte	0x2
 9852 06bc 0000 0000 		.long	.LM181
 9853 06c0 16        		.byte	0x16
 9854 06c1 00        		.byte	0x0
 9855 06c2 05        		.uleb128 0x5
 9856 06c3 02        		.byte	0x2
 9857 06c4 0000 0000 		.long	.LM182
 9858 06c8 15        		.byte	0x15
 9859 06c9 00        		.byte	0x0
 9860 06ca 05        		.uleb128 0x5
 9861 06cb 02        		.byte	0x2
 9862 06cc 0000 0000 		.long	.LM183
 9863 06d0 15        		.byte	0x15
 9864 06d1 00        		.byte	0x0
 9865 06d2 05        		.uleb128 0x5
 9866 06d3 02        		.byte	0x2
 9867 06d4 0000 0000 		.long	.LM184
 9868 06d8 15        		.byte	0x15
 9869 06d9 00        		.byte	0x0
 9870 06da 05        		.uleb128 0x5
 9871 06db 02        		.byte	0x2
 9872 06dc 0000 0000 		.long	.LM185
 9873 06e0 15        		.byte	0x15
 9874 06e1 00        		.byte	0x0
 9875 06e2 05        		.uleb128 0x5
 9876 06e3 02        		.byte	0x2
 9877 06e4 0000 0000 		.long	.LM186
 9878 06e8 18        		.byte	0x18
 9879 06e9 00        		.byte	0x0
 9880 06ea 05        		.uleb128 0x5
 9881 06eb 02        		.byte	0x2
 9882 06ec 0000 0000 		.long	.LM187
 9883 06f0 15        		.byte	0x15
 9884 06f1 00        		.byte	0x0
 9885 06f2 05        		.uleb128 0x5
 9886 06f3 02        		.byte	0x2
 9887 06f4 0000 0000 		.long	.LM188
 9888 06f8 16        		.byte	0x16
 9889 06f9 00        		.byte	0x0
 9890 06fa 05        		.uleb128 0x5
 9891 06fb 02        		.byte	0x2
GAS LISTING /tmp/ccq5P7XK.s 			page 178


 9892 06fc 0000 0000 		.long	.LM189
 9893 0700 15        		.byte	0x15
 9894 0701 00        		.byte	0x0
 9895 0702 05        		.uleb128 0x5
 9896 0703 02        		.byte	0x2
 9897 0704 0000 0000 		.long	.LM190
 9898 0708 17        		.byte	0x17
 9899 0709 00        		.byte	0x0
 9900 070a 05        		.uleb128 0x5
 9901 070b 02        		.byte	0x2
 9902 070c 0000 0000 		.long	.LM191
 9903 0710 17        		.byte	0x17
 9904 0711 00        		.byte	0x0
 9905 0712 05        		.uleb128 0x5
 9906 0713 02        		.byte	0x2
 9907 0714 0000 0000 		.long	.LM192
 9908 0718 17        		.byte	0x17
 9909 0719 00        		.byte	0x0
 9910 071a 05        		.uleb128 0x5
 9911 071b 02        		.byte	0x2
 9912 071c 0000 0000 		.long	.LM193
 9913 0720 16        		.byte	0x16
 9914 0721 00        		.byte	0x0
 9915 0722 05        		.uleb128 0x5
 9916 0723 02        		.byte	0x2
 9917 0724 0000 0000 		.long	.LM194
 9918 0728 16        		.byte	0x16
 9919 0729 00        		.byte	0x0
 9920 072a 05        		.uleb128 0x5
 9921 072b 02        		.byte	0x2
 9922 072c 0000 0000 		.long	.LM195
 9923 0730 15        		.byte	0x15
 9924 0731 00        		.byte	0x0
 9925 0732 05        		.uleb128 0x5
 9926 0733 02        		.byte	0x2
 9927 0734 0000 0000 		.long	.LM196
 9928 0738 15        		.byte	0x15
 9929 0739 00        		.byte	0x0
 9930 073a 05        		.uleb128 0x5
 9931 073b 02        		.byte	0x2
 9932 073c 0000 0000 		.long	.LM197
 9933 0740 15        		.byte	0x15
 9934 0741 00        		.byte	0x0
 9935 0742 05        		.uleb128 0x5
 9936 0743 02        		.byte	0x2
 9937 0744 0000 0000 		.long	.LM198
 9938 0748 18        		.byte	0x18
 9939 0749 00        		.byte	0x0
 9940 074a 05        		.uleb128 0x5
 9941 074b 02        		.byte	0x2
 9942 074c 0000 0000 		.long	.LM199
 9943 0750 15        		.byte	0x15
 9944 0751 00        		.byte	0x0
 9945 0752 05        		.uleb128 0x5
 9946 0753 02        		.byte	0x2
 9947 0754 0000 0000 		.long	.LM200
 9948 0758 16        		.byte	0x16
GAS LISTING /tmp/ccq5P7XK.s 			page 179


 9949 0759 00        		.byte	0x0
 9950 075a 05        		.uleb128 0x5
 9951 075b 02        		.byte	0x2
 9952 075c 0000 0000 		.long	.LM201
 9953 0760 17        		.byte	0x17
 9954 0761 00        		.byte	0x0
 9955 0762 05        		.uleb128 0x5
 9956 0763 02        		.byte	0x2
 9957 0764 0000 0000 		.long	.LM202
 9958 0768 03        		.byte	0x3
 9959 0769 6C        		.sleb128 -20
 9960 076a 01        		.byte	0x1
 9961 076b 00        		.byte	0x0
 9962 076c 05        		.uleb128 0x5
 9963 076d 02        		.byte	0x2
 9964 076e 0000 0000 		.long	.LM203
 9965 0772 03        		.byte	0x3
 9966 0773 68        		.sleb128 -24
 9967 0774 01        		.byte	0x1
 9968 0775 00        		.byte	0x0
 9969 0776 05        		.uleb128 0x5
 9970 0777 02        		.byte	0x2
 9971 0778 0000 0000 		.long	.LM204
 9972 077c 16        		.byte	0x16
 9973 077d 00        		.byte	0x0
 9974 077e 05        		.uleb128 0x5
 9975 077f 02        		.byte	0x2
 9976 0780 0000 0000 		.long	.LM205
 9977 0784 42        		.byte	0x42
 9978 0785 00        		.byte	0x0
 9979 0786 05        		.uleb128 0x5
 9980 0787 02        		.byte	0x2
 9981 0788 0000 0000 		.long	.LM206
 9982 078c 19        		.byte	0x19
 9983 078d 00        		.byte	0x0
 9984 078e 05        		.uleb128 0x5
 9985 078f 02        		.byte	0x2
 9986 0790 0000 0000 		.long	.LM207
 9987 0794 15        		.byte	0x15
 9988 0795 00        		.byte	0x0
 9989 0796 05        		.uleb128 0x5
 9990 0797 02        		.byte	0x2
 9991 0798 0000 0000 		.long	.LM208
 9992 079c 17        		.byte	0x17
 9993 079d 00        		.byte	0x0
 9994 079e 05        		.uleb128 0x5
 9995 079f 02        		.byte	0x2
 9996 07a0 0000 0000 		.long	.LM209
 9997 07a4 15        		.byte	0x15
 9998 07a5 00        		.byte	0x0
 9999 07a6 05        		.uleb128 0x5
 10000 07a7 02        		.byte	0x2
 10001 07a8 0000 0000 		.long	.LM210
 10002 07ac 15        		.byte	0x15
 10003 07ad 00        		.byte	0x0
 10004 07ae 05        		.uleb128 0x5
 10005 07af 02        		.byte	0x2
GAS LISTING /tmp/ccq5P7XK.s 			page 180


 10006 07b0 0000 0000 		.long	.LM211
 10007 07b4 15        		.byte	0x15
 10008 07b5 00        		.byte	0x0
 10009 07b6 05        		.uleb128 0x5
 10010 07b7 02        		.byte	0x2
 10011 07b8 0000 0000 		.long	.LM212
 10012 07bc 15        		.byte	0x15
 10013 07bd 00        		.byte	0x0
 10014 07be 05        		.uleb128 0x5
 10015 07bf 02        		.byte	0x2
 10016 07c0 0000 0000 		.long	.LM213
 10017 07c4 17        		.byte	0x17
 10018 07c5 00        		.byte	0x0
 10019 07c6 05        		.uleb128 0x5
 10020 07c7 02        		.byte	0x2
 10021 07c8 0000 0000 		.long	.LM214
 10022 07cc 17        		.byte	0x17
 10023 07cd 00        		.byte	0x0
 10024 07ce 05        		.uleb128 0x5
 10025 07cf 02        		.byte	0x2
 10026 07d0 0000 0000 		.long	.LM215
 10027 07d4 15        		.byte	0x15
 10028 07d5 00        		.byte	0x0
 10029 07d6 05        		.uleb128 0x5
 10030 07d7 02        		.byte	0x2
 10031 07d8 0000 0000 		.long	.LM216
 10032 07dc 16        		.byte	0x16
 10033 07dd 00        		.byte	0x0
 10034 07de 05        		.uleb128 0x5
 10035 07df 02        		.byte	0x2
 10036 07e0 0000 0000 		.long	.LM217
 10037 07e4 15        		.byte	0x15
 10038 07e5 00        		.byte	0x0
 10039 07e6 05        		.uleb128 0x5
 10040 07e7 02        		.byte	0x2
 10041 07e8 0000 0000 		.long	.LM218
 10042 07ec 17        		.byte	0x17
 10043 07ed 00        		.byte	0x0
 10044 07ee 05        		.uleb128 0x5
 10045 07ef 02        		.byte	0x2
 10046 07f0 0000 0000 		.long	.LM219
 10047 07f4 17        		.byte	0x17
 10048 07f5 00        		.byte	0x0
 10049 07f6 05        		.uleb128 0x5
 10050 07f7 02        		.byte	0x2
 10051 07f8 0000 0000 		.long	.LM220
 10052 07fc 16        		.byte	0x16
 10053 07fd 00        		.byte	0x0
 10054 07fe 05        		.uleb128 0x5
 10055 07ff 02        		.byte	0x2
 10056 0800 0000 0000 		.long	.LM221
 10057 0804 16        		.byte	0x16
 10058 0805 00        		.byte	0x0
 10059 0806 05        		.uleb128 0x5
 10060 0807 02        		.byte	0x2
 10061 0808 0000 0000 		.long	.LM222
 10062 080c 15        		.byte	0x15
GAS LISTING /tmp/ccq5P7XK.s 			page 181


 10063 080d 00        		.byte	0x0
 10064 080e 05        		.uleb128 0x5
 10065 080f 02        		.byte	0x2
 10066 0810 0000 0000 		.long	.LM223
 10067 0814 15        		.byte	0x15
 10068 0815 00        		.byte	0x0
 10069 0816 05        		.uleb128 0x5
 10070 0817 02        		.byte	0x2
 10071 0818 0000 0000 		.long	.LM224
 10072 081c 15        		.byte	0x15
 10073 081d 00        		.byte	0x0
 10074 081e 05        		.uleb128 0x5
 10075 081f 02        		.byte	0x2
 10076 0820 0000 0000 		.long	.LM225
 10077 0824 16        		.byte	0x16
 10078 0825 00        		.byte	0x0
 10079 0826 05        		.uleb128 0x5
 10080 0827 02        		.byte	0x2
 10081 0828 0000 0000 		.long	.LM226
 10082 082c 17        		.byte	0x17
 10083 082d 00        		.byte	0x0
 10084 082e 05        		.uleb128 0x5
 10085 082f 02        		.byte	0x2
 10086 0830 0000 0000 		.long	.LM227
 10087 0834 15        		.byte	0x15
 10088 0835 00        		.byte	0x0
 10089 0836 05        		.uleb128 0x5
 10090 0837 02        		.byte	0x2
 10091 0838 0000 0000 		.long	.LM228
 10092 083c 16        		.byte	0x16
 10093 083d 00        		.byte	0x0
 10094 083e 05        		.uleb128 0x5
 10095 083f 02        		.byte	0x2
 10096 0840 0000 0000 		.long	.LM229
 10097 0844 17        		.byte	0x17
 10098 0845 00        		.byte	0x0
 10099 0846 05        		.uleb128 0x5
 10100 0847 02        		.byte	0x2
 10101 0848 0000 0000 		.long	.LM230
 10102 084c 16        		.byte	0x16
 10103 084d 00        		.byte	0x0
 10104 084e 05        		.uleb128 0x5
 10105 084f 02        		.byte	0x2
 10106 0850 0000 0000 		.long	.LM231
 10107 0854 16        		.byte	0x16
 10108 0855 00        		.byte	0x0
 10109 0856 05        		.uleb128 0x5
 10110 0857 02        		.byte	0x2
 10111 0858 0000 0000 		.long	.LM232
 10112 085c 15        		.byte	0x15
 10113 085d 00        		.byte	0x0
 10114 085e 05        		.uleb128 0x5
 10115 085f 02        		.byte	0x2
 10116 0860 0000 0000 		.long	.LM233
 10117 0864 15        		.byte	0x15
 10118 0865 00        		.byte	0x0
 10119 0866 05        		.uleb128 0x5
GAS LISTING /tmp/ccq5P7XK.s 			page 182


 10120 0867 02        		.byte	0x2
 10121 0868 0000 0000 		.long	.LM234
 10122 086c 15        		.byte	0x15
 10123 086d 00        		.byte	0x0
 10124 086e 05        		.uleb128 0x5
 10125 086f 02        		.byte	0x2
 10126 0870 0000 0000 		.long	.LM235
 10127 0874 15        		.byte	0x15
 10128 0875 00        		.byte	0x0
 10129 0876 05        		.uleb128 0x5
 10130 0877 02        		.byte	0x2
 10131 0878 0000 0000 		.long	.LM236
 10132 087c 15        		.byte	0x15
 10133 087d 00        		.byte	0x0
 10134 087e 05        		.uleb128 0x5
 10135 087f 02        		.byte	0x2
 10136 0880 0000 0000 		.long	.LM237
 10137 0884 15        		.byte	0x15
 10138 0885 00        		.byte	0x0
 10139 0886 05        		.uleb128 0x5
 10140 0887 02        		.byte	0x2
 10141 0888 0000 0000 		.long	.LM238
 10142 088c 15        		.byte	0x15
 10143 088d 00        		.byte	0x0
 10144 088e 05        		.uleb128 0x5
 10145 088f 02        		.byte	0x2
 10146 0890 0000 0000 		.long	.LM239
 10147 0894 16        		.byte	0x16
 10148 0895 00        		.byte	0x0
 10149 0896 05        		.uleb128 0x5
 10150 0897 02        		.byte	0x2
 10151 0898 0000 0000 		.long	.LM240
 10152 089c 17        		.byte	0x17
 10153 089d 00        		.byte	0x0
 10154 089e 05        		.uleb128 0x5
 10155 089f 02        		.byte	0x2
 10156 08a0 0000 0000 		.long	.LM241
 10157 08a4 15        		.byte	0x15
 10158 08a5 00        		.byte	0x0
 10159 08a6 05        		.uleb128 0x5
 10160 08a7 02        		.byte	0x2
 10161 08a8 0000 0000 		.long	.LM242
 10162 08ac 15        		.byte	0x15
 10163 08ad 00        		.byte	0x0
 10164 08ae 05        		.uleb128 0x5
 10165 08af 02        		.byte	0x2
 10166 08b0 0000 0000 		.long	.LM243
 10167 08b4 15        		.byte	0x15
 10168 08b5 00        		.byte	0x0
 10169 08b6 05        		.uleb128 0x5
 10170 08b7 02        		.byte	0x2
 10171 08b8 0000 0000 		.long	.LM244
 10172 08bc 15        		.byte	0x15
 10173 08bd 00        		.byte	0x0
 10174 08be 05        		.uleb128 0x5
 10175 08bf 02        		.byte	0x2
 10176 08c0 0000 0000 		.long	.LM245
GAS LISTING /tmp/ccq5P7XK.s 			page 183


 10177 08c4 15        		.byte	0x15
 10178 08c5 00        		.byte	0x0
 10179 08c6 05        		.uleb128 0x5
 10180 08c7 02        		.byte	0x2
 10181 08c8 0000 0000 		.long	.LM246
 10182 08cc 0E        		.byte	0xe
 10183 08cd 00        		.byte	0x0
 10184 08ce 05        		.uleb128 0x5
 10185 08cf 02        		.byte	0x2
 10186 08d0 0000 0000 		.long	.LM247
 10187 08d4 12        		.byte	0x12
 10188 08d5 00        		.byte	0x0
 10189 08d6 05        		.uleb128 0x5
 10190 08d7 02        		.byte	0x2
 10191 08d8 0000 0000 		.long	.LM248
 10192 08dc 20        		.byte	0x20
 10193 08dd 00        		.byte	0x0
 10194 08de 05        		.uleb128 0x5
 10195 08df 02        		.byte	0x2
 10196 08e0 0000 0000 		.long	.LM249
 10197 08e4 17        		.byte	0x17
 10198 08e5 00        		.byte	0x0
 10199 08e6 05        		.uleb128 0x5
 10200 08e7 02        		.byte	0x2
 10201 08e8 0000 0000 		.long	.LM250
 10202 08ec 15        		.byte	0x15
 10203 08ed 00        		.byte	0x0
 10204 08ee 05        		.uleb128 0x5
 10205 08ef 02        		.byte	0x2
 10206 08f0 0000 0000 		.long	.LM251
 10207 08f4 12        		.byte	0x12
 10208 08f5 00        		.byte	0x0
 10209 08f6 05        		.uleb128 0x5
 10210 08f7 02        		.byte	0x2
 10211 08f8 0000 0000 		.long	.LM252
 10212 08fc 1C        		.byte	0x1c
 10213 08fd 00        		.byte	0x0
 10214 08fe 05        		.uleb128 0x5
 10215 08ff 02        		.byte	0x2
 10216 0900 0000 0000 		.long	.LM253
 10217 0904 03        		.byte	0x3
 10218 0905 BA7E      		.sleb128 -198
 10219 0907 01        		.byte	0x1
 10220 0908 00        		.byte	0x0
 10221 0909 05        		.uleb128 0x5
 10222 090a 02        		.byte	0x2
 10223 090b 0000 0000 		.long	.LM254
 10224 090f DA        		.byte	0xda
 10225 0910 00        		.byte	0x0
 10226 0911 05        		.uleb128 0x5
 10227 0912 02        		.byte	0x2
 10228 0913 0000 0000 		.long	.LM255
 10229 0917 03        		.byte	0x3
 10230 0918 BA7E      		.sleb128 -198
 10231 091a 01        		.byte	0x1
 10232 091b 00        		.byte	0x0
 10233 091c 05        		.uleb128 0x5
GAS LISTING /tmp/ccq5P7XK.s 			page 184


 10234 091d 02        		.byte	0x2
 10235 091e 0000 0000 		.long	.LM256
 10236 0922 DB        		.byte	0xdb
 10237 0923 00        		.byte	0x0
 10238 0924 05        		.uleb128 0x5
 10239 0925 02        		.byte	0x2
 10240 0926 0000 0000 		.long	.LM257
 10241 092a 03        		.byte	0x3
 10242 092b B97E      		.sleb128 -199
 10243 092d 01        		.byte	0x1
 10244 092e 00        		.byte	0x0
 10245 092f 05        		.uleb128 0x5
 10246 0930 02        		.byte	0x2
 10247 0931 0000 0000 		.long	.LM258
 10248 0935 DC        		.byte	0xdc
 10249 0936 00        		.byte	0x0
 10250 0937 05        		.uleb128 0x5
 10251 0938 02        		.byte	0x2
 10252 0939 0000 0000 		.long	.LM259
 10253 093d 03        		.byte	0x3
 10254 093e B87E      		.sleb128 -200
 10255 0940 01        		.byte	0x1
 10256 0941 00        		.byte	0x0
 10257 0942 05        		.uleb128 0x5
 10258 0943 02        		.byte	0x2
 10259 0944 0000 0000 		.long	.LM260
 10260 0948 DD        		.byte	0xdd
 10261 0949 00        		.byte	0x0
 10262 094a 05        		.uleb128 0x5
 10263 094b 02        		.byte	0x2
 10264 094c 0000 0000 		.long	.LM261
 10265 0950 03        		.byte	0x3
 10266 0951 B77E      		.sleb128 -201
 10267 0953 01        		.byte	0x1
 10268 0954 00        		.byte	0x0
 10269 0955 05        		.uleb128 0x5
 10270 0956 02        		.byte	0x2
 10271 0957 0000 0000 		.long	.LM262
 10272 095b DE        		.byte	0xde
 10273 095c 00        		.byte	0x0
 10274 095d 05        		.uleb128 0x5
 10275 095e 02        		.byte	0x2
 10276 095f 0000 0000 		.long	.LM263
 10277 0963 03        		.byte	0x3
 10278 0964 B67E      		.sleb128 -202
 10279 0966 01        		.byte	0x1
 10280 0967 00        		.byte	0x0
 10281 0968 05        		.uleb128 0x5
 10282 0969 02        		.byte	0x2
 10283 096a 0000 0000 		.long	.LM264
 10284 096e DF        		.byte	0xdf
 10285 096f 00        		.byte	0x0
 10286 0970 05        		.uleb128 0x5
 10287 0971 02        		.byte	0x2
 10288 0972 0000 0000 		.long	.LM265
 10289 0976 03        		.byte	0x3
 10290 0977 B57E      		.sleb128 -203
GAS LISTING /tmp/ccq5P7XK.s 			page 185


 10291 0979 01        		.byte	0x1
 10292 097a 00        		.byte	0x0
 10293 097b 05        		.uleb128 0x5
 10294 097c 02        		.byte	0x2
 10295 097d 0000 0000 		.long	.LM266
 10296 0981 E2        		.byte	0xe2
 10297 0982 00        		.byte	0x0
 10298 0983 05        		.uleb128 0x5
 10299 0984 02        		.byte	0x2
 10300 0985 0000 0000 		.long	.LM267
 10301 0989 17        		.byte	0x17
 10302 098a 00        		.byte	0x0
 10303 098b 05        		.uleb128 0x5
 10304 098c 02        		.byte	0x2
 10305 098d 0000 0000 		.long	.LM268
 10306 0991 13        		.byte	0x13
 10307 0992 00        		.byte	0x0
 10308 0993 05        		.uleb128 0x5
 10309 0994 02        		.byte	0x2
 10310 0995 0000 0000 		.long	.LM269
 10311 0999 03        		.byte	0x3
 10312 099a 9A7C      		.sleb128 -486
 10313 099c 01        		.byte	0x1
 10314 099d 00        		.byte	0x0
 10315 099e 05        		.uleb128 0x5
 10316 099f 02        		.byte	0x2
 10317 09a0 0000 0000 		.long	.LM270
 10318 09a4 03        		.byte	0x3
 10319 09a5 EA03      		.sleb128 490
 10320 09a7 01        		.byte	0x1
 10321 09a8 00        		.byte	0x0
 10322 09a9 05        		.uleb128 0x5
 10323 09aa 02        		.byte	0x2
 10324 09ab 0000 0000 		.long	.LM271
 10325 09af 03        		.byte	0x3
 10326 09b0 967C      		.sleb128 -490
 10327 09b2 01        		.byte	0x1
 10328 09b3 00        		.byte	0x0
 10329 09b4 05        		.uleb128 0x5
 10330 09b5 02        		.byte	0x2
 10331 09b6 0000 0000 		.long	.LM272
 10332 09ba 03        		.byte	0x3
 10333 09bb EB03      		.sleb128 491
 10334 09bd 01        		.byte	0x1
 10335 09be 00        		.byte	0x0
 10336 09bf 05        		.uleb128 0x5
 10337 09c0 02        		.byte	0x2
 10338 09c1 0000 0000 		.long	.LM273
 10339 09c5 15        		.byte	0x15
 10340 09c6 00        		.byte	0x0
 10341 09c7 05        		.uleb128 0x5
 10342 09c8 02        		.byte	0x2
 10343 09c9 0000 0000 		.long	.LM274
 10344 09cd 03        		.byte	0x3
 10345 09ce 847C      		.sleb128 -508
 10346 09d0 01        		.byte	0x1
 10347 09d1 00        		.byte	0x0
GAS LISTING /tmp/ccq5P7XK.s 			page 186


 10348 09d2 05        		.uleb128 0x5
 10349 09d3 02        		.byte	0x2
 10350 09d4 0000 0000 		.long	.LM275
 10351 09d8 03        		.byte	0x3
 10352 09d9 FC03      		.sleb128 508
 10353 09db 01        		.byte	0x1
 10354 09dc 00        		.byte	0x0
 10355 09dd 05        		.uleb128 0x5
 10356 09de 02        		.byte	0x2
 10357 09df 0000 0000 		.long	.LM276
 10358 09e3 03        		.byte	0x3
 10359 09e4 947C      		.sleb128 -492
 10360 09e6 01        		.byte	0x1
 10361 09e7 00        		.byte	0x0
 10362 09e8 05        		.uleb128 0x5
 10363 09e9 02        		.byte	0x2
 10364 09ea 0000 0000 		.long	.LM277
 10365 09ee 03        		.byte	0x3
 10366 09ef EE03      		.sleb128 494
 10367 09f1 01        		.byte	0x1
 10368 09f2 00        		.byte	0x0
 10369 09f3 05        		.uleb128 0x5
 10370 09f4 02        		.byte	0x2
 10371 09f5 0000 0000 		.long	.LM278
 10372 09f9 03        		.byte	0x3
 10373 09fa 927C      		.sleb128 -494
 10374 09fc 01        		.byte	0x1
 10375 09fd 00        		.byte	0x0
 10376 09fe 05        		.uleb128 0x5
 10377 09ff 02        		.byte	0x2
 10378 0a00 0000 0000 		.long	.LM279
 10379 0a04 03        		.byte	0x3
 10380 0a05 EF03      		.sleb128 495
 10381 0a07 01        		.byte	0x1
 10382 0a08 00        		.byte	0x0
 10383 0a09 05        		.uleb128 0x5
 10384 0a0a 02        		.byte	0x2
 10385 0a0b 0000 0000 		.long	.LM280
 10386 0a0f 15        		.byte	0x15
 10387 0a10 00        		.byte	0x0
 10388 0a11 05        		.uleb128 0x5
 10389 0a12 02        		.byte	0x2
 10390 0a13 0000 0000 		.long	.LM281
 10391 0a17 03        		.byte	0x3
 10392 0a18 807C      		.sleb128 -512
 10393 0a1a 01        		.byte	0x1
 10394 0a1b 00        		.byte	0x0
 10395 0a1c 05        		.uleb128 0x5
 10396 0a1d 02        		.byte	0x2
 10397 0a1e 0000 0000 		.long	.LM282
 10398 0a22 03        		.byte	0x3
 10399 0a23 8004      		.sleb128 512
 10400 0a25 01        		.byte	0x1
 10401 0a26 00        		.byte	0x0
 10402 0a27 05        		.uleb128 0x5
 10403 0a28 02        		.byte	0x2
 10404 0a29 0000 0000 		.long	.LM283
GAS LISTING /tmp/ccq5P7XK.s 			page 187


 10405 0a2d 03        		.byte	0x3
 10406 0a2e 907C      		.sleb128 -496
 10407 0a30 01        		.byte	0x1
 10408 0a31 00        		.byte	0x0
 10409 0a32 05        		.uleb128 0x5
 10410 0a33 02        		.byte	0x2
 10411 0a34 0000 0000 		.long	.LM284
 10412 0a38 03        		.byte	0x3
 10413 0a39 F203      		.sleb128 498
 10414 0a3b 01        		.byte	0x1
 10415 0a3c 00        		.byte	0x0
 10416 0a3d 05        		.uleb128 0x5
 10417 0a3e 02        		.byte	0x2
 10418 0a3f 0000 0000 		.long	.LM285
 10419 0a43 03        		.byte	0x3
 10420 0a44 8E7C      		.sleb128 -498
 10421 0a46 01        		.byte	0x1
 10422 0a47 00        		.byte	0x0
 10423 0a48 05        		.uleb128 0x5
 10424 0a49 02        		.byte	0x2
 10425 0a4a 0000 0000 		.long	.LM286
 10426 0a4e 03        		.byte	0x3
 10427 0a4f F303      		.sleb128 499
 10428 0a51 01        		.byte	0x1
 10429 0a52 00        		.byte	0x0
 10430 0a53 05        		.uleb128 0x5
 10431 0a54 02        		.byte	0x2
 10432 0a55 0000 0000 		.long	.LM287
 10433 0a59 15        		.byte	0x15
 10434 0a5a 00        		.byte	0x0
 10435 0a5b 05        		.uleb128 0x5
 10436 0a5c 02        		.byte	0x2
 10437 0a5d 0000 0000 		.long	.LM288
 10438 0a61 03        		.byte	0x3
 10439 0a62 FC7B      		.sleb128 -516
 10440 0a64 01        		.byte	0x1
 10441 0a65 00        		.byte	0x0
 10442 0a66 05        		.uleb128 0x5
 10443 0a67 02        		.byte	0x2
 10444 0a68 0000 0000 		.long	.LM289
 10445 0a6c 03        		.byte	0x3
 10446 0a6d 8404      		.sleb128 516
 10447 0a6f 01        		.byte	0x1
 10448 0a70 00        		.byte	0x0
 10449 0a71 05        		.uleb128 0x5
 10450 0a72 02        		.byte	0x2
 10451 0a73 0000 0000 		.long	.LM290
 10452 0a77 03        		.byte	0x3
 10453 0a78 8C7C      		.sleb128 -500
 10454 0a7a 01        		.byte	0x1
 10455 0a7b 00        		.byte	0x0
 10456 0a7c 05        		.uleb128 0x5
 10457 0a7d 02        		.byte	0x2
 10458 0a7e 0000 0000 		.long	.LM291
 10459 0a82 03        		.byte	0x3
 10460 0a83 F603      		.sleb128 502
 10461 0a85 01        		.byte	0x1
GAS LISTING /tmp/ccq5P7XK.s 			page 188


 10462 0a86 00        		.byte	0x0
 10463 0a87 05        		.uleb128 0x5
 10464 0a88 02        		.byte	0x2
 10465 0a89 0000 0000 		.long	.LM292
 10466 0a8d 03        		.byte	0x3
 10467 0a8e 8A7C      		.sleb128 -502
 10468 0a90 01        		.byte	0x1
 10469 0a91 00        		.byte	0x0
 10470 0a92 05        		.uleb128 0x5
 10471 0a93 02        		.byte	0x2
 10472 0a94 0000 0000 		.long	.LM293
 10473 0a98 03        		.byte	0x3
 10474 0a99 F703      		.sleb128 503
 10475 0a9b 01        		.byte	0x1
 10476 0a9c 00        		.byte	0x0
 10477 0a9d 05        		.uleb128 0x5
 10478 0a9e 02        		.byte	0x2
 10479 0a9f 0000 0000 		.long	.LM294
 10480 0aa3 15        		.byte	0x15
 10481 0aa4 00        		.byte	0x0
 10482 0aa5 05        		.uleb128 0x5
 10483 0aa6 02        		.byte	0x2
 10484 0aa7 0000 0000 		.long	.LM295
 10485 0aab 03        		.byte	0x3
 10486 0aac F87B      		.sleb128 -520
 10487 0aae 01        		.byte	0x1
 10488 0aaf 00        		.byte	0x0
 10489 0ab0 05        		.uleb128 0x5
 10490 0ab1 02        		.byte	0x2
 10491 0ab2 0000 0000 		.long	.LM296
 10492 0ab6 03        		.byte	0x3
 10493 0ab7 8804      		.sleb128 520
 10494 0ab9 01        		.byte	0x1
 10495 0aba 00        		.byte	0x0
 10496 0abb 05        		.uleb128 0x5
 10497 0abc 02        		.byte	0x2
 10498 0abd 0000 0000 		.long	.LM297
 10499 0ac1 03        		.byte	0x3
 10500 0ac2 887C      		.sleb128 -504
 10501 0ac4 01        		.byte	0x1
 10502 0ac5 00        		.byte	0x0
 10503 0ac6 05        		.uleb128 0x5
 10504 0ac7 02        		.byte	0x2
 10505 0ac8 0000 0000 		.long	.LM298
 10506 0acc 03        		.byte	0x3
 10507 0acd FA03      		.sleb128 506
 10508 0acf 01        		.byte	0x1
 10509 0ad0 00        		.byte	0x0
 10510 0ad1 05        		.uleb128 0x5
 10511 0ad2 02        		.byte	0x2
 10512 0ad3 0000 0000 		.long	.LM299
 10513 0ad7 03        		.byte	0x3
 10514 0ad8 867C      		.sleb128 -506
 10515 0ada 01        		.byte	0x1
 10516 0adb 00        		.byte	0x0
 10517 0adc 05        		.uleb128 0x5
 10518 0add 02        		.byte	0x2
GAS LISTING /tmp/ccq5P7XK.s 			page 189


 10519 0ade 0000 0000 		.long	.LM300
 10520 0ae2 03        		.byte	0x3
 10521 0ae3 FB03      		.sleb128 507
 10522 0ae5 01        		.byte	0x1
 10523 0ae6 00        		.byte	0x0
 10524 0ae7 05        		.uleb128 0x5
 10525 0ae8 02        		.byte	0x2
 10526 0ae9 0000 0000 		.long	.LM301
 10527 0aed 15        		.byte	0x15
 10528 0aee 00        		.byte	0x0
 10529 0aef 05        		.uleb128 0x5
 10530 0af0 02        		.byte	0x2
 10531 0af1 0000 0000 		.long	.LM302
 10532 0af5 03        		.byte	0x3
 10533 0af6 F47B      		.sleb128 -524
 10534 0af8 01        		.byte	0x1
 10535 0af9 00        		.byte	0x0
 10536 0afa 05        		.uleb128 0x5
 10537 0afb 02        		.byte	0x2
 10538 0afc 0000 0000 		.long	.LM303
 10539 0b00 03        		.byte	0x3
 10540 0b01 8C04      		.sleb128 524
 10541 0b03 01        		.byte	0x1
 10542 0b04 00        		.byte	0x0
 10543 0b05 05        		.uleb128 0x5
 10544 0b06 02        		.byte	0x2
 10545 0b07 0000 0000 		.long	.LM304
 10546 0b0b 03        		.byte	0x3
 10547 0b0c 847C      		.sleb128 -508
 10548 0b0e 01        		.byte	0x1
 10549 0b0f 00        		.byte	0x0
 10550 0b10 05        		.uleb128 0x5
 10551 0b11 02        		.byte	0x2
 10552 0b12 0000 0000 		.long	.LM305
 10553 0b16 03        		.byte	0x3
 10554 0b17 FE03      		.sleb128 510
 10555 0b19 01        		.byte	0x1
 10556 0b1a 00        		.byte	0x0
 10557 0b1b 05        		.uleb128 0x5
 10558 0b1c 02        		.byte	0x2
 10559 0b1d 0000 0000 		.long	.LM306
 10560 0b21 03        		.byte	0x3
 10561 0b22 827C      		.sleb128 -510
 10562 0b24 01        		.byte	0x1
 10563 0b25 00        		.byte	0x0
 10564 0b26 05        		.uleb128 0x5
 10565 0b27 02        		.byte	0x2
 10566 0b28 0000 0000 		.long	.LM307
 10567 0b2c 03        		.byte	0x3
 10568 0b2d FF03      		.sleb128 511
 10569 0b2f 01        		.byte	0x1
 10570 0b30 00        		.byte	0x0
 10571 0b31 05        		.uleb128 0x5
 10572 0b32 02        		.byte	0x2
 10573 0b33 0000 0000 		.long	.LM308
 10574 0b37 15        		.byte	0x15
 10575 0b38 00        		.byte	0x0
GAS LISTING /tmp/ccq5P7XK.s 			page 190


 10576 0b39 05        		.uleb128 0x5
 10577 0b3a 02        		.byte	0x2
 10578 0b3b 0000 0000 		.long	.LM309
 10579 0b3f 03        		.byte	0x3
 10580 0b40 F07B      		.sleb128 -528
 10581 0b42 01        		.byte	0x1
 10582 0b43 00        		.byte	0x0
 10583 0b44 05        		.uleb128 0x5
 10584 0b45 02        		.byte	0x2
 10585 0b46 0000 0000 		.long	.LM310
 10586 0b4a 03        		.byte	0x3
 10587 0b4b 9004      		.sleb128 528
 10588 0b4d 01        		.byte	0x1
 10589 0b4e 00        		.byte	0x0
 10590 0b4f 05        		.uleb128 0x5
 10591 0b50 02        		.byte	0x2
 10592 0b51 0000 0000 		.long	.LM311
 10593 0b55 03        		.byte	0x3
 10594 0b56 64        		.sleb128 -28
 10595 0b57 01        		.byte	0x1
 10596 0b58 00        		.byte	0x0
 10597 0b59 05        		.uleb128 0x5
 10598 0b5a 02        		.byte	0x2
 10599 0b5b 0000 0000 		.long	.LM312
 10600 0b5f 01        		.byte	0x1
 10601 0b60 00        		.byte	0x0
 10602 0b61 05        		.uleb128 0x5
 10603 0b62 02        		.byte	0x2
 10604 0b63 0000 0000 		.long	.LM313
 10605 0b67 34        		.byte	0x34
 10606 0b68 00        		.byte	0x0
 10607 0b69 05        		.uleb128 0x5
 10608 0b6a 02        		.byte	0x2
 10609 0b6b 0000 0000 		.long	.LM314
 10610 0b6f 16        		.byte	0x16
 10611 0b70 00        		.byte	0x0
 10612 0b71 05        		.uleb128 0x5
 10613 0b72 02        		.byte	0x2
 10614 0b73 0000 0000 		.long	.LM315
 10615 0b77 16        		.byte	0x16
 10616 0b78 00        		.byte	0x0
 10617 0b79 05        		.uleb128 0x5
 10618 0b7a 02        		.byte	0x2
 10619 0b7b 0000 0000 		.long	.LM316
 10620 0b7f 01        		.byte	0x1
 10621 0b80 00        		.byte	0x0
 10622 0b81 05        		.uleb128 0x5
 10623 0b82 02        		.byte	0x2
 10624 0b83 0000 0000 		.long	.LM317
 10625 0b87 15        		.byte	0x15
 10626 0b88 00        		.byte	0x0
 10627 0b89 05        		.uleb128 0x5
 10628 0b8a 02        		.byte	0x2
 10629 0b8b 0000 0000 		.long	.LM318
 10630 0b8f 15        		.byte	0x15
 10631 0b90 00        		.byte	0x0
 10632 0b91 05        		.uleb128 0x5
GAS LISTING /tmp/ccq5P7XK.s 			page 191


 10633 0b92 02        		.byte	0x2
 10634 0b93 0000 0000 		.long	.LM319
 10635 0b97 03        		.byte	0x3
 10636 0b98 B47F      		.sleb128 -76
 10637 0b9a 01        		.byte	0x1
 10638 0b9b 00        		.byte	0x0
 10639 0b9c 05        		.uleb128 0x5
 10640 0b9d 02        		.byte	0x2
 10641 0b9e 0000 0000 		.long	.LM320
 10642 0ba2 15        		.byte	0x15
 10643 0ba3 00        		.byte	0x0
 10644 0ba4 05        		.uleb128 0x5
 10645 0ba5 02        		.byte	0x2
 10646 0ba6 0000 0000 		.long	.LM321
 10647 0baa 60        		.byte	0x60
 10648 0bab 00        		.byte	0x0
 10649 0bac 05        		.uleb128 0x5
 10650 0bad 02        		.byte	0x2
 10651 0bae 0000 0000 		.long	.LM322
 10652 0bb2 03        		.byte	0x3
 10653 0bb3 B37F      		.sleb128 -77
 10654 0bb5 01        		.byte	0x1
 10655 0bb6 00        		.byte	0x0
 10656 0bb7 05        		.uleb128 0x5
 10657 0bb8 02        		.byte	0x2
 10658 0bb9 0000 0000 		.long	.LM323
 10659 0bbd 15        		.byte	0x15
 10660 0bbe 00        		.byte	0x0
 10661 0bbf 05        		.uleb128 0x5
 10662 0bc0 02        		.byte	0x2
 10663 0bc1 0000 0000 		.long	.LM324
 10664 0bc5 15        		.byte	0x15
 10665 0bc6 00        		.byte	0x0
 10666 0bc7 05        		.uleb128 0x5
 10667 0bc8 02        		.byte	0x2
 10668 0bc9 0000 0000 		.long	.LM325
 10669 0bcd 15        		.byte	0x15
 10670 0bce 00        		.byte	0x0
 10671 0bcf 05        		.uleb128 0x5
 10672 0bd0 02        		.byte	0x2
 10673 0bd1 0000 0000 		.long	.LM326
 10674 0bd5 15        		.byte	0x15
 10675 0bd6 00        		.byte	0x0
 10676 0bd7 05        		.uleb128 0x5
 10677 0bd8 02        		.byte	0x2
 10678 0bd9 0000 0000 		.long	.LM327
 10679 0bdd 15        		.byte	0x15
 10680 0bde 00        		.byte	0x0
 10681 0bdf 05        		.uleb128 0x5
 10682 0be0 02        		.byte	0x2
 10683 0be1 0000 0000 		.long	.LM328
 10684 0be5 5D        		.byte	0x5d
 10685 0be6 00        		.byte	0x0
 10686 0be7 05        		.uleb128 0x5
 10687 0be8 02        		.byte	0x2
 10688 0be9 0000 0000 		.long	.LM329
 10689 0bed 03        		.byte	0x3
GAS LISTING /tmp/ccq5P7XK.s 			page 192


 10690 0bee B27F      		.sleb128 -78
 10691 0bf0 01        		.byte	0x1
 10692 0bf1 00        		.byte	0x0
 10693 0bf2 05        		.uleb128 0x5
 10694 0bf3 02        		.byte	0x2
 10695 0bf4 0000 0000 		.long	.LM330
 10696 0bf8 15        		.byte	0x15
 10697 0bf9 00        		.byte	0x0
 10698 0bfa 05        		.uleb128 0x5
 10699 0bfb 02        		.byte	0x2
 10700 0bfc 0000 0000 		.long	.LM331
 10701 0c00 15        		.byte	0x15
 10702 0c01 00        		.byte	0x0
 10703 0c02 05        		.uleb128 0x5
 10704 0c03 02        		.byte	0x2
 10705 0c04 0000 0000 		.long	.LM332
 10706 0c08 15        		.byte	0x15
 10707 0c09 00        		.byte	0x0
 10708 0c0a 05        		.uleb128 0x5
 10709 0c0b 02        		.byte	0x2
 10710 0c0c 0000 0000 		.long	.LM333
 10711 0c10 15        		.byte	0x15
 10712 0c11 00        		.byte	0x0
 10713 0c12 05        		.uleb128 0x5
 10714 0c13 02        		.byte	0x2
 10715 0c14 0000 0000 		.long	.LM334
 10716 0c18 15        		.byte	0x15
 10717 0c19 00        		.byte	0x0
 10718 0c1a 05        		.uleb128 0x5
 10719 0c1b 02        		.byte	0x2
 10720 0c1c 0000 0000 		.long	.LM335
 10721 0c20 62        		.byte	0x62
 10722 0c21 00        		.byte	0x0
 10723 0c22 05        		.uleb128 0x5
 10724 0c23 02        		.byte	0x2
 10725 0c24 0000 0000 		.long	.LM336
 10726 0c28 40        		.byte	0x40
 10727 0c29 00        		.byte	0x0
 10728 0c2a 05        		.uleb128 0x5
 10729 0c2b 02        		.byte	0x2
 10730 0c2c 0000 0000 		.long	.LM337
 10731 0c30 0A        		.byte	0xa
 10732 0c31 00        		.byte	0x0
 10733 0c32 05        		.uleb128 0x5
 10734 0c33 02        		.byte	0x2
 10735 0c34 0000 0000 		.long	.LM338
 10736 0c38 03        		.byte	0x3
 10737 0c39 65        		.sleb128 -27
 10738 0c3a 01        		.byte	0x1
 10739 0c3b 00        		.byte	0x0
 10740 0c3c 05        		.uleb128 0x5
 10741 0c3d 02        		.byte	0x2
 10742 0c3e 0000 0000 		.long	.LM339
 10743 0c42 0F        		.byte	0xf
 10744 0c43 00        		.byte	0x0
 10745 0c44 05        		.uleb128 0x5
 10746 0c45 02        		.byte	0x2
GAS LISTING /tmp/ccq5P7XK.s 			page 193


 10747 0c46 0000 0000 		.long	.LM340
 10748 0c4a 15        		.byte	0x15
 10749 0c4b 00        		.byte	0x0
 10750 0c4c 05        		.uleb128 0x5
 10751 0c4d 02        		.byte	0x2
 10752 0c4e 0000 0000 		.long	.LM341
 10753 0c52 15        		.byte	0x15
 10754 0c53 00        		.byte	0x0
 10755 0c54 05        		.uleb128 0x5
 10756 0c55 02        		.byte	0x2
 10757 0c56 0000 0000 		.long	.LM342
 10758 0c5a 17        		.byte	0x17
 10759 0c5b 00        		.byte	0x0
 10760 0c5c 05        		.uleb128 0x5
 10761 0c5d 02        		.byte	0x2
 10762 0c5e 0000 0000 		.long	.LM343
 10763 0c62 15        		.byte	0x15
 10764 0c63 00        		.byte	0x0
 10765 0c64 05        		.uleb128 0x5
 10766 0c65 02        		.byte	0x2
 10767 0c66 0000 0000 		.long	.LM344
 10768 0c6a 18        		.byte	0x18
 10769 0c6b 00        		.byte	0x0
 10770 0c6c 05        		.uleb128 0x5
 10771 0c6d 02        		.byte	0x2
 10772 0c6e 0000 0000 		.long	.LM345
 10773 0c72 19        		.byte	0x19
 10774 0c73 00        		.byte	0x0
 10775 0c74 05        		.uleb128 0x5
 10776 0c75 02        		.byte	0x2
 10777 0c76 0000 0000 		.long	.LM346
 10778 0c7a 15        		.byte	0x15
 10779 0c7b 00        		.byte	0x0
 10780 0c7c 05        		.uleb128 0x5
 10781 0c7d 02        		.byte	0x2
 10782 0c7e 0000 0000 		.long	.LM347
 10783 0c82 17        		.byte	0x17
 10784 0c83 00        		.byte	0x0
 10785 0c84 05        		.uleb128 0x5
 10786 0c85 02        		.byte	0x2
 10787 0c86 0000 0000 		.long	.LM348
 10788 0c8a 15        		.byte	0x15
 10789 0c8b 00        		.byte	0x0
 10790 0c8c 05        		.uleb128 0x5
 10791 0c8d 02        		.byte	0x2
 10792 0c8e 0000 0000 		.long	.LM349
 10793 0c92 17        		.byte	0x17
 10794 0c93 00        		.byte	0x0
 10795 0c94 05        		.uleb128 0x5
 10796 0c95 02        		.byte	0x2
 10797 0c96 0000 0000 		.long	.LM350
 10798 0c9a 15        		.byte	0x15
 10799 0c9b 00        		.byte	0x0
 10800 0c9c 05        		.uleb128 0x5
 10801 0c9d 02        		.byte	0x2
 10802 0c9e 0000 0000 		.long	.LM351
 10803 0ca2 17        		.byte	0x17
GAS LISTING /tmp/ccq5P7XK.s 			page 194


 10804 0ca3 00        		.byte	0x0
 10805 0ca4 05        		.uleb128 0x5
 10806 0ca5 02        		.byte	0x2
 10807 0ca6 0000 0000 		.long	.LM352
 10808 0caa 15        		.byte	0x15
 10809 0cab 00        		.byte	0x0
 10810 0cac 05        		.uleb128 0x5
 10811 0cad 02        		.byte	0x2
 10812 0cae 0000 0000 		.long	.LM353
 10813 0cb2 15        		.byte	0x15
 10814 0cb3 00        		.byte	0x0
 10815 0cb4 05        		.uleb128 0x5
 10816 0cb5 02        		.byte	0x2
 10817 0cb6 0000 0000 		.long	.LM354
 10818 0cba 15        		.byte	0x15
 10819 0cbb 00        		.byte	0x0
 10820 0cbc 05        		.uleb128 0x5
 10821 0cbd 02        		.byte	0x2
 10822 0cbe 0000 0000 		.long	.LM355
 10823 0cc2 16        		.byte	0x16
 10824 0cc3 00        		.byte	0x0
 10825 0cc4 05        		.uleb128 0x5
 10826 0cc5 02        		.byte	0x2
 10827 0cc6 0000 0000 		.long	.LM356
 10828 0cca 16        		.byte	0x16
 10829 0ccb 00        		.byte	0x0
 10830 0ccc 05        		.uleb128 0x5
 10831 0ccd 02        		.byte	0x2
 10832 0cce 0000 0000 		.long	.LM357
 10833 0cd2 16        		.byte	0x16
 10834 0cd3 00        		.byte	0x0
 10835 0cd4 05        		.uleb128 0x5
 10836 0cd5 02        		.byte	0x2
 10837 0cd6 0000 0000 		.long	.LM358
 10838 0cda 16        		.byte	0x16
 10839 0cdb 00        		.byte	0x0
 10840 0cdc 05        		.uleb128 0x5
 10841 0cdd 02        		.byte	0x2
 10842 0cde 0000 0000 		.long	.LM359
 10843 0ce2 18        		.byte	0x18
 10844 0ce3 00        		.byte	0x0
 10845 0ce4 05        		.uleb128 0x5
 10846 0ce5 02        		.byte	0x2
 10847 0ce6 0000 0000 		.long	.LM360
 10848 0cea 15        		.byte	0x15
 10849 0ceb 00        		.byte	0x0
 10850 0cec 05        		.uleb128 0x5
 10851 0ced 02        		.byte	0x2
 10852 0cee 0000 0000 		.long	.LM361
 10853 0cf2 1E        		.byte	0x1e
 10854 0cf3 00        		.byte	0x0
 10855 0cf4 05        		.uleb128 0x5
 10856 0cf5 02        		.byte	0x2
 10857 0cf6 0000 0000 		.long	.LM362
 10858 0cfa 15        		.byte	0x15
 10859 0cfb 00        		.byte	0x0
 10860 0cfc 05        		.uleb128 0x5
GAS LISTING /tmp/ccq5P7XK.s 			page 195


 10861 0cfd 02        		.byte	0x2
 10862 0cfe 0000 0000 		.long	.LM363
 10863 0d02 16        		.byte	0x16
 10864 0d03 00        		.byte	0x0
 10865 0d04 05        		.uleb128 0x5
 10866 0d05 02        		.byte	0x2
 10867 0d06 0000 0000 		.long	.LM364
 10868 0d0a 1A        		.byte	0x1a
 10869 0d0b 00        		.byte	0x0
 10870 0d0c 05        		.uleb128 0x5
 10871 0d0d 02        		.byte	0x2
 10872 0d0e 0000 0000 		.long	.LM365
 10873 0d12 15        		.byte	0x15
 10874 0d13 00        		.byte	0x0
 10875 0d14 05        		.uleb128 0x5
 10876 0d15 02        		.byte	0x2
 10877 0d16 0000 0000 		.long	.LM366
 10878 0d1a 15        		.byte	0x15
 10879 0d1b 00        		.byte	0x0
 10880 0d1c 05        		.uleb128 0x5
 10881 0d1d 02        		.byte	0x2
 10882 0d1e 0000 0000 		.long	.LM367
 10883 0d22 16        		.byte	0x16
 10884 0d23 00        		.byte	0x0
 10885 0d24 05        		.uleb128 0x5
 10886 0d25 02        		.byte	0x2
 10887 0d26 0000 0000 		.long	.LM368
 10888 0d2a 15        		.byte	0x15
 10889 0d2b 00        		.byte	0x0
 10890 0d2c 05        		.uleb128 0x5
 10891 0d2d 02        		.byte	0x2
 10892 0d2e 0000 0000 		.long	.LM369
 10893 0d32 18        		.byte	0x18
 10894 0d33 00        		.byte	0x0
 10895 0d34 05        		.uleb128 0x5
 10896 0d35 02        		.byte	0x2
 10897 0d36 0000 0000 		.long	.LM370
 10898 0d3a 15        		.byte	0x15
 10899 0d3b 00        		.byte	0x0
 10900 0d3c 05        		.uleb128 0x5
 10901 0d3d 02        		.byte	0x2
 10902 0d3e 0000 0000 		.long	.LM371
 10903 0d42 15        		.byte	0x15
 10904 0d43 00        		.byte	0x0
 10905 0d44 05        		.uleb128 0x5
 10906 0d45 02        		.byte	0x2
 10907 0d46 0000 0000 		.long	.LM372
 10908 0d4a 15        		.byte	0x15
 10909 0d4b 00        		.byte	0x0
 10910 0d4c 05        		.uleb128 0x5
 10911 0d4d 02        		.byte	0x2
 10912 0d4e 0000 0000 		.long	.LM373
 10913 0d52 16        		.byte	0x16
 10914 0d53 00        		.byte	0x0
 10915 0d54 05        		.uleb128 0x5
 10916 0d55 02        		.byte	0x2
 10917 0d56 0000 0000 		.long	.LM374
GAS LISTING /tmp/ccq5P7XK.s 			page 196


 10918 0d5a 15        		.byte	0x15
 10919 0d5b 00        		.byte	0x0
 10920 0d5c 05        		.uleb128 0x5
 10921 0d5d 02        		.byte	0x2
 10922 0d5e 0000 0000 		.long	.LM375
 10923 0d62 16        		.byte	0x16
 10924 0d63 00        		.byte	0x0
 10925 0d64 05        		.uleb128 0x5
 10926 0d65 02        		.byte	0x2
 10927 0d66 0000 0000 		.long	.LM376
 10928 0d6a 15        		.byte	0x15
 10929 0d6b 00        		.byte	0x0
 10930 0d6c 05        		.uleb128 0x5
 10931 0d6d 02        		.byte	0x2
 10932 0d6e 0000 0000 		.long	.LM377
 10933 0d72 15        		.byte	0x15
 10934 0d73 00        		.byte	0x0
 10935 0d74 05        		.uleb128 0x5
 10936 0d75 02        		.byte	0x2
 10937 0d76 0000 0000 		.long	.LM378
 10938 0d7a 16        		.byte	0x16
 10939 0d7b 00        		.byte	0x0
 10940 0d7c 05        		.uleb128 0x5
 10941 0d7d 02        		.byte	0x2
 10942 0d7e 0000 0000 		.long	.LM379
 10943 0d82 16        		.byte	0x16
 10944 0d83 00        		.byte	0x0
 10945 0d84 05        		.uleb128 0x5
 10946 0d85 02        		.byte	0x2
 10947 0d86 0000 0000 		.long	.Letext0
 10948 0d8a 00        		.byte	0x0
 10949 0d8b 01        		.uleb128 0x1
 10950 0d8c 01        		.byte	0x1
 10951               	.LELT0:
 10952 0d8d 1600 0000 		.section	.debug_str,"MS",@progbits,1
 10952      0200 1000 
 10952      0000 0101 
 10952      FB0E 0A00 
 10952      0101 0101 
 10953               	.LASF212:
 10954 0000 6469 7265 		.string	"direction"
 10954      6374 696F 
 10954      6E00 
 10955               	.LASF121:
 10956 000a 5045 524C 		.string	"PERL"
 10956      00
 10957               	.LASF10:
 10958 000f 4343 505F 		.string	"CCP_IOREG_gc"
 10958      494F 5245 
 10958      475F 6763 
 10958      00
 10959               	.LASF190:
 10960 001c 5443 5F43 		.string	"TC_CLKSEL_DIV2_gc"
 10960      4C4B 5345 
 10960      4C5F 4449 
 10960      5632 5F67 
 10960      6300 
GAS LISTING /tmp/ccq5P7XK.s 			page 197


 10961               	.LASF227:
 10962 002e 6D6F 746F 		.string	"motor_pin_4"
 10962      725F 7069 
 10962      6E5F 3400 
 10963               	.LASF79:
 10964 003a 434F 4D50 		.string	"COMP0"
 10964      3000 
 10965               	.LASF176:
 10966 0040 7265 7365 		.string	"reserved_0x22"
 10966      7276 6564 
 10966      5F30 7832 
 10966      3200 
 10967               	.LASF177:
 10968 004e 7265 7365 		.string	"reserved_0x23"
 10968      7276 6564 
 10968      5F30 7832 
 10968      3300 
 10969               	.LASF178:
 10970 005c 7265 7365 		.string	"reserved_0x24"
 10970      7276 6564 
 10970      5F30 7832 
 10970      3400 
 10971               	.LASF179:
 10972 006a 7265 7365 		.string	"reserved_0x25"
 10972      7276 6564 
 10972      5F30 7832 
 10972      3500 
 10973               	.LASF54:
 10974 0078 504C 4C43 		.string	"PLLCTRL"
 10974      5452 4C00 
 10975               	.LASF96:
 10976 0080 494E 5431 		.string	"INT1MASK"
 10976      4D41 534B 
 10976      00
 10977               	.LASF266:
 10978 0089 636C 6B43 		.string	"clkCtrl"
 10978      7472 6C00 
 10979               	.LASF136:
 10980 0091 4343 4142 		.string	"CCABUF"
 10980      5546 00
 10981               	.LASF152:
 10982 0098 7265 7365 		.string	"reserved_0x05"
 10982      7276 6564 
 10982      5F30 7830 
 10982      3500 
 10983               	.LASF20:
 10984 00a6 434C 4B5F 		.string	"CLK_SCLKSEL_RC32K_gc"
 10984      5343 4C4B 
 10984      5345 4C5F 
 10984      5243 3332 
 10984      4B5F 6763 
 10985               	.LASF77:
 10986 00bb 4341 4C41 		.string	"CALA"
 10986      00
 10987               	.LASF78:
 10988 00c0 4341 4C42 		.string	"CALB"
 10988      00
GAS LISTING /tmp/ccq5P7XK.s 			page 198


 10989               	.LASF45:
 10990 00c5 434C 4B5F 		.string	"CLK_RTCSRC_RCOSC_gc"
 10990      5254 4353 
 10990      5243 5F52 
 10990      434F 5343 
 10990      5F67 6300 
 10991               	.LASF23:
 10992 00d9 434C 4B5F 		.string	"CLK_SCLKSEL_t"
 10992      5343 4C4B 
 10992      5345 4C5F 
 10992      7400 
 10993               	.LASF153:
 10994 00e7 494E 5443 		.string	"INTCTRLA"
 10994      5452 4C41 
 10994      00
 10995               	.LASF154:
 10996 00f0 494E 5443 		.string	"INTCTRLB"
 10996      5452 4C42 
 10996      00
 10997               	.LASF107:
 10998 00f9 5049 4E36 		.string	"PIN6CTRL"
 10998      4354 524C 
 10998      00
 10999               	.LASF100:
 11000 0102 7265 7365 		.string	"reserved_0x0F"
 11000      7276 6564 
 11000      5F30 7830 
 11000      4600 
 11001               	.LASF277:
 11002 0110 626C 696E 		.string	"blink"
 11002      6B00 
 11003               	.LASF47:
 11004 0116 434C 4B5F 		.string	"CLK_RTCSRC_t"
 11004      5254 4353 
 11004      5243 5F74 
 11004      00
 11005               	.LASF232:
 11006 0123 5F5F 7469 		.string	"__ticks_dc"
 11006      636B 735F 
 11006      6463 00
 11007               	.LASF180:
 11008 012e 7265 7365 		.string	"reserved_0x30"
 11008      7276 6564 
 11008      5F30 7833 
 11008      3000 
 11009               	.LASF181:
 11010 013c 7265 7365 		.string	"reserved_0x31"
 11010      7276 6564 
 11010      5F30 7833 
 11010      3100 
 11011               	.LASF182:
 11012 014a 7265 7365 		.string	"reserved_0x32"
 11012      7276 6564 
 11012      5F30 7833 
 11012      3200 
 11013               	.LASF183:
 11014 0158 7265 7365 		.string	"reserved_0x33"
GAS LISTING /tmp/ccq5P7XK.s 			page 199


 11014      7276 6564 
 11014      5F30 7833 
 11014      3300 
 11015               	.LASF184:
 11016 0166 7265 7365 		.string	"reserved_0x34"
 11016      7276 6564 
 11016      5F30 7833 
 11016      3400 
 11017               	.LASF185:
 11018 0174 7265 7365 		.string	"reserved_0x35"
 11018      7276 6564 
 11018      5F30 7833 
 11018      3500 
 11019               	.LASF75:
 11020 0182 4446 4C4C 		.string	"DFLL_struct"
 11020      5F73 7472 
 11020      7563 7400 
 11021               	.LASF110:
 11022 018e 504F 5254 		.string	"PORT_OPC_enum"
 11022      5F4F 5043 
 11022      5F65 6E75 
 11022      6D00 
 11023               	.LASF30:
 11024 019c 434C 4B5F 		.string	"CLK_PSADIV_32_gc"
 11024      5053 4144 
 11024      4956 5F33 
 11024      325F 6763 
 11024      00
 11025               	.LASF29:
 11026 01ad 434C 4B5F 		.string	"CLK_PSADIV_16_gc"
 11026      5053 4144 
 11026      4956 5F31 
 11026      365F 6763 
 11026      00
 11027               	.LASF213:
 11028 01be 7370 6565 		.string	"speed"
 11028      6400 
 11029               	.LASF17:
 11030 01c4 434C 4B5F 		.string	"CLK_SCLKSEL_enum"
 11030      5343 4C4B 
 11030      5345 4C5F 
 11030      656E 756D 
 11030      00
 11031               	.LASF228:
 11032 01d5 6C61 7374 		.string	"last_step_time"
 11032      5F73 7465 
 11032      705F 7469 
 11032      6D65 00
 11033               	.LASF292:
 11034 01e4 6D61 7845 		.string	"maxError"
 11034      7272 6F72 
 11034      00
 11035               	.LASF124:
 11036 01ed 4343 4148 		.string	"CCAH"
 11036      00
 11037               	.LASF291:
 11038 01f2 6572 726F 		.string	"error"
GAS LISTING /tmp/ccq5P7XK.s 			page 200


 11038      7200 
 11039               	.LASF68:
 11040 01f8 4F53 435F 		.string	"OSC_XOSCSEL_XTAL_16KCLK_gc"
 11040      584F 5343 
 11040      5345 4C5F 
 11040      5854 414C 
 11040      5F31 364B 
 11041               	.LASF123:
 11042 0213 4343 414C 		.string	"CCAL"
 11042      00
 11043               	.LASF193:
 11044 0218 5443 5F43 		.string	"TC_CLKSEL_DIV64_gc"
 11044      4C4B 5345 
 11044      4C5F 4449 
 11044      5636 345F 
 11044      6763 00
 11045               	.LASF85:
 11046 022b 494E 5450 		.string	"INTPRI"
 11046      5249 00
 11047               	.LASF114:
 11048 0232 504F 5254 		.string	"PORT_OPC_PULLUP_gc"
 11048      5F4F 5043 
 11048      5F50 554C 
 11048      4C55 505F 
 11048      6763 00
 11049               	.LASF239:
 11050 0245 7661 6C30 		.string	"val0"
 11050      00
 11051               	.LASF240:
 11052 024a 7661 6C31 		.string	"val1"
 11052      00
 11053               	.LASF241:
 11054 024f 7661 6C32 		.string	"val2"
 11054      00
 11055               	.LASF242:
 11056 0254 7661 6C33 		.string	"val3"
 11056      00
 11057               	.LASF243:
 11058 0259 7661 6C34 		.string	"val4"
 11058      00
 11059               	.LASF244:
 11060 025e 7661 6C35 		.string	"val5"
 11060      00
 11061               	.LASF16:
 11062 0263 4343 505F 		.string	"CCP_enum"
 11062      656E 756D 
 11062      00
 11063               	.LASF49:
 11064 026c 4F53 435F 		.string	"OSC_struct"
 11064      7374 7275 
 11064      6374 00
 11065               	.LASF101:
 11066 0277 5049 4E30 		.string	"PIN0CTRL"
 11066      4354 524C 
 11066      00
 11067               	.LASF73:
 11068 0280 4F53 435F 		.string	"OSC_PLLSRC_XOSC_gc"
GAS LISTING /tmp/ccq5P7XK.s 			page 201


 11068      504C 4C53 
 11068      5243 5F58 
 11068      4F53 435F 
 11068      6763 00
 11069               	.LASF32:
 11070 0293 434C 4B5F 		.string	"CLK_PSADIV_128_gc"
 11070      5053 4144 
 11070      4956 5F31 
 11070      3238 5F67 
 11070      6300 
 11071               	.LASF35:
 11072 02a5 434C 4B5F 		.string	"CLK_PSADIV_t"
 11072      5053 4144 
 11072      4956 5F74 
 11072      00
 11073               	.LASF41:
 11074 02b2 434C 4B5F 		.string	"CLK_PSBCDIV_t"
 11074      5053 4243 
 11074      4449 565F 
 11074      7400 
 11075               	.LASF165:
 11076 02c0 7265 7365 		.string	"reserved_0x15"
 11076      7276 6564 
 11076      5F30 7831 
 11076      3500 
 11077               	.LASF265:
 11078 02ce 434C 4B53 		.string	"CLKSYS_Main_ClockSource_Select"
 11078      5953 5F4D 
 11078      6169 6E5F 
 11078      436C 6F63 
 11078      6B53 6F75 
 11079               	.LASF280:
 11080 02ed 706F 7274 		.string	"portNum"
 11080      4E75 6D00 
 11081               	.LASF57:
 11082 02f5 4F53 435F 		.string	"OSC_FRQRANGE_enum"
 11082      4652 5152 
 11082      414E 4745 
 11082      5F65 6E75 
 11082      6D00 
 11083               	.LASF214:
 11084 0307 7374 6570 		.string	"step_delay"
 11084      5F64 656C 
 11084      6179 00
 11085               	.LASF273:
 11086 0312 5F5F 7665 		.string	"__vector_14"
 11086      6374 6F72 
 11086      5F31 3400 
 11087               	.LASF93:
 11088 031e 4F55 5454 		.string	"OUTTGL"
 11088      474C 00
 11089               	.LASF14:
 11090 0325 5254 4343 		.string	"RTCCTRL"
 11090      5452 4C00 
 11091               	.LASF44:
 11092 032d 434C 4B5F 		.string	"CLK_RTCSRC_TOSC_gc"
 11092      5254 4353 
GAS LISTING /tmp/ccq5P7XK.s 			page 202


 11092      5243 5F54 
 11092      4F53 435F 
 11092      6763 00
 11093               	.LASF5:
 11094 0340 7569 6E74 		.string	"uint32_t"
 11094      3332 5F74 
 11094      00
 11095               	.LASF126:
 11096 0349 4343 4248 		.string	"CCBH"
 11096      00
 11097               	.LASF269:
 11098 034e 636C 6B53 		.string	"clkSource"
 11098      6F75 7263 
 11098      6500 
 11099               	.LASF174:
 11100 0358 7265 7365 		.string	"reserved_0x1E"
 11100      7276 6564 
 11100      5F30 7831 
 11100      4500 
 11101               	.LASF125:
 11102 0366 4343 424C 		.string	"CCBL"
 11102      00
 11103               	.LASF62:
 11104 036b 4F53 435F 		.string	"OSC_FRQRANGE_t"
 11104      4652 5152 
 11104      414E 4745 
 11104      5F74 00
 11105               	.LASF89:
 11106 037a 4449 5243 		.string	"DIRCLR"
 11106      4C52 00
 11107               	.LASF48:
 11108 0381 434C 4B5F 		.string	"CLK_struct"
 11108      7374 7275 
 11108      6374 00
 11109               	.LASF310:
 11110 038c 5F5F 6275 		.string	"__builtin_avr_delay_cycles"
 11110      696C 7469 
 11110      6E5F 6176 
 11110      725F 6465 
 11110      6C61 795F 
 11111               	.LASF13:
 11112 03a7 4C4F 434B 		.string	"LOCK"
 11112      00
 11113               	.LASF237:
 11114 03ac 7365 7453 		.string	"setSpeed"
 11114      7065 6564 
 11114      00
 11115               	.LASF31:
 11116 03b5 434C 4B5F 		.string	"CLK_PSADIV_64_gc"
 11116      5053 4144 
 11116      4956 5F36 
 11116      345F 6763 
 11116      00
 11117               	.LASF247:
 11118 03c6 7361 7665 		.string	"saved_sreg"
 11118      645F 7372 
 11118      6567 00
GAS LISTING /tmp/ccq5P7XK.s 			page 203


 11119               	.LASF99:
 11120 03d1 7265 7365 		.string	"reserved_0x0E"
 11120      7276 6564 
 11120      5F30 7830 
 11120      4500 
 11121               	.LASF135:
 11122 03df 4343 4142 		.string	"CCABUFH"
 11122      5546 4800 
 11123               	.LASF21:
 11124 03e7 434C 4B5F 		.string	"CLK_SCLKSEL_XOSC_gc"
 11124      5343 4C4B 
 11124      5345 4C5F 
 11124      584F 5343 
 11124      5F67 6300 
 11125               	.LASF134:
 11126 03fb 4343 4142 		.string	"CCABUFL"
 11126      5546 4C00 
 11127               	.LASF197:
 11128 0403 5443 5F43 		.string	"TC_CLKSEL_EVCH1_gc"
 11128      4C4B 5345 
 11128      4C5F 4556 
 11128      4348 315F 
 11128      6763 00
 11129               	.LASF268:
 11130 0416 434C 4B53 		.string	"CLKSYS_AutoCalibration_Enable"
 11130      5953 5F41 
 11130      7574 6F43 
 11130      616C 6962 
 11130      7261 7469 
 11131               	.LASF8:
 11132 0434 6C6F 6E67 		.string	"long long unsigned int"
 11132      206C 6F6E 
 11132      6720 756E 
 11132      7369 676E 
 11132      6564 2069 
 11133               	.LASF303:
 11134 044b 4C65 6674 		.string	"Left_Wrist"
 11134      5F57 7269 
 11134      7374 00
 11135               	.LASF38:
 11136 0456 434C 4B5F 		.string	"CLK_PSBCDIV_1_2_gc"
 11136      5053 4243 
 11136      4449 565F 
 11136      315F 325F 
 11136      6763 00
 11137               	.LASF70:
 11138 0469 4F53 435F 		.string	"OSC_PLLSRC_enum"
 11138      504C 4C53 
 11138      5243 5F65 
 11138      6E75 6D00 
 11139               	.LASF128:
 11140 0479 4343 4348 		.string	"CCCH"
 11140      00
 11141               	.LASF26:
 11142 047e 434C 4B5F 		.string	"CLK_PSADIV_2_gc"
 11142      5053 4144 
 11142      4956 5F32 
GAS LISTING /tmp/ccq5P7XK.s 			page 204


 11142      5F67 6300 
 11143               	.LASF127:
 11144 048e 4343 434C 		.string	"CCCL"
 11144      00
 11145               	.LASF251:
 11146 0493 6672 6571 		.string	"freqRange"
 11146      5261 6E67 
 11146      6500 
 11147               	.LASF46:
 11148 049d 434C 4B5F 		.string	"CLK_RTCSRC_TOSC32_gc"
 11148      5254 4353 
 11148      5243 5F54 
 11148      4F53 4333 
 11148      325F 6763 
 11149               	.LASF217:
 11150 04b2 7374 6570 		.string	"step_number"
 11150      5F6E 756D 
 11150      6265 7200 
 11151               	.LASF305:
 11152 04be 4772 6970 		.string	"Gripper"
 11152      7065 7200 
 11153               	.LASF86:
 11154 04c6 504D 4943 		.string	"PMIC_t"
 11154      5F74 00
 11155               	.LASF246:
 11156 04cd 7661 6C75 		.string	"value"
 11156      6500 
 11157               	.LASF53:
 11158 04d3 5243 3332 		.string	"RC32KCAL"
 11158      4B43 414C 
 11158      00
 11159               	.LASF270:
 11160 04dc 6578 7452 		.string	"extReference"
 11160      6566 6572 
 11160      656E 6365 
 11160      00
 11161               	.LASF293:
 11162 04e9 7573 6255 		.string	"usbUpdate"
 11162      7064 6174 
 11162      6500 
 11163               	.LASF66:
 11164 04f3 4F53 435F 		.string	"OSC_XOSCSEL_XTAL_256CLK_gc"
 11164      584F 5343 
 11164      5345 4C5F 
 11164      5854 414C 
 11164      5F32 3536 
 11165               	.LASF219:
 11166 050e 6D61 7853 		.string	"maxSteps"
 11166      7465 7073 
 11166      00
 11167               	.LASF308:
 11168 0517 2F68 6F6D 		.string	"/home/dgonz/projects/gitHome/TinyArmTroller/examples/AdDemo"
 11168      652F 6467 
 11168      6F6E 7A2F 
 11168      7072 6F6A 
 11168      6563 7473 
 11169               	.LASF130:
GAS LISTING /tmp/ccq5P7XK.s 			page 205


 11170 0553 4343 4448 		.string	"CCDH"
 11170      00
 11171               	.LASF221:
 11172 0558 6D6F 746F 		.string	"motor_pin_1"
 11172      725F 7069 
 11172      6E5F 3100 
 11173               	.LASF223:
 11174 0564 6D6F 746F 		.string	"motor_pin_2"
 11174      725F 7069 
 11174      6E5F 3200 
 11175               	.LASF225:
 11176 0570 6D6F 746F 		.string	"motor_pin_3"
 11176      725F 7069 
 11176      6E5F 3300 
 11177               	.LASF129:
 11178 057c 4343 444C 		.string	"CCDL"
 11178      00
 11179               	.LASF254:
 11180 0581 5F42 6F6F 		.string	"_Bool"
 11180      6C00 
 11181               	.LASF255:
 11182 0587 434C 4B53 		.string	"CLKSYS_PLL_Config"
 11182      5953 5F50 
 11182      4C4C 5F43 
 11182      6F6E 6669 
 11182      6700 
 11183               	.LASF158:
 11184 0599 4354 524C 		.string	"CTRLGSET"
 11184      4753 4554 
 11184      00
 11185               	.LASF88:
 11186 05a2 4449 5253 		.string	"DIRSET"
 11186      4554 00
 11187               	.LASF278:
 11188 05a9 6D79 5661 		.string	"myVal"
 11188      6C00 
 11189               	.LASF97:
 11190 05af 494E 5446 		.string	"INTFLAGS"
 11190      4C41 4753 
 11190      00
 11191               	.LASF133:
 11192 05b8 5045 5242 		.string	"PERBUF"
 11192      5546 00
 11193               	.LASF55:
 11194 05bf 4446 4C4C 		.string	"DFLLCTRL"
 11194      4354 524C 
 11194      00
 11195               	.LASF235:
 11196 05c8 7374 6570 		.string	"stepper"
 11196      7065 7200 
 11197               	.LASF312:
 11198 05d0 7369 676E 		.string	"signum"
 11198      756D 00
 11199               	.LASF211:
 11200 05d7 6D6F 746F 		.string	"motorNumber"
 11200      724E 756D 
 11200      6265 7200 
GAS LISTING /tmp/ccq5P7XK.s 			page 206


 11201               	.LASF301:
 11202 05e3 5368 6F75 		.string	"Shoulder"
 11202      6C64 6572 
 11202      00
 11203               	.LASF144:
 11204 05ec 4343 4442 		.string	"CCDBUFH"
 11204      5546 4800 
 11205               	.LASF274:
 11206 05f4 6465 6C61 		.string	"delay_ms"
 11206      795F 6D73 
 11206      00
 11207               	.LASF112:
 11208 05fd 504F 5254 		.string	"PORT_OPC_BUSKEEPER_gc"
 11208      5F4F 5043 
 11208      5F42 5553 
 11208      4B45 4550 
 11208      4552 5F67 
 11209               	.LASF95:
 11210 0613 494E 5430 		.string	"INT0MASK"
 11210      4D41 534B 
 11210      00
 11211               	.LASF109:
 11212 061c 504F 5254 		.string	"PORT_t"
 11212      5F74 00
 11213               	.LASF143:
 11214 0623 4343 4442 		.string	"CCDBUFL"
 11214      5546 4C00 
 11215               	.LASF249:
 11216 062b 4343 5057 		.string	"CCPWrite"
 11216      7269 7465 
 11216      00
 11217               	.LASF216:
 11218 0634 7069 6E5F 		.string	"pin_count"
 11218      636F 756E 
 11218      7400 
 11219               	.LASF199:
 11220 063e 5443 5F43 		.string	"TC_CLKSEL_EVCH3_gc"
 11220      4C4B 5345 
 11220      4C5F 4556 
 11220      4348 335F 
 11220      6763 00
 11221               	.LASF52:
 11222 0651 584F 5343 		.string	"XOSCFAIL"
 11222      4641 494C 
 11222      00
 11223               	.LASF67:
 11224 065a 4F53 435F 		.string	"OSC_XOSCSEL_XTAL_1KCLK_gc"
 11224      584F 5343 
 11224      5345 4C5F 
 11224      5854 414C 
 11224      5F31 4B43 
 11225               	.LASF202:
 11226 0674 5443 5F43 		.string	"TC_CLKSEL_EVCH6_gc"
 11226      4C4B 5345 
 11226      4C5F 4556 
 11226      4348 365F 
 11226      6763 00
GAS LISTING /tmp/ccq5P7XK.s 			page 207


 11227               	.LASF111:
 11228 0687 504F 5254 		.string	"PORT_OPC_TOTEM_gc"
 11228      5F4F 5043 
 11228      5F54 4F54 
 11228      454D 5F67 
 11228      6300 
 11229               	.LASF229:
 11230 0699 6368 6172 		.string	"char"
 11230      00
 11231               	.LASF272:
 11232 069e 434C 4B53 		.string	"CLKSYS_Configuration_Lock"
 11232      5953 5F43 
 11232      6F6E 6669 
 11232      6775 7261 
 11232      7469 6F6E 
 11233               	.LASF306:
 11234 06b8 474E 5520 		.string	"GNU C 4.5.3"
 11234      4320 342E 
 11234      352E 3300 
 11235               	.LASF106:
 11236 06c4 5049 4E35 		.string	"PIN5CTRL"
 11236      4354 524C 
 11236      00
 11237               	.LASF27:
 11238 06cd 434C 4B5F 		.string	"CLK_PSADIV_4_gc"
 11238      5053 4144 
 11238      4956 5F34 
 11238      5F67 6300 
 11239               	.LASF258:
 11240 06dd 6F73 6353 		.string	"oscSel"
 11240      656C 00
 11241               	.LASF282:
 11242 06e4 636C 6561 		.string	"clearPin"
 11242      7250 696E 
 11242      00
 11243               	.LASF261:
 11244 06ed 5053 4166 		.string	"PSAfactor"
 11244      6163 746F 
 11244      7200 
 11245               	.LASF12:
 11246 06f7 5053 4354 		.string	"PSCTRL"
 11246      524C 00
 11247               	.LASF7:
 11248 06fe 6C6F 6E67 		.string	"long long int"
 11248      206C 6F6E 
 11248      6720 696E 
 11248      7400 
 11249               	.LASF87:
 11250 070c 504F 5254 		.string	"PORT_struct"
 11250      5F73 7472 
 11250      7563 7400 
 11251               	.LASF4:
 11252 0718 7569 6E74 		.string	"uint8_t"
 11252      385F 7400 
 11253               	.LASF157:
 11254 0720 4354 524C 		.string	"CTRLGCLR"
 11254      4743 4C52 
GAS LISTING /tmp/ccq5P7XK.s 			page 208


 11254      00
 11255               	.LASF257:
 11256 0729 6661 6374 		.string	"factor"
 11256      6F72 00
 11257               	.LASF60:
 11258 0730 4F53 435F 		.string	"OSC_FRQRANGE_9TO12_gc"
 11258      4652 5152 
 11258      414E 4745 
 11258      5F39 544F 
 11258      3132 5F67 
 11259               	.LASF103:
 11260 0746 5049 4E32 		.string	"PIN2CTRL"
 11260      4354 524C 
 11260      00
 11261               	.LASF264:
 11262 074f 434C 4B53 		.string	"CLKSYS_Disable"
 11262      5953 5F44 
 11262      6973 6162 
 11262      6C65 00
 11263               	.LASF275:
 11264 075e 636F 6D70 		.string	"compareArray"
 11264      6172 6541 
 11264      7272 6179 
 11264      00
 11265               	.LASF34:
 11266 076b 434C 4B5F 		.string	"CLK_PSADIV_512_gc"
 11266      5053 4144 
 11266      4956 5F35 
 11266      3132 5F67 
 11266      6300 
 11267               	.LASF188:
 11268 077d 5443 5F43 		.string	"TC_CLKSEL_OFF_gc"
 11268      4C4B 5345 
 11268      4C5F 4F46 
 11268      465F 6763 
 11268      00
 11269               	.LASF187:
 11270 078e 5443 5F43 		.string	"TC_CLKSEL_enum"
 11270      4C4B 5345 
 11270      4C5F 656E 
 11270      756D 00
 11271               	.LASF230:
 11272 079d 5F5F 7469 		.string	"__ticks"
 11272      636B 7300 
 11273               	.LASF302:
 11274 07a5 456C 626F 		.string	"Elbow"
 11274      7700 
 11275               	.LASF297:
 11276 07ab 676F 616C 		.string	"goal"
 11276      00
 11277               	.LASF115:
 11278 07b0 504F 5254 		.string	"PORT_OPC_WIREDOR_gc"
 11278      5F4F 5043 
 11278      5F57 4952 
 11278      4544 4F52 
 11278      5F67 6300 
 11279               	.LASF19:
GAS LISTING /tmp/ccq5P7XK.s 			page 209


 11280 07c4 434C 4B5F 		.string	"CLK_SCLKSEL_RC32M_gc"
 11280      5343 4C4B 
 11280      5345 4C5F 
 11280      5243 3332 
 11280      4D5F 6763 
 11281               	.LASF74:
 11282 07d9 4F53 435F 		.string	"OSC_PLLSRC_t"
 11282      504C 4C53 
 11282      5243 5F74 
 11282      00
 11283               	.LASF298:
 11284 07e6 706F 7365 		.string	"pose"
 11284      00
 11285               	.LASF299:
 11286 07eb 656C 6170 		.string	"elapsedMillis"
 11286      7365 644D 
 11286      696C 6C69 
 11286      7300 
 11287               	.LASF215:
 11288 07f9 6E75 6D62 		.string	"number_of_steps"
 11288      6572 5F6F 
 11288      665F 7374 
 11288      6570 7300 
 11289               	.LASF210:
 11290 0809 5374 6570 		.string	"Stepper"
 11290      7065 7200 
 11291               	.LASF159:
 11292 0811 5445 4D50 		.string	"TEMP"
 11292      00
 11293               	.LASF141:
 11294 0816 4343 4342 		.string	"CCCBUFH"
 11294      5546 4800 
 11295               	.LASF140:
 11296 081e 4343 4342 		.string	"CCCBUFL"
 11296      5546 4C00 
 11297               	.LASF122:
 11298 0826 5045 5248 		.string	"PERH"
 11298      00
 11299               	.LASF80:
 11300 082b 434F 4D50 		.string	"COMP1"
 11300      3100 
 11301               	.LASF81:
 11302 0831 434F 4D50 		.string	"COMP2"
 11302      3200 
 11303               	.LASF201:
 11304 0837 5443 5F43 		.string	"TC_CLKSEL_EVCH5_gc"
 11304      4C4B 5345 
 11304      4C5F 4556 
 11304      4348 355F 
 11304      6763 00
 11305               	.LASF15:
 11306 084a 434C 4B5F 		.string	"CLK_t"
 11306      7400 
 11307               	.LASF271:
 11308 0850 434C 4B53 		.string	"CLKSYS_XOSC_FailureDetection_Enable"
 11308      5953 5F58 
 11308      4F53 435F 
GAS LISTING /tmp/ccq5P7XK.s 			page 210


 11308      4661 696C 
 11308      7572 6544 
 11309               	.LASF285:
 11310 0874 7374 6570 		.string	"step"
 11310      00
 11311               	.LASF294:
 11312 0879 6D61 696E 		.string	"mainLoop"
 11312      4C6F 6F70 
 11312      00
 11313               	.LASF94:
 11314 0882 494E 5443 		.string	"INTCTRL"
 11314      5452 4C00 
 11315               	.LASF24:
 11316 088a 434C 4B5F 		.string	"CLK_PSADIV_enum"
 11316      5053 4144 
 11316      4956 5F65 
 11316      6E75 6D00 
 11317               	.LASF279:
 11318 089a 7365 7450 		.string	"setPin"
 11318      696E 00
 11319               	.LASF209:
 11320 08a1 5F5F 756E 		.string	"__unknown__"
 11320      6B6E 6F77 
 11320      6E5F 5F00 
 11321               	.LASF61:
 11322 08ad 4F53 435F 		.string	"OSC_FRQRANGE_12TO16_gc"
 11322      4652 5152 
 11322      414E 4745 
 11322      5F31 3254 
 11322      4F31 365F 
 11323               	.LASF33:
 11324 08c4 434C 4B5F 		.string	"CLK_PSADIV_256_gc"
 11324      5053 4144 
 11324      4956 5F32 
 11324      3536 5F67 
 11324      6300 
 11325               	.LASF195:
 11326 08d6 5443 5F43 		.string	"TC_CLKSEL_DIV1024_gc"
 11326      4C4B 5345 
 11326      4C5F 4449 
 11326      5631 3032 
 11326      345F 6763 
 11327               	.LASF207:
 11328 08eb 5443 5F4F 		.string	"TC_OVFINTLVL_MED_gc"
 11328      5646 494E 
 11328      544C 564C 
 11328      5F4D 4544 
 11328      5F67 6300 
 11329               	.LASF39:
 11330 08ff 434C 4B5F 		.string	"CLK_PSBCDIV_4_1_gc"
 11330      5053 4243 
 11330      4449 565F 
 11330      345F 315F 
 11330      6763 00
 11331               	.LASF191:
 11332 0912 5443 5F43 		.string	"TC_CLKSEL_DIV4_gc"
 11332      4C4B 5345 
GAS LISTING /tmp/ccq5P7XK.s 			page 211


 11332      4C5F 4449 
 11332      5634 5F67 
 11332      6300 
 11333               	.LASF139:
 11334 0924 4343 4242 		.string	"CCBBUF"
 11334      5546 00
 11335               	.LASF90:
 11336 092b 4449 5254 		.string	"DIRTGL"
 11336      474C 00
 11337               	.LASF36:
 11338 0932 434C 4B5F 		.string	"CLK_PSBCDIV_enum"
 11338      5053 4243 
 11338      4449 565F 
 11338      656E 756D 
 11338      00
 11339               	.LASF256:
 11340 0943 636C 6F63 		.string	"clockSource"
 11340      6B53 6F75 
 11340      7263 6500 
 11341               	.LASF147:
 11342 094f 4354 524C 		.string	"CTRLA"
 11342      4100 
 11343               	.LASF148:
 11344 0955 4354 524C 		.string	"CTRLB"
 11344      4200 
 11345               	.LASF149:
 11346 095b 4354 524C 		.string	"CTRLC"
 11346      4300 
 11347               	.LASF150:
 11348 0961 4354 524C 		.string	"CTRLD"
 11348      4400 
 11349               	.LASF151:
 11350 0967 4354 524C 		.string	"CTRLE"
 11350      4500 
 11351               	.LASF287:
 11352 096d 7374 6570 		.string	"steps_left"
 11352      735F 6C65 
 11352      6674 00
 11353               	.LASF113:
 11354 0978 504F 5254 		.string	"PORT_OPC_PULLDOWN_gc"
 11354      5F4F 5043 
 11354      5F50 554C 
 11354      4C44 4F57 
 11354      4E5F 6763 
 11355               	.LASF284:
 11356 098d 7468 6973 		.string	"thisStep"
 11356      5374 6570 
 11356      00
 11357               	.LASF22:
 11358 0996 434C 4B5F 		.string	"CLK_SCLKSEL_PLL_gc"
 11358      5343 4C4B 
 11358      5345 4C5F 
 11358      504C 4C5F 
 11358      6763 00
 11359               	.LASF196:
 11360 09a9 5443 5F43 		.string	"TC_CLKSEL_EVCH0_gc"
 11360      4C4B 5345 
GAS LISTING /tmp/ccq5P7XK.s 			page 212


 11360      4C5F 4556 
 11360      4348 305F 
 11360      6763 00
 11361               	.LASF91:
 11362 09bc 4F55 5453 		.string	"OUTSET"
 11362      4554 00
 11363               	.LASF205:
 11364 09c3 5443 5F4F 		.string	"TC_OVFINTLVL_OFF_gc"
 11364      5646 494E 
 11364      544C 564C 
 11364      5F4F 4646 
 11364      5F67 6300 
 11365               	.LASF290:
 11366 09d7 6D6F 7665 		.string	"moveToGoal"
 11366      546F 476F 
 11366      616C 00
 11367               	.LASF84:
 11368 09e2 504D 4943 		.string	"PMIC_struct"
 11368      5F73 7472 
 11368      7563 7400 
 11369               	.LASF37:
 11370 09ee 434C 4B5F 		.string	"CLK_PSBCDIV_1_1_gc"
 11370      5053 4243 
 11370      4449 565F 
 11370      315F 315F 
 11370      6763 00
 11371               	.LASF3:
 11372 0a01 6C6F 6E67 		.string	"long int"
 11372      2069 6E74 
 11372      00
 11373               	.LASF25:
 11374 0a0a 434C 4B5F 		.string	"CLK_PSADIV_1_gc"
 11374      5053 4144 
 11374      4956 5F31 
 11374      5F67 6300 
 11375               	.LASF224:
 11376 0a1a 6D6F 746F 		.string	"motor_port_3"
 11376      725F 706F 
 11376      7274 5F33 
 11376      00
 11377               	.LASF253:
 11378 0a27 786F 7363 		.string	"xoscModeSelection"
 11378      4D6F 6465 
 11378      5365 6C65 
 11378      6374 696F 
 11378      6E00 
 11379               	.LASF203:
 11380 0a39 5443 5F43 		.string	"TC_CLKSEL_EVCH7_gc"
 11380      4C4B 5345 
 11380      4C5F 4556 
 11380      4348 375F 
 11380      6763 00
 11381               	.LASF83:
 11382 0a4c 4446 4C4C 		.string	"DFLL_t"
 11382      5F74 00
 11383               	.LASF296:
 11384 0a53 6465 6275 		.string	"debugFlag"
GAS LISTING /tmp/ccq5P7XK.s 			page 213


 11384      6746 6C61 
 11384      6700 
 11385               	.LASF186:
 11386 0a5d 5443 305F 		.string	"TC0_t"
 11386      7400 
 11387               	.LASF108:
 11388 0a63 5049 4E37 		.string	"PIN7CTRL"
 11388      4354 524C 
 11388      00
 11389               	.LASF194:
 11390 0a6c 5443 5F43 		.string	"TC_CLKSEL_DIV256_gc"
 11390      4C4B 5345 
 11390      4C5F 4449 
 11390      5632 3536 
 11390      5F67 6300 
 11391               	.LASF204:
 11392 0a80 5443 5F4F 		.string	"TC_OVFINTLVL_enum"
 11392      5646 494E 
 11392      544C 564C 
 11392      5F65 6E75 
 11392      6D00 
 11393               	.LASF28:
 11394 0a92 434C 4B5F 		.string	"CLK_PSADIV_8_gc"
 11394      5053 4144 
 11394      4956 5F38 
 11394      5F67 6300 
 11395               	.LASF59:
 11396 0aa2 4F53 435F 		.string	"OSC_FRQRANGE_2TO9_gc"
 11396      4652 5152 
 11396      414E 4745 
 11396      5F32 544F 
 11396      395F 6763 
 11397               	.LASF69:
 11398 0ab7 4F53 435F 		.string	"OSC_XOSCSEL_t"
 11398      584F 5343 
 11398      5345 4C5F 
 11398      7400 
 11399               	.LASF309:
 11400 0ac5 5F64 656C 		.string	"_delay_us"
 11400      6179 5F75 
 11400      7300 
 11401               	.LASF289:
 11402 0acf 6D79 4469 		.string	"myDir"
 11402      7200 
 11403               	.LASF208:
 11404 0ad5 5443 5F4F 		.string	"TC_OVFINTLVL_HI_gc"
 11404      5646 494E 
 11404      544C 564C 
 11404      5F48 495F 
 11404      6763 00
 11405               	.LASF119:
 11406 0ae8 434E 544C 		.string	"CNTL"
 11406      00
 11407               	.LASF9:
 11408 0aed 4343 505F 		.string	"CCP_SPM_gc"
 11408      5350 4D5F 
 11408      6763 00
GAS LISTING /tmp/ccq5P7XK.s 			page 214


 11409               	.LASF218:
 11410 0af8 6D69 6E53 		.string	"minSteps"
 11410      7465 7073 
 11410      00
 11411               	.LASF2:
 11412 0b01 756E 7369 		.string	"unsigned int"
 11412      676E 6564 
 11412      2069 6E74 
 11412      00
 11413               	.LASF300:
 11414 0b0e 4261 7365 		.string	"Base"
 11414      00
 11415               	.LASF105:
 11416 0b13 5049 4E34 		.string	"PIN4CTRL"
 11416      4354 524C 
 11416      00
 11417               	.LASF145:
 11418 0b1c 4343 4442 		.string	"CCDBUF"
 11418      5546 00
 11419               	.LASF236:
 11420 0b23 7768 6174 		.string	"whatSpeed"
 11420      5370 6565 
 11420      6400 
 11421               	.LASF156:
 11422 0b2d 4354 524C 		.string	"CTRLFSET"
 11422      4653 4554 
 11422      00
 11423               	.LASF92:
 11424 0b36 4F55 5443 		.string	"OUTCLR"
 11424      4C52 00
 11425               	.LASF116:
 11426 0b3d 504F 5254 		.string	"PORT_OPC_WIREDAND_gc"
 11426      5F4F 5043 
 11426      5F57 4952 
 11426      4544 414E 
 11426      445F 6763 
 11427               	.LASF146:
 11428 0b52 5443 305F 		.string	"TC0_struct"
 11428      7374 7275 
 11428      6374 00
 11429               	.LASF6:
 11430 0b5d 6C6F 6E67 		.string	"long unsigned int"
 11430      2075 6E73 
 11430      6967 6E65 
 11430      6420 696E 
 11430      7400 
 11431               	.LASF252:
 11432 0b6f 6C6F 7750 		.string	"lowPower32kHz"
 11432      6F77 6572 
 11432      3332 6B48 
 11432      7A00 
 11433               	.LASF245:
 11434 0b7d 6164 6472 		.string	"address"
 11434      6573 7300 
 11435               	.LASF238:
 11436 0b85 6368 616E 		.string	"changeGoal"
 11436      6765 476F 
GAS LISTING /tmp/ccq5P7XK.s 			page 215


 11436      616C 00
 11437               	.LASF198:
 11438 0b90 5443 5F43 		.string	"TC_CLKSEL_EVCH2_gc"
 11438      4C4B 5345 
 11438      4C5F 4556 
 11438      4348 325F 
 11438      6763 00
 11439               	.LASF51:
 11440 0ba3 584F 5343 		.string	"XOSCCTRL"
 11440      4354 524C 
 11440      00
 11441               	.LASF63:
 11442 0bac 4F53 435F 		.string	"OSC_XOSCSEL_enum"
 11442      584F 5343 
 11442      5345 4C5F 
 11442      656E 756D 
 11442      00
 11443               	.LASF304:
 11444 0bbd 5269 6768 		.string	"Right_Wrist"
 11444      745F 5772 
 11444      6973 7400 
 11445               	.LASF18:
 11446 0bc9 434C 4B5F 		.string	"CLK_SCLKSEL_RC2M_gc"
 11446      5343 4C4B 
 11446      5345 4C5F 
 11446      5243 324D 
 11446      5F67 6300 
 11447               	.LASF267:
 11448 0bdd 434C 4B53 		.string	"CLKSYS_RTC_ClockSource_Enable"
 11448      5953 5F52 
 11448      5443 5F43 
 11448      6C6F 636B 
 11448      536F 7572 
 11449               	.LASF64:
 11450 0bfb 4F53 435F 		.string	"OSC_XOSCSEL_EXTCLK_gc"
 11450      584F 5343 
 11450      5345 4C5F 
 11450      4558 5443 
 11450      4C4B 5F67 
 11451               	.LASF206:
 11452 0c11 5443 5F4F 		.string	"TC_OVFINTLVL_LO_gc"
 11452      5646 494E 
 11452      544C 564C 
 11452      5F4C 4F5F 
 11452      6763 00
 11453               	.LASF132:
 11454 0c24 5045 5242 		.string	"PERBUFH"
 11454      5546 4800 
 11455               	.LASF250:
 11456 0c2c 434C 4B53 		.string	"CLKSYS_XOSC_Config"
 11456      5953 5F58 
 11456      4F53 435F 
 11456      436F 6E66 
 11456      6967 00
 11457               	.LASF131:
 11458 0c3f 5045 5242 		.string	"PERBUFL"
 11458      5546 4C00 
GAS LISTING /tmp/ccq5P7XK.s 			page 216


 11459               	.LASF307:
 11460 0c47 4164 4465 		.string	"AdDemo.c"
 11460      6D6F 2E63 
 11460      00
 11461               	.LASF104:
 11462 0c50 5049 4E33 		.string	"PIN3CTRL"
 11462      4354 524C 
 11462      00
 11463               	.LASF1:
 11464 0c59 756E 7369 		.string	"unsigned char"
 11464      676E 6564 
 11464      2063 6861 
 11464      7200 
 11465               	.LASF56:
 11466 0c67 4F53 435F 		.string	"OSC_t"
 11466      7400 
 11467               	.LASF65:
 11468 0c6d 4F53 435F 		.string	"OSC_XOSCSEL_32KHz_gc"
 11468      584F 5343 
 11468      5345 4C5F 
 11468      3332 4B48 
 11468      7A5F 6763 
 11469               	.LASF276:
 11470 0c82 436F 6E66 		.string	"Config32MHzClock"
 11470      6967 3332 
 11470      4D48 7A43 
 11470      6C6F 636B 
 11470      00
 11471               	.LASF234:
 11472 0c93 5F5F 7573 		.string	"__us"
 11472      00
 11473               	.LASF288:
 11474 0c98 7374 6570 		.string	"stepOne"
 11474      4F6E 6500 
 11475               	.LASF311:
 11476 0ca0 6D69 6C6C 		.string	"millis"
 11476      6973 00
 11477               	.LASF283:
 11478 0ca7 7374 6570 		.string	"stepMotor"
 11478      4D6F 746F 
 11478      7200 
 11479               	.LASF117:
 11480 0cb1 504F 5254 		.string	"PORT_OPC_WIREDORPULL_gc"
 11480      5F4F 5043 
 11480      5F57 4952 
 11480      4544 4F52 
 11480      5055 4C4C 
 11481               	.LASF295:
 11482 0cc9 7374 6174 		.string	"state"
 11482      6500 
 11483               	.LASF189:
 11484 0ccf 5443 5F43 		.string	"TC_CLKSEL_DIV1_gc"
 11484      4C4B 5345 
 11484      4C5F 4449 
 11484      5631 5F67 
 11484      6300 
 11485               	.LASF71:
GAS LISTING /tmp/ccq5P7XK.s 			page 217


 11486 0ce1 4F53 435F 		.string	"OSC_PLLSRC_RC2M_gc"
 11486      504C 4C53 
 11486      5243 5F52 
 11486      4332 4D5F 
 11486      6763 00
 11487               	.LASF155:
 11488 0cf4 4354 524C 		.string	"CTRLFCLR"
 11488      4643 4C52 
 11488      00
 11489               	.LASF138:
 11490 0cfd 4343 4242 		.string	"CCBBUFH"
 11490      5546 4800 
 11491               	.LASF220:
 11492 0d05 6D6F 746F 		.string	"motor_port_1"
 11492      725F 706F 
 11492      7274 5F31 
 11492      00
 11493               	.LASF137:
 11494 0d12 4343 4242 		.string	"CCBBUFL"
 11494      5546 4C00 
 11495               	.LASF222:
 11496 0d1a 6D6F 746F 		.string	"motor_port_2"
 11496      725F 706F 
 11496      7274 5F32 
 11496      00
 11497               	.LASF76:
 11498 0d27 7265 7365 		.string	"reserved_0x01"
 11498      7276 6564 
 11498      5F30 7830 
 11498      3100 
 11499               	.LASF226:
 11500 0d35 6D6F 746F 		.string	"motor_port_4"
 11500      725F 706F 
 11500      7274 5F34 
 11500      00
 11501               	.LASF142:
 11502 0d42 4343 4342 		.string	"CCCBUF"
 11502      5546 00
 11503               	.LASF82:
 11504 0d49 7265 7365 		.string	"reserved_0x07"
 11504      7276 6564 
 11504      5F30 7830 
 11504      3700 
 11505               	.LASF40:
 11506 0d57 434C 4B5F 		.string	"CLK_PSBCDIV_2_2_gc"
 11506      5053 4243 
 11506      4449 565F 
 11506      325F 325F 
 11506      6763 00
 11507               	.LASF281:
 11508 0d6a 7069 6E4E 		.string	"pinNum"
 11508      756D 00
 11509               	.LASF262:
 11510 0d71 5053 4243 		.string	"PSBCfactor"
 11510      6661 6374 
 11510      6F72 00
 11511               	.LASF98:
GAS LISTING /tmp/ccq5P7XK.s 			page 218


 11512 0d7c 7265 7365 		.string	"reserved_0x0D"
 11512      7276 6564 
 11512      5F30 7830 
 11512      4400 
 11513               	.LASF0:
 11514 0d8a 7369 676E 		.string	"signed char"
 11514      6564 2063 
 11514      6861 7200 
 11515               	.LASF192:
 11516 0d96 5443 5F43 		.string	"TC_CLKSEL_DIV8_gc"
 11516      4C4B 5345 
 11516      4C5F 4449 
 11516      5638 5F67 
 11516      6300 
 11517               	.LASF313:
 11518 0da8 6D61 696E 		.string	"main"
 11518      00
 11519               	.LASF231:
 11520 0dad 5F5F 746D 		.string	"__tmp"
 11520      7000 
 11521               	.LASF43:
 11522 0db3 434C 4B5F 		.string	"CLK_RTCSRC_ULP_gc"
 11522      5254 4353 
 11522      5243 5F55 
 11522      4C50 5F67 
 11522      6300 
 11523               	.LASF260:
 11524 0dc5 434C 4B53 		.string	"CLKSYS_Prescalers_Config"
 11524      5953 5F50 
 11524      7265 7363 
 11524      616C 6572 
 11524      735F 436F 
 11525               	.LASF200:
 11526 0dde 5443 5F43 		.string	"TC_CLKSEL_EVCH4_gc"
 11526      4C4B 5345 
 11526      4C5F 4556 
 11526      4348 345F 
 11526      6763 00
 11527               	.LASF233:
 11528 0df1 646F 7562 		.string	"double"
 11528      6C65 00
 11529               	.LASF72:
 11530 0df8 4F53 435F 		.string	"OSC_PLLSRC_RC32M_gc"
 11530      504C 4C53 
 11530      5243 5F52 
 11530      4333 324D 
 11530      5F67 6300 
 11531               	.LASF42:
 11532 0e0c 434C 4B5F 		.string	"CLK_RTCSRC_enum"
 11532      5254 4353 
 11532      5243 5F65 
 11532      6E75 6D00 
 11533               	.LASF50:
 11534 0e1c 5354 4154 		.string	"STATUS"
 11534      5553 00
 11535               	.LASF160:
 11536 0e23 7265 7365 		.string	"reserved_0x10"
GAS LISTING /tmp/ccq5P7XK.s 			page 219


 11536      7276 6564 
 11536      5F30 7831 
 11536      3000 
 11537               	.LASF161:
 11538 0e31 7265 7365 		.string	"reserved_0x11"
 11538      7276 6564 
 11538      5F30 7831 
 11538      3100 
 11539               	.LASF162:
 11540 0e3f 7265 7365 		.string	"reserved_0x12"
 11540      7276 6564 
 11540      5F30 7831 
 11540      3200 
 11541               	.LASF163:
 11542 0e4d 7265 7365 		.string	"reserved_0x13"
 11542      7276 6564 
 11542      5F30 7831 
 11542      3300 
 11543               	.LASF164:
 11544 0e5b 7265 7365 		.string	"reserved_0x14"
 11544      7276 6564 
 11544      5F30 7831 
 11544      3400 
 11545               	.LASF259:
 11546 0e69 636C 6B45 		.string	"clkEnabled"
 11546      6E61 626C 
 11546      6564 00
 11547               	.LASF166:
 11548 0e74 7265 7365 		.string	"reserved_0x16"
 11548      7276 6564 
 11548      5F30 7831 
 11548      3600 
 11549               	.LASF167:
 11550 0e82 7265 7365 		.string	"reserved_0x17"
 11550      7276 6564 
 11550      5F30 7831 
 11550      3700 
 11551               	.LASF168:
 11552 0e90 7265 7365 		.string	"reserved_0x18"
 11552      7276 6564 
 11552      5F30 7831 
 11552      3800 
 11553               	.LASF169:
 11554 0e9e 7265 7365 		.string	"reserved_0x19"
 11554      7276 6564 
 11554      5F30 7831 
 11554      3900 
 11555               	.LASF102:
 11556 0eac 5049 4E31 		.string	"PIN1CTRL"
 11556      4354 524C 
 11556      00
 11557               	.LASF120:
 11558 0eb5 434E 5448 		.string	"CNTH"
 11558      00
 11559               	.LASF170:
 11560 0eba 7265 7365 		.string	"reserved_0x1A"
 11560      7276 6564 
GAS LISTING /tmp/ccq5P7XK.s 			page 220


 11560      5F30 7831 
 11560      4100 
 11561               	.LASF171:
 11562 0ec8 7265 7365 		.string	"reserved_0x1B"
 11562      7276 6564 
 11562      5F30 7831 
 11562      4200 
 11563               	.LASF172:
 11564 0ed6 7265 7365 		.string	"reserved_0x1C"
 11564      7276 6564 
 11564      5F30 7831 
 11564      4300 
 11565               	.LASF173:
 11566 0ee4 7265 7365 		.string	"reserved_0x1D"
 11566      7276 6564 
 11566      5F30 7831 
 11566      4400 
 11567               	.LASF118:
 11568 0ef2 504F 5254 		.string	"PORT_OPC_WIREDANDPULL_gc"
 11568      5F4F 5043 
 11568      5F57 4952 
 11568      4544 414E 
 11568      4450 554C 
 11569               	.LASF175:
 11570 0f0b 7265 7365 		.string	"reserved_0x1F"
 11570      7276 6564 
 11570      5F30 7831 
 11570      4600 
 11571               	.LASF58:
 11572 0f19 4F53 435F 		.string	"OSC_FRQRANGE_04TO2_gc"
 11572      4652 5152 
 11572      414E 4745 
 11572      5F30 3454 
 11572      4F32 5F67 
 11573               	.LASF286:
 11574 0f2f 7374 6570 		.string	"steps_to_move"
 11574      735F 746F 
 11574      5F6D 6F76 
 11574      6500 
 11575               	.LASF263:
 11576 0f3d 5053 636F 		.string	"PSconfig"
 11576      6E66 6967 
 11576      00
 11577               	.LASF11:
 11578 0f46 4354 524C 		.string	"CTRL"
 11578      00
 11579               	.LASF248:
 11580 0f4b 746D 7041 		.string	"tmpAddr"
 11580      6464 7200 
 11581               	.global __do_copy_data
 11582               	.global __do_clear_bss
GAS LISTING /tmp/ccq5P7XK.s 			page 221


DEFINED SYMBOLS
                            *ABS*:00000000 AdDemo.c
     /tmp/ccq5P7XK.s:2      *ABS*:0000003f __SREG__
     /tmp/ccq5P7XK.s:3      *ABS*:0000003e __SP_H__
     /tmp/ccq5P7XK.s:4      *ABS*:0000003d __SP_L__
     /tmp/ccq5P7XK.s:5      *ABS*:00000034 __CCP__
     /tmp/ccq5P7XK.s:6      *ABS*:00000000 __tmp_reg__
     /tmp/ccq5P7XK.s:7      *ABS*:00000001 __zero_reg__
     /tmp/ccq5P7XK.s:18     .text:00000000 CCPWrite
     /tmp/ccq5P7XK.s:69     .text:0000002a CLKSYS_XOSC_Config
     /tmp/ccq5P7XK.s:99     .text:00000040 CLKSYS_PLL_Config
     /tmp/ccq5P7XK.s:123    .text:0000004c CLKSYS_Disable
     /tmp/ccq5P7XK.s:151    .text:00000060 CLKSYS_Prescalers_Config
     /tmp/ccq5P7XK.s:175    .text:0000006c CLKSYS_Main_ClockSource_Select
     /tmp/ccq5P7XK.s:218    .text:00000092 CLKSYS_RTC_ClockSource_Enable
     /tmp/ccq5P7XK.s:241    .text:000000a2 CLKSYS_AutoCalibration_Enable
     /tmp/ccq5P7XK.s:291    .text:000000dc CLKSYS_XOSC_FailureDetection_Enable
     /tmp/ccq5P7XK.s:310    .text:000000e8 CLKSYS_Configuration_Lock
     /tmp/ccq5P7XK.s:329    .text:000000f4 __vector_14
     /tmp/ccq5P7XK.s:3336   .bss:0000001a elapsedMillis
     /tmp/ccq5P7XK.s:372    .text:0000013e delay_ms
     /tmp/ccq5P7XK.s:413    .text:0000015a compareArray
     /tmp/ccq5P7XK.s:498    .text:000001d4 signum
     /tmp/ccq5P7XK.s:532    .text:000001f0 Config32MHzClock
     /tmp/ccq5P7XK.s:563    .text:0000020e millis
     /tmp/ccq5P7XK.s:584    .text:00000224 blink
     /tmp/ccq5P7XK.s:627    .text:00000256 setPin
     /tmp/ccq5P7XK.s:915    .text:000003a4 clearPin
     /tmp/ccq5P7XK.s:1203   .text:000004f2 setSpeed
     /tmp/ccq5P7XK.s:1254   .text:0000053e stepMotor
     /tmp/ccq5P7XK.s:1435   .text:00000658 step
     /tmp/ccq5P7XK.s:3330   .bss:0000000e pose
     /tmp/ccq5P7XK.s:3467   .data:000000b6 Gripper
     /tmp/ccq5P7XK.s:1749   .text:00000874 stepOne
     /tmp/ccq5P7XK.s:1973   .text:00000a00 changeGoal
     /tmp/ccq5P7XK.s:3324   .bss:00000002 goal
     /tmp/ccq5P7XK.s:2016   .text:00000a42 moveToGoal
     /tmp/ccq5P7XK.s:3342   .data:00000002 Base
     /tmp/ccq5P7XK.s:3367   .data:00000026 Shoulder
     /tmp/ccq5P7XK.s:3392   .data:0000004a Elbow
     /tmp/ccq5P7XK.s:3417   .data:0000006e Right_Wrist
     /tmp/ccq5P7XK.s:3442   .data:00000092 Left_Wrist
     /tmp/ccq5P7XK.s:2973   .text:0000117e usbUpdate
     /tmp/ccq5P7XK.s:3318   .bss:00000000 debugFlag
     /tmp/ccq5P7XK.s:3086   .text:00001230 mainLoop
     /tmp/ccq5P7XK.s:3311   .data:00000000 state
     /tmp/ccq5P7XK.s:3198   .text:000012fc main

UNDEFINED SYMBOLS
__divmodsi4
__divmodhi4
__floatsisf
__divsf3
__mulsf3
__fixsfsi
__do_copy_data
__do_clear_bss
GAS LISTING /tmp/ccq5P7XK.s 			page 222


