   1               		.file	"EndpointStream_XMEGA.c"
   2               	__SREG__ = 0x3f
   3               	__SP_H__ = 0x3e
   4               	__SP_L__ = 0x3d
   5               	__CCP__ = 0x34
   6               	__tmp_reg__ = 0
   7               	__zero_reg__ = 1
   8               		.global __do_copy_data
   9               		.global __do_clear_bss
  10               		.text
  11               	.Ltext0:
  12               		.cfi_sections	.debug_frame
  13               		.section	.text.Endpoint_SelectEndpoint,"ax",@progbits
  15               	Endpoint_SelectEndpoint:
  16               	.LFB22:
  17               		.file 1 "LUFA//Drivers/USB/Core/XMEGA/../XMEGA/../XMEGA/Endpoint_XMEGA.h"
   1:LUFA//Drivers/USB/Core/XMEGA/../XMEGA/../XMEGA/Endpoint_XMEGA.h **** /*
   2:LUFA//Drivers/USB/Core/XMEGA/../XMEGA/../XMEGA/Endpoint_XMEGA.h ****              LUFA Library
   3:LUFA//Drivers/USB/Core/XMEGA/../XMEGA/../XMEGA/Endpoint_XMEGA.h ****      Copyright (C) Dean Camera, 2012.
   4:LUFA//Drivers/USB/Core/XMEGA/../XMEGA/../XMEGA/Endpoint_XMEGA.h **** 
   5:LUFA//Drivers/USB/Core/XMEGA/../XMEGA/../XMEGA/Endpoint_XMEGA.h ****   dean [at] fourwalledcubicle [dot] com
   6:LUFA//Drivers/USB/Core/XMEGA/../XMEGA/../XMEGA/Endpoint_XMEGA.h ****            www.lufa-lib.org
   7:LUFA//Drivers/USB/Core/XMEGA/../XMEGA/../XMEGA/Endpoint_XMEGA.h **** */
   8:LUFA//Drivers/USB/Core/XMEGA/../XMEGA/../XMEGA/Endpoint_XMEGA.h **** 
   9:LUFA//Drivers/USB/Core/XMEGA/../XMEGA/../XMEGA/Endpoint_XMEGA.h **** /*
  10:LUFA//Drivers/USB/Core/XMEGA/../XMEGA/../XMEGA/Endpoint_XMEGA.h ****   Copyright 2012  Dean Camera (dean [at] fourwalledcubicle [dot] com)
  11:LUFA//Drivers/USB/Core/XMEGA/../XMEGA/../XMEGA/Endpoint_XMEGA.h **** 
  12:LUFA//Drivers/USB/Core/XMEGA/../XMEGA/../XMEGA/Endpoint_XMEGA.h ****   Permission to use, copy, modify, distribute, and sell this
  13:LUFA//Drivers/USB/Core/XMEGA/../XMEGA/../XMEGA/Endpoint_XMEGA.h ****   software and its documentation for any purpose is hereby granted
  14:LUFA//Drivers/USB/Core/XMEGA/../XMEGA/../XMEGA/Endpoint_XMEGA.h ****   without fee, provided that the above copyright notice appear in
  15:LUFA//Drivers/USB/Core/XMEGA/../XMEGA/../XMEGA/Endpoint_XMEGA.h ****   all copies and that both that the copyright notice and this
  16:LUFA//Drivers/USB/Core/XMEGA/../XMEGA/../XMEGA/Endpoint_XMEGA.h ****   permission notice and warranty disclaimer appear in supporting
  17:LUFA//Drivers/USB/Core/XMEGA/../XMEGA/../XMEGA/Endpoint_XMEGA.h ****   documentation, and that the name of the author not be used in
  18:LUFA//Drivers/USB/Core/XMEGA/../XMEGA/../XMEGA/Endpoint_XMEGA.h ****   advertising or publicity pertaining to distribution of the
  19:LUFA//Drivers/USB/Core/XMEGA/../XMEGA/../XMEGA/Endpoint_XMEGA.h ****   software without specific, written prior permission.
  20:LUFA//Drivers/USB/Core/XMEGA/../XMEGA/../XMEGA/Endpoint_XMEGA.h **** 
  21:LUFA//Drivers/USB/Core/XMEGA/../XMEGA/../XMEGA/Endpoint_XMEGA.h ****   The author disclaim all warranties with regard to this
  22:LUFA//Drivers/USB/Core/XMEGA/../XMEGA/../XMEGA/Endpoint_XMEGA.h ****   software, including all implied warranties of merchantability
  23:LUFA//Drivers/USB/Core/XMEGA/../XMEGA/../XMEGA/Endpoint_XMEGA.h ****   and fitness.  In no event shall the author be liable for any
  24:LUFA//Drivers/USB/Core/XMEGA/../XMEGA/../XMEGA/Endpoint_XMEGA.h ****   special, indirect or consequential damages or any damages
  25:LUFA//Drivers/USB/Core/XMEGA/../XMEGA/../XMEGA/Endpoint_XMEGA.h ****   whatsoever resulting from loss of use, data or profits, whether
  26:LUFA//Drivers/USB/Core/XMEGA/../XMEGA/../XMEGA/Endpoint_XMEGA.h ****   in an action of contract, negligence or other tortious action,
  27:LUFA//Drivers/USB/Core/XMEGA/../XMEGA/../XMEGA/Endpoint_XMEGA.h ****   arising out of or in connection with the use or performance of
  28:LUFA//Drivers/USB/Core/XMEGA/../XMEGA/../XMEGA/Endpoint_XMEGA.h ****   this software.
  29:LUFA//Drivers/USB/Core/XMEGA/../XMEGA/../XMEGA/Endpoint_XMEGA.h **** */
  30:LUFA//Drivers/USB/Core/XMEGA/../XMEGA/../XMEGA/Endpoint_XMEGA.h **** 
  31:LUFA//Drivers/USB/Core/XMEGA/../XMEGA/../XMEGA/Endpoint_XMEGA.h **** /** \file
  32:LUFA//Drivers/USB/Core/XMEGA/../XMEGA/../XMEGA/Endpoint_XMEGA.h ****  *  \brief USB Endpoint definitions for the AVR XMEGA microcontrollers.
  33:LUFA//Drivers/USB/Core/XMEGA/../XMEGA/../XMEGA/Endpoint_XMEGA.h ****  *  \copydetails Group_EndpointManagement_XMEGA
  34:LUFA//Drivers/USB/Core/XMEGA/../XMEGA/../XMEGA/Endpoint_XMEGA.h ****  *
  35:LUFA//Drivers/USB/Core/XMEGA/../XMEGA/../XMEGA/Endpoint_XMEGA.h ****  *  \note This file should not be included directly. It is automatically included as needed by the 
  36:LUFA//Drivers/USB/Core/XMEGA/../XMEGA/../XMEGA/Endpoint_XMEGA.h ****  *        dispatch header located in LUFA/Drivers/USB/USB.h.
  37:LUFA//Drivers/USB/Core/XMEGA/../XMEGA/../XMEGA/Endpoint_XMEGA.h ****  */
  38:LUFA//Drivers/USB/Core/XMEGA/../XMEGA/../XMEGA/Endpoint_XMEGA.h **** 
  39:LUFA//Drivers/USB/Core/XMEGA/../XMEGA/../XMEGA/Endpoint_XMEGA.h **** /** \ingroup Group_EndpointRW
  40:LUFA//Drivers/USB/Core/XMEGA/../XMEGA/../XMEGA/Endpoint_XMEGA.h ****  *  \defgroup Group_EndpointRW_XMEGA Endpoint Data Reading and Writing (XMEGA)
  41:LUFA//Drivers/USB/Core/XMEGA/../XMEGA/../XMEGA/Endpoint_XMEGA.h ****  *  \brief Endpoint data read/write definitions for the Atmel AVR XMEGA architecture.
  42:LUFA//Drivers/USB/Core/XMEGA/../XMEGA/../XMEGA/Endpoint_XMEGA.h ****  *
  43:LUFA//Drivers/USB/Core/XMEGA/../XMEGA/../XMEGA/Endpoint_XMEGA.h ****  *  Functions, macros, variables, enums and types related to data reading and writing from and to e
  44:LUFA//Drivers/USB/Core/XMEGA/../XMEGA/../XMEGA/Endpoint_XMEGA.h ****  */
  45:LUFA//Drivers/USB/Core/XMEGA/../XMEGA/../XMEGA/Endpoint_XMEGA.h **** 
  46:LUFA//Drivers/USB/Core/XMEGA/../XMEGA/../XMEGA/Endpoint_XMEGA.h **** /** \ingroup Group_EndpointPrimitiveRW
  47:LUFA//Drivers/USB/Core/XMEGA/../XMEGA/../XMEGA/Endpoint_XMEGA.h ****  *  \defgroup Group_EndpointPrimitiveRW_XMEGA Read/Write of Primitive Data Types (XMEGA)
  48:LUFA//Drivers/USB/Core/XMEGA/../XMEGA/../XMEGA/Endpoint_XMEGA.h ****  *  \brief Endpoint primitive read/write definitions for the Atmel AVR XMEGA architecture.
  49:LUFA//Drivers/USB/Core/XMEGA/../XMEGA/../XMEGA/Endpoint_XMEGA.h ****  *
  50:LUFA//Drivers/USB/Core/XMEGA/../XMEGA/../XMEGA/Endpoint_XMEGA.h ****  *  Functions, macros, variables, enums and types related to data reading and writing of primitive 
  51:LUFA//Drivers/USB/Core/XMEGA/../XMEGA/../XMEGA/Endpoint_XMEGA.h ****  *  from and to endpoints.
  52:LUFA//Drivers/USB/Core/XMEGA/../XMEGA/../XMEGA/Endpoint_XMEGA.h ****  */
  53:LUFA//Drivers/USB/Core/XMEGA/../XMEGA/../XMEGA/Endpoint_XMEGA.h **** 
  54:LUFA//Drivers/USB/Core/XMEGA/../XMEGA/../XMEGA/Endpoint_XMEGA.h **** /** \ingroup Group_EndpointPacketManagement
  55:LUFA//Drivers/USB/Core/XMEGA/../XMEGA/../XMEGA/Endpoint_XMEGA.h ****  *  \defgroup Group_EndpointPacketManagement_XMEGA Endpoint Packet Management (XMEGA)
  56:LUFA//Drivers/USB/Core/XMEGA/../XMEGA/../XMEGA/Endpoint_XMEGA.h ****  *  \brief Endpoint packet management definitions for the Atmel AVR XMEGA architecture.
  57:LUFA//Drivers/USB/Core/XMEGA/../XMEGA/../XMEGA/Endpoint_XMEGA.h ****  *
  58:LUFA//Drivers/USB/Core/XMEGA/../XMEGA/../XMEGA/Endpoint_XMEGA.h ****  *  Functions, macros, variables, enums and types related to packet management of endpoints.
  59:LUFA//Drivers/USB/Core/XMEGA/../XMEGA/../XMEGA/Endpoint_XMEGA.h ****  */
  60:LUFA//Drivers/USB/Core/XMEGA/../XMEGA/../XMEGA/Endpoint_XMEGA.h **** 
  61:LUFA//Drivers/USB/Core/XMEGA/../XMEGA/../XMEGA/Endpoint_XMEGA.h **** /** \ingroup Group_EndpointManagement
  62:LUFA//Drivers/USB/Core/XMEGA/../XMEGA/../XMEGA/Endpoint_XMEGA.h ****  *  \defgroup Group_EndpointManagement_XMEGA Endpoint Management (XMEGA)
  63:LUFA//Drivers/USB/Core/XMEGA/../XMEGA/../XMEGA/Endpoint_XMEGA.h ****  *  \brief Endpoint management definitions for the Atmel AVR XMEGA architecture.
  64:LUFA//Drivers/USB/Core/XMEGA/../XMEGA/../XMEGA/Endpoint_XMEGA.h ****  *
  65:LUFA//Drivers/USB/Core/XMEGA/../XMEGA/../XMEGA/Endpoint_XMEGA.h ****  *  Functions, macros and enums related to endpoint management when in USB Device mode. This
  66:LUFA//Drivers/USB/Core/XMEGA/../XMEGA/../XMEGA/Endpoint_XMEGA.h ****  *  module contains the endpoint management macros, as well as endpoint interrupt and data
  67:LUFA//Drivers/USB/Core/XMEGA/../XMEGA/../XMEGA/Endpoint_XMEGA.h ****  *  send/receive functions for various data types.
  68:LUFA//Drivers/USB/Core/XMEGA/../XMEGA/../XMEGA/Endpoint_XMEGA.h ****  *
  69:LUFA//Drivers/USB/Core/XMEGA/../XMEGA/../XMEGA/Endpoint_XMEGA.h ****  *  @{
  70:LUFA//Drivers/USB/Core/XMEGA/../XMEGA/../XMEGA/Endpoint_XMEGA.h ****  */
  71:LUFA//Drivers/USB/Core/XMEGA/../XMEGA/../XMEGA/Endpoint_XMEGA.h **** 
  72:LUFA//Drivers/USB/Core/XMEGA/../XMEGA/../XMEGA/Endpoint_XMEGA.h **** #ifndef __ENDPOINT_XMEGA_H__
  73:LUFA//Drivers/USB/Core/XMEGA/../XMEGA/../XMEGA/Endpoint_XMEGA.h **** #define __ENDPOINT_XMEGA_H__
  74:LUFA//Drivers/USB/Core/XMEGA/../XMEGA/../XMEGA/Endpoint_XMEGA.h **** 
  75:LUFA//Drivers/USB/Core/XMEGA/../XMEGA/../XMEGA/Endpoint_XMEGA.h **** 	/* Includes: */
  76:LUFA//Drivers/USB/Core/XMEGA/../XMEGA/../XMEGA/Endpoint_XMEGA.h **** 		#include "../../../../Common/Common.h"
  77:LUFA//Drivers/USB/Core/XMEGA/../XMEGA/../XMEGA/Endpoint_XMEGA.h **** 		#include "../USBTask.h"
  78:LUFA//Drivers/USB/Core/XMEGA/../XMEGA/../XMEGA/Endpoint_XMEGA.h **** 		#include "../USBInterrupt.h"
  79:LUFA//Drivers/USB/Core/XMEGA/../XMEGA/../XMEGA/Endpoint_XMEGA.h **** 		#include "../USBController.h"
  80:LUFA//Drivers/USB/Core/XMEGA/../XMEGA/../XMEGA/Endpoint_XMEGA.h **** 
  81:LUFA//Drivers/USB/Core/XMEGA/../XMEGA/../XMEGA/Endpoint_XMEGA.h **** 	/* Enable C linkage for C++ Compilers: */
  82:LUFA//Drivers/USB/Core/XMEGA/../XMEGA/../XMEGA/Endpoint_XMEGA.h **** 		#if defined(__cplusplus)
  83:LUFA//Drivers/USB/Core/XMEGA/../XMEGA/../XMEGA/Endpoint_XMEGA.h **** 			extern "C" {
  84:LUFA//Drivers/USB/Core/XMEGA/../XMEGA/../XMEGA/Endpoint_XMEGA.h **** 		#endif
  85:LUFA//Drivers/USB/Core/XMEGA/../XMEGA/../XMEGA/Endpoint_XMEGA.h **** 
  86:LUFA//Drivers/USB/Core/XMEGA/../XMEGA/../XMEGA/Endpoint_XMEGA.h **** 	/* Preprocessor Checks: */
  87:LUFA//Drivers/USB/Core/XMEGA/../XMEGA/../XMEGA/Endpoint_XMEGA.h **** 		#if !defined(__INCLUDE_FROM_USB_DRIVER)
  88:LUFA//Drivers/USB/Core/XMEGA/../XMEGA/../XMEGA/Endpoint_XMEGA.h **** 			#error Do not include this file directly. Include LUFA/Drivers/USB/USB.h instead.
  89:LUFA//Drivers/USB/Core/XMEGA/../XMEGA/../XMEGA/Endpoint_XMEGA.h **** 		#endif
  90:LUFA//Drivers/USB/Core/XMEGA/../XMEGA/../XMEGA/Endpoint_XMEGA.h **** 
  91:LUFA//Drivers/USB/Core/XMEGA/../XMEGA/../XMEGA/Endpoint_XMEGA.h **** 	/* Public Interface - May be used in end-application: */
  92:LUFA//Drivers/USB/Core/XMEGA/../XMEGA/../XMEGA/Endpoint_XMEGA.h **** 		/* Macros: */
  93:LUFA//Drivers/USB/Core/XMEGA/../XMEGA/../XMEGA/Endpoint_XMEGA.h **** 			#if (!defined(MAX_ENDPOINT_INDEX) && !defined(CONTROL_ONLY_DEVICE)) || defined(__DOXYGEN__)
  94:LUFA//Drivers/USB/Core/XMEGA/../XMEGA/../XMEGA/Endpoint_XMEGA.h **** 				/** Total number of endpoints (including the default control endpoint at address 0) which may
  95:LUFA//Drivers/USB/Core/XMEGA/../XMEGA/../XMEGA/Endpoint_XMEGA.h **** 				 *  be used in the device. Different USB AVR models support different amounts of endpoints,
  96:LUFA//Drivers/USB/Core/XMEGA/../XMEGA/../XMEGA/Endpoint_XMEGA.h **** 				 *  this value reflects the maximum number of endpoints for the currently selected AVR model.
  97:LUFA//Drivers/USB/Core/XMEGA/../XMEGA/../XMEGA/Endpoint_XMEGA.h **** 				 */
  98:LUFA//Drivers/USB/Core/XMEGA/../XMEGA/../XMEGA/Endpoint_XMEGA.h **** 				#define ENDPOINT_TOTAL_ENDPOINTS            16
  99:LUFA//Drivers/USB/Core/XMEGA/../XMEGA/../XMEGA/Endpoint_XMEGA.h **** 			#else
 100:LUFA//Drivers/USB/Core/XMEGA/../XMEGA/../XMEGA/Endpoint_XMEGA.h **** 				#if defined(CONTROL_ONLY_DEVICE)
 101:LUFA//Drivers/USB/Core/XMEGA/../XMEGA/../XMEGA/Endpoint_XMEGA.h **** 					#define ENDPOINT_TOTAL_ENDPOINTS        1
 102:LUFA//Drivers/USB/Core/XMEGA/../XMEGA/../XMEGA/Endpoint_XMEGA.h **** 				#else
 103:LUFA//Drivers/USB/Core/XMEGA/../XMEGA/../XMEGA/Endpoint_XMEGA.h **** 					#define ENDPOINT_TOTAL_ENDPOINTS        (MAX_ENDPOINT_INDEX + 1)
 104:LUFA//Drivers/USB/Core/XMEGA/../XMEGA/../XMEGA/Endpoint_XMEGA.h **** 				#endif
 105:LUFA//Drivers/USB/Core/XMEGA/../XMEGA/../XMEGA/Endpoint_XMEGA.h **** 			#endif
 106:LUFA//Drivers/USB/Core/XMEGA/../XMEGA/../XMEGA/Endpoint_XMEGA.h **** 
 107:LUFA//Drivers/USB/Core/XMEGA/../XMEGA/../XMEGA/Endpoint_XMEGA.h **** 	/* Private Interface - For use in library only: */
 108:LUFA//Drivers/USB/Core/XMEGA/../XMEGA/../XMEGA/Endpoint_XMEGA.h **** 	#if !defined(__DOXYGEN__)
 109:LUFA//Drivers/USB/Core/XMEGA/../XMEGA/../XMEGA/Endpoint_XMEGA.h **** 		/* Type Defines: */
 110:LUFA//Drivers/USB/Core/XMEGA/../XMEGA/../XMEGA/Endpoint_XMEGA.h **** 			typedef struct
 111:LUFA//Drivers/USB/Core/XMEGA/../XMEGA/../XMEGA/Endpoint_XMEGA.h **** 			{
 112:LUFA//Drivers/USB/Core/XMEGA/../XMEGA/../XMEGA/Endpoint_XMEGA.h **** 				uint8_t Data[64];
 113:LUFA//Drivers/USB/Core/XMEGA/../XMEGA/../XMEGA/Endpoint_XMEGA.h **** 
 114:LUFA//Drivers/USB/Core/XMEGA/../XMEGA/../XMEGA/Endpoint_XMEGA.h **** 				uint8_t Length;
 115:LUFA//Drivers/USB/Core/XMEGA/../XMEGA/../XMEGA/Endpoint_XMEGA.h **** 				uint8_t Position;
 116:LUFA//Drivers/USB/Core/XMEGA/../XMEGA/../XMEGA/Endpoint_XMEGA.h **** 			} Endpoint_FIFO_t;
 117:LUFA//Drivers/USB/Core/XMEGA/../XMEGA/../XMEGA/Endpoint_XMEGA.h **** 
 118:LUFA//Drivers/USB/Core/XMEGA/../XMEGA/../XMEGA/Endpoint_XMEGA.h **** 			typedef struct
 119:LUFA//Drivers/USB/Core/XMEGA/../XMEGA/../XMEGA/Endpoint_XMEGA.h **** 			{
 120:LUFA//Drivers/USB/Core/XMEGA/../XMEGA/../XMEGA/Endpoint_XMEGA.h **** 				Endpoint_FIFO_t OUT;
 121:LUFA//Drivers/USB/Core/XMEGA/../XMEGA/../XMEGA/Endpoint_XMEGA.h **** 				Endpoint_FIFO_t IN;
 122:LUFA//Drivers/USB/Core/XMEGA/../XMEGA/../XMEGA/Endpoint_XMEGA.h **** 			} Endpoint_FIFOPair_t;
 123:LUFA//Drivers/USB/Core/XMEGA/../XMEGA/../XMEGA/Endpoint_XMEGA.h **** 
 124:LUFA//Drivers/USB/Core/XMEGA/../XMEGA/../XMEGA/Endpoint_XMEGA.h **** 		/* External Variables: */
 125:LUFA//Drivers/USB/Core/XMEGA/../XMEGA/../XMEGA/Endpoint_XMEGA.h **** 			extern Endpoint_FIFOPair_t       USB_Endpoint_FIFOs[ENDPOINT_TOTAL_ENDPOINTS];
 126:LUFA//Drivers/USB/Core/XMEGA/../XMEGA/../XMEGA/Endpoint_XMEGA.h **** 			extern volatile uint8_t          USB_Endpoint_SelectedEndpoint;
 127:LUFA//Drivers/USB/Core/XMEGA/../XMEGA/../XMEGA/Endpoint_XMEGA.h **** 			extern volatile USB_EP_t*        USB_Endpoint_SelectedHandle;
 128:LUFA//Drivers/USB/Core/XMEGA/../XMEGA/../XMEGA/Endpoint_XMEGA.h **** 			extern volatile Endpoint_FIFO_t* USB_Endpoint_SelectedFIFO;
 129:LUFA//Drivers/USB/Core/XMEGA/../XMEGA/../XMEGA/Endpoint_XMEGA.h **** 
 130:LUFA//Drivers/USB/Core/XMEGA/../XMEGA/../XMEGA/Endpoint_XMEGA.h **** 		/* Inline Functions: */
 131:LUFA//Drivers/USB/Core/XMEGA/../XMEGA/../XMEGA/Endpoint_XMEGA.h **** 			static inline uint8_t Endpoint_BytesToEPSizeMask(const uint16_t Bytes) ATTR_WARN_UNUSED_RESULT A
 132:LUFA//Drivers/USB/Core/XMEGA/../XMEGA/../XMEGA/Endpoint_XMEGA.h **** 			                                                                       ATTR_ALWAYS_INLINE;
 133:LUFA//Drivers/USB/Core/XMEGA/../XMEGA/../XMEGA/Endpoint_XMEGA.h **** 			static inline uint8_t Endpoint_BytesToEPSizeMask(const uint16_t Bytes)
 134:LUFA//Drivers/USB/Core/XMEGA/../XMEGA/../XMEGA/Endpoint_XMEGA.h **** 			{
 135:LUFA//Drivers/USB/Core/XMEGA/../XMEGA/../XMEGA/Endpoint_XMEGA.h **** 				uint8_t  MaskVal    = 0;
 136:LUFA//Drivers/USB/Core/XMEGA/../XMEGA/../XMEGA/Endpoint_XMEGA.h **** 				uint16_t CheckBytes = 8;
 137:LUFA//Drivers/USB/Core/XMEGA/../XMEGA/../XMEGA/Endpoint_XMEGA.h **** 
 138:LUFA//Drivers/USB/Core/XMEGA/../XMEGA/../XMEGA/Endpoint_XMEGA.h **** 				while (CheckBytes < Bytes)
 139:LUFA//Drivers/USB/Core/XMEGA/../XMEGA/../XMEGA/Endpoint_XMEGA.h **** 				{
 140:LUFA//Drivers/USB/Core/XMEGA/../XMEGA/../XMEGA/Endpoint_XMEGA.h **** 					MaskVal++;
 141:LUFA//Drivers/USB/Core/XMEGA/../XMEGA/../XMEGA/Endpoint_XMEGA.h **** 					CheckBytes <<= 1;
 142:LUFA//Drivers/USB/Core/XMEGA/../XMEGA/../XMEGA/Endpoint_XMEGA.h **** 				}
 143:LUFA//Drivers/USB/Core/XMEGA/../XMEGA/../XMEGA/Endpoint_XMEGA.h **** 
 144:LUFA//Drivers/USB/Core/XMEGA/../XMEGA/../XMEGA/Endpoint_XMEGA.h **** 				return (MaskVal << USB_EP_BUFSIZE_gp);
 145:LUFA//Drivers/USB/Core/XMEGA/../XMEGA/../XMEGA/Endpoint_XMEGA.h **** 			}
 146:LUFA//Drivers/USB/Core/XMEGA/../XMEGA/../XMEGA/Endpoint_XMEGA.h **** 
 147:LUFA//Drivers/USB/Core/XMEGA/../XMEGA/../XMEGA/Endpoint_XMEGA.h **** 		/* Function Prototypes: */
 148:LUFA//Drivers/USB/Core/XMEGA/../XMEGA/../XMEGA/Endpoint_XMEGA.h **** 			bool Endpoint_ConfigureEndpoint_PRV(const uint8_t Address,
 149:LUFA//Drivers/USB/Core/XMEGA/../XMEGA/../XMEGA/Endpoint_XMEGA.h **** 			                                    const uint8_t Config,
 150:LUFA//Drivers/USB/Core/XMEGA/../XMEGA/../XMEGA/Endpoint_XMEGA.h **** 			                                    const uint8_t Size);
 151:LUFA//Drivers/USB/Core/XMEGA/../XMEGA/../XMEGA/Endpoint_XMEGA.h **** 			void Endpoint_ClearEndpoints(void);
 152:LUFA//Drivers/USB/Core/XMEGA/../XMEGA/../XMEGA/Endpoint_XMEGA.h **** 	#endif
 153:LUFA//Drivers/USB/Core/XMEGA/../XMEGA/../XMEGA/Endpoint_XMEGA.h **** 
 154:LUFA//Drivers/USB/Core/XMEGA/../XMEGA/../XMEGA/Endpoint_XMEGA.h **** 	/* Public Interface - May be used in end-application: */
 155:LUFA//Drivers/USB/Core/XMEGA/../XMEGA/../XMEGA/Endpoint_XMEGA.h **** 		/* Macros: */
 156:LUFA//Drivers/USB/Core/XMEGA/../XMEGA/../XMEGA/Endpoint_XMEGA.h **** 			#if (!defined(FIXED_CONTROL_ENDPOINT_SIZE) || defined(__DOXYGEN__))
 157:LUFA//Drivers/USB/Core/XMEGA/../XMEGA/../XMEGA/Endpoint_XMEGA.h **** 				/** Default size of the default control endpoint's bank, until altered by the control endpoint 
 158:LUFA//Drivers/USB/Core/XMEGA/../XMEGA/../XMEGA/Endpoint_XMEGA.h **** 				 *  value in the device descriptor. Not available if the \c FIXED_CONTROL_ENDPOINT_SIZE token i
 159:LUFA//Drivers/USB/Core/XMEGA/../XMEGA/../XMEGA/Endpoint_XMEGA.h **** 				 */
 160:LUFA//Drivers/USB/Core/XMEGA/../XMEGA/../XMEGA/Endpoint_XMEGA.h **** 				#define ENDPOINT_CONTROLEP_DEFAULT_SIZE     8
 161:LUFA//Drivers/USB/Core/XMEGA/../XMEGA/../XMEGA/Endpoint_XMEGA.h **** 			#endif
 162:LUFA//Drivers/USB/Core/XMEGA/../XMEGA/../XMEGA/Endpoint_XMEGA.h **** 
 163:LUFA//Drivers/USB/Core/XMEGA/../XMEGA/../XMEGA/Endpoint_XMEGA.h **** 		/* Enums: */
 164:LUFA//Drivers/USB/Core/XMEGA/../XMEGA/../XMEGA/Endpoint_XMEGA.h **** 			/** Enum for the possible error return codes of the \ref Endpoint_WaitUntilReady() function.
 165:LUFA//Drivers/USB/Core/XMEGA/../XMEGA/../XMEGA/Endpoint_XMEGA.h **** 			 *
 166:LUFA//Drivers/USB/Core/XMEGA/../XMEGA/../XMEGA/Endpoint_XMEGA.h **** 			 *  \ingroup Group_EndpointRW_XMEGA
 167:LUFA//Drivers/USB/Core/XMEGA/../XMEGA/../XMEGA/Endpoint_XMEGA.h **** 			 */
 168:LUFA//Drivers/USB/Core/XMEGA/../XMEGA/../XMEGA/Endpoint_XMEGA.h **** 			enum Endpoint_WaitUntilReady_ErrorCodes_t
 169:LUFA//Drivers/USB/Core/XMEGA/../XMEGA/../XMEGA/Endpoint_XMEGA.h **** 			{
 170:LUFA//Drivers/USB/Core/XMEGA/../XMEGA/../XMEGA/Endpoint_XMEGA.h **** 				ENDPOINT_READYWAIT_NoError                 = 0, /**< Endpoint is ready for next packet, no erro
 171:LUFA//Drivers/USB/Core/XMEGA/../XMEGA/../XMEGA/Endpoint_XMEGA.h **** 				ENDPOINT_READYWAIT_EndpointStalled         = 1, /**< The endpoint was stalled during the stream
 172:LUFA//Drivers/USB/Core/XMEGA/../XMEGA/../XMEGA/Endpoint_XMEGA.h **** 				                                                 *   transfer by the host or device.
 173:LUFA//Drivers/USB/Core/XMEGA/../XMEGA/../XMEGA/Endpoint_XMEGA.h **** 				                                                 */
 174:LUFA//Drivers/USB/Core/XMEGA/../XMEGA/../XMEGA/Endpoint_XMEGA.h **** 				ENDPOINT_READYWAIT_DeviceDisconnected      = 2,	/**< Device was disconnected from the host whil
 175:LUFA//Drivers/USB/Core/XMEGA/../XMEGA/../XMEGA/Endpoint_XMEGA.h **** 				                                                 *   waiting for the endpoint to become ready.
 176:LUFA//Drivers/USB/Core/XMEGA/../XMEGA/../XMEGA/Endpoint_XMEGA.h **** 				                                                 */
 177:LUFA//Drivers/USB/Core/XMEGA/../XMEGA/../XMEGA/Endpoint_XMEGA.h **** 				ENDPOINT_READYWAIT_BusSuspended            = 3, /**< The USB bus has been suspended by the host
 178:LUFA//Drivers/USB/Core/XMEGA/../XMEGA/../XMEGA/Endpoint_XMEGA.h **** 				                                                 *   no USB endpoint traffic can occur until th
 179:LUFA//Drivers/USB/Core/XMEGA/../XMEGA/../XMEGA/Endpoint_XMEGA.h **** 				                                                 *   has resumed.
 180:LUFA//Drivers/USB/Core/XMEGA/../XMEGA/../XMEGA/Endpoint_XMEGA.h **** 				                                                 */
 181:LUFA//Drivers/USB/Core/XMEGA/../XMEGA/../XMEGA/Endpoint_XMEGA.h **** 				ENDPOINT_READYWAIT_Timeout                 = 4, /**< The host failed to accept or send the next
 182:LUFA//Drivers/USB/Core/XMEGA/../XMEGA/../XMEGA/Endpoint_XMEGA.h **** 				                                                 *   within the software timeout period set by 
 183:LUFA//Drivers/USB/Core/XMEGA/../XMEGA/../XMEGA/Endpoint_XMEGA.h **** 				                                                 *   \ref USB_STREAM_TIMEOUT_MS macro.
 184:LUFA//Drivers/USB/Core/XMEGA/../XMEGA/../XMEGA/Endpoint_XMEGA.h **** 				                                                 */
 185:LUFA//Drivers/USB/Core/XMEGA/../XMEGA/../XMEGA/Endpoint_XMEGA.h **** 			};
 186:LUFA//Drivers/USB/Core/XMEGA/../XMEGA/../XMEGA/Endpoint_XMEGA.h **** 
 187:LUFA//Drivers/USB/Core/XMEGA/../XMEGA/../XMEGA/Endpoint_XMEGA.h **** 		/* Inline Functions: */
 188:LUFA//Drivers/USB/Core/XMEGA/../XMEGA/../XMEGA/Endpoint_XMEGA.h **** 			/** Selects the given endpoint address.
 189:LUFA//Drivers/USB/Core/XMEGA/../XMEGA/../XMEGA/Endpoint_XMEGA.h **** 			 *
 190:LUFA//Drivers/USB/Core/XMEGA/../XMEGA/../XMEGA/Endpoint_XMEGA.h **** 			 *  Any endpoint operations which do not require the endpoint address to be indicated will opera
 191:LUFA//Drivers/USB/Core/XMEGA/../XMEGA/../XMEGA/Endpoint_XMEGA.h **** 			 *  the currently selected endpoint.
 192:LUFA//Drivers/USB/Core/XMEGA/../XMEGA/../XMEGA/Endpoint_XMEGA.h **** 			 *
 193:LUFA//Drivers/USB/Core/XMEGA/../XMEGA/../XMEGA/Endpoint_XMEGA.h **** 			 *  \param[in] Address  Endpoint address to select.
 194:LUFA//Drivers/USB/Core/XMEGA/../XMEGA/../XMEGA/Endpoint_XMEGA.h **** 			 */
 195:LUFA//Drivers/USB/Core/XMEGA/../XMEGA/../XMEGA/Endpoint_XMEGA.h **** 			static inline void Endpoint_SelectEndpoint(const uint8_t Address);
 196:LUFA//Drivers/USB/Core/XMEGA/../XMEGA/../XMEGA/Endpoint_XMEGA.h **** 			static inline void Endpoint_SelectEndpoint(const uint8_t Address)
 197:LUFA//Drivers/USB/Core/XMEGA/../XMEGA/../XMEGA/Endpoint_XMEGA.h **** 			{
  18               		.loc 1 197 0
  19               		.cfi_startproc
  20               	.LVL0:
  21               	/* prologue: function */
  22               	/* frame size = 0 */
  23               	/* stack size = 0 */
  24               	.L__stack_usage = 0
 198:LUFA//Drivers/USB/Core/XMEGA/../XMEGA/../XMEGA/Endpoint_XMEGA.h **** 				uint8_t EndpointNumber = (Address & ENDPOINT_EPNUM_MASK);
  25               		.loc 1 198 0
  26 0000 282F      		mov r18,r24
  27 0002 2F70      		andi r18,lo8(15)
  28               	.LVL1:
 199:LUFA//Drivers/USB/Core/XMEGA/../XMEGA/../XMEGA/Endpoint_XMEGA.h **** 
 200:LUFA//Drivers/USB/Core/XMEGA/../XMEGA/../XMEGA/Endpoint_XMEGA.h **** 				USB_Endpoint_SelectedEndpoint = Address;
  29               		.loc 1 200 0
  30 0004 8093 0000 		sts USB_Endpoint_SelectedEndpoint,r24
  31 0008 30E0      		ldi r19,lo8(0)
 201:LUFA//Drivers/USB/Core/XMEGA/../XMEGA/../XMEGA/Endpoint_XMEGA.h **** 
 202:LUFA//Drivers/USB/Core/XMEGA/../XMEGA/../XMEGA/Endpoint_XMEGA.h **** 				if (Address & ENDPOINT_DIR_IN)
 203:LUFA//Drivers/USB/Core/XMEGA/../XMEGA/../XMEGA/Endpoint_XMEGA.h **** 				{
 204:LUFA//Drivers/USB/Core/XMEGA/../XMEGA/../XMEGA/Endpoint_XMEGA.h **** 					USB_Endpoint_SelectedFIFO   = &USB_Endpoint_FIFOs[EndpointNumber].IN;
  32               		.loc 1 204 0
  33 000a 44E8      		ldi r20,lo8(132)
  34 000c 50E0      		ldi r21,hi8(132)
 202:LUFA//Drivers/USB/Core/XMEGA/../XMEGA/../XMEGA/Endpoint_XMEGA.h **** 				if (Address & ENDPOINT_DIR_IN)
  35               		.loc 1 202 0
  36 000e 87FF      		sbrs r24,7
  37 0010 00C0      		rjmp .L2
  38               		.loc 1 204 0
  39 0012 249F      		mul r18,r20
  40 0014 C001      		movw r24,r0
  41 0016 259F      		mul r18,r21
  42 0018 900D      		add r25,r0
  43 001a 349F      		mul r19,r20
  44 001c 900D      		add r25,r0
  45 001e 1124      		clr r1
  46               	.LVL2:
  47 0020 8050      		subi r24,lo8(-(USB_Endpoint_FIFOs+66))
  48 0022 9040      		sbci r25,hi8(-(USB_Endpoint_FIFOs+66))
  49 0024 8093 0000 		sts USB_Endpoint_SelectedFIFO,r24
  50 0028 9093 0000 		sts USB_Endpoint_SelectedFIFO+1,r25
 205:LUFA//Drivers/USB/Core/XMEGA/../XMEGA/../XMEGA/Endpoint_XMEGA.h **** 					USB_Endpoint_SelectedHandle = &((USB_EndpointTable_t*)USB.EPPTR)->Endpoints[EndpointNumber].IN
  51               		.loc 1 205 0
  52 002c 8091 C604 		lds r24,1222
  53 0030 9091 C704 		lds r25,1222+1
  54 0034 74E0      		ldi r23,4
  55 0036 220F      	1:	lsl r18
  56 0038 331F      		rol r19
  57 003a 7A95      		dec r23
  58 003c 01F4      		brne 1b
  59               	.LVL3:
  60 003e 285F      		subi r18,lo8(-(8))
  61 0040 3F4F      		sbci r19,hi8(-(8))
  62 0042 00C0      		rjmp .L4
  63               	.LVL4:
  64               	.L2:
 206:LUFA//Drivers/USB/Core/XMEGA/../XMEGA/../XMEGA/Endpoint_XMEGA.h **** 				}
 207:LUFA//Drivers/USB/Core/XMEGA/../XMEGA/../XMEGA/Endpoint_XMEGA.h **** 				else
 208:LUFA//Drivers/USB/Core/XMEGA/../XMEGA/../XMEGA/Endpoint_XMEGA.h **** 				{
 209:LUFA//Drivers/USB/Core/XMEGA/../XMEGA/../XMEGA/Endpoint_XMEGA.h **** 					USB_Endpoint_SelectedFIFO   = &USB_Endpoint_FIFOs[EndpointNumber].OUT;
  65               		.loc 1 209 0
  66 0044 249F      		mul r18,r20
  67 0046 C001      		movw r24,r0
  68 0048 259F      		mul r18,r21
  69 004a 900D      		add r25,r0
  70 004c 349F      		mul r19,r20
  71 004e 900D      		add r25,r0
  72 0050 1124      		clr r1
  73 0052 8050      		subi r24,lo8(-(USB_Endpoint_FIFOs))
  74 0054 9040      		sbci r25,hi8(-(USB_Endpoint_FIFOs))
  75 0056 8093 0000 		sts USB_Endpoint_SelectedFIFO,r24
  76 005a 9093 0000 		sts USB_Endpoint_SelectedFIFO+1,r25
 210:LUFA//Drivers/USB/Core/XMEGA/../XMEGA/../XMEGA/Endpoint_XMEGA.h **** 					USB_Endpoint_SelectedHandle = &((USB_EndpointTable_t*)USB.EPPTR)->Endpoints[EndpointNumber].OU
  77               		.loc 1 210 0
  78 005e 8091 C604 		lds r24,1222
  79 0062 9091 C704 		lds r25,1222+1
  80 0066 64E0      		ldi r22,4
  81 0068 220F      	1:	lsl r18
  82 006a 331F      		rol r19
  83 006c 6A95      		dec r22
  84 006e 01F4      		brne 1b
  85               	.LVL5:
  86               	.L4:
  87 0070 820F      		add r24,r18
  88 0072 931F      		adc r25,r19
  89 0074 8093 0000 		sts USB_Endpoint_SelectedHandle,r24
  90 0078 9093 0000 		sts USB_Endpoint_SelectedHandle+1,r25
  91 007c 0895      		ret
  92               		.cfi_endproc
  93               	.LFE22:
  95               		.section	.text.Endpoint_Discard_Stream,"ax",@progbits
  96               	.global	Endpoint_Discard_Stream
  98               	Endpoint_Discard_Stream:
  99               	.LFB68:
 100               		.file 2 "LUFA//Drivers/USB/Core/XMEGA/EndpointStream_XMEGA.c"
   1:LUFA//Drivers/USB/Core/XMEGA/EndpointStream_XMEGA.c **** /*
   2:LUFA//Drivers/USB/Core/XMEGA/EndpointStream_XMEGA.c ****              LUFA Library
   3:LUFA//Drivers/USB/Core/XMEGA/EndpointStream_XMEGA.c ****      Copyright (C) Dean Camera, 2012.
   4:LUFA//Drivers/USB/Core/XMEGA/EndpointStream_XMEGA.c ****               
   5:LUFA//Drivers/USB/Core/XMEGA/EndpointStream_XMEGA.c ****   dean [at] fourwalledcubicle [dot] com
   6:LUFA//Drivers/USB/Core/XMEGA/EndpointStream_XMEGA.c ****            www.lufa-lib.org
   7:LUFA//Drivers/USB/Core/XMEGA/EndpointStream_XMEGA.c **** */
   8:LUFA//Drivers/USB/Core/XMEGA/EndpointStream_XMEGA.c **** 
   9:LUFA//Drivers/USB/Core/XMEGA/EndpointStream_XMEGA.c **** /*
  10:LUFA//Drivers/USB/Core/XMEGA/EndpointStream_XMEGA.c ****   Copyright 2012  Dean Camera (dean [at] fourwalledcubicle [dot] com)
  11:LUFA//Drivers/USB/Core/XMEGA/EndpointStream_XMEGA.c **** 
  12:LUFA//Drivers/USB/Core/XMEGA/EndpointStream_XMEGA.c ****   Permission to use, copy, modify, distribute, and sell this 
  13:LUFA//Drivers/USB/Core/XMEGA/EndpointStream_XMEGA.c ****   software and its documentation for any purpose is hereby granted
  14:LUFA//Drivers/USB/Core/XMEGA/EndpointStream_XMEGA.c ****   without fee, provided that the above copyright notice appear in 
  15:LUFA//Drivers/USB/Core/XMEGA/EndpointStream_XMEGA.c ****   all copies and that both that the copyright notice and this
  16:LUFA//Drivers/USB/Core/XMEGA/EndpointStream_XMEGA.c ****   permission notice and warranty disclaimer appear in supporting 
  17:LUFA//Drivers/USB/Core/XMEGA/EndpointStream_XMEGA.c ****   documentation, and that the name of the author not be used in 
  18:LUFA//Drivers/USB/Core/XMEGA/EndpointStream_XMEGA.c ****   advertising or publicity pertaining to distribution of the 
  19:LUFA//Drivers/USB/Core/XMEGA/EndpointStream_XMEGA.c ****   software without specific, written prior permission.
  20:LUFA//Drivers/USB/Core/XMEGA/EndpointStream_XMEGA.c **** 
  21:LUFA//Drivers/USB/Core/XMEGA/EndpointStream_XMEGA.c ****   The author disclaim all warranties with regard to this
  22:LUFA//Drivers/USB/Core/XMEGA/EndpointStream_XMEGA.c ****   software, including all implied warranties of merchantability
  23:LUFA//Drivers/USB/Core/XMEGA/EndpointStream_XMEGA.c ****   and fitness.  In no event shall the author be liable for any
  24:LUFA//Drivers/USB/Core/XMEGA/EndpointStream_XMEGA.c ****   special, indirect or consequential damages or any damages
  25:LUFA//Drivers/USB/Core/XMEGA/EndpointStream_XMEGA.c ****   whatsoever resulting from loss of use, data or profits, whether
  26:LUFA//Drivers/USB/Core/XMEGA/EndpointStream_XMEGA.c ****   in an action of contract, negligence or other tortious action,
  27:LUFA//Drivers/USB/Core/XMEGA/EndpointStream_XMEGA.c ****   arising out of or in connection with the use or performance of
  28:LUFA//Drivers/USB/Core/XMEGA/EndpointStream_XMEGA.c ****   this software.
  29:LUFA//Drivers/USB/Core/XMEGA/EndpointStream_XMEGA.c **** */
  30:LUFA//Drivers/USB/Core/XMEGA/EndpointStream_XMEGA.c **** 
  31:LUFA//Drivers/USB/Core/XMEGA/EndpointStream_XMEGA.c **** #include "../../../../Common/Common.h"
  32:LUFA//Drivers/USB/Core/XMEGA/EndpointStream_XMEGA.c **** #if (ARCH == ARCH_XMEGA)
  33:LUFA//Drivers/USB/Core/XMEGA/EndpointStream_XMEGA.c **** 
  34:LUFA//Drivers/USB/Core/XMEGA/EndpointStream_XMEGA.c **** #define  __INCLUDE_FROM_USB_DRIVER
  35:LUFA//Drivers/USB/Core/XMEGA/EndpointStream_XMEGA.c **** #include "../USBMode.h"
  36:LUFA//Drivers/USB/Core/XMEGA/EndpointStream_XMEGA.c **** 
  37:LUFA//Drivers/USB/Core/XMEGA/EndpointStream_XMEGA.c **** #if defined(USB_CAN_BE_DEVICE)
  38:LUFA//Drivers/USB/Core/XMEGA/EndpointStream_XMEGA.c **** 
  39:LUFA//Drivers/USB/Core/XMEGA/EndpointStream_XMEGA.c **** #include "EndpointStream_XMEGA.h"
  40:LUFA//Drivers/USB/Core/XMEGA/EndpointStream_XMEGA.c **** 
  41:LUFA//Drivers/USB/Core/XMEGA/EndpointStream_XMEGA.c **** #if !defined(CONTROL_ONLY_DEVICE)
  42:LUFA//Drivers/USB/Core/XMEGA/EndpointStream_XMEGA.c **** uint8_t Endpoint_Discard_Stream(uint16_t Length,
  43:LUFA//Drivers/USB/Core/XMEGA/EndpointStream_XMEGA.c ****                                 uint16_t* const BytesProcessed)
  44:LUFA//Drivers/USB/Core/XMEGA/EndpointStream_XMEGA.c **** {
 101               		.loc 2 44 0
 102               		.cfi_startproc
 103               	.LVL6:
 104 0000 CF92      		push r12
 105               	.LCFI0:
 106               		.cfi_def_cfa_offset 3
 107               		.cfi_offset 12, -2
 108 0002 DF92      		push r13
 109               	.LCFI1:
 110               		.cfi_def_cfa_offset 4
 111               		.cfi_offset 13, -3
 112 0004 EF92      		push r14
 113               	.LCFI2:
 114               		.cfi_def_cfa_offset 5
 115               		.cfi_offset 14, -4
 116 0006 FF92      		push r15
 117               	.LCFI3:
 118               		.cfi_def_cfa_offset 6
 119               		.cfi_offset 15, -5
 120 0008 0F93      		push r16
 121               	.LCFI4:
 122               		.cfi_def_cfa_offset 7
 123               		.cfi_offset 16, -6
 124 000a 1F93      		push r17
 125               	.LCFI5:
 126               		.cfi_def_cfa_offset 8
 127               		.cfi_offset 17, -7
 128 000c CF93      		push r28
 129               	.LCFI6:
 130               		.cfi_def_cfa_offset 9
 131               		.cfi_offset 28, -8
 132               	/* prologue: function */
 133               	/* frame size = 0 */
 134               	/* stack size = 7 */
 135               	.L__stack_usage = 7
 136 000e 8C01      		movw r16,r24
 137 0010 7B01      		movw r14,r22
 138               	.LVL7:
  45:LUFA//Drivers/USB/Core/XMEGA/EndpointStream_XMEGA.c **** 	uint8_t  ErrorCode;
  46:LUFA//Drivers/USB/Core/XMEGA/EndpointStream_XMEGA.c **** 	uint16_t BytesInTransfer = 0;
  47:LUFA//Drivers/USB/Core/XMEGA/EndpointStream_XMEGA.c **** 	
  48:LUFA//Drivers/USB/Core/XMEGA/EndpointStream_XMEGA.c **** 	if ((ErrorCode = Endpoint_WaitUntilReady()))
 139               		.loc 2 48 0
 140 0012 0E94 0000 		call Endpoint_WaitUntilReady
 141               	.LVL8:
 142 0016 C82F      		mov r28,r24
 143               	.LVL9:
 144 0018 8823      		tst r24
 145 001a 01F0      		breq .+2
 146 001c 00C0      		rjmp .L6
  49:LUFA//Drivers/USB/Core/XMEGA/EndpointStream_XMEGA.c **** 	  return ErrorCode;
  50:LUFA//Drivers/USB/Core/XMEGA/EndpointStream_XMEGA.c **** 	  
  51:LUFA//Drivers/USB/Core/XMEGA/EndpointStream_XMEGA.c **** 	if (BytesProcessed != NULL)
 147               		.loc 2 51 0
 148 001e E114      		cp r14,__zero_reg__
 149 0020 F104      		cpc r15,__zero_reg__
 150 0022 01F0      		breq .L7
  52:LUFA//Drivers/USB/Core/XMEGA/EndpointStream_XMEGA.c **** 	  Length -= *BytesProcessed;
 151               		.loc 2 52 0
 152 0024 D701      		movw r26,r14
 153 0026 8D91      		ld r24,X+
 154 0028 9C91      		ld r25,X
 155 002a 1197      		sbiw r26,1
 156               	.LVL10:
 157 002c 081B      		sub r16,r24
 158 002e 190B      		sbc r17,r25
 159               	.LVL11:
 160               	.L7:
  44:LUFA//Drivers/USB/Core/XMEGA/EndpointStream_XMEGA.c **** {
 161               		.loc 2 44 0 discriminator 1
 162 0030 CC24      		clr r12
 163 0032 DD24      		clr r13
 164 0034 00C0      		rjmp .L14
 165               	.LVL12:
 166               	.L12:
 167               	.LBB256:
 168               	.LBB257:
 211:LUFA//Drivers/USB/Core/XMEGA/../XMEGA/../XMEGA/Endpoint_XMEGA.h **** 				}
 212:LUFA//Drivers/USB/Core/XMEGA/../XMEGA/../XMEGA/Endpoint_XMEGA.h **** 			}
 213:LUFA//Drivers/USB/Core/XMEGA/../XMEGA/../XMEGA/Endpoint_XMEGA.h **** 
 214:LUFA//Drivers/USB/Core/XMEGA/../XMEGA/../XMEGA/Endpoint_XMEGA.h **** 			/** Configures the specified endpoint address with the given endpoint type, direction, bank size
 215:LUFA//Drivers/USB/Core/XMEGA/../XMEGA/../XMEGA/Endpoint_XMEGA.h **** 			 *  and banking mode. Once configured, the endpoint may be read from or written to, depending
 216:LUFA//Drivers/USB/Core/XMEGA/../XMEGA/../XMEGA/Endpoint_XMEGA.h **** 			 *  on its direction.
 217:LUFA//Drivers/USB/Core/XMEGA/../XMEGA/../XMEGA/Endpoint_XMEGA.h **** 			 *
 218:LUFA//Drivers/USB/Core/XMEGA/../XMEGA/../XMEGA/Endpoint_XMEGA.h **** 			 *  \param[in] Address    Endpoint address to configure.
 219:LUFA//Drivers/USB/Core/XMEGA/../XMEGA/../XMEGA/Endpoint_XMEGA.h **** 			 *
 220:LUFA//Drivers/USB/Core/XMEGA/../XMEGA/../XMEGA/Endpoint_XMEGA.h **** 			 *  \param[in] Type       Type of endpoint to configure, a \c EP_TYPE_* mask. Not all endpoint t
 221:LUFA//Drivers/USB/Core/XMEGA/../XMEGA/../XMEGA/Endpoint_XMEGA.h **** 			 *                        are available on Low Speed USB devices - refer to the USB 2.0 specific
 222:LUFA//Drivers/USB/Core/XMEGA/../XMEGA/../XMEGA/Endpoint_XMEGA.h **** 			 *
 223:LUFA//Drivers/USB/Core/XMEGA/../XMEGA/../XMEGA/Endpoint_XMEGA.h **** 			 *  \param[in] Size       Size of the endpoint's bank, where packets are stored before they are 
 224:LUFA//Drivers/USB/Core/XMEGA/../XMEGA/../XMEGA/Endpoint_XMEGA.h **** 			 *                        to the USB host, or after they have been received from the USB host (d
 225:LUFA//Drivers/USB/Core/XMEGA/../XMEGA/../XMEGA/Endpoint_XMEGA.h **** 			 *                        the endpoint's data direction). The bank size must indicate the maximu
 226:LUFA//Drivers/USB/Core/XMEGA/../XMEGA/../XMEGA/Endpoint_XMEGA.h **** 			 *                        that the endpoint can handle.
 227:LUFA//Drivers/USB/Core/XMEGA/../XMEGA/../XMEGA/Endpoint_XMEGA.h **** 			 *
 228:LUFA//Drivers/USB/Core/XMEGA/../XMEGA/../XMEGA/Endpoint_XMEGA.h **** 			 *  \param[in] Banks      Number of hardware banks to use for the endpoint being configured.
 229:LUFA//Drivers/USB/Core/XMEGA/../XMEGA/../XMEGA/Endpoint_XMEGA.h **** 			 *
 230:LUFA//Drivers/USB/Core/XMEGA/../XMEGA/../XMEGA/Endpoint_XMEGA.h **** 			 *  \note The default control endpoint should not be manually configured by the user application
 231:LUFA//Drivers/USB/Core/XMEGA/../XMEGA/../XMEGA/Endpoint_XMEGA.h **** 			 *        it is automatically configured by the library internally.
 232:LUFA//Drivers/USB/Core/XMEGA/../XMEGA/../XMEGA/Endpoint_XMEGA.h **** 			 *        \n\n
 233:LUFA//Drivers/USB/Core/XMEGA/../XMEGA/../XMEGA/Endpoint_XMEGA.h **** 			 *
 234:LUFA//Drivers/USB/Core/XMEGA/../XMEGA/../XMEGA/Endpoint_XMEGA.h **** 			 *  \note This routine will automatically select the specified endpoint.
 235:LUFA//Drivers/USB/Core/XMEGA/../XMEGA/../XMEGA/Endpoint_XMEGA.h **** 			 *
 236:LUFA//Drivers/USB/Core/XMEGA/../XMEGA/../XMEGA/Endpoint_XMEGA.h **** 			 *  \return Boolean \c true if the configuration succeeded, \c false otherwise.
 237:LUFA//Drivers/USB/Core/XMEGA/../XMEGA/../XMEGA/Endpoint_XMEGA.h **** 			 */
 238:LUFA//Drivers/USB/Core/XMEGA/../XMEGA/../XMEGA/Endpoint_XMEGA.h **** 			static inline bool Endpoint_ConfigureEndpoint(const uint8_t Address,
 239:LUFA//Drivers/USB/Core/XMEGA/../XMEGA/../XMEGA/Endpoint_XMEGA.h **** 			                                              const uint8_t Type,
 240:LUFA//Drivers/USB/Core/XMEGA/../XMEGA/../XMEGA/Endpoint_XMEGA.h **** 			                                              const uint16_t Size,
 241:LUFA//Drivers/USB/Core/XMEGA/../XMEGA/../XMEGA/Endpoint_XMEGA.h **** 			                                              const uint8_t Banks) ATTR_ALWAYS_INLINE;
 242:LUFA//Drivers/USB/Core/XMEGA/../XMEGA/../XMEGA/Endpoint_XMEGA.h **** 			static inline bool Endpoint_ConfigureEndpoint(const uint8_t Address,
 243:LUFA//Drivers/USB/Core/XMEGA/../XMEGA/../XMEGA/Endpoint_XMEGA.h **** 			                                              const uint8_t Type,
 244:LUFA//Drivers/USB/Core/XMEGA/../XMEGA/../XMEGA/Endpoint_XMEGA.h **** 			                                              const uint16_t Size,
 245:LUFA//Drivers/USB/Core/XMEGA/../XMEGA/../XMEGA/Endpoint_XMEGA.h **** 			                                              const uint8_t Banks)
 246:LUFA//Drivers/USB/Core/XMEGA/../XMEGA/../XMEGA/Endpoint_XMEGA.h **** 			{
 247:LUFA//Drivers/USB/Core/XMEGA/../XMEGA/../XMEGA/Endpoint_XMEGA.h **** 				uint8_t EPConfigMask = (USB_EP_INTDSBL_bm | ((Banks > 1) ? USB_EP_PINGPONG_bm : 0) | Endpoint_B
 248:LUFA//Drivers/USB/Core/XMEGA/../XMEGA/../XMEGA/Endpoint_XMEGA.h **** 
 249:LUFA//Drivers/USB/Core/XMEGA/../XMEGA/../XMEGA/Endpoint_XMEGA.h **** 				if ((Address & ENDPOINT_EPNUM_MASK) >= ENDPOINT_TOTAL_ENDPOINTS)
 250:LUFA//Drivers/USB/Core/XMEGA/../XMEGA/../XMEGA/Endpoint_XMEGA.h **** 				  return false;
 251:LUFA//Drivers/USB/Core/XMEGA/../XMEGA/../XMEGA/Endpoint_XMEGA.h **** 
 252:LUFA//Drivers/USB/Core/XMEGA/../XMEGA/../XMEGA/Endpoint_XMEGA.h **** 				// TODO - Fix once limitations are lifted
 253:LUFA//Drivers/USB/Core/XMEGA/../XMEGA/../XMEGA/Endpoint_XMEGA.h **** 				EPConfigMask &= ~USB_EP_PINGPONG_bm;
 254:LUFA//Drivers/USB/Core/XMEGA/../XMEGA/../XMEGA/Endpoint_XMEGA.h **** 				if (Size > 64)
 255:LUFA//Drivers/USB/Core/XMEGA/../XMEGA/../XMEGA/Endpoint_XMEGA.h **** 				  return false;
 256:LUFA//Drivers/USB/Core/XMEGA/../XMEGA/../XMEGA/Endpoint_XMEGA.h **** 
 257:LUFA//Drivers/USB/Core/XMEGA/../XMEGA/../XMEGA/Endpoint_XMEGA.h **** 				switch (Type)
 258:LUFA//Drivers/USB/Core/XMEGA/../XMEGA/../XMEGA/Endpoint_XMEGA.h **** 				{
 259:LUFA//Drivers/USB/Core/XMEGA/../XMEGA/../XMEGA/Endpoint_XMEGA.h **** 					case EP_TYPE_CONTROL:
 260:LUFA//Drivers/USB/Core/XMEGA/../XMEGA/../XMEGA/Endpoint_XMEGA.h **** 						EPConfigMask |= USB_EP_TYPE_CONTROL_gc;
 261:LUFA//Drivers/USB/Core/XMEGA/../XMEGA/../XMEGA/Endpoint_XMEGA.h **** 						break;
 262:LUFA//Drivers/USB/Core/XMEGA/../XMEGA/../XMEGA/Endpoint_XMEGA.h **** 					case EP_TYPE_ISOCHRONOUS:
 263:LUFA//Drivers/USB/Core/XMEGA/../XMEGA/../XMEGA/Endpoint_XMEGA.h **** 						EPConfigMask |= USB_EP_TYPE_ISOCHRONOUS_gc;
 264:LUFA//Drivers/USB/Core/XMEGA/../XMEGA/../XMEGA/Endpoint_XMEGA.h **** 						break;
 265:LUFA//Drivers/USB/Core/XMEGA/../XMEGA/../XMEGA/Endpoint_XMEGA.h **** 					default:
 266:LUFA//Drivers/USB/Core/XMEGA/../XMEGA/../XMEGA/Endpoint_XMEGA.h **** 						EPConfigMask |= USB_EP_TYPE_BULK_gc;
 267:LUFA//Drivers/USB/Core/XMEGA/../XMEGA/../XMEGA/Endpoint_XMEGA.h **** 						break;
 268:LUFA//Drivers/USB/Core/XMEGA/../XMEGA/../XMEGA/Endpoint_XMEGA.h **** 				}
 269:LUFA//Drivers/USB/Core/XMEGA/../XMEGA/../XMEGA/Endpoint_XMEGA.h **** 
 270:LUFA//Drivers/USB/Core/XMEGA/../XMEGA/../XMEGA/Endpoint_XMEGA.h **** 				if (Type == EP_TYPE_CONTROL)
 271:LUFA//Drivers/USB/Core/XMEGA/../XMEGA/../XMEGA/Endpoint_XMEGA.h **** 				  Endpoint_ConfigureEndpoint_PRV(Address ^ ENDPOINT_DIR_IN, EPConfigMask, Size);
 272:LUFA//Drivers/USB/Core/XMEGA/../XMEGA/../XMEGA/Endpoint_XMEGA.h **** 
 273:LUFA//Drivers/USB/Core/XMEGA/../XMEGA/../XMEGA/Endpoint_XMEGA.h **** 				return Endpoint_ConfigureEndpoint_PRV(Address, EPConfigMask, Size);
 274:LUFA//Drivers/USB/Core/XMEGA/../XMEGA/../XMEGA/Endpoint_XMEGA.h **** 			}
 275:LUFA//Drivers/USB/Core/XMEGA/../XMEGA/../XMEGA/Endpoint_XMEGA.h **** 
 276:LUFA//Drivers/USB/Core/XMEGA/../XMEGA/../XMEGA/Endpoint_XMEGA.h **** 			/** Indicates the number of bytes currently stored in the current endpoint's selected bank.
 277:LUFA//Drivers/USB/Core/XMEGA/../XMEGA/../XMEGA/Endpoint_XMEGA.h **** 			 *
 278:LUFA//Drivers/USB/Core/XMEGA/../XMEGA/../XMEGA/Endpoint_XMEGA.h **** 			 *  \ingroup Group_EndpointRW_XMEGA
 279:LUFA//Drivers/USB/Core/XMEGA/../XMEGA/../XMEGA/Endpoint_XMEGA.h **** 			 *
 280:LUFA//Drivers/USB/Core/XMEGA/../XMEGA/../XMEGA/Endpoint_XMEGA.h **** 			 *  \return Total number of bytes in the currently selected Endpoint's FIFO buffer.
 281:LUFA//Drivers/USB/Core/XMEGA/../XMEGA/../XMEGA/Endpoint_XMEGA.h **** 			 */
 282:LUFA//Drivers/USB/Core/XMEGA/../XMEGA/../XMEGA/Endpoint_XMEGA.h **** 			static inline uint16_t Endpoint_BytesInEndpoint(void) ATTR_WARN_UNUSED_RESULT ATTR_ALWAYS_INLINE
 283:LUFA//Drivers/USB/Core/XMEGA/../XMEGA/../XMEGA/Endpoint_XMEGA.h **** 			static inline uint16_t Endpoint_BytesInEndpoint(void)
 284:LUFA//Drivers/USB/Core/XMEGA/../XMEGA/../XMEGA/Endpoint_XMEGA.h **** 			{
 285:LUFA//Drivers/USB/Core/XMEGA/../XMEGA/../XMEGA/Endpoint_XMEGA.h **** 				if (USB_Endpoint_SelectedEndpoint & ENDPOINT_DIR_IN)
 286:LUFA//Drivers/USB/Core/XMEGA/../XMEGA/../XMEGA/Endpoint_XMEGA.h **** 				  return USB_Endpoint_SelectedFIFO->Position;
 287:LUFA//Drivers/USB/Core/XMEGA/../XMEGA/../XMEGA/Endpoint_XMEGA.h **** 				else
 288:LUFA//Drivers/USB/Core/XMEGA/../XMEGA/../XMEGA/Endpoint_XMEGA.h **** 				  return (USB_Endpoint_SelectedFIFO->Length - USB_Endpoint_SelectedFIFO->Position);
 289:LUFA//Drivers/USB/Core/XMEGA/../XMEGA/../XMEGA/Endpoint_XMEGA.h **** 			}
 290:LUFA//Drivers/USB/Core/XMEGA/../XMEGA/../XMEGA/Endpoint_XMEGA.h **** 
 291:LUFA//Drivers/USB/Core/XMEGA/../XMEGA/../XMEGA/Endpoint_XMEGA.h **** 			/** Get the endpoint address of the currently selected endpoint. This is typically used to save
 292:LUFA//Drivers/USB/Core/XMEGA/../XMEGA/../XMEGA/Endpoint_XMEGA.h **** 			 *  the currently selected endpoint so that it can be restored after another endpoint has been
 293:LUFA//Drivers/USB/Core/XMEGA/../XMEGA/../XMEGA/Endpoint_XMEGA.h **** 			 *  manipulated.
 294:LUFA//Drivers/USB/Core/XMEGA/../XMEGA/../XMEGA/Endpoint_XMEGA.h **** 			 *
 295:LUFA//Drivers/USB/Core/XMEGA/../XMEGA/../XMEGA/Endpoint_XMEGA.h **** 			 *  \return Index of the currently selected endpoint.
 296:LUFA//Drivers/USB/Core/XMEGA/../XMEGA/../XMEGA/Endpoint_XMEGA.h **** 			 */
 297:LUFA//Drivers/USB/Core/XMEGA/../XMEGA/../XMEGA/Endpoint_XMEGA.h **** 			static inline uint8_t Endpoint_GetCurrentEndpoint(void) ATTR_WARN_UNUSED_RESULT ATTR_ALWAYS_INLI
 298:LUFA//Drivers/USB/Core/XMEGA/../XMEGA/../XMEGA/Endpoint_XMEGA.h **** 			static inline uint8_t Endpoint_GetCurrentEndpoint(void)
 299:LUFA//Drivers/USB/Core/XMEGA/../XMEGA/../XMEGA/Endpoint_XMEGA.h **** 			{
 300:LUFA//Drivers/USB/Core/XMEGA/../XMEGA/../XMEGA/Endpoint_XMEGA.h **** 				return USB_Endpoint_SelectedEndpoint;
 301:LUFA//Drivers/USB/Core/XMEGA/../XMEGA/../XMEGA/Endpoint_XMEGA.h **** 			}
 302:LUFA//Drivers/USB/Core/XMEGA/../XMEGA/../XMEGA/Endpoint_XMEGA.h **** 
 303:LUFA//Drivers/USB/Core/XMEGA/../XMEGA/../XMEGA/Endpoint_XMEGA.h **** 			/** Resets the endpoint bank FIFO. This clears all the endpoint banks and resets the USB control
 304:LUFA//Drivers/USB/Core/XMEGA/../XMEGA/../XMEGA/Endpoint_XMEGA.h **** 			 *  data In and Out pointers to the bank's contents.
 305:LUFA//Drivers/USB/Core/XMEGA/../XMEGA/../XMEGA/Endpoint_XMEGA.h **** 			 *
 306:LUFA//Drivers/USB/Core/XMEGA/../XMEGA/../XMEGA/Endpoint_XMEGA.h **** 			 *  \param[in] Address  Endpoint address whose FIFO buffers are to be reset.
 307:LUFA//Drivers/USB/Core/XMEGA/../XMEGA/../XMEGA/Endpoint_XMEGA.h **** 			 */
 308:LUFA//Drivers/USB/Core/XMEGA/../XMEGA/../XMEGA/Endpoint_XMEGA.h **** 			static inline void Endpoint_ResetEndpoint(const uint8_t Address) ATTR_ALWAYS_INLINE;
 309:LUFA//Drivers/USB/Core/XMEGA/../XMEGA/../XMEGA/Endpoint_XMEGA.h **** 			static inline void Endpoint_ResetEndpoint(const uint8_t Address)
 310:LUFA//Drivers/USB/Core/XMEGA/../XMEGA/../XMEGA/Endpoint_XMEGA.h **** 			{
 311:LUFA//Drivers/USB/Core/XMEGA/../XMEGA/../XMEGA/Endpoint_XMEGA.h **** 				if (Address & ENDPOINT_DIR_IN)
 312:LUFA//Drivers/USB/Core/XMEGA/../XMEGA/../XMEGA/Endpoint_XMEGA.h **** 				  USB_Endpoint_FIFOs[Address & ENDPOINT_EPNUM_MASK].IN.Position  = 0;
 313:LUFA//Drivers/USB/Core/XMEGA/../XMEGA/../XMEGA/Endpoint_XMEGA.h **** 				else
 314:LUFA//Drivers/USB/Core/XMEGA/../XMEGA/../XMEGA/Endpoint_XMEGA.h **** 				  USB_Endpoint_FIFOs[Address & ENDPOINT_EPNUM_MASK].OUT.Position = 0;
 315:LUFA//Drivers/USB/Core/XMEGA/../XMEGA/../XMEGA/Endpoint_XMEGA.h **** 			}
 316:LUFA//Drivers/USB/Core/XMEGA/../XMEGA/../XMEGA/Endpoint_XMEGA.h **** 
 317:LUFA//Drivers/USB/Core/XMEGA/../XMEGA/../XMEGA/Endpoint_XMEGA.h **** 			/** Determines if the currently selected endpoint is enabled, but not necessarily configured.
 318:LUFA//Drivers/USB/Core/XMEGA/../XMEGA/../XMEGA/Endpoint_XMEGA.h **** 			 *
 319:LUFA//Drivers/USB/Core/XMEGA/../XMEGA/../XMEGA/Endpoint_XMEGA.h **** 			 * \return Boolean \c true if the currently selected endpoint is enabled, \c false otherwise.
 320:LUFA//Drivers/USB/Core/XMEGA/../XMEGA/../XMEGA/Endpoint_XMEGA.h **** 			 */
 321:LUFA//Drivers/USB/Core/XMEGA/../XMEGA/../XMEGA/Endpoint_XMEGA.h **** 			static inline bool Endpoint_IsEnabled(void) ATTR_WARN_UNUSED_RESULT ATTR_ALWAYS_INLINE;
 322:LUFA//Drivers/USB/Core/XMEGA/../XMEGA/../XMEGA/Endpoint_XMEGA.h **** 			static inline bool Endpoint_IsEnabled(void)
 323:LUFA//Drivers/USB/Core/XMEGA/../XMEGA/../XMEGA/Endpoint_XMEGA.h **** 			{
 324:LUFA//Drivers/USB/Core/XMEGA/../XMEGA/../XMEGA/Endpoint_XMEGA.h **** 				return true;
 325:LUFA//Drivers/USB/Core/XMEGA/../XMEGA/../XMEGA/Endpoint_XMEGA.h **** 			}
 326:LUFA//Drivers/USB/Core/XMEGA/../XMEGA/../XMEGA/Endpoint_XMEGA.h **** 
 327:LUFA//Drivers/USB/Core/XMEGA/../XMEGA/../XMEGA/Endpoint_XMEGA.h **** 			/** Aborts all pending IN transactions on the currently selected endpoint, once the bank
 328:LUFA//Drivers/USB/Core/XMEGA/../XMEGA/../XMEGA/Endpoint_XMEGA.h **** 			 *  has been queued for transmission to the host via \ref Endpoint_ClearIN(). This function
 329:LUFA//Drivers/USB/Core/XMEGA/../XMEGA/../XMEGA/Endpoint_XMEGA.h **** 			 *  will terminate all queued transactions, resetting the endpoint banks ready for a new
 330:LUFA//Drivers/USB/Core/XMEGA/../XMEGA/../XMEGA/Endpoint_XMEGA.h **** 			 *  packet.
 331:LUFA//Drivers/USB/Core/XMEGA/../XMEGA/../XMEGA/Endpoint_XMEGA.h **** 			 *
 332:LUFA//Drivers/USB/Core/XMEGA/../XMEGA/../XMEGA/Endpoint_XMEGA.h **** 			 *  \ingroup Group_EndpointPacketManagement_XMEGA
 333:LUFA//Drivers/USB/Core/XMEGA/../XMEGA/../XMEGA/Endpoint_XMEGA.h **** 			 */
 334:LUFA//Drivers/USB/Core/XMEGA/../XMEGA/../XMEGA/Endpoint_XMEGA.h **** 			static inline void Endpoint_AbortPendingIN(void)
 335:LUFA//Drivers/USB/Core/XMEGA/../XMEGA/../XMEGA/Endpoint_XMEGA.h **** 			{
 336:LUFA//Drivers/USB/Core/XMEGA/../XMEGA/../XMEGA/Endpoint_XMEGA.h **** 				USB_Endpoint_SelectedHandle->STATUS |= USB_EP_BUSNACK0_bm;
 337:LUFA//Drivers/USB/Core/XMEGA/../XMEGA/../XMEGA/Endpoint_XMEGA.h **** 			}
 338:LUFA//Drivers/USB/Core/XMEGA/../XMEGA/../XMEGA/Endpoint_XMEGA.h **** 
 339:LUFA//Drivers/USB/Core/XMEGA/../XMEGA/../XMEGA/Endpoint_XMEGA.h **** 			/** Determines if the currently selected endpoint may be read from (if data is waiting in the en
 340:LUFA//Drivers/USB/Core/XMEGA/../XMEGA/../XMEGA/Endpoint_XMEGA.h **** 			 *  bank and the endpoint is an OUT direction, or if the bank is not yet full if the endpoint is
 341:LUFA//Drivers/USB/Core/XMEGA/../XMEGA/../XMEGA/Endpoint_XMEGA.h **** 			 *  direction). This function will return false if an error has occurred in the endpoint, if the
 342:LUFA//Drivers/USB/Core/XMEGA/../XMEGA/../XMEGA/Endpoint_XMEGA.h **** 			 *  is an OUT direction and no packet (or an empty packet) has been received, or if the endpoint
 343:LUFA//Drivers/USB/Core/XMEGA/../XMEGA/../XMEGA/Endpoint_XMEGA.h **** 			 *  direction and the endpoint bank is full.
 344:LUFA//Drivers/USB/Core/XMEGA/../XMEGA/../XMEGA/Endpoint_XMEGA.h **** 			 *
 345:LUFA//Drivers/USB/Core/XMEGA/../XMEGA/../XMEGA/Endpoint_XMEGA.h **** 			 *  \ingroup Group_EndpointPacketManagement_XMEGA
 346:LUFA//Drivers/USB/Core/XMEGA/../XMEGA/../XMEGA/Endpoint_XMEGA.h **** 			 *
 347:LUFA//Drivers/USB/Core/XMEGA/../XMEGA/../XMEGA/Endpoint_XMEGA.h **** 			 *  \return Boolean \c true if the currently selected endpoint may be read from or written to, d
 348:LUFA//Drivers/USB/Core/XMEGA/../XMEGA/../XMEGA/Endpoint_XMEGA.h **** 			 *          on its direction.
 349:LUFA//Drivers/USB/Core/XMEGA/../XMEGA/../XMEGA/Endpoint_XMEGA.h **** 			 */
 350:LUFA//Drivers/USB/Core/XMEGA/../XMEGA/../XMEGA/Endpoint_XMEGA.h **** 			static inline bool Endpoint_IsReadWriteAllowed(void) ATTR_WARN_UNUSED_RESULT ATTR_ALWAYS_INLINE;
 351:LUFA//Drivers/USB/Core/XMEGA/../XMEGA/../XMEGA/Endpoint_XMEGA.h **** 			static inline bool Endpoint_IsReadWriteAllowed(void)
 352:LUFA//Drivers/USB/Core/XMEGA/../XMEGA/../XMEGA/Endpoint_XMEGA.h **** 			{
 353:LUFA//Drivers/USB/Core/XMEGA/../XMEGA/../XMEGA/Endpoint_XMEGA.h **** 				return (USB_Endpoint_SelectedFIFO->Position < USB_Endpoint_SelectedFIFO->Length);
 169               		.loc 1 353 0
 170 0036 8091 0000 		lds r24,USB_Endpoint_SelectedFIFO
 171 003a 9091 0000 		lds r25,USB_Endpoint_SelectedFIFO+1
 172 003e FC01      		movw r30,r24
 173 0040 EF5B      		subi r30,lo8(-(65))
 174 0042 FF4F      		sbci r31,hi8(-(65))
 175 0044 2081      		ld r18,Z
 176 0046 805C      		subi r24,lo8(-(64))
 177 0048 9F4F      		sbci r25,hi8(-(64))
 178 004a DC01      		movw r26,r24
 179 004c 8C91      		ld r24,X
 180               	.LBE257:
 181               	.LBE256:
  53:LUFA//Drivers/USB/Core/XMEGA/EndpointStream_XMEGA.c **** 
  54:LUFA//Drivers/USB/Core/XMEGA/EndpointStream_XMEGA.c **** 	while (Length)
  55:LUFA//Drivers/USB/Core/XMEGA/EndpointStream_XMEGA.c **** 	{
  56:LUFA//Drivers/USB/Core/XMEGA/EndpointStream_XMEGA.c **** 		if (!(Endpoint_IsReadWriteAllowed()))
 182               		.loc 2 56 0
 183 004e 2817      		cp r18,r24
 184 0050 00F0      		brlo .L9
 185               	.LBB258:
 186               	.LBB259:
 354:LUFA//Drivers/USB/Core/XMEGA/../XMEGA/../XMEGA/Endpoint_XMEGA.h **** 			}
 355:LUFA//Drivers/USB/Core/XMEGA/../XMEGA/../XMEGA/Endpoint_XMEGA.h **** 
 356:LUFA//Drivers/USB/Core/XMEGA/../XMEGA/../XMEGA/Endpoint_XMEGA.h **** 			/** Determines if the currently selected endpoint is configured.
 357:LUFA//Drivers/USB/Core/XMEGA/../XMEGA/../XMEGA/Endpoint_XMEGA.h **** 			 *
 358:LUFA//Drivers/USB/Core/XMEGA/../XMEGA/../XMEGA/Endpoint_XMEGA.h **** 			 *  \return Boolean \c true if the currently selected endpoint has been configured, \c false oth
 359:LUFA//Drivers/USB/Core/XMEGA/../XMEGA/../XMEGA/Endpoint_XMEGA.h **** 			 */
 360:LUFA//Drivers/USB/Core/XMEGA/../XMEGA/../XMEGA/Endpoint_XMEGA.h **** 			static inline bool Endpoint_IsConfigured(void) ATTR_WARN_UNUSED_RESULT ATTR_ALWAYS_INLINE;
 361:LUFA//Drivers/USB/Core/XMEGA/../XMEGA/../XMEGA/Endpoint_XMEGA.h **** 			static inline bool Endpoint_IsConfigured(void)
 362:LUFA//Drivers/USB/Core/XMEGA/../XMEGA/../XMEGA/Endpoint_XMEGA.h **** 			{
 363:LUFA//Drivers/USB/Core/XMEGA/../XMEGA/../XMEGA/Endpoint_XMEGA.h **** 				return ((USB_Endpoint_SelectedHandle->CTRL & USB_EP_TYPE_gm) ? true : false);
 364:LUFA//Drivers/USB/Core/XMEGA/../XMEGA/../XMEGA/Endpoint_XMEGA.h **** 			}
 365:LUFA//Drivers/USB/Core/XMEGA/../XMEGA/../XMEGA/Endpoint_XMEGA.h **** 
 366:LUFA//Drivers/USB/Core/XMEGA/../XMEGA/../XMEGA/Endpoint_XMEGA.h **** 			/** Determines if the selected IN endpoint is ready for a new packet to be sent to the host.
 367:LUFA//Drivers/USB/Core/XMEGA/../XMEGA/../XMEGA/Endpoint_XMEGA.h **** 			 *
 368:LUFA//Drivers/USB/Core/XMEGA/../XMEGA/../XMEGA/Endpoint_XMEGA.h **** 			 *  \ingroup Group_EndpointPacketManagement_XMEGA
 369:LUFA//Drivers/USB/Core/XMEGA/../XMEGA/../XMEGA/Endpoint_XMEGA.h **** 			 *
 370:LUFA//Drivers/USB/Core/XMEGA/../XMEGA/../XMEGA/Endpoint_XMEGA.h **** 			 *  \return Boolean \c true if the current endpoint is ready for an IN packet, \c false otherwis
 371:LUFA//Drivers/USB/Core/XMEGA/../XMEGA/../XMEGA/Endpoint_XMEGA.h **** 			 */
 372:LUFA//Drivers/USB/Core/XMEGA/../XMEGA/../XMEGA/Endpoint_XMEGA.h **** 			static inline bool Endpoint_IsINReady(void) ATTR_WARN_UNUSED_RESULT ATTR_ALWAYS_INLINE;
 373:LUFA//Drivers/USB/Core/XMEGA/../XMEGA/../XMEGA/Endpoint_XMEGA.h **** 			static inline bool Endpoint_IsINReady(void)
 374:LUFA//Drivers/USB/Core/XMEGA/../XMEGA/../XMEGA/Endpoint_XMEGA.h **** 			{
 375:LUFA//Drivers/USB/Core/XMEGA/../XMEGA/../XMEGA/Endpoint_XMEGA.h **** 				Endpoint_SelectEndpoint(USB_Endpoint_SelectedEndpoint | ENDPOINT_DIR_IN);
 376:LUFA//Drivers/USB/Core/XMEGA/../XMEGA/../XMEGA/Endpoint_XMEGA.h **** 
 377:LUFA//Drivers/USB/Core/XMEGA/../XMEGA/../XMEGA/Endpoint_XMEGA.h **** 				return ((USB_Endpoint_SelectedHandle->STATUS & USB_EP_BUSNACK0_bm) ? true : false);
 378:LUFA//Drivers/USB/Core/XMEGA/../XMEGA/../XMEGA/Endpoint_XMEGA.h **** 			}
 379:LUFA//Drivers/USB/Core/XMEGA/../XMEGA/../XMEGA/Endpoint_XMEGA.h **** 
 380:LUFA//Drivers/USB/Core/XMEGA/../XMEGA/../XMEGA/Endpoint_XMEGA.h **** 			/** Determines if the selected OUT endpoint has received new packet from the host.
 381:LUFA//Drivers/USB/Core/XMEGA/../XMEGA/../XMEGA/Endpoint_XMEGA.h **** 			 *
 382:LUFA//Drivers/USB/Core/XMEGA/../XMEGA/../XMEGA/Endpoint_XMEGA.h **** 			 *  \ingroup Group_EndpointPacketManagement_XMEGA
 383:LUFA//Drivers/USB/Core/XMEGA/../XMEGA/../XMEGA/Endpoint_XMEGA.h **** 			 *
 384:LUFA//Drivers/USB/Core/XMEGA/../XMEGA/../XMEGA/Endpoint_XMEGA.h **** 			 *  \return Boolean \c true if current endpoint is has received an OUT packet, \c false otherwis
 385:LUFA//Drivers/USB/Core/XMEGA/../XMEGA/../XMEGA/Endpoint_XMEGA.h **** 			 */
 386:LUFA//Drivers/USB/Core/XMEGA/../XMEGA/../XMEGA/Endpoint_XMEGA.h **** 			static inline bool Endpoint_IsOUTReceived(void) ATTR_WARN_UNUSED_RESULT ATTR_ALWAYS_INLINE;
 387:LUFA//Drivers/USB/Core/XMEGA/../XMEGA/../XMEGA/Endpoint_XMEGA.h **** 			static inline bool Endpoint_IsOUTReceived(void)
 388:LUFA//Drivers/USB/Core/XMEGA/../XMEGA/../XMEGA/Endpoint_XMEGA.h **** 			{
 389:LUFA//Drivers/USB/Core/XMEGA/../XMEGA/../XMEGA/Endpoint_XMEGA.h **** 				Endpoint_SelectEndpoint(USB_Endpoint_SelectedEndpoint & ~ENDPOINT_DIR_IN);
 390:LUFA//Drivers/USB/Core/XMEGA/../XMEGA/../XMEGA/Endpoint_XMEGA.h **** 
 391:LUFA//Drivers/USB/Core/XMEGA/../XMEGA/../XMEGA/Endpoint_XMEGA.h **** 				if (USB_Endpoint_SelectedHandle->STATUS & USB_EP_TRNCOMPL0_bm)
 392:LUFA//Drivers/USB/Core/XMEGA/../XMEGA/../XMEGA/Endpoint_XMEGA.h **** 				{
 393:LUFA//Drivers/USB/Core/XMEGA/../XMEGA/../XMEGA/Endpoint_XMEGA.h **** 					USB_Endpoint_SelectedFIFO->Length = USB_Endpoint_SelectedHandle->CNT;
 394:LUFA//Drivers/USB/Core/XMEGA/../XMEGA/../XMEGA/Endpoint_XMEGA.h **** 					return true;
 395:LUFA//Drivers/USB/Core/XMEGA/../XMEGA/../XMEGA/Endpoint_XMEGA.h **** 				}
 396:LUFA//Drivers/USB/Core/XMEGA/../XMEGA/../XMEGA/Endpoint_XMEGA.h **** 
 397:LUFA//Drivers/USB/Core/XMEGA/../XMEGA/../XMEGA/Endpoint_XMEGA.h **** 				return false;
 398:LUFA//Drivers/USB/Core/XMEGA/../XMEGA/../XMEGA/Endpoint_XMEGA.h **** 			}
 399:LUFA//Drivers/USB/Core/XMEGA/../XMEGA/../XMEGA/Endpoint_XMEGA.h **** 
 400:LUFA//Drivers/USB/Core/XMEGA/../XMEGA/../XMEGA/Endpoint_XMEGA.h **** 			/** Determines if the current CONTROL type endpoint has received a SETUP packet.
 401:LUFA//Drivers/USB/Core/XMEGA/../XMEGA/../XMEGA/Endpoint_XMEGA.h **** 			 *
 402:LUFA//Drivers/USB/Core/XMEGA/../XMEGA/../XMEGA/Endpoint_XMEGA.h **** 			 *  \ingroup Group_EndpointPacketManagement_XMEGA
 403:LUFA//Drivers/USB/Core/XMEGA/../XMEGA/../XMEGA/Endpoint_XMEGA.h **** 			 *
 404:LUFA//Drivers/USB/Core/XMEGA/../XMEGA/../XMEGA/Endpoint_XMEGA.h **** 			 *  \return Boolean \c true if the selected endpoint has received a SETUP packet, \c false other
 405:LUFA//Drivers/USB/Core/XMEGA/../XMEGA/../XMEGA/Endpoint_XMEGA.h **** 			 */
 406:LUFA//Drivers/USB/Core/XMEGA/../XMEGA/../XMEGA/Endpoint_XMEGA.h **** 			static inline bool Endpoint_IsSETUPReceived(void) ATTR_WARN_UNUSED_RESULT ATTR_ALWAYS_INLINE;
 407:LUFA//Drivers/USB/Core/XMEGA/../XMEGA/../XMEGA/Endpoint_XMEGA.h **** 			static inline bool Endpoint_IsSETUPReceived(void)
 408:LUFA//Drivers/USB/Core/XMEGA/../XMEGA/../XMEGA/Endpoint_XMEGA.h **** 			{
 409:LUFA//Drivers/USB/Core/XMEGA/../XMEGA/../XMEGA/Endpoint_XMEGA.h **** 				Endpoint_SelectEndpoint(USB_Endpoint_SelectedEndpoint & ~ENDPOINT_DIR_IN);
 410:LUFA//Drivers/USB/Core/XMEGA/../XMEGA/../XMEGA/Endpoint_XMEGA.h **** 
 411:LUFA//Drivers/USB/Core/XMEGA/../XMEGA/../XMEGA/Endpoint_XMEGA.h **** 				if (USB_Endpoint_SelectedHandle->STATUS & USB_EP_SETUP_bm)
 412:LUFA//Drivers/USB/Core/XMEGA/../XMEGA/../XMEGA/Endpoint_XMEGA.h **** 				{
 413:LUFA//Drivers/USB/Core/XMEGA/../XMEGA/../XMEGA/Endpoint_XMEGA.h **** 					USB_Endpoint_SelectedFIFO->Length = USB_Endpoint_SelectedHandle->CNT;
 414:LUFA//Drivers/USB/Core/XMEGA/../XMEGA/../XMEGA/Endpoint_XMEGA.h **** 					return true;
 415:LUFA//Drivers/USB/Core/XMEGA/../XMEGA/../XMEGA/Endpoint_XMEGA.h **** 				}
 416:LUFA//Drivers/USB/Core/XMEGA/../XMEGA/../XMEGA/Endpoint_XMEGA.h **** 
 417:LUFA//Drivers/USB/Core/XMEGA/../XMEGA/../XMEGA/Endpoint_XMEGA.h **** 				return false;
 418:LUFA//Drivers/USB/Core/XMEGA/../XMEGA/../XMEGA/Endpoint_XMEGA.h **** 			}
 419:LUFA//Drivers/USB/Core/XMEGA/../XMEGA/../XMEGA/Endpoint_XMEGA.h **** 
 420:LUFA//Drivers/USB/Core/XMEGA/../XMEGA/../XMEGA/Endpoint_XMEGA.h **** 			/** Clears a received SETUP packet on the currently selected CONTROL type endpoint, freeing up t
 421:LUFA//Drivers/USB/Core/XMEGA/../XMEGA/../XMEGA/Endpoint_XMEGA.h **** 			 *  endpoint for the next packet.
 422:LUFA//Drivers/USB/Core/XMEGA/../XMEGA/../XMEGA/Endpoint_XMEGA.h **** 			 *
 423:LUFA//Drivers/USB/Core/XMEGA/../XMEGA/../XMEGA/Endpoint_XMEGA.h **** 			 *  \ingroup Group_EndpointPacketManagement_XMEGA
 424:LUFA//Drivers/USB/Core/XMEGA/../XMEGA/../XMEGA/Endpoint_XMEGA.h **** 			 *
 425:LUFA//Drivers/USB/Core/XMEGA/../XMEGA/../XMEGA/Endpoint_XMEGA.h **** 			 *  \note This is not applicable for non CONTROL type endpoints.
 426:LUFA//Drivers/USB/Core/XMEGA/../XMEGA/../XMEGA/Endpoint_XMEGA.h **** 			 */
 427:LUFA//Drivers/USB/Core/XMEGA/../XMEGA/../XMEGA/Endpoint_XMEGA.h **** 			static inline void Endpoint_ClearSETUP(void) ATTR_ALWAYS_INLINE;
 428:LUFA//Drivers/USB/Core/XMEGA/../XMEGA/../XMEGA/Endpoint_XMEGA.h **** 			static inline void Endpoint_ClearSETUP(void)
 429:LUFA//Drivers/USB/Core/XMEGA/../XMEGA/../XMEGA/Endpoint_XMEGA.h **** 			{
 430:LUFA//Drivers/USB/Core/XMEGA/../XMEGA/../XMEGA/Endpoint_XMEGA.h **** 				Endpoint_SelectEndpoint(USB_Endpoint_SelectedEndpoint & ~ENDPOINT_DIR_IN);
 431:LUFA//Drivers/USB/Core/XMEGA/../XMEGA/../XMEGA/Endpoint_XMEGA.h **** 				USB_Endpoint_SelectedHandle->STATUS &= ~(USB_EP_SETUP_bm | USB_EP_TRNCOMPL0_bm | USB_EP_BUSNACK
 432:LUFA//Drivers/USB/Core/XMEGA/../XMEGA/../XMEGA/Endpoint_XMEGA.h **** 				USB_Endpoint_SelectedHandle->STATUS |= USB_EP_TOGGLE_bm;
 433:LUFA//Drivers/USB/Core/XMEGA/../XMEGA/../XMEGA/Endpoint_XMEGA.h **** 				USB_Endpoint_SelectedFIFO->Position  = 0;
 434:LUFA//Drivers/USB/Core/XMEGA/../XMEGA/../XMEGA/Endpoint_XMEGA.h **** 
 435:LUFA//Drivers/USB/Core/XMEGA/../XMEGA/../XMEGA/Endpoint_XMEGA.h **** 				Endpoint_SelectEndpoint(USB_Endpoint_SelectedEndpoint | ENDPOINT_DIR_IN);
 436:LUFA//Drivers/USB/Core/XMEGA/../XMEGA/../XMEGA/Endpoint_XMEGA.h **** 				USB_Endpoint_SelectedHandle->STATUS |= USB_EP_TOGGLE_bm;
 437:LUFA//Drivers/USB/Core/XMEGA/../XMEGA/../XMEGA/Endpoint_XMEGA.h **** 				USB_Endpoint_SelectedFIFO->Position  = 0;
 438:LUFA//Drivers/USB/Core/XMEGA/../XMEGA/../XMEGA/Endpoint_XMEGA.h **** 			}
 439:LUFA//Drivers/USB/Core/XMEGA/../XMEGA/../XMEGA/Endpoint_XMEGA.h **** 
 440:LUFA//Drivers/USB/Core/XMEGA/../XMEGA/../XMEGA/Endpoint_XMEGA.h **** 			/** Sends an IN packet to the host on the currently selected endpoint, freeing up the endpoint f
 441:LUFA//Drivers/USB/Core/XMEGA/../XMEGA/../XMEGA/Endpoint_XMEGA.h **** 			 *  next packet and switching to the alternative endpoint bank if double banked.
 442:LUFA//Drivers/USB/Core/XMEGA/../XMEGA/../XMEGA/Endpoint_XMEGA.h **** 			 *
 443:LUFA//Drivers/USB/Core/XMEGA/../XMEGA/../XMEGA/Endpoint_XMEGA.h **** 			 *  \ingroup Group_EndpointPacketManagement_XMEGA
 444:LUFA//Drivers/USB/Core/XMEGA/../XMEGA/../XMEGA/Endpoint_XMEGA.h **** 			 */
 445:LUFA//Drivers/USB/Core/XMEGA/../XMEGA/../XMEGA/Endpoint_XMEGA.h **** 			static inline void Endpoint_ClearIN(void) ATTR_ALWAYS_INLINE;
 446:LUFA//Drivers/USB/Core/XMEGA/../XMEGA/../XMEGA/Endpoint_XMEGA.h **** 			static inline void Endpoint_ClearIN(void)
 447:LUFA//Drivers/USB/Core/XMEGA/../XMEGA/../XMEGA/Endpoint_XMEGA.h **** 			{
 448:LUFA//Drivers/USB/Core/XMEGA/../XMEGA/../XMEGA/Endpoint_XMEGA.h **** 				USB_Endpoint_SelectedHandle->CNT     = USB_Endpoint_SelectedFIFO->Position;
 449:LUFA//Drivers/USB/Core/XMEGA/../XMEGA/../XMEGA/Endpoint_XMEGA.h **** 				USB_Endpoint_SelectedHandle->STATUS &= ~(USB_EP_TRNCOMPL0_bm | USB_EP_BUSNACK0_bm | USB_EP_OVF_
 450:LUFA//Drivers/USB/Core/XMEGA/../XMEGA/../XMEGA/Endpoint_XMEGA.h **** 				USB_Endpoint_SelectedFIFO->Position  = 0;
 451:LUFA//Drivers/USB/Core/XMEGA/../XMEGA/../XMEGA/Endpoint_XMEGA.h **** 			}
 452:LUFA//Drivers/USB/Core/XMEGA/../XMEGA/../XMEGA/Endpoint_XMEGA.h **** 
 453:LUFA//Drivers/USB/Core/XMEGA/../XMEGA/../XMEGA/Endpoint_XMEGA.h **** 			/** Acknowledges an OUT packet to the host on the currently selected endpoint, freeing up the en
 454:LUFA//Drivers/USB/Core/XMEGA/../XMEGA/../XMEGA/Endpoint_XMEGA.h **** 			 *  for the next packet and switching to the alternative endpoint bank if double banked.
 455:LUFA//Drivers/USB/Core/XMEGA/../XMEGA/../XMEGA/Endpoint_XMEGA.h **** 			 *
 456:LUFA//Drivers/USB/Core/XMEGA/../XMEGA/../XMEGA/Endpoint_XMEGA.h **** 			 *  \ingroup Group_EndpointPacketManagement_XMEGA
 457:LUFA//Drivers/USB/Core/XMEGA/../XMEGA/../XMEGA/Endpoint_XMEGA.h **** 			 */
 458:LUFA//Drivers/USB/Core/XMEGA/../XMEGA/../XMEGA/Endpoint_XMEGA.h **** 			static inline void Endpoint_ClearOUT(void) ATTR_ALWAYS_INLINE;
 459:LUFA//Drivers/USB/Core/XMEGA/../XMEGA/../XMEGA/Endpoint_XMEGA.h **** 			static inline void Endpoint_ClearOUT(void)
 460:LUFA//Drivers/USB/Core/XMEGA/../XMEGA/../XMEGA/Endpoint_XMEGA.h **** 			{
 461:LUFA//Drivers/USB/Core/XMEGA/../XMEGA/../XMEGA/Endpoint_XMEGA.h **** 				USB_Endpoint_SelectedHandle->STATUS &= ~(USB_EP_TRNCOMPL0_bm | USB_EP_BUSNACK0_bm | USB_EP_OVF_
 187               		.loc 1 461 0
 188 0052 E091 0000 		lds r30,USB_Endpoint_SelectedHandle
 189 0056 F091 0000 		lds r31,USB_Endpoint_SelectedHandle+1
 190 005a 8081      		ld r24,Z
 191 005c 8D79      		andi r24,lo8(-99)
 192 005e 8083      		st Z,r24
 462:LUFA//Drivers/USB/Core/XMEGA/../XMEGA/../XMEGA/Endpoint_XMEGA.h **** 				USB_Endpoint_SelectedFIFO->Position  = 0;
 193               		.loc 1 462 0
 194 0060 E091 0000 		lds r30,USB_Endpoint_SelectedFIFO
 195 0064 F091 0000 		lds r31,USB_Endpoint_SelectedFIFO+1
 196 0068 EF5B      		subi r30,lo8(-(65))
 197 006a FF4F      		sbci r31,hi8(-(65))
 198 006c 1082      		st Z,__zero_reg__
 199               	.LBE259:
 200               	.LBE258:
  57:LUFA//Drivers/USB/Core/XMEGA/EndpointStream_XMEGA.c **** 		{
  58:LUFA//Drivers/USB/Core/XMEGA/EndpointStream_XMEGA.c **** 			Endpoint_ClearOUT();
  59:LUFA//Drivers/USB/Core/XMEGA/EndpointStream_XMEGA.c **** 
  60:LUFA//Drivers/USB/Core/XMEGA/EndpointStream_XMEGA.c **** 			if (BytesProcessed != NULL)
 201               		.loc 2 60 0
 202 006e E114      		cp r14,__zero_reg__
 203 0070 F104      		cpc r15,__zero_reg__
 204 0072 01F0      		breq .L10
  61:LUFA//Drivers/USB/Core/XMEGA/EndpointStream_XMEGA.c **** 			{
  62:LUFA//Drivers/USB/Core/XMEGA/EndpointStream_XMEGA.c **** 				*BytesProcessed += BytesInTransfer;
 205               		.loc 2 62 0
 206 0074 F701      		movw r30,r14
 207 0076 8081      		ld r24,Z
 208 0078 9181      		ldd r25,Z+1
 209 007a 8C0D      		add r24,r12
 210 007c 9D1D      		adc r25,r13
 211 007e 8083      		st Z,r24
 212 0080 9183      		std Z+1,r25
  63:LUFA//Drivers/USB/Core/XMEGA/EndpointStream_XMEGA.c **** 				return ENDPOINT_RWSTREAM_IncompleteTransfer;
 213               		.loc 2 63 0
 214 0082 C5E0      		ldi r28,lo8(5)
 215 0084 00C0      		rjmp .L6
 216               	.L10:
  64:LUFA//Drivers/USB/Core/XMEGA/EndpointStream_XMEGA.c **** 			}
  65:LUFA//Drivers/USB/Core/XMEGA/EndpointStream_XMEGA.c **** 
  66:LUFA//Drivers/USB/Core/XMEGA/EndpointStream_XMEGA.c **** 			if ((ErrorCode = Endpoint_WaitUntilReady()))
 217               		.loc 2 66 0
 218 0086 0E94 0000 		call Endpoint_WaitUntilReady
 219               	.LVL13:
 220 008a 8823      		tst r24
 221 008c 01F0      		breq .L14
 222 008e 00C0      		rjmp .L15
 223               	.LVL14:
 224               	.L9:
 225               	.LBB260:
 226               	.LBB261:
 463:LUFA//Drivers/USB/Core/XMEGA/../XMEGA/../XMEGA/Endpoint_XMEGA.h **** 			}
 464:LUFA//Drivers/USB/Core/XMEGA/../XMEGA/../XMEGA/Endpoint_XMEGA.h **** 
 465:LUFA//Drivers/USB/Core/XMEGA/../XMEGA/../XMEGA/Endpoint_XMEGA.h **** 			/** Stalls the current endpoint, indicating to the host that a logical problem occurred with the
 466:LUFA//Drivers/USB/Core/XMEGA/../XMEGA/../XMEGA/Endpoint_XMEGA.h **** 			 *  indicated endpoint and that the current transfer sequence should be aborted. This provides a
 467:LUFA//Drivers/USB/Core/XMEGA/../XMEGA/../XMEGA/Endpoint_XMEGA.h **** 			 *  way for devices to indicate invalid commands to the host so that the current transfer can be
 468:LUFA//Drivers/USB/Core/XMEGA/../XMEGA/../XMEGA/Endpoint_XMEGA.h **** 			 *  aborted and the host can begin its own recovery sequence.
 469:LUFA//Drivers/USB/Core/XMEGA/../XMEGA/../XMEGA/Endpoint_XMEGA.h **** 			 *
 470:LUFA//Drivers/USB/Core/XMEGA/../XMEGA/../XMEGA/Endpoint_XMEGA.h **** 			 *  The currently selected endpoint remains stalled until either the \ref Endpoint_ClearStall() 
 471:LUFA//Drivers/USB/Core/XMEGA/../XMEGA/../XMEGA/Endpoint_XMEGA.h **** 			 *  is called, or the host issues a CLEAR FEATURE request to the device for the currently select
 472:LUFA//Drivers/USB/Core/XMEGA/../XMEGA/../XMEGA/Endpoint_XMEGA.h **** 			 *  endpoint.
 473:LUFA//Drivers/USB/Core/XMEGA/../XMEGA/../XMEGA/Endpoint_XMEGA.h **** 			 *
 474:LUFA//Drivers/USB/Core/XMEGA/../XMEGA/../XMEGA/Endpoint_XMEGA.h **** 			 *  \ingroup Group_EndpointPacketManagement_XMEGA
 475:LUFA//Drivers/USB/Core/XMEGA/../XMEGA/../XMEGA/Endpoint_XMEGA.h **** 			 */
 476:LUFA//Drivers/USB/Core/XMEGA/../XMEGA/../XMEGA/Endpoint_XMEGA.h **** 			static inline void Endpoint_StallTransaction(void) ATTR_ALWAYS_INLINE;
 477:LUFA//Drivers/USB/Core/XMEGA/../XMEGA/../XMEGA/Endpoint_XMEGA.h **** 			static inline void Endpoint_StallTransaction(void)
 478:LUFA//Drivers/USB/Core/XMEGA/../XMEGA/../XMEGA/Endpoint_XMEGA.h **** 			{
 479:LUFA//Drivers/USB/Core/XMEGA/../XMEGA/../XMEGA/Endpoint_XMEGA.h **** 				USB_Endpoint_SelectedHandle->CTRL |= USB_EP_STALL_bm;
 480:LUFA//Drivers/USB/Core/XMEGA/../XMEGA/../XMEGA/Endpoint_XMEGA.h **** 
 481:LUFA//Drivers/USB/Core/XMEGA/../XMEGA/../XMEGA/Endpoint_XMEGA.h **** 				if ((USB_Endpoint_SelectedHandle->CTRL & USB_EP_TYPE_gm) == USB_EP_TYPE_CONTROL_gc)
 482:LUFA//Drivers/USB/Core/XMEGA/../XMEGA/../XMEGA/Endpoint_XMEGA.h **** 				{
 483:LUFA//Drivers/USB/Core/XMEGA/../XMEGA/../XMEGA/Endpoint_XMEGA.h **** 					Endpoint_SelectEndpoint(USB_Endpoint_SelectedEndpoint ^ ENDPOINT_DIR_IN);
 484:LUFA//Drivers/USB/Core/XMEGA/../XMEGA/../XMEGA/Endpoint_XMEGA.h **** 					USB_Endpoint_SelectedHandle->CTRL |= USB_EP_STALL_bm;
 485:LUFA//Drivers/USB/Core/XMEGA/../XMEGA/../XMEGA/Endpoint_XMEGA.h **** 				}
 486:LUFA//Drivers/USB/Core/XMEGA/../XMEGA/../XMEGA/Endpoint_XMEGA.h **** 			}
 487:LUFA//Drivers/USB/Core/XMEGA/../XMEGA/../XMEGA/Endpoint_XMEGA.h **** 
 488:LUFA//Drivers/USB/Core/XMEGA/../XMEGA/../XMEGA/Endpoint_XMEGA.h **** 			/** Clears the STALL condition on the currently selected endpoint.
 489:LUFA//Drivers/USB/Core/XMEGA/../XMEGA/../XMEGA/Endpoint_XMEGA.h **** 			 *
 490:LUFA//Drivers/USB/Core/XMEGA/../XMEGA/../XMEGA/Endpoint_XMEGA.h **** 			 *  \ingroup Group_EndpointPacketManagement_XMEGA
 491:LUFA//Drivers/USB/Core/XMEGA/../XMEGA/../XMEGA/Endpoint_XMEGA.h **** 			 */
 492:LUFA//Drivers/USB/Core/XMEGA/../XMEGA/../XMEGA/Endpoint_XMEGA.h **** 			static inline void Endpoint_ClearStall(void) ATTR_ALWAYS_INLINE;
 493:LUFA//Drivers/USB/Core/XMEGA/../XMEGA/../XMEGA/Endpoint_XMEGA.h **** 			static inline void Endpoint_ClearStall(void)
 494:LUFA//Drivers/USB/Core/XMEGA/../XMEGA/../XMEGA/Endpoint_XMEGA.h **** 			{
 495:LUFA//Drivers/USB/Core/XMEGA/../XMEGA/../XMEGA/Endpoint_XMEGA.h **** 				USB_Endpoint_SelectedHandle->CTRL &= ~USB_EP_STALL_bm;
 496:LUFA//Drivers/USB/Core/XMEGA/../XMEGA/../XMEGA/Endpoint_XMEGA.h **** 			}
 497:LUFA//Drivers/USB/Core/XMEGA/../XMEGA/../XMEGA/Endpoint_XMEGA.h **** 
 498:LUFA//Drivers/USB/Core/XMEGA/../XMEGA/../XMEGA/Endpoint_XMEGA.h **** 			/** Determines if the currently selected endpoint is stalled, false otherwise.
 499:LUFA//Drivers/USB/Core/XMEGA/../XMEGA/../XMEGA/Endpoint_XMEGA.h **** 			 *
 500:LUFA//Drivers/USB/Core/XMEGA/../XMEGA/../XMEGA/Endpoint_XMEGA.h **** 			 *  \ingroup Group_EndpointPacketManagement_XMEGA
 501:LUFA//Drivers/USB/Core/XMEGA/../XMEGA/../XMEGA/Endpoint_XMEGA.h **** 			 *
 502:LUFA//Drivers/USB/Core/XMEGA/../XMEGA/../XMEGA/Endpoint_XMEGA.h **** 			 *  \return Boolean \c true if the currently selected endpoint is stalled, \c false otherwise.
 503:LUFA//Drivers/USB/Core/XMEGA/../XMEGA/../XMEGA/Endpoint_XMEGA.h **** 			 */
 504:LUFA//Drivers/USB/Core/XMEGA/../XMEGA/../XMEGA/Endpoint_XMEGA.h **** 			static inline bool Endpoint_IsStalled(void) ATTR_WARN_UNUSED_RESULT ATTR_ALWAYS_INLINE;
 505:LUFA//Drivers/USB/Core/XMEGA/../XMEGA/../XMEGA/Endpoint_XMEGA.h **** 			static inline bool Endpoint_IsStalled(void)
 506:LUFA//Drivers/USB/Core/XMEGA/../XMEGA/../XMEGA/Endpoint_XMEGA.h **** 			{
 507:LUFA//Drivers/USB/Core/XMEGA/../XMEGA/../XMEGA/Endpoint_XMEGA.h **** 				return ((USB_Endpoint_SelectedHandle->CTRL & USB_EP_STALL_bm) ? true : false);
 508:LUFA//Drivers/USB/Core/XMEGA/../XMEGA/../XMEGA/Endpoint_XMEGA.h **** 			}
 509:LUFA//Drivers/USB/Core/XMEGA/../XMEGA/../XMEGA/Endpoint_XMEGA.h **** 
 510:LUFA//Drivers/USB/Core/XMEGA/../XMEGA/../XMEGA/Endpoint_XMEGA.h **** 			/** Resets the data toggle of the currently selected endpoint. */
 511:LUFA//Drivers/USB/Core/XMEGA/../XMEGA/../XMEGA/Endpoint_XMEGA.h **** 			static inline void Endpoint_ResetDataToggle(void) ATTR_ALWAYS_INLINE;
 512:LUFA//Drivers/USB/Core/XMEGA/../XMEGA/../XMEGA/Endpoint_XMEGA.h **** 			static inline void Endpoint_ResetDataToggle(void)
 513:LUFA//Drivers/USB/Core/XMEGA/../XMEGA/../XMEGA/Endpoint_XMEGA.h **** 			{
 514:LUFA//Drivers/USB/Core/XMEGA/../XMEGA/../XMEGA/Endpoint_XMEGA.h **** 				USB_Endpoint_SelectedHandle->STATUS &= ~USB_EP_TOGGLE_bm;
 515:LUFA//Drivers/USB/Core/XMEGA/../XMEGA/../XMEGA/Endpoint_XMEGA.h **** 			}
 516:LUFA//Drivers/USB/Core/XMEGA/../XMEGA/../XMEGA/Endpoint_XMEGA.h **** 
 517:LUFA//Drivers/USB/Core/XMEGA/../XMEGA/../XMEGA/Endpoint_XMEGA.h **** 			/** Determines the currently selected endpoint's direction.
 518:LUFA//Drivers/USB/Core/XMEGA/../XMEGA/../XMEGA/Endpoint_XMEGA.h **** 			 *
 519:LUFA//Drivers/USB/Core/XMEGA/../XMEGA/../XMEGA/Endpoint_XMEGA.h **** 			 *  \return The currently selected endpoint's direction, as a \c ENDPOINT_DIR_* mask.
 520:LUFA//Drivers/USB/Core/XMEGA/../XMEGA/../XMEGA/Endpoint_XMEGA.h **** 			 */
 521:LUFA//Drivers/USB/Core/XMEGA/../XMEGA/../XMEGA/Endpoint_XMEGA.h **** 			static inline uint8_t Endpoint_GetEndpointDirection(void) ATTR_WARN_UNUSED_RESULT ATTR_ALWAYS_IN
 522:LUFA//Drivers/USB/Core/XMEGA/../XMEGA/../XMEGA/Endpoint_XMEGA.h **** 			static inline uint8_t Endpoint_GetEndpointDirection(void)
 523:LUFA//Drivers/USB/Core/XMEGA/../XMEGA/../XMEGA/Endpoint_XMEGA.h **** 			{
 524:LUFA//Drivers/USB/Core/XMEGA/../XMEGA/../XMEGA/Endpoint_XMEGA.h **** 				return (USB_Endpoint_SelectedEndpoint & ENDPOINT_DIR_IN);
 525:LUFA//Drivers/USB/Core/XMEGA/../XMEGA/../XMEGA/Endpoint_XMEGA.h **** 			}
 526:LUFA//Drivers/USB/Core/XMEGA/../XMEGA/../XMEGA/Endpoint_XMEGA.h **** 
 527:LUFA//Drivers/USB/Core/XMEGA/../XMEGA/../XMEGA/Endpoint_XMEGA.h **** 			/** Reads one byte from the currently selected endpoint's bank, for OUT direction endpoints.
 528:LUFA//Drivers/USB/Core/XMEGA/../XMEGA/../XMEGA/Endpoint_XMEGA.h **** 			 *
 529:LUFA//Drivers/USB/Core/XMEGA/../XMEGA/../XMEGA/Endpoint_XMEGA.h **** 			 *  \ingroup Group_EndpointPrimitiveRW_XMEGA
 530:LUFA//Drivers/USB/Core/XMEGA/../XMEGA/../XMEGA/Endpoint_XMEGA.h **** 			 *
 531:LUFA//Drivers/USB/Core/XMEGA/../XMEGA/../XMEGA/Endpoint_XMEGA.h **** 			 *  \return Next byte in the currently selected endpoint's FIFO buffer.
 532:LUFA//Drivers/USB/Core/XMEGA/../XMEGA/../XMEGA/Endpoint_XMEGA.h **** 			 */
 533:LUFA//Drivers/USB/Core/XMEGA/../XMEGA/../XMEGA/Endpoint_XMEGA.h **** 			static inline uint8_t Endpoint_Read_8(void) ATTR_WARN_UNUSED_RESULT ATTR_ALWAYS_INLINE;
 534:LUFA//Drivers/USB/Core/XMEGA/../XMEGA/../XMEGA/Endpoint_XMEGA.h **** 			static inline uint8_t Endpoint_Read_8(void)
 535:LUFA//Drivers/USB/Core/XMEGA/../XMEGA/../XMEGA/Endpoint_XMEGA.h **** 			{
 536:LUFA//Drivers/USB/Core/XMEGA/../XMEGA/../XMEGA/Endpoint_XMEGA.h **** 				return USB_Endpoint_SelectedFIFO->Data[USB_Endpoint_SelectedFIFO->Position++];
 537:LUFA//Drivers/USB/Core/XMEGA/../XMEGA/../XMEGA/Endpoint_XMEGA.h **** 			}
 538:LUFA//Drivers/USB/Core/XMEGA/../XMEGA/../XMEGA/Endpoint_XMEGA.h **** 
 539:LUFA//Drivers/USB/Core/XMEGA/../XMEGA/../XMEGA/Endpoint_XMEGA.h **** 			/** Writes one byte to the currently selected endpoint's bank, for IN direction endpoints.
 540:LUFA//Drivers/USB/Core/XMEGA/../XMEGA/../XMEGA/Endpoint_XMEGA.h **** 			 *
 541:LUFA//Drivers/USB/Core/XMEGA/../XMEGA/../XMEGA/Endpoint_XMEGA.h **** 			 *  \ingroup Group_EndpointPrimitiveRW_XMEGA
 542:LUFA//Drivers/USB/Core/XMEGA/../XMEGA/../XMEGA/Endpoint_XMEGA.h **** 			 *
 543:LUFA//Drivers/USB/Core/XMEGA/../XMEGA/../XMEGA/Endpoint_XMEGA.h **** 			 *  \param[in] Data  Data to write into the the currently selected endpoint's FIFO buffer.
 544:LUFA//Drivers/USB/Core/XMEGA/../XMEGA/../XMEGA/Endpoint_XMEGA.h **** 			 */
 545:LUFA//Drivers/USB/Core/XMEGA/../XMEGA/../XMEGA/Endpoint_XMEGA.h **** 			static inline void Endpoint_Write_8(const uint8_t Data) ATTR_ALWAYS_INLINE;
 546:LUFA//Drivers/USB/Core/XMEGA/../XMEGA/../XMEGA/Endpoint_XMEGA.h **** 			static inline void Endpoint_Write_8(const uint8_t Data)
 547:LUFA//Drivers/USB/Core/XMEGA/../XMEGA/../XMEGA/Endpoint_XMEGA.h **** 			{
 548:LUFA//Drivers/USB/Core/XMEGA/../XMEGA/../XMEGA/Endpoint_XMEGA.h **** 				USB_Endpoint_SelectedFIFO->Data[USB_Endpoint_SelectedFIFO->Position++] = Data;
 549:LUFA//Drivers/USB/Core/XMEGA/../XMEGA/../XMEGA/Endpoint_XMEGA.h **** 			}
 550:LUFA//Drivers/USB/Core/XMEGA/../XMEGA/../XMEGA/Endpoint_XMEGA.h **** 
 551:LUFA//Drivers/USB/Core/XMEGA/../XMEGA/../XMEGA/Endpoint_XMEGA.h **** 			/** Discards one byte from the currently selected endpoint's bank, for OUT direction endpoints.
 552:LUFA//Drivers/USB/Core/XMEGA/../XMEGA/../XMEGA/Endpoint_XMEGA.h **** 			 *
 553:LUFA//Drivers/USB/Core/XMEGA/../XMEGA/../XMEGA/Endpoint_XMEGA.h **** 			 *  \ingroup Group_EndpointPrimitiveRW_XMEGA
 554:LUFA//Drivers/USB/Core/XMEGA/../XMEGA/../XMEGA/Endpoint_XMEGA.h **** 			 */
 555:LUFA//Drivers/USB/Core/XMEGA/../XMEGA/../XMEGA/Endpoint_XMEGA.h **** 			static inline void Endpoint_Discard_8(void) ATTR_ALWAYS_INLINE;
 556:LUFA//Drivers/USB/Core/XMEGA/../XMEGA/../XMEGA/Endpoint_XMEGA.h **** 			static inline void Endpoint_Discard_8(void)
 557:LUFA//Drivers/USB/Core/XMEGA/../XMEGA/../XMEGA/Endpoint_XMEGA.h **** 			{
 558:LUFA//Drivers/USB/Core/XMEGA/../XMEGA/../XMEGA/Endpoint_XMEGA.h **** 				USB_Endpoint_SelectedFIFO->Position++;
 227               		.loc 1 558 0
 228 0090 8081      		ld r24,Z
 229 0092 8F5F      		subi r24,lo8(-(1))
 230 0094 8083      		st Z,r24
 231               	.LBE261:
 232               	.LBE260:
  67:LUFA//Drivers/USB/Core/XMEGA/EndpointStream_XMEGA.c **** 			  return ErrorCode;
  68:LUFA//Drivers/USB/Core/XMEGA/EndpointStream_XMEGA.c **** 		}
  69:LUFA//Drivers/USB/Core/XMEGA/EndpointStream_XMEGA.c **** 		else
  70:LUFA//Drivers/USB/Core/XMEGA/EndpointStream_XMEGA.c **** 		{
  71:LUFA//Drivers/USB/Core/XMEGA/EndpointStream_XMEGA.c **** 			Endpoint_Discard_8();
  72:LUFA//Drivers/USB/Core/XMEGA/EndpointStream_XMEGA.c **** 
  73:LUFA//Drivers/USB/Core/XMEGA/EndpointStream_XMEGA.c **** 			Length--;
 233               		.loc 2 73 0
 234 0096 0150      		subi r16,lo8(-(-1))
 235 0098 1040      		sbci r17,hi8(-(-1))
 236               	.LVL15:
  74:LUFA//Drivers/USB/Core/XMEGA/EndpointStream_XMEGA.c **** 			BytesInTransfer++;
 237               		.loc 2 74 0
 238 009a 0894      		sec
 239 009c C11C      		adc r12,__zero_reg__
 240 009e D11C      		adc r13,__zero_reg__
 241               	.LVL16:
 242               	.L14:
  54:LUFA//Drivers/USB/Core/XMEGA/EndpointStream_XMEGA.c **** 	while (Length)
 243               		.loc 2 54 0 discriminator 1
 244 00a0 0115      		cp r16,__zero_reg__
 245 00a2 1105      		cpc r17,__zero_reg__
 246 00a4 01F4      		brne .L12
 247 00a6 00C0      		rjmp .L6
 248               	.LVL17:
 249               	.L15:
  66:LUFA//Drivers/USB/Core/XMEGA/EndpointStream_XMEGA.c **** 			if ((ErrorCode = Endpoint_WaitUntilReady()))
 250               		.loc 2 66 0
 251 00a8 C82F      		mov r28,r24
 252               	.LVL18:
 253               	.L6:
  75:LUFA//Drivers/USB/Core/XMEGA/EndpointStream_XMEGA.c **** 		}
  76:LUFA//Drivers/USB/Core/XMEGA/EndpointStream_XMEGA.c **** 	}
  77:LUFA//Drivers/USB/Core/XMEGA/EndpointStream_XMEGA.c **** 	
  78:LUFA//Drivers/USB/Core/XMEGA/EndpointStream_XMEGA.c **** 	return ENDPOINT_RWSTREAM_NoError;
  79:LUFA//Drivers/USB/Core/XMEGA/EndpointStream_XMEGA.c **** }
 254               		.loc 2 79 0
 255 00aa 8C2F      		mov r24,r28
 256               	/* epilogue start */
 257 00ac CF91      		pop r28
 258 00ae 1F91      		pop r17
 259 00b0 0F91      		pop r16
 260               	.LVL19:
 261 00b2 FF90      		pop r15
 262 00b4 EF90      		pop r14
 263               	.LVL20:
 264 00b6 DF90      		pop r13
 265 00b8 CF90      		pop r12
 266 00ba 0895      		ret
 267               		.cfi_endproc
 268               	.LFE68:
 270               		.section	.text.Endpoint_Null_Stream,"ax",@progbits
 271               	.global	Endpoint_Null_Stream
 273               	Endpoint_Null_Stream:
 274               	.LFB69:
  80:LUFA//Drivers/USB/Core/XMEGA/EndpointStream_XMEGA.c **** 
  81:LUFA//Drivers/USB/Core/XMEGA/EndpointStream_XMEGA.c **** uint8_t Endpoint_Null_Stream(uint16_t Length,
  82:LUFA//Drivers/USB/Core/XMEGA/EndpointStream_XMEGA.c ****                              uint16_t* const BytesProcessed)
  83:LUFA//Drivers/USB/Core/XMEGA/EndpointStream_XMEGA.c **** {
 275               		.loc 2 83 0
 276               		.cfi_startproc
 277               	.LVL21:
 278 0000 CF92      		push r12
 279               	.LCFI7:
 280               		.cfi_def_cfa_offset 3
 281               		.cfi_offset 12, -2
 282 0002 DF92      		push r13
 283               	.LCFI8:
 284               		.cfi_def_cfa_offset 4
 285               		.cfi_offset 13, -3
 286 0004 EF92      		push r14
 287               	.LCFI9:
 288               		.cfi_def_cfa_offset 5
 289               		.cfi_offset 14, -4
 290 0006 FF92      		push r15
 291               	.LCFI10:
 292               		.cfi_def_cfa_offset 6
 293               		.cfi_offset 15, -5
 294 0008 0F93      		push r16
 295               	.LCFI11:
 296               		.cfi_def_cfa_offset 7
 297               		.cfi_offset 16, -6
 298 000a 1F93      		push r17
 299               	.LCFI12:
 300               		.cfi_def_cfa_offset 8
 301               		.cfi_offset 17, -7
 302 000c CF93      		push r28
 303               	.LCFI13:
 304               		.cfi_def_cfa_offset 9
 305               		.cfi_offset 28, -8
 306               	/* prologue: function */
 307               	/* frame size = 0 */
 308               	/* stack size = 7 */
 309               	.L__stack_usage = 7
 310 000e 8C01      		movw r16,r24
 311 0010 7B01      		movw r14,r22
 312               	.LVL22:
  84:LUFA//Drivers/USB/Core/XMEGA/EndpointStream_XMEGA.c **** 	uint8_t  ErrorCode;
  85:LUFA//Drivers/USB/Core/XMEGA/EndpointStream_XMEGA.c **** 	uint16_t BytesInTransfer = 0;
  86:LUFA//Drivers/USB/Core/XMEGA/EndpointStream_XMEGA.c **** 	
  87:LUFA//Drivers/USB/Core/XMEGA/EndpointStream_XMEGA.c **** 	if ((ErrorCode = Endpoint_WaitUntilReady()))
 313               		.loc 2 87 0
 314 0012 0E94 0000 		call Endpoint_WaitUntilReady
 315               	.LVL23:
 316 0016 C82F      		mov r28,r24
 317               	.LVL24:
 318 0018 8823      		tst r24
 319 001a 01F0      		breq .+2
 320 001c 00C0      		rjmp .L17
  88:LUFA//Drivers/USB/Core/XMEGA/EndpointStream_XMEGA.c **** 	  return ErrorCode;
  89:LUFA//Drivers/USB/Core/XMEGA/EndpointStream_XMEGA.c **** 	  
  90:LUFA//Drivers/USB/Core/XMEGA/EndpointStream_XMEGA.c **** 	if (BytesProcessed != NULL)
 321               		.loc 2 90 0
 322 001e E114      		cp r14,__zero_reg__
 323 0020 F104      		cpc r15,__zero_reg__
 324 0022 01F0      		breq .L18
  91:LUFA//Drivers/USB/Core/XMEGA/EndpointStream_XMEGA.c **** 	  Length -= *BytesProcessed;
 325               		.loc 2 91 0
 326 0024 F701      		movw r30,r14
 327 0026 8081      		ld r24,Z
 328 0028 9181      		ldd r25,Z+1
 329               	.LVL25:
 330 002a 081B      		sub r16,r24
 331 002c 190B      		sbc r17,r25
 332               	.LVL26:
 333               	.L18:
  83:LUFA//Drivers/USB/Core/XMEGA/EndpointStream_XMEGA.c **** {
 334               		.loc 2 83 0 discriminator 1
 335 002e CC24      		clr r12
 336 0030 DD24      		clr r13
 337 0032 00C0      		rjmp .L25
 338               	.LVL27:
 339               	.L23:
 340               	.LBB262:
 341               	.LBB263:
 353:LUFA//Drivers/USB/Core/XMEGA/../XMEGA/../XMEGA/Endpoint_XMEGA.h **** 				return (USB_Endpoint_SelectedFIFO->Position < USB_Endpoint_SelectedFIFO->Length);
 342               		.loc 1 353 0
 343 0034 8091 0000 		lds r24,USB_Endpoint_SelectedFIFO
 344 0038 9091 0000 		lds r25,USB_Endpoint_SelectedFIFO+1
 345 003c DC01      		movw r26,r24
 346 003e AF5B      		subi r26,lo8(-(65))
 347 0040 BF4F      		sbci r27,hi8(-(65))
 348 0042 3C91      		ld r19,X
 349 0044 FC01      		movw r30,r24
 350 0046 E05C      		subi r30,lo8(-(64))
 351 0048 FF4F      		sbci r31,hi8(-(64))
 352 004a 2081      		ld r18,Z
 353               	.LBE263:
 354               	.LBE262:
  92:LUFA//Drivers/USB/Core/XMEGA/EndpointStream_XMEGA.c **** 
  93:LUFA//Drivers/USB/Core/XMEGA/EndpointStream_XMEGA.c **** 	while (Length)
  94:LUFA//Drivers/USB/Core/XMEGA/EndpointStream_XMEGA.c **** 	{
  95:LUFA//Drivers/USB/Core/XMEGA/EndpointStream_XMEGA.c **** 		if (!(Endpoint_IsReadWriteAllowed()))
 355               		.loc 2 95 0
 356 004c 3217      		cp r19,r18
 357 004e 00F0      		brlo .L20
 358               	.LBB264:
 359               	.LBB265:
 448:LUFA//Drivers/USB/Core/XMEGA/../XMEGA/../XMEGA/Endpoint_XMEGA.h **** 				USB_Endpoint_SelectedHandle->CNT     = USB_Endpoint_SelectedFIFO->Position;
 360               		.loc 1 448 0
 361 0050 E091 0000 		lds r30,USB_Endpoint_SelectedHandle
 362 0054 F091 0000 		lds r31,USB_Endpoint_SelectedHandle+1
 363 0058 8C91      		ld r24,X
 364 005a 90E0      		ldi r25,lo8(0)
 365 005c 8283      		std Z+2,r24
 366 005e 9383      		std Z+3,r25
 449:LUFA//Drivers/USB/Core/XMEGA/../XMEGA/../XMEGA/Endpoint_XMEGA.h **** 				USB_Endpoint_SelectedHandle->STATUS &= ~(USB_EP_TRNCOMPL0_bm | USB_EP_BUSNACK0_bm | USB_EP_OVF_
 367               		.loc 1 449 0
 368 0060 8081      		ld r24,Z
 369 0062 8D79      		andi r24,lo8(-99)
 370 0064 8083      		st Z,r24
 450:LUFA//Drivers/USB/Core/XMEGA/../XMEGA/../XMEGA/Endpoint_XMEGA.h **** 				USB_Endpoint_SelectedFIFO->Position  = 0;
 371               		.loc 1 450 0
 372 0066 E091 0000 		lds r30,USB_Endpoint_SelectedFIFO
 373 006a F091 0000 		lds r31,USB_Endpoint_SelectedFIFO+1
 374 006e EF5B      		subi r30,lo8(-(65))
 375 0070 FF4F      		sbci r31,hi8(-(65))
 376 0072 1082      		st Z,__zero_reg__
 377               	.LBE265:
 378               	.LBE264:
  96:LUFA//Drivers/USB/Core/XMEGA/EndpointStream_XMEGA.c **** 		{
  97:LUFA//Drivers/USB/Core/XMEGA/EndpointStream_XMEGA.c **** 			Endpoint_ClearIN();
  98:LUFA//Drivers/USB/Core/XMEGA/EndpointStream_XMEGA.c **** 
  99:LUFA//Drivers/USB/Core/XMEGA/EndpointStream_XMEGA.c **** 			if (BytesProcessed != NULL)
 379               		.loc 2 99 0
 380 0074 E114      		cp r14,__zero_reg__
 381 0076 F104      		cpc r15,__zero_reg__
 382 0078 01F0      		breq .L21
 100:LUFA//Drivers/USB/Core/XMEGA/EndpointStream_XMEGA.c **** 			{
 101:LUFA//Drivers/USB/Core/XMEGA/EndpointStream_XMEGA.c **** 				*BytesProcessed += BytesInTransfer;
 383               		.loc 2 101 0
 384 007a F701      		movw r30,r14
 385 007c 8081      		ld r24,Z
 386 007e 9181      		ldd r25,Z+1
 387 0080 8C0D      		add r24,r12
 388 0082 9D1D      		adc r25,r13
 389 0084 8083      		st Z,r24
 390 0086 9183      		std Z+1,r25
 102:LUFA//Drivers/USB/Core/XMEGA/EndpointStream_XMEGA.c **** 				return ENDPOINT_RWSTREAM_IncompleteTransfer;
 391               		.loc 2 102 0
 392 0088 C5E0      		ldi r28,lo8(5)
 393 008a 00C0      		rjmp .L17
 394               	.L21:
 103:LUFA//Drivers/USB/Core/XMEGA/EndpointStream_XMEGA.c **** 			}
 104:LUFA//Drivers/USB/Core/XMEGA/EndpointStream_XMEGA.c **** 
 105:LUFA//Drivers/USB/Core/XMEGA/EndpointStream_XMEGA.c **** 			if ((ErrorCode = Endpoint_WaitUntilReady()))
 395               		.loc 2 105 0
 396 008c 0E94 0000 		call Endpoint_WaitUntilReady
 397               	.LVL28:
 398 0090 8823      		tst r24
 399 0092 01F0      		breq .L25
 400 0094 00C0      		rjmp .L26
 401               	.LVL29:
 402               	.L20:
 403               	.LBB266:
 404               	.LBB267:
 548:LUFA//Drivers/USB/Core/XMEGA/../XMEGA/../XMEGA/Endpoint_XMEGA.h **** 				USB_Endpoint_SelectedFIFO->Data[USB_Endpoint_SelectedFIFO->Position++] = Data;
 405               		.loc 1 548 0
 406 0096 2C91      		ld r18,X
 407 0098 820F      		add r24,r18
 408 009a 911D      		adc r25,__zero_reg__
 409 009c FC01      		movw r30,r24
 410 009e 1082      		st Z,__zero_reg__
 411 00a0 2F5F      		subi r18,lo8(-(1))
 412 00a2 2C93      		st X,r18
 413               	.LBE267:
 414               	.LBE266:
 106:LUFA//Drivers/USB/Core/XMEGA/EndpointStream_XMEGA.c **** 			  return ErrorCode;
 107:LUFA//Drivers/USB/Core/XMEGA/EndpointStream_XMEGA.c **** 		}
 108:LUFA//Drivers/USB/Core/XMEGA/EndpointStream_XMEGA.c **** 		else
 109:LUFA//Drivers/USB/Core/XMEGA/EndpointStream_XMEGA.c **** 		{
 110:LUFA//Drivers/USB/Core/XMEGA/EndpointStream_XMEGA.c **** 			Endpoint_Write_8(0);
 111:LUFA//Drivers/USB/Core/XMEGA/EndpointStream_XMEGA.c **** 
 112:LUFA//Drivers/USB/Core/XMEGA/EndpointStream_XMEGA.c **** 			Length--;
 415               		.loc 2 112 0
 416 00a4 0150      		subi r16,lo8(-(-1))
 417 00a6 1040      		sbci r17,hi8(-(-1))
 418               	.LVL30:
 113:LUFA//Drivers/USB/Core/XMEGA/EndpointStream_XMEGA.c **** 			BytesInTransfer++;
 419               		.loc 2 113 0
 420 00a8 0894      		sec
 421 00aa C11C      		adc r12,__zero_reg__
 422 00ac D11C      		adc r13,__zero_reg__
 423               	.LVL31:
 424               	.L25:
  93:LUFA//Drivers/USB/Core/XMEGA/EndpointStream_XMEGA.c **** 	while (Length)
 425               		.loc 2 93 0 discriminator 1
 426 00ae 0115      		cp r16,__zero_reg__
 427 00b0 1105      		cpc r17,__zero_reg__
 428 00b2 01F0      		breq .+2
 429 00b4 00C0      		rjmp .L23
 430 00b6 00C0      		rjmp .L17
 431               	.LVL32:
 432               	.L26:
 105:LUFA//Drivers/USB/Core/XMEGA/EndpointStream_XMEGA.c **** 			if ((ErrorCode = Endpoint_WaitUntilReady()))
 433               		.loc 2 105 0
 434 00b8 C82F      		mov r28,r24
 435               	.LVL33:
 436               	.L17:
 114:LUFA//Drivers/USB/Core/XMEGA/EndpointStream_XMEGA.c **** 		}
 115:LUFA//Drivers/USB/Core/XMEGA/EndpointStream_XMEGA.c **** 	}
 116:LUFA//Drivers/USB/Core/XMEGA/EndpointStream_XMEGA.c **** 	
 117:LUFA//Drivers/USB/Core/XMEGA/EndpointStream_XMEGA.c **** 	return ENDPOINT_RWSTREAM_NoError;
 118:LUFA//Drivers/USB/Core/XMEGA/EndpointStream_XMEGA.c **** }
 437               		.loc 2 118 0
 438 00ba 8C2F      		mov r24,r28
 439               	/* epilogue start */
 440 00bc CF91      		pop r28
 441 00be 1F91      		pop r17
 442 00c0 0F91      		pop r16
 443               	.LVL34:
 444 00c2 FF90      		pop r15
 445 00c4 EF90      		pop r14
 446               	.LVL35:
 447 00c6 DF90      		pop r13
 448 00c8 CF90      		pop r12
 449 00ca 0895      		ret
 450               		.cfi_endproc
 451               	.LFE69:
 453               		.section	.text.Endpoint_Write_Stream_LE,"ax",@progbits
 454               	.global	Endpoint_Write_Stream_LE
 456               	Endpoint_Write_Stream_LE:
 457               	.LFB70:
 458               		.file 3 "LUFA//Drivers/USB/Core/XMEGA/Template/Template_Endpoint_RW.c"
   1:LUFA//Drivers/USB/Core/XMEGA/Template/Template_Endpoint_RW.c **** /*
   2:LUFA//Drivers/USB/Core/XMEGA/Template/Template_Endpoint_RW.c ****              LUFA Library
   3:LUFA//Drivers/USB/Core/XMEGA/Template/Template_Endpoint_RW.c ****      Copyright (C) Dean Camera, 2012.
   4:LUFA//Drivers/USB/Core/XMEGA/Template/Template_Endpoint_RW.c **** 
   5:LUFA//Drivers/USB/Core/XMEGA/Template/Template_Endpoint_RW.c ****   dean [at] fourwalledcubicle [dot] com
   6:LUFA//Drivers/USB/Core/XMEGA/Template/Template_Endpoint_RW.c ****            www.lufa-lib.org
   7:LUFA//Drivers/USB/Core/XMEGA/Template/Template_Endpoint_RW.c **** */
   8:LUFA//Drivers/USB/Core/XMEGA/Template/Template_Endpoint_RW.c **** 
   9:LUFA//Drivers/USB/Core/XMEGA/Template/Template_Endpoint_RW.c **** /*
  10:LUFA//Drivers/USB/Core/XMEGA/Template/Template_Endpoint_RW.c ****   Copyright 2012  Dean Camera (dean [at] fourwalledcubicle [dot] com)
  11:LUFA//Drivers/USB/Core/XMEGA/Template/Template_Endpoint_RW.c **** 
  12:LUFA//Drivers/USB/Core/XMEGA/Template/Template_Endpoint_RW.c ****   Permission to use, copy, modify, distribute, and sell this
  13:LUFA//Drivers/USB/Core/XMEGA/Template/Template_Endpoint_RW.c ****   software and its documentation for any purpose is hereby granted
  14:LUFA//Drivers/USB/Core/XMEGA/Template/Template_Endpoint_RW.c ****   without fee, provided that the above copyright notice appear in
  15:LUFA//Drivers/USB/Core/XMEGA/Template/Template_Endpoint_RW.c ****   all copies and that both that the copyright notice and this
  16:LUFA//Drivers/USB/Core/XMEGA/Template/Template_Endpoint_RW.c ****   permission notice and warranty disclaimer appear in supporting
  17:LUFA//Drivers/USB/Core/XMEGA/Template/Template_Endpoint_RW.c ****   documentation, and that the name of the author not be used in
  18:LUFA//Drivers/USB/Core/XMEGA/Template/Template_Endpoint_RW.c ****   advertising or publicity pertaining to distribution of the
  19:LUFA//Drivers/USB/Core/XMEGA/Template/Template_Endpoint_RW.c ****   software without specific, written prior permission.
  20:LUFA//Drivers/USB/Core/XMEGA/Template/Template_Endpoint_RW.c **** 
  21:LUFA//Drivers/USB/Core/XMEGA/Template/Template_Endpoint_RW.c ****   The author disclaim all warranties with regard to this
  22:LUFA//Drivers/USB/Core/XMEGA/Template/Template_Endpoint_RW.c ****   software, including all implied warranties of merchantability
  23:LUFA//Drivers/USB/Core/XMEGA/Template/Template_Endpoint_RW.c ****   and fitness.  In no event shall the author be liable for any
  24:LUFA//Drivers/USB/Core/XMEGA/Template/Template_Endpoint_RW.c ****   special, indirect or consequential damages or any damages
  25:LUFA//Drivers/USB/Core/XMEGA/Template/Template_Endpoint_RW.c ****   whatsoever resulting from loss of use, data or profits, whether
  26:LUFA//Drivers/USB/Core/XMEGA/Template/Template_Endpoint_RW.c ****   in an action of contract, negligence or other tortious action,
  27:LUFA//Drivers/USB/Core/XMEGA/Template/Template_Endpoint_RW.c ****   arising out of or in connection with the use or performance of
  28:LUFA//Drivers/USB/Core/XMEGA/Template/Template_Endpoint_RW.c ****   this software.
  29:LUFA//Drivers/USB/Core/XMEGA/Template/Template_Endpoint_RW.c **** */
  30:LUFA//Drivers/USB/Core/XMEGA/Template/Template_Endpoint_RW.c **** 
  31:LUFA//Drivers/USB/Core/XMEGA/Template/Template_Endpoint_RW.c **** #if defined(TEMPLATE_FUNC_NAME)
  32:LUFA//Drivers/USB/Core/XMEGA/Template/Template_Endpoint_RW.c **** 
  33:LUFA//Drivers/USB/Core/XMEGA/Template/Template_Endpoint_RW.c **** // cppcheck-suppress unusedFunction
  34:LUFA//Drivers/USB/Core/XMEGA/Template/Template_Endpoint_RW.c **** uint8_t TEMPLATE_FUNC_NAME (TEMPLATE_BUFFER_TYPE const Buffer,
  35:LUFA//Drivers/USB/Core/XMEGA/Template/Template_Endpoint_RW.c ****                             uint16_t Length,
  36:LUFA//Drivers/USB/Core/XMEGA/Template/Template_Endpoint_RW.c ****                             uint16_t* const BytesProcessed)
  37:LUFA//Drivers/USB/Core/XMEGA/Template/Template_Endpoint_RW.c **** {
 459               		.loc 3 37 0
 460               		.cfi_startproc
 461               	.LVL36:
 462 0000 AF92      		push r10
 463               	.LCFI14:
 464               		.cfi_def_cfa_offset 3
 465               		.cfi_offset 10, -2
 466 0002 BF92      		push r11
 467               	.LCFI15:
 468               		.cfi_def_cfa_offset 4
 469               		.cfi_offset 11, -3
 470 0004 CF92      		push r12
 471               	.LCFI16:
 472               		.cfi_def_cfa_offset 5
 473               		.cfi_offset 12, -4
 474 0006 DF92      		push r13
 475               	.LCFI17:
 476               		.cfi_def_cfa_offset 6
 477               		.cfi_offset 13, -5
 478 0008 EF92      		push r14
 479               	.LCFI18:
 480               		.cfi_def_cfa_offset 7
 481               		.cfi_offset 14, -6
 482 000a FF92      		push r15
 483               	.LCFI19:
 484               		.cfi_def_cfa_offset 8
 485               		.cfi_offset 15, -7
 486 000c 1F93      		push r17
 487               	.LCFI20:
 488               		.cfi_def_cfa_offset 9
 489               		.cfi_offset 17, -8
 490 000e CF93      		push r28
 491               	.LCFI21:
 492               		.cfi_def_cfa_offset 10
 493               		.cfi_offset 28, -9
 494 0010 DF93      		push r29
 495               	.LCFI22:
 496               		.cfi_def_cfa_offset 11
 497               		.cfi_offset 29, -10
 498               	/* prologue: function */
 499               	/* frame size = 0 */
 500               	/* stack size = 9 */
 501               	.L__stack_usage = 9
 502 0012 EC01      		movw r28,r24
 503 0014 7B01      		movw r14,r22
 504 0016 6A01      		movw r12,r20
 505               	.LVL37:
  38:LUFA//Drivers/USB/Core/XMEGA/Template/Template_Endpoint_RW.c **** 	uint8_t* DataStream      = ((uint8_t*)Buffer + TEMPLATE_BUFFER_OFFSET(Length));
  39:LUFA//Drivers/USB/Core/XMEGA/Template/Template_Endpoint_RW.c **** 	uint16_t BytesInTransfer = 0;
  40:LUFA//Drivers/USB/Core/XMEGA/Template/Template_Endpoint_RW.c **** 	uint8_t  ErrorCode;
  41:LUFA//Drivers/USB/Core/XMEGA/Template/Template_Endpoint_RW.c **** 
  42:LUFA//Drivers/USB/Core/XMEGA/Template/Template_Endpoint_RW.c **** 	if ((ErrorCode = Endpoint_WaitUntilReady()))
 506               		.loc 3 42 0
 507 0018 0E94 0000 		call Endpoint_WaitUntilReady
 508               	.LVL38:
 509 001c 182F      		mov r17,r24
 510               	.LVL39:
 511 001e 8823      		tst r24
 512 0020 01F0      		breq .+2
 513 0022 00C0      		rjmp .L28
  43:LUFA//Drivers/USB/Core/XMEGA/Template/Template_Endpoint_RW.c **** 	  return ErrorCode;
  44:LUFA//Drivers/USB/Core/XMEGA/Template/Template_Endpoint_RW.c **** 
  45:LUFA//Drivers/USB/Core/XMEGA/Template/Template_Endpoint_RW.c **** 	if (BytesProcessed != NULL)
 514               		.loc 3 45 0
 515 0024 C114      		cp r12,__zero_reg__
 516 0026 D104      		cpc r13,__zero_reg__
 517 0028 01F0      		breq .L29
  46:LUFA//Drivers/USB/Core/XMEGA/Template/Template_Endpoint_RW.c **** 	{
  47:LUFA//Drivers/USB/Core/XMEGA/Template/Template_Endpoint_RW.c **** 		Length -= *BytesProcessed;
 518               		.loc 3 47 0
 519 002a F601      		movw r30,r12
 520 002c 8081      		ld r24,Z
 521 002e 9181      		ldd r25,Z+1
 522               	.LVL40:
 523 0030 E81A      		sub r14,r24
 524 0032 F90A      		sbc r15,r25
 525               	.LVL41:
  48:LUFA//Drivers/USB/Core/XMEGA/Template/Template_Endpoint_RW.c **** 		TEMPLATE_BUFFER_MOVE(DataStream, *BytesProcessed);
 526               		.loc 3 48 0
 527 0034 C80F      		add r28,r24
 528 0036 D91F      		adc r29,r25
 529               	.LVL42:
 530               	.L29:
  38:LUFA//Drivers/USB/Core/XMEGA/Template/Template_Endpoint_RW.c **** 	uint8_t* DataStream      = ((uint8_t*)Buffer + TEMPLATE_BUFFER_OFFSET(Length));
 531               		.loc 3 38 0 discriminator 1
 532 0038 AA24      		clr r10
 533 003a BB24      		clr r11
 534 003c 00C0      		rjmp .L37
 535               	.LVL43:
 536               	.L34:
 537               	.LBB268:
 538               	.LBB269:
 353:LUFA//Drivers/USB/Core/XMEGA/../XMEGA/../XMEGA/Endpoint_XMEGA.h **** 				return (USB_Endpoint_SelectedFIFO->Position < USB_Endpoint_SelectedFIFO->Length);
 539               		.loc 1 353 0
 540 003e 8091 0000 		lds r24,USB_Endpoint_SelectedFIFO
 541 0042 9091 0000 		lds r25,USB_Endpoint_SelectedFIFO+1
 542 0046 DC01      		movw r26,r24
 543 0048 AF5B      		subi r26,lo8(-(65))
 544 004a BF4F      		sbci r27,hi8(-(65))
 545 004c 2C91      		ld r18,X
 546 004e FC01      		movw r30,r24
 547 0050 E05C      		subi r30,lo8(-(64))
 548 0052 FF4F      		sbci r31,hi8(-(64))
 549 0054 3081      		ld r19,Z
 550               	.LBE269:
 551               	.LBE268:
  49:LUFA//Drivers/USB/Core/XMEGA/Template/Template_Endpoint_RW.c **** 	}
  50:LUFA//Drivers/USB/Core/XMEGA/Template/Template_Endpoint_RW.c **** 
  51:LUFA//Drivers/USB/Core/XMEGA/Template/Template_Endpoint_RW.c **** 	while (Length)
  52:LUFA//Drivers/USB/Core/XMEGA/Template/Template_Endpoint_RW.c **** 	{
  53:LUFA//Drivers/USB/Core/XMEGA/Template/Template_Endpoint_RW.c **** 		if (!(Endpoint_IsReadWriteAllowed()))
 552               		.loc 3 53 0
 553 0056 2317      		cp r18,r19
 554 0058 00F0      		brlo .L31
 555               	.LBB270:
 556               	.LBB271:
 448:LUFA//Drivers/USB/Core/XMEGA/../XMEGA/../XMEGA/Endpoint_XMEGA.h **** 				USB_Endpoint_SelectedHandle->CNT     = USB_Endpoint_SelectedFIFO->Position;
 557               		.loc 1 448 0
 558 005a E091 0000 		lds r30,USB_Endpoint_SelectedHandle
 559 005e F091 0000 		lds r31,USB_Endpoint_SelectedHandle+1
 560 0062 8C91      		ld r24,X
 561 0064 90E0      		ldi r25,lo8(0)
 562 0066 8283      		std Z+2,r24
 563 0068 9383      		std Z+3,r25
 449:LUFA//Drivers/USB/Core/XMEGA/../XMEGA/../XMEGA/Endpoint_XMEGA.h **** 				USB_Endpoint_SelectedHandle->STATUS &= ~(USB_EP_TRNCOMPL0_bm | USB_EP_BUSNACK0_bm | USB_EP_OVF_
 564               		.loc 1 449 0
 565 006a 8081      		ld r24,Z
 566 006c 8D79      		andi r24,lo8(-99)
 567 006e 8083      		st Z,r24
 450:LUFA//Drivers/USB/Core/XMEGA/../XMEGA/../XMEGA/Endpoint_XMEGA.h **** 				USB_Endpoint_SelectedFIFO->Position  = 0;
 568               		.loc 1 450 0
 569 0070 E091 0000 		lds r30,USB_Endpoint_SelectedFIFO
 570 0074 F091 0000 		lds r31,USB_Endpoint_SelectedFIFO+1
 571 0078 EF5B      		subi r30,lo8(-(65))
 572 007a FF4F      		sbci r31,hi8(-(65))
 573 007c 1082      		st Z,__zero_reg__
 574               	.LBE271:
 575               	.LBE270:
  54:LUFA//Drivers/USB/Core/XMEGA/Template/Template_Endpoint_RW.c **** 		{
  55:LUFA//Drivers/USB/Core/XMEGA/Template/Template_Endpoint_RW.c **** 			TEMPLATE_CLEAR_ENDPOINT();
  56:LUFA//Drivers/USB/Core/XMEGA/Template/Template_Endpoint_RW.c **** 
  57:LUFA//Drivers/USB/Core/XMEGA/Template/Template_Endpoint_RW.c **** 			#if !defined(INTERRUPT_CONTROL_ENDPOINT)
  58:LUFA//Drivers/USB/Core/XMEGA/Template/Template_Endpoint_RW.c **** 			USB_USBTask();
 576               		.loc 3 58 0
 577 007e 0E94 0000 		call USB_USBTask
  59:LUFA//Drivers/USB/Core/XMEGA/Template/Template_Endpoint_RW.c **** 			#endif
  60:LUFA//Drivers/USB/Core/XMEGA/Template/Template_Endpoint_RW.c **** 
  61:LUFA//Drivers/USB/Core/XMEGA/Template/Template_Endpoint_RW.c **** 			if (BytesProcessed != NULL)
 578               		.loc 3 61 0
 579 0082 C114      		cp r12,__zero_reg__
 580 0084 D104      		cpc r13,__zero_reg__
 581 0086 01F0      		breq .L32
  62:LUFA//Drivers/USB/Core/XMEGA/Template/Template_Endpoint_RW.c **** 			{
  63:LUFA//Drivers/USB/Core/XMEGA/Template/Template_Endpoint_RW.c **** 				*BytesProcessed += BytesInTransfer;
 582               		.loc 3 63 0
 583 0088 F601      		movw r30,r12
 584 008a 8081      		ld r24,Z
 585 008c 9181      		ldd r25,Z+1
 586 008e 8A0D      		add r24,r10
 587 0090 9B1D      		adc r25,r11
 588 0092 8083      		st Z,r24
 589 0094 9183      		std Z+1,r25
  64:LUFA//Drivers/USB/Core/XMEGA/Template/Template_Endpoint_RW.c **** 				return ENDPOINT_RWSTREAM_IncompleteTransfer;
 590               		.loc 3 64 0
 591 0096 15E0      		ldi r17,lo8(5)
 592 0098 00C0      		rjmp .L28
 593               	.L32:
  65:LUFA//Drivers/USB/Core/XMEGA/Template/Template_Endpoint_RW.c **** 			}
  66:LUFA//Drivers/USB/Core/XMEGA/Template/Template_Endpoint_RW.c **** 
  67:LUFA//Drivers/USB/Core/XMEGA/Template/Template_Endpoint_RW.c **** 			if ((ErrorCode = Endpoint_WaitUntilReady()))
 594               		.loc 3 67 0
 595 009a 0E94 0000 		call Endpoint_WaitUntilReady
 596               	.LVL44:
 597 009e 8823      		tst r24
 598 00a0 01F0      		breq .L37
 599 00a2 00C0      		rjmp .L38
 600               	.LVL45:
 601               	.L31:
  68:LUFA//Drivers/USB/Core/XMEGA/Template/Template_Endpoint_RW.c **** 			  return ErrorCode;
  69:LUFA//Drivers/USB/Core/XMEGA/Template/Template_Endpoint_RW.c **** 		}
  70:LUFA//Drivers/USB/Core/XMEGA/Template/Template_Endpoint_RW.c **** 		else
  71:LUFA//Drivers/USB/Core/XMEGA/Template/Template_Endpoint_RW.c **** 		{
  72:LUFA//Drivers/USB/Core/XMEGA/Template/Template_Endpoint_RW.c **** 			TEMPLATE_TRANSFER_BYTE(DataStream);
 602               		.loc 3 72 0
 603 00a4 3991      		ld r19,Y+
 604               	.LVL46:
 605               	.LBB272:
 606               	.LBB273:
 548:LUFA//Drivers/USB/Core/XMEGA/../XMEGA/../XMEGA/Endpoint_XMEGA.h **** 				USB_Endpoint_SelectedFIFO->Data[USB_Endpoint_SelectedFIFO->Position++] = Data;
 607               		.loc 1 548 0
 608 00a6 2C91      		ld r18,X
 609 00a8 FC01      		movw r30,r24
 610 00aa E20F      		add r30,r18
 611 00ac F11D      		adc r31,__zero_reg__
 612 00ae 3083      		st Z,r19
 613 00b0 2F5F      		subi r18,lo8(-(1))
 614 00b2 2C93      		st X,r18
 615               	.LVL47:
 616               	.LBE273:
 617               	.LBE272:
  73:LUFA//Drivers/USB/Core/XMEGA/Template/Template_Endpoint_RW.c **** 			TEMPLATE_BUFFER_MOVE(DataStream, 1);
  74:LUFA//Drivers/USB/Core/XMEGA/Template/Template_Endpoint_RW.c **** 			Length--;
 618               		.loc 3 74 0
 619 00b4 0894      		sec
 620 00b6 E108      		sbc r14,__zero_reg__
 621 00b8 F108      		sbc r15,__zero_reg__
 622               	.LVL48:
  75:LUFA//Drivers/USB/Core/XMEGA/Template/Template_Endpoint_RW.c **** 			BytesInTransfer++;
 623               		.loc 3 75 0
 624 00ba 0894      		sec
 625 00bc A11C      		adc r10,__zero_reg__
 626 00be B11C      		adc r11,__zero_reg__
 627               	.LVL49:
 628               	.L37:
  51:LUFA//Drivers/USB/Core/XMEGA/Template/Template_Endpoint_RW.c **** 	while (Length)
 629               		.loc 3 51 0 discriminator 1
 630 00c0 E114      		cp r14,__zero_reg__
 631 00c2 F104      		cpc r15,__zero_reg__
 632 00c4 01F0      		breq .+2
 633 00c6 00C0      		rjmp .L34
 634 00c8 00C0      		rjmp .L28
 635               	.LVL50:
 636               	.L38:
  67:LUFA//Drivers/USB/Core/XMEGA/Template/Template_Endpoint_RW.c **** 			if ((ErrorCode = Endpoint_WaitUntilReady()))
 637               		.loc 3 67 0
 638 00ca 182F      		mov r17,r24
 639               	.LVL51:
 640               	.L28:
  76:LUFA//Drivers/USB/Core/XMEGA/Template/Template_Endpoint_RW.c **** 		}
  77:LUFA//Drivers/USB/Core/XMEGA/Template/Template_Endpoint_RW.c **** 	}
  78:LUFA//Drivers/USB/Core/XMEGA/Template/Template_Endpoint_RW.c **** 
  79:LUFA//Drivers/USB/Core/XMEGA/Template/Template_Endpoint_RW.c **** 	return ENDPOINT_RWSTREAM_NoError;
  80:LUFA//Drivers/USB/Core/XMEGA/Template/Template_Endpoint_RW.c **** }
 641               		.loc 3 80 0
 642 00cc 812F      		mov r24,r17
 643               	/* epilogue start */
 644 00ce DF91      		pop r29
 645 00d0 CF91      		pop r28
 646               	.LVL52:
 647 00d2 1F91      		pop r17
 648 00d4 FF90      		pop r15
 649 00d6 EF90      		pop r14
 650               	.LVL53:
 651 00d8 DF90      		pop r13
 652 00da CF90      		pop r12
 653               	.LVL54:
 654 00dc BF90      		pop r11
 655 00de AF90      		pop r10
 656 00e0 0895      		ret
 657               		.cfi_endproc
 658               	.LFE70:
 660               		.section	.text.Endpoint_Write_Stream_BE,"ax",@progbits
 661               	.global	Endpoint_Write_Stream_BE
 663               	Endpoint_Write_Stream_BE:
 664               	.LFB71:
  37:LUFA//Drivers/USB/Core/XMEGA/Template/Template_Endpoint_RW.c **** {
 665               		.loc 3 37 0
 666               		.cfi_startproc
 667               	.LVL55:
 668 0000 AF92      		push r10
 669               	.LCFI23:
 670               		.cfi_def_cfa_offset 3
 671               		.cfi_offset 10, -2
 672 0002 BF92      		push r11
 673               	.LCFI24:
 674               		.cfi_def_cfa_offset 4
 675               		.cfi_offset 11, -3
 676 0004 DF92      		push r13
 677               	.LCFI25:
 678               		.cfi_def_cfa_offset 5
 679               		.cfi_offset 13, -4
 680 0006 EF92      		push r14
 681               	.LCFI26:
 682               		.cfi_def_cfa_offset 6
 683               		.cfi_offset 14, -5
 684 0008 FF92      		push r15
 685               	.LCFI27:
 686               		.cfi_def_cfa_offset 7
 687               		.cfi_offset 15, -6
 688 000a 0F93      		push r16
 689               	.LCFI28:
 690               		.cfi_def_cfa_offset 8
 691               		.cfi_offset 16, -7
 692 000c 1F93      		push r17
 693               	.LCFI29:
 694               		.cfi_def_cfa_offset 9
 695               		.cfi_offset 17, -8
 696 000e CF93      		push r28
 697               	.LCFI30:
 698               		.cfi_def_cfa_offset 10
 699               		.cfi_offset 28, -9
 700 0010 DF93      		push r29
 701               	.LCFI31:
 702               		.cfi_def_cfa_offset 11
 703               		.cfi_offset 29, -10
 704               	/* prologue: function */
 705               	/* frame size = 0 */
 706               	/* stack size = 9 */
 707               	.L__stack_usage = 9
 708 0012 EC01      		movw r28,r24
 709 0014 7B01      		movw r14,r22
 710 0016 5A01      		movw r10,r20
 711               	.LVL56:
  42:LUFA//Drivers/USB/Core/XMEGA/Template/Template_Endpoint_RW.c **** 	if ((ErrorCode = Endpoint_WaitUntilReady()))
 712               		.loc 3 42 0
 713 0018 0E94 0000 		call Endpoint_WaitUntilReady
 714               	.LVL57:
 715 001c D82E      		mov r13,r24
 716               	.LVL58:
 717 001e 8823      		tst r24
 718 0020 01F0      		breq .+2
 719 0022 00C0      		rjmp .L40
  38:LUFA//Drivers/USB/Core/XMEGA/Template/Template_Endpoint_RW.c **** 	uint8_t* DataStream      = ((uint8_t*)Buffer + TEMPLATE_BUFFER_OFFSET(Length));
 720               		.loc 3 38 0
 721 0024 8701      		movw r16,r14
 722 0026 0150      		subi r16,lo8(-(-1))
 723 0028 1040      		sbci r17,hi8(-(-1))
 724 002a 0C0F      		add r16,r28
 725 002c 1D1F      		adc r17,r29
  45:LUFA//Drivers/USB/Core/XMEGA/Template/Template_Endpoint_RW.c **** 	if (BytesProcessed != NULL)
 726               		.loc 3 45 0
 727 002e A114      		cp r10,__zero_reg__
 728 0030 B104      		cpc r11,__zero_reg__
 729 0032 01F0      		breq .L41
  47:LUFA//Drivers/USB/Core/XMEGA/Template/Template_Endpoint_RW.c **** 		Length -= *BytesProcessed;
 730               		.loc 3 47 0
 731 0034 F501      		movw r30,r10
 732 0036 8081      		ld r24,Z
 733 0038 9181      		ldd r25,Z+1
 734               	.LVL59:
 735 003a E81A      		sub r14,r24
 736 003c F90A      		sbc r15,r25
 737               	.LVL60:
  48:LUFA//Drivers/USB/Core/XMEGA/Template/Template_Endpoint_RW.c **** 		TEMPLATE_BUFFER_MOVE(DataStream, *BytesProcessed);
 738               		.loc 3 48 0
 739 003e 081B      		sub r16,r24
 740 0040 190B      		sbc r17,r25
 741               	.LVL61:
 742               	.L41:
  37:LUFA//Drivers/USB/Core/XMEGA/Template/Template_Endpoint_RW.c **** {
 743               		.loc 3 37 0 discriminator 1
 744 0042 C0E0      		ldi r28,lo8(0)
 745 0044 D0E0      		ldi r29,hi8(0)
 746               	.LVL62:
 747 0046 00C0      		rjmp .L48
 748               	.LVL63:
 749               	.L46:
 750               	.LBB274:
 751               	.LBB275:
 353:LUFA//Drivers/USB/Core/XMEGA/../XMEGA/../XMEGA/Endpoint_XMEGA.h **** 				return (USB_Endpoint_SelectedFIFO->Position < USB_Endpoint_SelectedFIFO->Length);
 752               		.loc 1 353 0
 753 0048 8091 0000 		lds r24,USB_Endpoint_SelectedFIFO
 754 004c 9091 0000 		lds r25,USB_Endpoint_SelectedFIFO+1
 755 0050 DC01      		movw r26,r24
 756 0052 AF5B      		subi r26,lo8(-(65))
 757 0054 BF4F      		sbci r27,hi8(-(65))
 758 0056 2C91      		ld r18,X
 759 0058 FC01      		movw r30,r24
 760 005a E05C      		subi r30,lo8(-(64))
 761 005c FF4F      		sbci r31,hi8(-(64))
 762 005e 3081      		ld r19,Z
 763               	.LBE275:
 764               	.LBE274:
  53:LUFA//Drivers/USB/Core/XMEGA/Template/Template_Endpoint_RW.c **** 		if (!(Endpoint_IsReadWriteAllowed()))
 765               		.loc 3 53 0
 766 0060 2317      		cp r18,r19
 767 0062 00F0      		brlo .L43
 768               	.LBB276:
 769               	.LBB277:
 448:LUFA//Drivers/USB/Core/XMEGA/../XMEGA/../XMEGA/Endpoint_XMEGA.h **** 				USB_Endpoint_SelectedHandle->CNT     = USB_Endpoint_SelectedFIFO->Position;
 770               		.loc 1 448 0
 771 0064 E091 0000 		lds r30,USB_Endpoint_SelectedHandle
 772 0068 F091 0000 		lds r31,USB_Endpoint_SelectedHandle+1
 773 006c 8C91      		ld r24,X
 774 006e 90E0      		ldi r25,lo8(0)
 775 0070 8283      		std Z+2,r24
 776 0072 9383      		std Z+3,r25
 449:LUFA//Drivers/USB/Core/XMEGA/../XMEGA/../XMEGA/Endpoint_XMEGA.h **** 				USB_Endpoint_SelectedHandle->STATUS &= ~(USB_EP_TRNCOMPL0_bm | USB_EP_BUSNACK0_bm | USB_EP_OVF_
 777               		.loc 1 449 0
 778 0074 8081      		ld r24,Z
 779 0076 8D79      		andi r24,lo8(-99)
 780 0078 8083      		st Z,r24
 450:LUFA//Drivers/USB/Core/XMEGA/../XMEGA/../XMEGA/Endpoint_XMEGA.h **** 				USB_Endpoint_SelectedFIFO->Position  = 0;
 781               		.loc 1 450 0
 782 007a E091 0000 		lds r30,USB_Endpoint_SelectedFIFO
 783 007e F091 0000 		lds r31,USB_Endpoint_SelectedFIFO+1
 784 0082 EF5B      		subi r30,lo8(-(65))
 785 0084 FF4F      		sbci r31,hi8(-(65))
 786 0086 1082      		st Z,__zero_reg__
 787               	.LBE277:
 788               	.LBE276:
  58:LUFA//Drivers/USB/Core/XMEGA/Template/Template_Endpoint_RW.c **** 			USB_USBTask();
 789               		.loc 3 58 0
 790 0088 0E94 0000 		call USB_USBTask
  61:LUFA//Drivers/USB/Core/XMEGA/Template/Template_Endpoint_RW.c **** 			if (BytesProcessed != NULL)
 791               		.loc 3 61 0
 792 008c A114      		cp r10,__zero_reg__
 793 008e B104      		cpc r11,__zero_reg__
 794 0090 01F0      		breq .L44
  63:LUFA//Drivers/USB/Core/XMEGA/Template/Template_Endpoint_RW.c **** 				*BytesProcessed += BytesInTransfer;
 795               		.loc 3 63 0
 796 0092 F501      		movw r30,r10
 797 0094 8081      		ld r24,Z
 798 0096 9181      		ldd r25,Z+1
 799 0098 8C0F      		add r24,r28
 800 009a 9D1F      		adc r25,r29
 801 009c 8083      		st Z,r24
 802 009e 9183      		std Z+1,r25
  64:LUFA//Drivers/USB/Core/XMEGA/Template/Template_Endpoint_RW.c **** 				return ENDPOINT_RWSTREAM_IncompleteTransfer;
 803               		.loc 3 64 0
 804 00a0 A5E0      		ldi r26,lo8(5)
 805 00a2 DA2E      		mov r13,r26
 806 00a4 00C0      		rjmp .L40
 807               	.L44:
  67:LUFA//Drivers/USB/Core/XMEGA/Template/Template_Endpoint_RW.c **** 			if ((ErrorCode = Endpoint_WaitUntilReady()))
 808               		.loc 3 67 0
 809 00a6 0E94 0000 		call Endpoint_WaitUntilReady
 810               	.LVL64:
 811 00aa 8823      		tst r24
 812 00ac 01F0      		breq .L48
 813 00ae 00C0      		rjmp .L49
 814               	.LVL65:
 815               	.L43:
  72:LUFA//Drivers/USB/Core/XMEGA/Template/Template_Endpoint_RW.c **** 			TEMPLATE_TRANSFER_BYTE(DataStream);
 816               		.loc 3 72 0
 817 00b0 F801      		movw r30,r16
 818 00b2 3081      		ld r19,Z
 819               	.LVL66:
 820               	.LBB278:
 821               	.LBB279:
 548:LUFA//Drivers/USB/Core/XMEGA/../XMEGA/../XMEGA/Endpoint_XMEGA.h **** 				USB_Endpoint_SelectedFIFO->Data[USB_Endpoint_SelectedFIFO->Position++] = Data;
 822               		.loc 1 548 0
 823 00b4 2C91      		ld r18,X
 824 00b6 FC01      		movw r30,r24
 825 00b8 E20F      		add r30,r18
 826 00ba F11D      		adc r31,__zero_reg__
 827 00bc 3083      		st Z,r19
 828 00be 2F5F      		subi r18,lo8(-(1))
 829 00c0 2C93      		st X,r18
 830               	.LBE279:
 831               	.LBE278:
  73:LUFA//Drivers/USB/Core/XMEGA/Template/Template_Endpoint_RW.c **** 			TEMPLATE_BUFFER_MOVE(DataStream, 1);
 832               		.loc 3 73 0
 833 00c2 0150      		subi r16,lo8(-(-1))
 834 00c4 1040      		sbci r17,hi8(-(-1))
 835               	.LVL67:
  74:LUFA//Drivers/USB/Core/XMEGA/Template/Template_Endpoint_RW.c **** 			Length--;
 836               		.loc 3 74 0
 837 00c6 0894      		sec
 838 00c8 E108      		sbc r14,__zero_reg__
 839 00ca F108      		sbc r15,__zero_reg__
 840               	.LVL68:
  75:LUFA//Drivers/USB/Core/XMEGA/Template/Template_Endpoint_RW.c **** 			BytesInTransfer++;
 841               		.loc 3 75 0
 842 00cc 2196      		adiw r28,1
 843               	.LVL69:
 844               	.L48:
  51:LUFA//Drivers/USB/Core/XMEGA/Template/Template_Endpoint_RW.c **** 	while (Length)
 845               		.loc 3 51 0 discriminator 1
 846 00ce E114      		cp r14,__zero_reg__
 847 00d0 F104      		cpc r15,__zero_reg__
 848 00d2 01F0      		breq .+2
 849 00d4 00C0      		rjmp .L46
 850 00d6 00C0      		rjmp .L40
 851               	.LVL70:
 852               	.L49:
  67:LUFA//Drivers/USB/Core/XMEGA/Template/Template_Endpoint_RW.c **** 			if ((ErrorCode = Endpoint_WaitUntilReady()))
 853               		.loc 3 67 0
 854 00d8 D82E      		mov r13,r24
 855               	.LVL71:
 856               	.L40:
 857               		.loc 3 80 0
 858 00da 8D2D      		mov r24,r13
 859               	/* epilogue start */
 860 00dc DF91      		pop r29
 861 00de CF91      		pop r28
 862 00e0 1F91      		pop r17
 863 00e2 0F91      		pop r16
 864 00e4 FF90      		pop r15
 865 00e6 EF90      		pop r14
 866               	.LVL72:
 867 00e8 DF90      		pop r13
 868 00ea BF90      		pop r11
 869 00ec AF90      		pop r10
 870               	.LVL73:
 871 00ee 0895      		ret
 872               		.cfi_endproc
 873               	.LFE71:
 875               		.section	.text.Endpoint_Read_Stream_LE,"ax",@progbits
 876               	.global	Endpoint_Read_Stream_LE
 878               	Endpoint_Read_Stream_LE:
 879               	.LFB72:
  37:LUFA//Drivers/USB/Core/XMEGA/Template/Template_Endpoint_RW.c **** {
 880               		.loc 3 37 0
 881               		.cfi_startproc
 882               	.LVL74:
 883 0000 AF92      		push r10
 884               	.LCFI32:
 885               		.cfi_def_cfa_offset 3
 886               		.cfi_offset 10, -2
 887 0002 BF92      		push r11
 888               	.LCFI33:
 889               		.cfi_def_cfa_offset 4
 890               		.cfi_offset 11, -3
 891 0004 CF92      		push r12
 892               	.LCFI34:
 893               		.cfi_def_cfa_offset 5
 894               		.cfi_offset 12, -4
 895 0006 DF92      		push r13
 896               	.LCFI35:
 897               		.cfi_def_cfa_offset 6
 898               		.cfi_offset 13, -5
 899 0008 EF92      		push r14
 900               	.LCFI36:
 901               		.cfi_def_cfa_offset 7
 902               		.cfi_offset 14, -6
 903 000a FF92      		push r15
 904               	.LCFI37:
 905               		.cfi_def_cfa_offset 8
 906               		.cfi_offset 15, -7
 907 000c 1F93      		push r17
 908               	.LCFI38:
 909               		.cfi_def_cfa_offset 9
 910               		.cfi_offset 17, -8
 911 000e CF93      		push r28
 912               	.LCFI39:
 913               		.cfi_def_cfa_offset 10
 914               		.cfi_offset 28, -9
 915 0010 DF93      		push r29
 916               	.LCFI40:
 917               		.cfi_def_cfa_offset 11
 918               		.cfi_offset 29, -10
 919               	/* prologue: function */
 920               	/* frame size = 0 */
 921               	/* stack size = 9 */
 922               	.L__stack_usage = 9
 923 0012 EC01      		movw r28,r24
 924 0014 7B01      		movw r14,r22
 925 0016 6A01      		movw r12,r20
 926               	.LVL75:
  42:LUFA//Drivers/USB/Core/XMEGA/Template/Template_Endpoint_RW.c **** 	if ((ErrorCode = Endpoint_WaitUntilReady()))
 927               		.loc 3 42 0
 928 0018 0E94 0000 		call Endpoint_WaitUntilReady
 929               	.LVL76:
 930 001c 182F      		mov r17,r24
 931               	.LVL77:
 932 001e 8823      		tst r24
 933 0020 01F0      		breq .+2
 934 0022 00C0      		rjmp .L51
  45:LUFA//Drivers/USB/Core/XMEGA/Template/Template_Endpoint_RW.c **** 	if (BytesProcessed != NULL)
 935               		.loc 3 45 0
 936 0024 C114      		cp r12,__zero_reg__
 937 0026 D104      		cpc r13,__zero_reg__
 938 0028 01F0      		breq .L52
  47:LUFA//Drivers/USB/Core/XMEGA/Template/Template_Endpoint_RW.c **** 		Length -= *BytesProcessed;
 939               		.loc 3 47 0
 940 002a F601      		movw r30,r12
 941 002c 8081      		ld r24,Z
 942 002e 9181      		ldd r25,Z+1
 943               	.LVL78:
 944 0030 E81A      		sub r14,r24
 945 0032 F90A      		sbc r15,r25
 946               	.LVL79:
  48:LUFA//Drivers/USB/Core/XMEGA/Template/Template_Endpoint_RW.c **** 		TEMPLATE_BUFFER_MOVE(DataStream, *BytesProcessed);
 947               		.loc 3 48 0
 948 0034 C80F      		add r28,r24
 949 0036 D91F      		adc r29,r25
 950               	.LVL80:
 951               	.L52:
  38:LUFA//Drivers/USB/Core/XMEGA/Template/Template_Endpoint_RW.c **** 	uint8_t* DataStream      = ((uint8_t*)Buffer + TEMPLATE_BUFFER_OFFSET(Length));
 952               		.loc 3 38 0 discriminator 1
 953 0038 AA24      		clr r10
 954 003a BB24      		clr r11
 955 003c 00C0      		rjmp .L60
 956               	.LVL81:
 957               	.L57:
 958               	.LBB280:
 959               	.LBB281:
 353:LUFA//Drivers/USB/Core/XMEGA/../XMEGA/../XMEGA/Endpoint_XMEGA.h **** 				return (USB_Endpoint_SelectedFIFO->Position < USB_Endpoint_SelectedFIFO->Length);
 960               		.loc 1 353 0
 961 003e 8091 0000 		lds r24,USB_Endpoint_SelectedFIFO
 962 0042 9091 0000 		lds r25,USB_Endpoint_SelectedFIFO+1
 963 0046 DC01      		movw r26,r24
 964 0048 AF5B      		subi r26,lo8(-(65))
 965 004a BF4F      		sbci r27,hi8(-(65))
 966 004c 2C91      		ld r18,X
 967 004e FC01      		movw r30,r24
 968 0050 E05C      		subi r30,lo8(-(64))
 969 0052 FF4F      		sbci r31,hi8(-(64))
 970 0054 3081      		ld r19,Z
 971               	.LBE281:
 972               	.LBE280:
  53:LUFA//Drivers/USB/Core/XMEGA/Template/Template_Endpoint_RW.c **** 		if (!(Endpoint_IsReadWriteAllowed()))
 973               		.loc 3 53 0
 974 0056 2317      		cp r18,r19
 975 0058 00F0      		brlo .L54
 976               	.LBB282:
 977               	.LBB283:
 461:LUFA//Drivers/USB/Core/XMEGA/../XMEGA/../XMEGA/Endpoint_XMEGA.h **** 				USB_Endpoint_SelectedHandle->STATUS &= ~(USB_EP_TRNCOMPL0_bm | USB_EP_BUSNACK0_bm | USB_EP_OVF_
 978               		.loc 1 461 0
 979 005a E091 0000 		lds r30,USB_Endpoint_SelectedHandle
 980 005e F091 0000 		lds r31,USB_Endpoint_SelectedHandle+1
 981 0062 8081      		ld r24,Z
 982 0064 8D79      		andi r24,lo8(-99)
 983 0066 8083      		st Z,r24
 462:LUFA//Drivers/USB/Core/XMEGA/../XMEGA/../XMEGA/Endpoint_XMEGA.h **** 				USB_Endpoint_SelectedFIFO->Position  = 0;
 984               		.loc 1 462 0
 985 0068 E091 0000 		lds r30,USB_Endpoint_SelectedFIFO
 986 006c F091 0000 		lds r31,USB_Endpoint_SelectedFIFO+1
 987 0070 EF5B      		subi r30,lo8(-(65))
 988 0072 FF4F      		sbci r31,hi8(-(65))
 989 0074 1082      		st Z,__zero_reg__
 990               	.LBE283:
 991               	.LBE282:
  58:LUFA//Drivers/USB/Core/XMEGA/Template/Template_Endpoint_RW.c **** 			USB_USBTask();
 992               		.loc 3 58 0
 993 0076 0E94 0000 		call USB_USBTask
  61:LUFA//Drivers/USB/Core/XMEGA/Template/Template_Endpoint_RW.c **** 			if (BytesProcessed != NULL)
 994               		.loc 3 61 0
 995 007a C114      		cp r12,__zero_reg__
 996 007c D104      		cpc r13,__zero_reg__
 997 007e 01F0      		breq .L55
  63:LUFA//Drivers/USB/Core/XMEGA/Template/Template_Endpoint_RW.c **** 				*BytesProcessed += BytesInTransfer;
 998               		.loc 3 63 0
 999 0080 F601      		movw r30,r12
 1000 0082 8081      		ld r24,Z
 1001 0084 9181      		ldd r25,Z+1
 1002 0086 8A0D      		add r24,r10
 1003 0088 9B1D      		adc r25,r11
 1004 008a 8083      		st Z,r24
 1005 008c 9183      		std Z+1,r25
  64:LUFA//Drivers/USB/Core/XMEGA/Template/Template_Endpoint_RW.c **** 				return ENDPOINT_RWSTREAM_IncompleteTransfer;
 1006               		.loc 3 64 0
 1007 008e 15E0      		ldi r17,lo8(5)
 1008 0090 00C0      		rjmp .L51
 1009               	.L55:
  67:LUFA//Drivers/USB/Core/XMEGA/Template/Template_Endpoint_RW.c **** 			if ((ErrorCode = Endpoint_WaitUntilReady()))
 1010               		.loc 3 67 0
 1011 0092 0E94 0000 		call Endpoint_WaitUntilReady
 1012               	.LVL82:
 1013 0096 8823      		tst r24
 1014 0098 01F0      		breq .L60
 1015 009a 00C0      		rjmp .L61
 1016               	.LVL83:
 1017               	.L54:
 1018               	.LBB284:
 1019               	.LBB285:
 536:LUFA//Drivers/USB/Core/XMEGA/../XMEGA/../XMEGA/Endpoint_XMEGA.h **** 				return USB_Endpoint_SelectedFIFO->Data[USB_Endpoint_SelectedFIFO->Position++];
 1020               		.loc 1 536 0
 1021 009c 2C91      		ld r18,X
 1022 009e FC01      		movw r30,r24
 1023 00a0 E20F      		add r30,r18
 1024 00a2 F11D      		adc r31,__zero_reg__
 1025 00a4 8081      		ld r24,Z
 1026 00a6 2F5F      		subi r18,lo8(-(1))
 1027 00a8 2C93      		st X,r18
 1028               	.LBE285:
 1029               	.LBE284:
  72:LUFA//Drivers/USB/Core/XMEGA/Template/Template_Endpoint_RW.c **** 			TEMPLATE_TRANSFER_BYTE(DataStream);
 1030               		.loc 3 72 0
 1031 00aa 8993      		st Y+,r24
 1032               	.LVL84:
  74:LUFA//Drivers/USB/Core/XMEGA/Template/Template_Endpoint_RW.c **** 			Length--;
 1033               		.loc 3 74 0
 1034 00ac 0894      		sec
 1035 00ae E108      		sbc r14,__zero_reg__
 1036 00b0 F108      		sbc r15,__zero_reg__
 1037               	.LVL85:
  75:LUFA//Drivers/USB/Core/XMEGA/Template/Template_Endpoint_RW.c **** 			BytesInTransfer++;
 1038               		.loc 3 75 0
 1039 00b2 0894      		sec
 1040 00b4 A11C      		adc r10,__zero_reg__
 1041 00b6 B11C      		adc r11,__zero_reg__
 1042               	.LVL86:
 1043               	.L60:
  51:LUFA//Drivers/USB/Core/XMEGA/Template/Template_Endpoint_RW.c **** 	while (Length)
 1044               		.loc 3 51 0 discriminator 1
 1045 00b8 E114      		cp r14,__zero_reg__
 1046 00ba F104      		cpc r15,__zero_reg__
 1047 00bc 01F0      		breq .+2
 1048 00be 00C0      		rjmp .L57
 1049 00c0 00C0      		rjmp .L51
 1050               	.LVL87:
 1051               	.L61:
  67:LUFA//Drivers/USB/Core/XMEGA/Template/Template_Endpoint_RW.c **** 			if ((ErrorCode = Endpoint_WaitUntilReady()))
 1052               		.loc 3 67 0
 1053 00c2 182F      		mov r17,r24
 1054               	.LVL88:
 1055               	.L51:
 1056               		.loc 3 80 0
 1057 00c4 812F      		mov r24,r17
 1058               	/* epilogue start */
 1059 00c6 DF91      		pop r29
 1060 00c8 CF91      		pop r28
 1061               	.LVL89:
 1062 00ca 1F91      		pop r17
 1063 00cc FF90      		pop r15
 1064 00ce EF90      		pop r14
 1065               	.LVL90:
 1066 00d0 DF90      		pop r13
 1067 00d2 CF90      		pop r12
 1068               	.LVL91:
 1069 00d4 BF90      		pop r11
 1070 00d6 AF90      		pop r10
 1071 00d8 0895      		ret
 1072               		.cfi_endproc
 1073               	.LFE72:
 1075               		.section	.text.Endpoint_Read_Stream_BE,"ax",@progbits
 1076               	.global	Endpoint_Read_Stream_BE
 1078               	Endpoint_Read_Stream_BE:
 1079               	.LFB73:
  37:LUFA//Drivers/USB/Core/XMEGA/Template/Template_Endpoint_RW.c **** {
 1080               		.loc 3 37 0
 1081               		.cfi_startproc
 1082               	.LVL92:
 1083 0000 AF92      		push r10
 1084               	.LCFI41:
 1085               		.cfi_def_cfa_offset 3
 1086               		.cfi_offset 10, -2
 1087 0002 BF92      		push r11
 1088               	.LCFI42:
 1089               		.cfi_def_cfa_offset 4
 1090               		.cfi_offset 11, -3
 1091 0004 DF92      		push r13
 1092               	.LCFI43:
 1093               		.cfi_def_cfa_offset 5
 1094               		.cfi_offset 13, -4
 1095 0006 EF92      		push r14
 1096               	.LCFI44:
 1097               		.cfi_def_cfa_offset 6
 1098               		.cfi_offset 14, -5
 1099 0008 FF92      		push r15
 1100               	.LCFI45:
 1101               		.cfi_def_cfa_offset 7
 1102               		.cfi_offset 15, -6
 1103 000a 0F93      		push r16
 1104               	.LCFI46:
 1105               		.cfi_def_cfa_offset 8
 1106               		.cfi_offset 16, -7
 1107 000c 1F93      		push r17
 1108               	.LCFI47:
 1109               		.cfi_def_cfa_offset 9
 1110               		.cfi_offset 17, -8
 1111 000e CF93      		push r28
 1112               	.LCFI48:
 1113               		.cfi_def_cfa_offset 10
 1114               		.cfi_offset 28, -9
 1115 0010 DF93      		push r29
 1116               	.LCFI49:
 1117               		.cfi_def_cfa_offset 11
 1118               		.cfi_offset 29, -10
 1119               	/* prologue: function */
 1120               	/* frame size = 0 */
 1121               	/* stack size = 9 */
 1122               	.L__stack_usage = 9
 1123 0012 EC01      		movw r28,r24
 1124 0014 7B01      		movw r14,r22
 1125 0016 5A01      		movw r10,r20
 1126               	.LVL93:
  42:LUFA//Drivers/USB/Core/XMEGA/Template/Template_Endpoint_RW.c **** 	if ((ErrorCode = Endpoint_WaitUntilReady()))
 1127               		.loc 3 42 0
 1128 0018 0E94 0000 		call Endpoint_WaitUntilReady
 1129               	.LVL94:
 1130 001c D82E      		mov r13,r24
 1131               	.LVL95:
 1132 001e 8823      		tst r24
 1133 0020 01F0      		breq .+2
 1134 0022 00C0      		rjmp .L63
  38:LUFA//Drivers/USB/Core/XMEGA/Template/Template_Endpoint_RW.c **** 	uint8_t* DataStream      = ((uint8_t*)Buffer + TEMPLATE_BUFFER_OFFSET(Length));
 1135               		.loc 3 38 0
 1136 0024 8701      		movw r16,r14
 1137 0026 0150      		subi r16,lo8(-(-1))
 1138 0028 1040      		sbci r17,hi8(-(-1))
 1139 002a 0C0F      		add r16,r28
 1140 002c 1D1F      		adc r17,r29
  45:LUFA//Drivers/USB/Core/XMEGA/Template/Template_Endpoint_RW.c **** 	if (BytesProcessed != NULL)
 1141               		.loc 3 45 0
 1142 002e A114      		cp r10,__zero_reg__
 1143 0030 B104      		cpc r11,__zero_reg__
 1144 0032 01F0      		breq .L64
  47:LUFA//Drivers/USB/Core/XMEGA/Template/Template_Endpoint_RW.c **** 		Length -= *BytesProcessed;
 1145               		.loc 3 47 0
 1146 0034 F501      		movw r30,r10
 1147 0036 8081      		ld r24,Z
 1148 0038 9181      		ldd r25,Z+1
 1149               	.LVL96:
 1150 003a E81A      		sub r14,r24
 1151 003c F90A      		sbc r15,r25
 1152               	.LVL97:
  48:LUFA//Drivers/USB/Core/XMEGA/Template/Template_Endpoint_RW.c **** 		TEMPLATE_BUFFER_MOVE(DataStream, *BytesProcessed);
 1153               		.loc 3 48 0
 1154 003e 081B      		sub r16,r24
 1155 0040 190B      		sbc r17,r25
 1156               	.LVL98:
 1157               	.L64:
  37:LUFA//Drivers/USB/Core/XMEGA/Template/Template_Endpoint_RW.c **** {
 1158               		.loc 3 37 0 discriminator 1
 1159 0042 C0E0      		ldi r28,lo8(0)
 1160 0044 D0E0      		ldi r29,hi8(0)
 1161               	.LVL99:
 1162 0046 00C0      		rjmp .L71
 1163               	.LVL100:
 1164               	.L69:
 1165               	.LBB286:
 1166               	.LBB287:
 353:LUFA//Drivers/USB/Core/XMEGA/../XMEGA/../XMEGA/Endpoint_XMEGA.h **** 				return (USB_Endpoint_SelectedFIFO->Position < USB_Endpoint_SelectedFIFO->Length);
 1167               		.loc 1 353 0
 1168 0048 8091 0000 		lds r24,USB_Endpoint_SelectedFIFO
 1169 004c 9091 0000 		lds r25,USB_Endpoint_SelectedFIFO+1
 1170 0050 DC01      		movw r26,r24
 1171 0052 AF5B      		subi r26,lo8(-(65))
 1172 0054 BF4F      		sbci r27,hi8(-(65))
 1173 0056 2C91      		ld r18,X
 1174 0058 FC01      		movw r30,r24
 1175 005a E05C      		subi r30,lo8(-(64))
 1176 005c FF4F      		sbci r31,hi8(-(64))
 1177 005e 3081      		ld r19,Z
 1178               	.LBE287:
 1179               	.LBE286:
  53:LUFA//Drivers/USB/Core/XMEGA/Template/Template_Endpoint_RW.c **** 		if (!(Endpoint_IsReadWriteAllowed()))
 1180               		.loc 3 53 0
 1181 0060 2317      		cp r18,r19
 1182 0062 00F0      		brlo .L66
 1183               	.LBB288:
 1184               	.LBB289:
 461:LUFA//Drivers/USB/Core/XMEGA/../XMEGA/../XMEGA/Endpoint_XMEGA.h **** 				USB_Endpoint_SelectedHandle->STATUS &= ~(USB_EP_TRNCOMPL0_bm | USB_EP_BUSNACK0_bm | USB_EP_OVF_
 1185               		.loc 1 461 0
 1186 0064 E091 0000 		lds r30,USB_Endpoint_SelectedHandle
 1187 0068 F091 0000 		lds r31,USB_Endpoint_SelectedHandle+1
 1188 006c 8081      		ld r24,Z
 1189 006e 8D79      		andi r24,lo8(-99)
 1190 0070 8083      		st Z,r24
 462:LUFA//Drivers/USB/Core/XMEGA/../XMEGA/../XMEGA/Endpoint_XMEGA.h **** 				USB_Endpoint_SelectedFIFO->Position  = 0;
 1191               		.loc 1 462 0
 1192 0072 E091 0000 		lds r30,USB_Endpoint_SelectedFIFO
 1193 0076 F091 0000 		lds r31,USB_Endpoint_SelectedFIFO+1
 1194 007a EF5B      		subi r30,lo8(-(65))
 1195 007c FF4F      		sbci r31,hi8(-(65))
 1196 007e 1082      		st Z,__zero_reg__
 1197               	.LBE289:
 1198               	.LBE288:
  58:LUFA//Drivers/USB/Core/XMEGA/Template/Template_Endpoint_RW.c **** 			USB_USBTask();
 1199               		.loc 3 58 0
 1200 0080 0E94 0000 		call USB_USBTask
  61:LUFA//Drivers/USB/Core/XMEGA/Template/Template_Endpoint_RW.c **** 			if (BytesProcessed != NULL)
 1201               		.loc 3 61 0
 1202 0084 A114      		cp r10,__zero_reg__
 1203 0086 B104      		cpc r11,__zero_reg__
 1204 0088 01F0      		breq .L67
  63:LUFA//Drivers/USB/Core/XMEGA/Template/Template_Endpoint_RW.c **** 				*BytesProcessed += BytesInTransfer;
 1205               		.loc 3 63 0
 1206 008a F501      		movw r30,r10
 1207 008c 8081      		ld r24,Z
 1208 008e 9181      		ldd r25,Z+1
 1209 0090 8C0F      		add r24,r28
 1210 0092 9D1F      		adc r25,r29
 1211 0094 8083      		st Z,r24
 1212 0096 9183      		std Z+1,r25
  64:LUFA//Drivers/USB/Core/XMEGA/Template/Template_Endpoint_RW.c **** 				return ENDPOINT_RWSTREAM_IncompleteTransfer;
 1213               		.loc 3 64 0
 1214 0098 B5E0      		ldi r27,lo8(5)
 1215 009a DB2E      		mov r13,r27
 1216 009c 00C0      		rjmp .L63
 1217               	.L67:
  67:LUFA//Drivers/USB/Core/XMEGA/Template/Template_Endpoint_RW.c **** 			if ((ErrorCode = Endpoint_WaitUntilReady()))
 1218               		.loc 3 67 0
 1219 009e 0E94 0000 		call Endpoint_WaitUntilReady
 1220               	.LVL101:
 1221 00a2 8823      		tst r24
 1222 00a4 01F0      		breq .L71
 1223 00a6 00C0      		rjmp .L72
 1224               	.LVL102:
 1225               	.L66:
 1226               	.LBB290:
 1227               	.LBB291:
 536:LUFA//Drivers/USB/Core/XMEGA/../XMEGA/../XMEGA/Endpoint_XMEGA.h **** 				return USB_Endpoint_SelectedFIFO->Data[USB_Endpoint_SelectedFIFO->Position++];
 1228               		.loc 1 536 0
 1229 00a8 2C91      		ld r18,X
 1230 00aa FC01      		movw r30,r24
 1231 00ac E20F      		add r30,r18
 1232 00ae F11D      		adc r31,__zero_reg__
 1233 00b0 8081      		ld r24,Z
 1234 00b2 2F5F      		subi r18,lo8(-(1))
 1235 00b4 2C93      		st X,r18
 1236               	.LBE291:
 1237               	.LBE290:
  72:LUFA//Drivers/USB/Core/XMEGA/Template/Template_Endpoint_RW.c **** 			TEMPLATE_TRANSFER_BYTE(DataStream);
 1238               		.loc 3 72 0
 1239 00b6 F801      		movw r30,r16
 1240 00b8 8083      		st Z,r24
  73:LUFA//Drivers/USB/Core/XMEGA/Template/Template_Endpoint_RW.c **** 			TEMPLATE_BUFFER_MOVE(DataStream, 1);
 1241               		.loc 3 73 0
 1242 00ba 0150      		subi r16,lo8(-(-1))
 1243 00bc 1040      		sbci r17,hi8(-(-1))
 1244               	.LVL103:
  74:LUFA//Drivers/USB/Core/XMEGA/Template/Template_Endpoint_RW.c **** 			Length--;
 1245               		.loc 3 74 0
 1246 00be 0894      		sec
 1247 00c0 E108      		sbc r14,__zero_reg__
 1248 00c2 F108      		sbc r15,__zero_reg__
 1249               	.LVL104:
  75:LUFA//Drivers/USB/Core/XMEGA/Template/Template_Endpoint_RW.c **** 			BytesInTransfer++;
 1250               		.loc 3 75 0
 1251 00c4 2196      		adiw r28,1
 1252               	.LVL105:
 1253               	.L71:
  51:LUFA//Drivers/USB/Core/XMEGA/Template/Template_Endpoint_RW.c **** 	while (Length)
 1254               		.loc 3 51 0 discriminator 1
 1255 00c6 E114      		cp r14,__zero_reg__
 1256 00c8 F104      		cpc r15,__zero_reg__
 1257 00ca 01F0      		breq .+2
 1258 00cc 00C0      		rjmp .L69
 1259 00ce 00C0      		rjmp .L63
 1260               	.LVL106:
 1261               	.L72:
  67:LUFA//Drivers/USB/Core/XMEGA/Template/Template_Endpoint_RW.c **** 			if ((ErrorCode = Endpoint_WaitUntilReady()))
 1262               		.loc 3 67 0
 1263 00d0 D82E      		mov r13,r24
 1264               	.LVL107:
 1265               	.L63:
 1266               		.loc 3 80 0
 1267 00d2 8D2D      		mov r24,r13
 1268               	/* epilogue start */
 1269 00d4 DF91      		pop r29
 1270 00d6 CF91      		pop r28
 1271 00d8 1F91      		pop r17
 1272 00da 0F91      		pop r16
 1273 00dc FF90      		pop r15
 1274 00de EF90      		pop r14
 1275               	.LVL108:
 1276 00e0 DF90      		pop r13
 1277 00e2 BF90      		pop r11
 1278 00e4 AF90      		pop r10
 1279               	.LVL109:
 1280 00e6 0895      		ret
 1281               		.cfi_endproc
 1282               	.LFE73:
 1284               		.section	.text.Endpoint_Write_PStream_LE,"ax",@progbits
 1285               	.global	Endpoint_Write_PStream_LE
 1287               	Endpoint_Write_PStream_LE:
 1288               	.LFB74:
  37:LUFA//Drivers/USB/Core/XMEGA/Template/Template_Endpoint_RW.c **** {
 1289               		.loc 3 37 0
 1290               		.cfi_startproc
 1291               	.LVL110:
 1292 0000 AF92      		push r10
 1293               	.LCFI50:
 1294               		.cfi_def_cfa_offset 3
 1295               		.cfi_offset 10, -2
 1296 0002 BF92      		push r11
 1297               	.LCFI51:
 1298               		.cfi_def_cfa_offset 4
 1299               		.cfi_offset 11, -3
 1300 0004 CF92      		push r12
 1301               	.LCFI52:
 1302               		.cfi_def_cfa_offset 5
 1303               		.cfi_offset 12, -4
 1304 0006 DF92      		push r13
 1305               	.LCFI53:
 1306               		.cfi_def_cfa_offset 6
 1307               		.cfi_offset 13, -5
 1308 0008 EF92      		push r14
 1309               	.LCFI54:
 1310               		.cfi_def_cfa_offset 7
 1311               		.cfi_offset 14, -6
 1312 000a FF92      		push r15
 1313               	.LCFI55:
 1314               		.cfi_def_cfa_offset 8
 1315               		.cfi_offset 15, -7
 1316 000c 1F93      		push r17
 1317               	.LCFI56:
 1318               		.cfi_def_cfa_offset 9
 1319               		.cfi_offset 17, -8
 1320 000e CF93      		push r28
 1321               	.LCFI57:
 1322               		.cfi_def_cfa_offset 10
 1323               		.cfi_offset 28, -9
 1324 0010 DF93      		push r29
 1325               	.LCFI58:
 1326               		.cfi_def_cfa_offset 11
 1327               		.cfi_offset 29, -10
 1328               	/* prologue: function */
 1329               	/* frame size = 0 */
 1330               	/* stack size = 9 */
 1331               	.L__stack_usage = 9
 1332 0012 EC01      		movw r28,r24
 1333 0014 7B01      		movw r14,r22
 1334 0016 6A01      		movw r12,r20
 1335               	.LVL111:
  42:LUFA//Drivers/USB/Core/XMEGA/Template/Template_Endpoint_RW.c **** 	if ((ErrorCode = Endpoint_WaitUntilReady()))
 1336               		.loc 3 42 0
 1337 0018 0E94 0000 		call Endpoint_WaitUntilReady
 1338               	.LVL112:
 1339 001c 182F      		mov r17,r24
 1340               	.LVL113:
 1341 001e 8823      		tst r24
 1342 0020 01F0      		breq .+2
 1343 0022 00C0      		rjmp .L74
  45:LUFA//Drivers/USB/Core/XMEGA/Template/Template_Endpoint_RW.c **** 	if (BytesProcessed != NULL)
 1344               		.loc 3 45 0
 1345 0024 C114      		cp r12,__zero_reg__
 1346 0026 D104      		cpc r13,__zero_reg__
 1347 0028 01F0      		breq .L75
  47:LUFA//Drivers/USB/Core/XMEGA/Template/Template_Endpoint_RW.c **** 		Length -= *BytesProcessed;
 1348               		.loc 3 47 0
 1349 002a F601      		movw r30,r12
 1350 002c 8081      		ld r24,Z
 1351 002e 9181      		ldd r25,Z+1
 1352               	.LVL114:
 1353 0030 E81A      		sub r14,r24
 1354 0032 F90A      		sbc r15,r25
 1355               	.LVL115:
  48:LUFA//Drivers/USB/Core/XMEGA/Template/Template_Endpoint_RW.c **** 		TEMPLATE_BUFFER_MOVE(DataStream, *BytesProcessed);
 1356               		.loc 3 48 0
 1357 0034 C80F      		add r28,r24
 1358 0036 D91F      		adc r29,r25
 1359               	.LVL116:
 1360               	.L75:
  38:LUFA//Drivers/USB/Core/XMEGA/Template/Template_Endpoint_RW.c **** 	uint8_t* DataStream      = ((uint8_t*)Buffer + TEMPLATE_BUFFER_OFFSET(Length));
 1361               		.loc 3 38 0 discriminator 1
 1362 0038 AA24      		clr r10
 1363 003a BB24      		clr r11
 1364 003c 00C0      		rjmp .L83
 1365               	.LVL117:
 1366               	.L80:
 1367               	.LBB292:
 1368               	.LBB293:
 353:LUFA//Drivers/USB/Core/XMEGA/../XMEGA/../XMEGA/Endpoint_XMEGA.h **** 				return (USB_Endpoint_SelectedFIFO->Position < USB_Endpoint_SelectedFIFO->Length);
 1369               		.loc 1 353 0
 1370 003e 8091 0000 		lds r24,USB_Endpoint_SelectedFIFO
 1371 0042 9091 0000 		lds r25,USB_Endpoint_SelectedFIFO+1
 1372 0046 DC01      		movw r26,r24
 1373 0048 AF5B      		subi r26,lo8(-(65))
 1374 004a BF4F      		sbci r27,hi8(-(65))
 1375 004c 2C91      		ld r18,X
 1376 004e FC01      		movw r30,r24
 1377 0050 E05C      		subi r30,lo8(-(64))
 1378 0052 FF4F      		sbci r31,hi8(-(64))
 1379 0054 3081      		ld r19,Z
 1380               	.LBE293:
 1381               	.LBE292:
  53:LUFA//Drivers/USB/Core/XMEGA/Template/Template_Endpoint_RW.c **** 		if (!(Endpoint_IsReadWriteAllowed()))
 1382               		.loc 3 53 0
 1383 0056 2317      		cp r18,r19
 1384 0058 00F0      		brlo .L77
 1385               	.LBB294:
 1386               	.LBB295:
 448:LUFA//Drivers/USB/Core/XMEGA/../XMEGA/../XMEGA/Endpoint_XMEGA.h **** 				USB_Endpoint_SelectedHandle->CNT     = USB_Endpoint_SelectedFIFO->Position;
 1387               		.loc 1 448 0
 1388 005a E091 0000 		lds r30,USB_Endpoint_SelectedHandle
 1389 005e F091 0000 		lds r31,USB_Endpoint_SelectedHandle+1
 1390 0062 8C91      		ld r24,X
 1391 0064 90E0      		ldi r25,lo8(0)
 1392 0066 8283      		std Z+2,r24
 1393 0068 9383      		std Z+3,r25
 449:LUFA//Drivers/USB/Core/XMEGA/../XMEGA/../XMEGA/Endpoint_XMEGA.h **** 				USB_Endpoint_SelectedHandle->STATUS &= ~(USB_EP_TRNCOMPL0_bm | USB_EP_BUSNACK0_bm | USB_EP_OVF_
 1394               		.loc 1 449 0
 1395 006a 8081      		ld r24,Z
 1396 006c 8D79      		andi r24,lo8(-99)
 1397 006e 8083      		st Z,r24
 450:LUFA//Drivers/USB/Core/XMEGA/../XMEGA/../XMEGA/Endpoint_XMEGA.h **** 				USB_Endpoint_SelectedFIFO->Position  = 0;
 1398               		.loc 1 450 0
 1399 0070 E091 0000 		lds r30,USB_Endpoint_SelectedFIFO
 1400 0074 F091 0000 		lds r31,USB_Endpoint_SelectedFIFO+1
 1401 0078 EF5B      		subi r30,lo8(-(65))
 1402 007a FF4F      		sbci r31,hi8(-(65))
 1403 007c 1082      		st Z,__zero_reg__
 1404               	.LBE295:
 1405               	.LBE294:
  58:LUFA//Drivers/USB/Core/XMEGA/Template/Template_Endpoint_RW.c **** 			USB_USBTask();
 1406               		.loc 3 58 0
 1407 007e 0E94 0000 		call USB_USBTask
  61:LUFA//Drivers/USB/Core/XMEGA/Template/Template_Endpoint_RW.c **** 			if (BytesProcessed != NULL)
 1408               		.loc 3 61 0
 1409 0082 C114      		cp r12,__zero_reg__
 1410 0084 D104      		cpc r13,__zero_reg__
 1411 0086 01F0      		breq .L78
  63:LUFA//Drivers/USB/Core/XMEGA/Template/Template_Endpoint_RW.c **** 				*BytesProcessed += BytesInTransfer;
 1412               		.loc 3 63 0
 1413 0088 F601      		movw r30,r12
 1414 008a 8081      		ld r24,Z
 1415 008c 9181      		ldd r25,Z+1
 1416 008e 8A0D      		add r24,r10
 1417 0090 9B1D      		adc r25,r11
 1418 0092 8083      		st Z,r24
 1419 0094 9183      		std Z+1,r25
  64:LUFA//Drivers/USB/Core/XMEGA/Template/Template_Endpoint_RW.c **** 				return ENDPOINT_RWSTREAM_IncompleteTransfer;
 1420               		.loc 3 64 0
 1421 0096 15E0      		ldi r17,lo8(5)
 1422 0098 00C0      		rjmp .L74
 1423               	.L78:
  67:LUFA//Drivers/USB/Core/XMEGA/Template/Template_Endpoint_RW.c **** 			if ((ErrorCode = Endpoint_WaitUntilReady()))
 1424               		.loc 3 67 0
 1425 009a 0E94 0000 		call Endpoint_WaitUntilReady
 1426               	.LVL118:
 1427 009e 8823      		tst r24
 1428 00a0 01F0      		breq .L83
 1429 00a2 00C0      		rjmp .L84
 1430               	.LVL119:
 1431               	.L77:
 1432               	.LBB296:
  72:LUFA//Drivers/USB/Core/XMEGA/Template/Template_Endpoint_RW.c **** 			TEMPLATE_TRANSFER_BYTE(DataStream);
 1433               		.loc 3 72 0
 1434 00a4 FE01      		movw r30,r28
 1435               	/* #APP */
 1436               	 ;  72 "LUFA//Drivers/USB/Core/XMEGA/Template/Template_Endpoint_RW.c" 1
 1437 00a6 3491      		lpm r19, Z
 1438               		
 1439               	 ;  0 "" 2
 1440               	.LVL120:
 1441               	/* #NOAPP */
 1442               	.LBE296:
 1443               	.LBB297:
 1444               	.LBB298:
 548:LUFA//Drivers/USB/Core/XMEGA/../XMEGA/../XMEGA/Endpoint_XMEGA.h **** 				USB_Endpoint_SelectedFIFO->Data[USB_Endpoint_SelectedFIFO->Position++] = Data;
 1445               		.loc 1 548 0
 1446 00a8 2C91      		ld r18,X
 1447 00aa FC01      		movw r30,r24
 1448 00ac E20F      		add r30,r18
 1449 00ae F11D      		adc r31,__zero_reg__
 1450 00b0 3083      		st Z,r19
 1451 00b2 2F5F      		subi r18,lo8(-(1))
 1452 00b4 2C93      		st X,r18
 1453               	.LBE298:
 1454               	.LBE297:
  73:LUFA//Drivers/USB/Core/XMEGA/Template/Template_Endpoint_RW.c **** 			TEMPLATE_BUFFER_MOVE(DataStream, 1);
 1455               		.loc 3 73 0
 1456 00b6 2196      		adiw r28,1
 1457               	.LVL121:
  74:LUFA//Drivers/USB/Core/XMEGA/Template/Template_Endpoint_RW.c **** 			Length--;
 1458               		.loc 3 74 0
 1459 00b8 0894      		sec
 1460 00ba E108      		sbc r14,__zero_reg__
 1461 00bc F108      		sbc r15,__zero_reg__
 1462               	.LVL122:
  75:LUFA//Drivers/USB/Core/XMEGA/Template/Template_Endpoint_RW.c **** 			BytesInTransfer++;
 1463               		.loc 3 75 0
 1464 00be 0894      		sec
 1465 00c0 A11C      		adc r10,__zero_reg__
 1466 00c2 B11C      		adc r11,__zero_reg__
 1467               	.LVL123:
 1468               	.L83:
  51:LUFA//Drivers/USB/Core/XMEGA/Template/Template_Endpoint_RW.c **** 	while (Length)
 1469               		.loc 3 51 0 discriminator 1
 1470 00c4 E114      		cp r14,__zero_reg__
 1471 00c6 F104      		cpc r15,__zero_reg__
 1472 00c8 01F0      		breq .+2
 1473 00ca 00C0      		rjmp .L80
 1474 00cc 00C0      		rjmp .L74
 1475               	.LVL124:
 1476               	.L84:
  67:LUFA//Drivers/USB/Core/XMEGA/Template/Template_Endpoint_RW.c **** 			if ((ErrorCode = Endpoint_WaitUntilReady()))
 1477               		.loc 3 67 0
 1478 00ce 182F      		mov r17,r24
 1479               	.LVL125:
 1480               	.L74:
 1481               		.loc 3 80 0
 1482 00d0 812F      		mov r24,r17
 1483               	/* epilogue start */
 1484 00d2 DF91      		pop r29
 1485 00d4 CF91      		pop r28
 1486               	.LVL126:
 1487 00d6 1F91      		pop r17
 1488 00d8 FF90      		pop r15
 1489 00da EF90      		pop r14
 1490               	.LVL127:
 1491 00dc DF90      		pop r13
 1492 00de CF90      		pop r12
 1493               	.LVL128:
 1494 00e0 BF90      		pop r11
 1495 00e2 AF90      		pop r10
 1496 00e4 0895      		ret
 1497               		.cfi_endproc
 1498               	.LFE74:
 1500               		.section	.text.Endpoint_Write_PStream_BE,"ax",@progbits
 1501               	.global	Endpoint_Write_PStream_BE
 1503               	Endpoint_Write_PStream_BE:
 1504               	.LFB75:
  37:LUFA//Drivers/USB/Core/XMEGA/Template/Template_Endpoint_RW.c **** {
 1505               		.loc 3 37 0
 1506               		.cfi_startproc
 1507               	.LVL129:
 1508 0000 AF92      		push r10
 1509               	.LCFI59:
 1510               		.cfi_def_cfa_offset 3
 1511               		.cfi_offset 10, -2
 1512 0002 BF92      		push r11
 1513               	.LCFI60:
 1514               		.cfi_def_cfa_offset 4
 1515               		.cfi_offset 11, -3
 1516 0004 DF92      		push r13
 1517               	.LCFI61:
 1518               		.cfi_def_cfa_offset 5
 1519               		.cfi_offset 13, -4
 1520 0006 EF92      		push r14
 1521               	.LCFI62:
 1522               		.cfi_def_cfa_offset 6
 1523               		.cfi_offset 14, -5
 1524 0008 FF92      		push r15
 1525               	.LCFI63:
 1526               		.cfi_def_cfa_offset 7
 1527               		.cfi_offset 15, -6
 1528 000a 0F93      		push r16
 1529               	.LCFI64:
 1530               		.cfi_def_cfa_offset 8
 1531               		.cfi_offset 16, -7
 1532 000c 1F93      		push r17
 1533               	.LCFI65:
 1534               		.cfi_def_cfa_offset 9
 1535               		.cfi_offset 17, -8
 1536 000e CF93      		push r28
 1537               	.LCFI66:
 1538               		.cfi_def_cfa_offset 10
 1539               		.cfi_offset 28, -9
 1540 0010 DF93      		push r29
 1541               	.LCFI67:
 1542               		.cfi_def_cfa_offset 11
 1543               		.cfi_offset 29, -10
 1544               	/* prologue: function */
 1545               	/* frame size = 0 */
 1546               	/* stack size = 9 */
 1547               	.L__stack_usage = 9
 1548 0012 EC01      		movw r28,r24
 1549 0014 7B01      		movw r14,r22
 1550 0016 5A01      		movw r10,r20
 1551               	.LVL130:
  42:LUFA//Drivers/USB/Core/XMEGA/Template/Template_Endpoint_RW.c **** 	if ((ErrorCode = Endpoint_WaitUntilReady()))
 1552               		.loc 3 42 0
 1553 0018 0E94 0000 		call Endpoint_WaitUntilReady
 1554               	.LVL131:
 1555 001c D82E      		mov r13,r24
 1556               	.LVL132:
 1557 001e 8823      		tst r24
 1558 0020 01F0      		breq .+2
 1559 0022 00C0      		rjmp .L86
  38:LUFA//Drivers/USB/Core/XMEGA/Template/Template_Endpoint_RW.c **** 	uint8_t* DataStream      = ((uint8_t*)Buffer + TEMPLATE_BUFFER_OFFSET(Length));
 1560               		.loc 3 38 0
 1561 0024 8701      		movw r16,r14
 1562 0026 0150      		subi r16,lo8(-(-1))
 1563 0028 1040      		sbci r17,hi8(-(-1))
 1564 002a 0C0F      		add r16,r28
 1565 002c 1D1F      		adc r17,r29
  45:LUFA//Drivers/USB/Core/XMEGA/Template/Template_Endpoint_RW.c **** 	if (BytesProcessed != NULL)
 1566               		.loc 3 45 0
 1567 002e A114      		cp r10,__zero_reg__
 1568 0030 B104      		cpc r11,__zero_reg__
 1569 0032 01F0      		breq .L87
  47:LUFA//Drivers/USB/Core/XMEGA/Template/Template_Endpoint_RW.c **** 		Length -= *BytesProcessed;
 1570               		.loc 3 47 0
 1571 0034 F501      		movw r30,r10
 1572 0036 8081      		ld r24,Z
 1573 0038 9181      		ldd r25,Z+1
 1574               	.LVL133:
 1575 003a E81A      		sub r14,r24
 1576 003c F90A      		sbc r15,r25
 1577               	.LVL134:
  48:LUFA//Drivers/USB/Core/XMEGA/Template/Template_Endpoint_RW.c **** 		TEMPLATE_BUFFER_MOVE(DataStream, *BytesProcessed);
 1578               		.loc 3 48 0
 1579 003e 081B      		sub r16,r24
 1580 0040 190B      		sbc r17,r25
 1581               	.LVL135:
 1582               	.L87:
  37:LUFA//Drivers/USB/Core/XMEGA/Template/Template_Endpoint_RW.c **** {
 1583               		.loc 3 37 0 discriminator 1
 1584 0042 C0E0      		ldi r28,lo8(0)
 1585 0044 D0E0      		ldi r29,hi8(0)
 1586               	.LVL136:
 1587 0046 00C0      		rjmp .L94
 1588               	.LVL137:
 1589               	.L92:
 1590               	.LBB299:
 1591               	.LBB300:
 353:LUFA//Drivers/USB/Core/XMEGA/../XMEGA/../XMEGA/Endpoint_XMEGA.h **** 				return (USB_Endpoint_SelectedFIFO->Position < USB_Endpoint_SelectedFIFO->Length);
 1592               		.loc 1 353 0
 1593 0048 8091 0000 		lds r24,USB_Endpoint_SelectedFIFO
 1594 004c 9091 0000 		lds r25,USB_Endpoint_SelectedFIFO+1
 1595 0050 DC01      		movw r26,r24
 1596 0052 AF5B      		subi r26,lo8(-(65))
 1597 0054 BF4F      		sbci r27,hi8(-(65))
 1598 0056 2C91      		ld r18,X
 1599 0058 FC01      		movw r30,r24
 1600 005a E05C      		subi r30,lo8(-(64))
 1601 005c FF4F      		sbci r31,hi8(-(64))
 1602 005e 3081      		ld r19,Z
 1603               	.LBE300:
 1604               	.LBE299:
  53:LUFA//Drivers/USB/Core/XMEGA/Template/Template_Endpoint_RW.c **** 		if (!(Endpoint_IsReadWriteAllowed()))
 1605               		.loc 3 53 0
 1606 0060 2317      		cp r18,r19
 1607 0062 00F0      		brlo .L89
 1608               	.LBB301:
 1609               	.LBB302:
 448:LUFA//Drivers/USB/Core/XMEGA/../XMEGA/../XMEGA/Endpoint_XMEGA.h **** 				USB_Endpoint_SelectedHandle->CNT     = USB_Endpoint_SelectedFIFO->Position;
 1610               		.loc 1 448 0
 1611 0064 E091 0000 		lds r30,USB_Endpoint_SelectedHandle
 1612 0068 F091 0000 		lds r31,USB_Endpoint_SelectedHandle+1
 1613 006c 8C91      		ld r24,X
 1614 006e 90E0      		ldi r25,lo8(0)
 1615 0070 8283      		std Z+2,r24
 1616 0072 9383      		std Z+3,r25
 449:LUFA//Drivers/USB/Core/XMEGA/../XMEGA/../XMEGA/Endpoint_XMEGA.h **** 				USB_Endpoint_SelectedHandle->STATUS &= ~(USB_EP_TRNCOMPL0_bm | USB_EP_BUSNACK0_bm | USB_EP_OVF_
 1617               		.loc 1 449 0
 1618 0074 8081      		ld r24,Z
 1619 0076 8D79      		andi r24,lo8(-99)
 1620 0078 8083      		st Z,r24
 450:LUFA//Drivers/USB/Core/XMEGA/../XMEGA/../XMEGA/Endpoint_XMEGA.h **** 				USB_Endpoint_SelectedFIFO->Position  = 0;
 1621               		.loc 1 450 0
 1622 007a E091 0000 		lds r30,USB_Endpoint_SelectedFIFO
 1623 007e F091 0000 		lds r31,USB_Endpoint_SelectedFIFO+1
 1624 0082 EF5B      		subi r30,lo8(-(65))
 1625 0084 FF4F      		sbci r31,hi8(-(65))
 1626 0086 1082      		st Z,__zero_reg__
 1627               	.LBE302:
 1628               	.LBE301:
  58:LUFA//Drivers/USB/Core/XMEGA/Template/Template_Endpoint_RW.c **** 			USB_USBTask();
 1629               		.loc 3 58 0
 1630 0088 0E94 0000 		call USB_USBTask
  61:LUFA//Drivers/USB/Core/XMEGA/Template/Template_Endpoint_RW.c **** 			if (BytesProcessed != NULL)
 1631               		.loc 3 61 0
 1632 008c A114      		cp r10,__zero_reg__
 1633 008e B104      		cpc r11,__zero_reg__
 1634 0090 01F0      		breq .L90
  63:LUFA//Drivers/USB/Core/XMEGA/Template/Template_Endpoint_RW.c **** 				*BytesProcessed += BytesInTransfer;
 1635               		.loc 3 63 0
 1636 0092 F501      		movw r30,r10
 1637 0094 8081      		ld r24,Z
 1638 0096 9181      		ldd r25,Z+1
 1639 0098 8C0F      		add r24,r28
 1640 009a 9D1F      		adc r25,r29
 1641 009c 8083      		st Z,r24
 1642 009e 9183      		std Z+1,r25
  64:LUFA//Drivers/USB/Core/XMEGA/Template/Template_Endpoint_RW.c **** 				return ENDPOINT_RWSTREAM_IncompleteTransfer;
 1643               		.loc 3 64 0
 1644 00a0 15E0      		ldi r17,lo8(5)
 1645 00a2 D12E      		mov r13,r17
 1646 00a4 00C0      		rjmp .L86
 1647               	.L90:
  67:LUFA//Drivers/USB/Core/XMEGA/Template/Template_Endpoint_RW.c **** 			if ((ErrorCode = Endpoint_WaitUntilReady()))
 1648               		.loc 3 67 0
 1649 00a6 0E94 0000 		call Endpoint_WaitUntilReady
 1650               	.LVL138:
 1651 00aa 8823      		tst r24
 1652 00ac 01F0      		breq .L94
 1653 00ae 00C0      		rjmp .L95
 1654               	.LVL139:
 1655               	.L89:
 1656               	.LBB303:
  72:LUFA//Drivers/USB/Core/XMEGA/Template/Template_Endpoint_RW.c **** 			TEMPLATE_TRANSFER_BYTE(DataStream);
 1657               		.loc 3 72 0
 1658 00b0 F801      		movw r30,r16
 1659               	/* #APP */
 1660               	 ;  72 "LUFA//Drivers/USB/Core/XMEGA/Template/Template_Endpoint_RW.c" 1
 1661 00b2 3491      		lpm r19, Z
 1662               		
 1663               	 ;  0 "" 2
 1664               	.LVL140:
 1665               	/* #NOAPP */
 1666               	.LBE303:
 1667               	.LBB304:
 1668               	.LBB305:
 548:LUFA//Drivers/USB/Core/XMEGA/../XMEGA/../XMEGA/Endpoint_XMEGA.h **** 				USB_Endpoint_SelectedFIFO->Data[USB_Endpoint_SelectedFIFO->Position++] = Data;
 1669               		.loc 1 548 0
 1670 00b4 2C91      		ld r18,X
 1671 00b6 FC01      		movw r30,r24
 1672 00b8 E20F      		add r30,r18
 1673 00ba F11D      		adc r31,__zero_reg__
 1674 00bc 3083      		st Z,r19
 1675 00be 2F5F      		subi r18,lo8(-(1))
 1676 00c0 2C93      		st X,r18
 1677               	.LBE305:
 1678               	.LBE304:
  73:LUFA//Drivers/USB/Core/XMEGA/Template/Template_Endpoint_RW.c **** 			TEMPLATE_BUFFER_MOVE(DataStream, 1);
 1679               		.loc 3 73 0
 1680 00c2 0150      		subi r16,lo8(-(-1))
 1681 00c4 1040      		sbci r17,hi8(-(-1))
 1682               	.LVL141:
  74:LUFA//Drivers/USB/Core/XMEGA/Template/Template_Endpoint_RW.c **** 			Length--;
 1683               		.loc 3 74 0
 1684 00c6 0894      		sec
 1685 00c8 E108      		sbc r14,__zero_reg__
 1686 00ca F108      		sbc r15,__zero_reg__
 1687               	.LVL142:
  75:LUFA//Drivers/USB/Core/XMEGA/Template/Template_Endpoint_RW.c **** 			BytesInTransfer++;
 1688               		.loc 3 75 0
 1689 00cc 2196      		adiw r28,1
 1690               	.LVL143:
 1691               	.L94:
  51:LUFA//Drivers/USB/Core/XMEGA/Template/Template_Endpoint_RW.c **** 	while (Length)
 1692               		.loc 3 51 0 discriminator 1
 1693 00ce E114      		cp r14,__zero_reg__
 1694 00d0 F104      		cpc r15,__zero_reg__
 1695 00d2 01F0      		breq .+2
 1696 00d4 00C0      		rjmp .L92
 1697 00d6 00C0      		rjmp .L86
 1698               	.LVL144:
 1699               	.L95:
  67:LUFA//Drivers/USB/Core/XMEGA/Template/Template_Endpoint_RW.c **** 			if ((ErrorCode = Endpoint_WaitUntilReady()))
 1700               		.loc 3 67 0
 1701 00d8 D82E      		mov r13,r24
 1702               	.LVL145:
 1703               	.L86:
 1704               		.loc 3 80 0
 1705 00da 8D2D      		mov r24,r13
 1706               	/* epilogue start */
 1707 00dc DF91      		pop r29
 1708 00de CF91      		pop r28
 1709 00e0 1F91      		pop r17
 1710 00e2 0F91      		pop r16
 1711 00e4 FF90      		pop r15
 1712 00e6 EF90      		pop r14
 1713               	.LVL146:
 1714 00e8 DF90      		pop r13
 1715 00ea BF90      		pop r11
 1716 00ec AF90      		pop r10
 1717               	.LVL147:
 1718 00ee 0895      		ret
 1719               		.cfi_endproc
 1720               	.LFE75:
 1722               		.section	.text.Endpoint_Write_EStream_LE,"ax",@progbits
 1723               	.global	Endpoint_Write_EStream_LE
 1725               	Endpoint_Write_EStream_LE:
 1726               	.LFB76:
  37:LUFA//Drivers/USB/Core/XMEGA/Template/Template_Endpoint_RW.c **** {
 1727               		.loc 3 37 0
 1728               		.cfi_startproc
 1729               	.LVL148:
 1730 0000 6F92      		push r6
 1731               	.LCFI68:
 1732               		.cfi_def_cfa_offset 3
 1733               		.cfi_offset 6, -2
 1734 0002 7F92      		push r7
 1735               	.LCFI69:
 1736               		.cfi_def_cfa_offset 4
 1737               		.cfi_offset 7, -3
 1738 0004 8F92      		push r8
 1739               	.LCFI70:
 1740               		.cfi_def_cfa_offset 5
 1741               		.cfi_offset 8, -4
 1742 0006 9F92      		push r9
 1743               	.LCFI71:
 1744               		.cfi_def_cfa_offset 6
 1745               		.cfi_offset 9, -5
 1746 0008 AF92      		push r10
 1747               	.LCFI72:
 1748               		.cfi_def_cfa_offset 7
 1749               		.cfi_offset 10, -6
 1750 000a BF92      		push r11
 1751               	.LCFI73:
 1752               		.cfi_def_cfa_offset 8
 1753               		.cfi_offset 11, -7
 1754 000c CF92      		push r12
 1755               	.LCFI74:
 1756               		.cfi_def_cfa_offset 9
 1757               		.cfi_offset 12, -8
 1758 000e DF92      		push r13
 1759               	.LCFI75:
 1760               		.cfi_def_cfa_offset 10
 1761               		.cfi_offset 13, -9
 1762 0010 FF92      		push r15
 1763               	.LCFI76:
 1764               		.cfi_def_cfa_offset 11
 1765               		.cfi_offset 15, -10
 1766 0012 0F93      		push r16
 1767               	.LCFI77:
 1768               		.cfi_def_cfa_offset 12
 1769               		.cfi_offset 16, -11
 1770 0014 1F93      		push r17
 1771               	.LCFI78:
 1772               		.cfi_def_cfa_offset 13
 1773               		.cfi_offset 17, -12
 1774 0016 CF93      		push r28
 1775               	.LCFI79:
 1776               		.cfi_def_cfa_offset 14
 1777               		.cfi_offset 28, -13
 1778 0018 DF93      		push r29
 1779               	.LCFI80:
 1780               		.cfi_def_cfa_offset 15
 1781               		.cfi_offset 29, -14
 1782               	/* prologue: function */
 1783               	/* frame size = 0 */
 1784               	/* stack size = 13 */
 1785               	.L__stack_usage = 13
 1786 001a EC01      		movw r28,r24
 1787 001c 5B01      		movw r10,r22
 1788 001e 4A01      		movw r8,r20
 1789               	.LVL149:
  42:LUFA//Drivers/USB/Core/XMEGA/Template/Template_Endpoint_RW.c **** 	if ((ErrorCode = Endpoint_WaitUntilReady()))
 1790               		.loc 3 42 0
 1791 0020 0E94 0000 		call Endpoint_WaitUntilReady
 1792               	.LVL150:
 1793 0024 F82E      		mov r15,r24
 1794               	.LVL151:
 1795 0026 8823      		tst r24
 1796 0028 01F0      		breq .+2
 1797 002a 00C0      		rjmp .L97
  45:LUFA//Drivers/USB/Core/XMEGA/Template/Template_Endpoint_RW.c **** 	if (BytesProcessed != NULL)
 1798               		.loc 3 45 0
 1799 002c 8114      		cp r8,__zero_reg__
 1800 002e 9104      		cpc r9,__zero_reg__
 1801 0030 01F0      		breq .L104
  47:LUFA//Drivers/USB/Core/XMEGA/Template/Template_Endpoint_RW.c **** 		Length -= *BytesProcessed;
 1802               		.loc 3 47 0
 1803 0032 D401      		movw r26,r8
 1804 0034 8D91      		ld r24,X+
 1805 0036 9C91      		ld r25,X
 1806 0038 1197      		sbiw r26,1
 1807               	.LVL152:
 1808 003a A81A      		sub r10,r24
 1809 003c B90A      		sbc r11,r25
 1810               	.LVL153:
  48:LUFA//Drivers/USB/Core/XMEGA/Template/Template_Endpoint_RW.c **** 		TEMPLATE_BUFFER_MOVE(DataStream, *BytesProcessed);
 1811               		.loc 3 48 0
 1812 003e 6E01      		movw r12,r28
 1813 0040 C80E      		add r12,r24
 1814 0042 D91E      		adc r13,r25
 1815               	.LVL154:
 1816 0044 00C0      		rjmp .L98
 1817               	.LVL155:
 1818               	.L104:
  38:LUFA//Drivers/USB/Core/XMEGA/Template/Template_Endpoint_RW.c **** 	uint8_t* DataStream      = ((uint8_t*)Buffer + TEMPLATE_BUFFER_OFFSET(Length));
 1819               		.loc 3 38 0
 1820 0046 6E01      		movw r12,r28
 1821               	.LVL156:
 1822               	.L98:
  38:LUFA//Drivers/USB/Core/XMEGA/Template/Template_Endpoint_RW.c **** 	uint8_t* DataStream      = ((uint8_t*)Buffer + TEMPLATE_BUFFER_OFFSET(Length));
 1823               		.loc 3 38 0 is_stmt 0 discriminator 1
 1824 0048 6624      		clr r6
 1825 004a 7724      		clr r7
 1826 004c 00C0      		rjmp .L106
 1827               	.LVL157:
 1828               	.L103:
 1829               	.LBB306:
 1830               	.LBB307:
 353:LUFA//Drivers/USB/Core/XMEGA/../XMEGA/../XMEGA/Endpoint_XMEGA.h **** 				return (USB_Endpoint_SelectedFIFO->Position < USB_Endpoint_SelectedFIFO->Length);
 1831               		.loc 1 353 0 is_stmt 1
 1832 004e C091 0000 		lds r28,USB_Endpoint_SelectedFIFO
 1833 0052 D091 0000 		lds r29,USB_Endpoint_SelectedFIFO+1
 1834 0056 8E01      		movw r16,r28
 1835 0058 0F5B      		subi r16,lo8(-(65))
 1836 005a 1F4F      		sbci r17,hi8(-(65))
 1837 005c F801      		movw r30,r16
 1838 005e 8081      		ld r24,Z
 1839 0060 FE01      		movw r30,r28
 1840 0062 E05C      		subi r30,lo8(-(64))
 1841 0064 FF4F      		sbci r31,hi8(-(64))
 1842 0066 9081      		ld r25,Z
 1843               	.LBE307:
 1844               	.LBE306:
  53:LUFA//Drivers/USB/Core/XMEGA/Template/Template_Endpoint_RW.c **** 		if (!(Endpoint_IsReadWriteAllowed()))
 1845               		.loc 3 53 0
 1846 0068 8917      		cp r24,r25
 1847 006a 00F0      		brlo .L100
 1848               	.LBB308:
 1849               	.LBB309:
 448:LUFA//Drivers/USB/Core/XMEGA/../XMEGA/../XMEGA/Endpoint_XMEGA.h **** 				USB_Endpoint_SelectedHandle->CNT     = USB_Endpoint_SelectedFIFO->Position;
 1850               		.loc 1 448 0
 1851 006c E091 0000 		lds r30,USB_Endpoint_SelectedHandle
 1852 0070 F091 0000 		lds r31,USB_Endpoint_SelectedHandle+1
 1853 0074 D801      		movw r26,r16
 1854 0076 8C91      		ld r24,X
 1855 0078 90E0      		ldi r25,lo8(0)
 1856 007a 8283      		std Z+2,r24
 1857 007c 9383      		std Z+3,r25
 449:LUFA//Drivers/USB/Core/XMEGA/../XMEGA/../XMEGA/Endpoint_XMEGA.h **** 				USB_Endpoint_SelectedHandle->STATUS &= ~(USB_EP_TRNCOMPL0_bm | USB_EP_BUSNACK0_bm | USB_EP_OVF_
 1858               		.loc 1 449 0
 1859 007e 8081      		ld r24,Z
 1860 0080 8D79      		andi r24,lo8(-99)
 1861 0082 8083      		st Z,r24
 450:LUFA//Drivers/USB/Core/XMEGA/../XMEGA/../XMEGA/Endpoint_XMEGA.h **** 				USB_Endpoint_SelectedFIFO->Position  = 0;
 1862               		.loc 1 450 0
 1863 0084 E091 0000 		lds r30,USB_Endpoint_SelectedFIFO
 1864 0088 F091 0000 		lds r31,USB_Endpoint_SelectedFIFO+1
 1865 008c EF5B      		subi r30,lo8(-(65))
 1866 008e FF4F      		sbci r31,hi8(-(65))
 1867 0090 1082      		st Z,__zero_reg__
 1868               	.LBE309:
 1869               	.LBE308:
  58:LUFA//Drivers/USB/Core/XMEGA/Template/Template_Endpoint_RW.c **** 			USB_USBTask();
 1870               		.loc 3 58 0
 1871 0092 0E94 0000 		call USB_USBTask
  61:LUFA//Drivers/USB/Core/XMEGA/Template/Template_Endpoint_RW.c **** 			if (BytesProcessed != NULL)
 1872               		.loc 3 61 0
 1873 0096 8114      		cp r8,__zero_reg__
 1874 0098 9104      		cpc r9,__zero_reg__
 1875 009a 01F0      		breq .L101
  63:LUFA//Drivers/USB/Core/XMEGA/Template/Template_Endpoint_RW.c **** 				*BytesProcessed += BytesInTransfer;
 1876               		.loc 3 63 0
 1877 009c F401      		movw r30,r8
 1878 009e 8081      		ld r24,Z
 1879 00a0 9181      		ldd r25,Z+1
 1880 00a2 860D      		add r24,r6
 1881 00a4 971D      		adc r25,r7
 1882 00a6 8083      		st Z,r24
 1883 00a8 9183      		std Z+1,r25
  64:LUFA//Drivers/USB/Core/XMEGA/Template/Template_Endpoint_RW.c **** 				return ENDPOINT_RWSTREAM_IncompleteTransfer;
 1884               		.loc 3 64 0
 1885 00aa 05E0      		ldi r16,lo8(5)
 1886 00ac F02E      		mov r15,r16
 1887 00ae 00C0      		rjmp .L97
 1888               	.L101:
  67:LUFA//Drivers/USB/Core/XMEGA/Template/Template_Endpoint_RW.c **** 			if ((ErrorCode = Endpoint_WaitUntilReady()))
 1889               		.loc 3 67 0
 1890 00b0 0E94 0000 		call Endpoint_WaitUntilReady
 1891               	.LVL158:
 1892 00b4 8823      		tst r24
 1893 00b6 01F0      		breq .L106
 1894 00b8 00C0      		rjmp .L107
 1895               	.LVL159:
 1896               	.L100:
  72:LUFA//Drivers/USB/Core/XMEGA/Template/Template_Endpoint_RW.c **** 			TEMPLATE_TRANSFER_BYTE(DataStream);
 1897               		.loc 3 72 0
 1898 00ba C601      		movw r24,r12
 1899 00bc 0E94 0000 		call __eerd_byte_x16a4u
 1900               	.LVL160:
 1901               	.LBB310:
 1902               	.LBB311:
 548:LUFA//Drivers/USB/Core/XMEGA/../XMEGA/../XMEGA/Endpoint_XMEGA.h **** 				USB_Endpoint_SelectedFIFO->Data[USB_Endpoint_SelectedFIFO->Position++] = Data;
 1903               		.loc 1 548 0
 1904 00c0 D801      		movw r26,r16
 1905 00c2 9C91      		ld r25,X
 1906 00c4 FE01      		movw r30,r28
 1907 00c6 E90F      		add r30,r25
 1908 00c8 F11D      		adc r31,__zero_reg__
 1909 00ca 8083      		st Z,r24
 1910 00cc 9F5F      		subi r25,lo8(-(1))
 1911 00ce 9C93      		st X,r25
 1912               	.LBE311:
 1913               	.LBE310:
  73:LUFA//Drivers/USB/Core/XMEGA/Template/Template_Endpoint_RW.c **** 			TEMPLATE_BUFFER_MOVE(DataStream, 1);
 1914               		.loc 3 73 0
 1915 00d0 0894      		sec
 1916 00d2 C11C      		adc r12,__zero_reg__
 1917 00d4 D11C      		adc r13,__zero_reg__
 1918               	.LVL161:
  74:LUFA//Drivers/USB/Core/XMEGA/Template/Template_Endpoint_RW.c **** 			Length--;
 1919               		.loc 3 74 0
 1920 00d6 0894      		sec
 1921 00d8 A108      		sbc r10,__zero_reg__
 1922 00da B108      		sbc r11,__zero_reg__
 1923               	.LVL162:
  75:LUFA//Drivers/USB/Core/XMEGA/Template/Template_Endpoint_RW.c **** 			BytesInTransfer++;
 1924               		.loc 3 75 0
 1925 00dc 0894      		sec
 1926 00de 611C      		adc r6,__zero_reg__
 1927 00e0 711C      		adc r7,__zero_reg__
 1928               	.LVL163:
 1929               	.L106:
  51:LUFA//Drivers/USB/Core/XMEGA/Template/Template_Endpoint_RW.c **** 	while (Length)
 1930               		.loc 3 51 0 discriminator 1
 1931 00e2 A114      		cp r10,__zero_reg__
 1932 00e4 B104      		cpc r11,__zero_reg__
 1933 00e6 01F0      		breq .+2
 1934 00e8 00C0      		rjmp .L103
 1935 00ea 00C0      		rjmp .L97
 1936               	.LVL164:
 1937               	.L107:
  67:LUFA//Drivers/USB/Core/XMEGA/Template/Template_Endpoint_RW.c **** 			if ((ErrorCode = Endpoint_WaitUntilReady()))
 1938               		.loc 3 67 0
 1939 00ec F82E      		mov r15,r24
 1940               	.LVL165:
 1941               	.L97:
 1942               		.loc 3 80 0
 1943 00ee 8F2D      		mov r24,r15
 1944               	/* epilogue start */
 1945 00f0 DF91      		pop r29
 1946 00f2 CF91      		pop r28
 1947 00f4 1F91      		pop r17
 1948 00f6 0F91      		pop r16
 1949 00f8 FF90      		pop r15
 1950 00fa DF90      		pop r13
 1951 00fc CF90      		pop r12
 1952 00fe BF90      		pop r11
 1953 0100 AF90      		pop r10
 1954               	.LVL166:
 1955 0102 9F90      		pop r9
 1956 0104 8F90      		pop r8
 1957               	.LVL167:
 1958 0106 7F90      		pop r7
 1959 0108 6F90      		pop r6
 1960 010a 0895      		ret
 1961               		.cfi_endproc
 1962               	.LFE76:
 1964               		.section	.text.Endpoint_Write_EStream_BE,"ax",@progbits
 1965               	.global	Endpoint_Write_EStream_BE
 1967               	Endpoint_Write_EStream_BE:
 1968               	.LFB77:
  37:LUFA//Drivers/USB/Core/XMEGA/Template/Template_Endpoint_RW.c **** {
 1969               		.loc 3 37 0
 1970               		.cfi_startproc
 1971               	.LVL168:
 1972 0000 6F92      		push r6
 1973               	.LCFI81:
 1974               		.cfi_def_cfa_offset 3
 1975               		.cfi_offset 6, -2
 1976 0002 7F92      		push r7
 1977               	.LCFI82:
 1978               		.cfi_def_cfa_offset 4
 1979               		.cfi_offset 7, -3
 1980 0004 8F92      		push r8
 1981               	.LCFI83:
 1982               		.cfi_def_cfa_offset 5
 1983               		.cfi_offset 8, -4
 1984 0006 9F92      		push r9
 1985               	.LCFI84:
 1986               		.cfi_def_cfa_offset 6
 1987               		.cfi_offset 9, -5
 1988 0008 BF92      		push r11
 1989               	.LCFI85:
 1990               		.cfi_def_cfa_offset 7
 1991               		.cfi_offset 11, -6
 1992 000a CF92      		push r12
 1993               	.LCFI86:
 1994               		.cfi_def_cfa_offset 8
 1995               		.cfi_offset 12, -7
 1996 000c DF92      		push r13
 1997               	.LCFI87:
 1998               		.cfi_def_cfa_offset 9
 1999               		.cfi_offset 13, -8
 2000 000e EF92      		push r14
 2001               	.LCFI88:
 2002               		.cfi_def_cfa_offset 10
 2003               		.cfi_offset 14, -9
 2004 0010 FF92      		push r15
 2005               	.LCFI89:
 2006               		.cfi_def_cfa_offset 11
 2007               		.cfi_offset 15, -10
 2008 0012 0F93      		push r16
 2009               	.LCFI90:
 2010               		.cfi_def_cfa_offset 12
 2011               		.cfi_offset 16, -11
 2012 0014 1F93      		push r17
 2013               	.LCFI91:
 2014               		.cfi_def_cfa_offset 13
 2015               		.cfi_offset 17, -12
 2016 0016 CF93      		push r28
 2017               	.LCFI92:
 2018               		.cfi_def_cfa_offset 14
 2019               		.cfi_offset 28, -13
 2020 0018 DF93      		push r29
 2021               	.LCFI93:
 2022               		.cfi_def_cfa_offset 15
 2023               		.cfi_offset 29, -14
 2024               	/* prologue: function */
 2025               	/* frame size = 0 */
 2026               	/* stack size = 13 */
 2027               	.L__stack_usage = 13
 2028 001a EC01      		movw r28,r24
 2029 001c 6B01      		movw r12,r22
 2030 001e 4A01      		movw r8,r20
 2031               	.LVL169:
  42:LUFA//Drivers/USB/Core/XMEGA/Template/Template_Endpoint_RW.c **** 	if ((ErrorCode = Endpoint_WaitUntilReady()))
 2032               		.loc 3 42 0
 2033 0020 0E94 0000 		call Endpoint_WaitUntilReady
 2034               	.LVL170:
 2035 0024 B82E      		mov r11,r24
 2036               	.LVL171:
 2037 0026 8823      		tst r24
 2038 0028 01F0      		breq .+2
 2039 002a 00C0      		rjmp .L109
  38:LUFA//Drivers/USB/Core/XMEGA/Template/Template_Endpoint_RW.c **** 	uint8_t* DataStream      = ((uint8_t*)Buffer + TEMPLATE_BUFFER_OFFSET(Length));
 2040               		.loc 3 38 0
 2041 002c 8601      		movw r16,r12
 2042 002e 0150      		subi r16,lo8(-(-1))
 2043 0030 1040      		sbci r17,hi8(-(-1))
 2044 0032 0C0F      		add r16,r28
 2045 0034 1D1F      		adc r17,r29
  45:LUFA//Drivers/USB/Core/XMEGA/Template/Template_Endpoint_RW.c **** 	if (BytesProcessed != NULL)
 2046               		.loc 3 45 0
 2047 0036 8114      		cp r8,__zero_reg__
 2048 0038 9104      		cpc r9,__zero_reg__
 2049 003a 01F0      		breq .L110
  47:LUFA//Drivers/USB/Core/XMEGA/Template/Template_Endpoint_RW.c **** 		Length -= *BytesProcessed;
 2050               		.loc 3 47 0
 2051 003c D401      		movw r26,r8
 2052 003e 8D91      		ld r24,X+
 2053 0040 9C91      		ld r25,X
 2054 0042 1197      		sbiw r26,1
 2055               	.LVL172:
 2056 0044 C81A      		sub r12,r24
 2057 0046 D90A      		sbc r13,r25
 2058               	.LVL173:
  48:LUFA//Drivers/USB/Core/XMEGA/Template/Template_Endpoint_RW.c **** 		TEMPLATE_BUFFER_MOVE(DataStream, *BytesProcessed);
 2059               		.loc 3 48 0
 2060 0048 081B      		sub r16,r24
 2061 004a 190B      		sbc r17,r25
 2062               	.LVL174:
 2063               	.L110:
  37:LUFA//Drivers/USB/Core/XMEGA/Template/Template_Endpoint_RW.c **** {
 2064               		.loc 3 37 0 discriminator 1
 2065 004c 6624      		clr r6
 2066 004e 7724      		clr r7
 2067 0050 00C0      		rjmp .L117
 2068               	.LVL175:
 2069               	.L115:
 2070               	.LBB312:
 2071               	.LBB313:
 353:LUFA//Drivers/USB/Core/XMEGA/../XMEGA/../XMEGA/Endpoint_XMEGA.h **** 				return (USB_Endpoint_SelectedFIFO->Position < USB_Endpoint_SelectedFIFO->Length);
 2072               		.loc 1 353 0
 2073 0052 C091 0000 		lds r28,USB_Endpoint_SelectedFIFO
 2074 0056 D091 0000 		lds r29,USB_Endpoint_SelectedFIFO+1
 2075 005a 31E4      		ldi r19,lo8(65)
 2076 005c E32E      		mov r14,r19
 2077 005e F12C      		mov r15,__zero_reg__
 2078 0060 EC0E      		add r14,r28
 2079 0062 FD1E      		adc r15,r29
 2080 0064 F701      		movw r30,r14
 2081 0066 8081      		ld r24,Z
 2082 0068 FE01      		movw r30,r28
 2083 006a E05C      		subi r30,lo8(-(64))
 2084 006c FF4F      		sbci r31,hi8(-(64))
 2085 006e 9081      		ld r25,Z
 2086               	.LBE313:
 2087               	.LBE312:
  53:LUFA//Drivers/USB/Core/XMEGA/Template/Template_Endpoint_RW.c **** 		if (!(Endpoint_IsReadWriteAllowed()))
 2088               		.loc 3 53 0
 2089 0070 8917      		cp r24,r25
 2090 0072 00F0      		brlo .L112
 2091               	.LBB314:
 2092               	.LBB315:
 448:LUFA//Drivers/USB/Core/XMEGA/../XMEGA/../XMEGA/Endpoint_XMEGA.h **** 				USB_Endpoint_SelectedHandle->CNT     = USB_Endpoint_SelectedFIFO->Position;
 2093               		.loc 1 448 0
 2094 0074 E091 0000 		lds r30,USB_Endpoint_SelectedHandle
 2095 0078 F091 0000 		lds r31,USB_Endpoint_SelectedHandle+1
 2096 007c D701      		movw r26,r14
 2097 007e 8C91      		ld r24,X
 2098 0080 90E0      		ldi r25,lo8(0)
 2099 0082 8283      		std Z+2,r24
 2100 0084 9383      		std Z+3,r25
 449:LUFA//Drivers/USB/Core/XMEGA/../XMEGA/../XMEGA/Endpoint_XMEGA.h **** 				USB_Endpoint_SelectedHandle->STATUS &= ~(USB_EP_TRNCOMPL0_bm | USB_EP_BUSNACK0_bm | USB_EP_OVF_
 2101               		.loc 1 449 0
 2102 0086 8081      		ld r24,Z
 2103 0088 8D79      		andi r24,lo8(-99)
 2104 008a 8083      		st Z,r24
 450:LUFA//Drivers/USB/Core/XMEGA/../XMEGA/../XMEGA/Endpoint_XMEGA.h **** 				USB_Endpoint_SelectedFIFO->Position  = 0;
 2105               		.loc 1 450 0
 2106 008c E091 0000 		lds r30,USB_Endpoint_SelectedFIFO
 2107 0090 F091 0000 		lds r31,USB_Endpoint_SelectedFIFO+1
 2108 0094 EF5B      		subi r30,lo8(-(65))
 2109 0096 FF4F      		sbci r31,hi8(-(65))
 2110 0098 1082      		st Z,__zero_reg__
 2111               	.LBE315:
 2112               	.LBE314:
  58:LUFA//Drivers/USB/Core/XMEGA/Template/Template_Endpoint_RW.c **** 			USB_USBTask();
 2113               		.loc 3 58 0
 2114 009a 0E94 0000 		call USB_USBTask
  61:LUFA//Drivers/USB/Core/XMEGA/Template/Template_Endpoint_RW.c **** 			if (BytesProcessed != NULL)
 2115               		.loc 3 61 0
 2116 009e 8114      		cp r8,__zero_reg__
 2117 00a0 9104      		cpc r9,__zero_reg__
 2118 00a2 01F0      		breq .L113
  63:LUFA//Drivers/USB/Core/XMEGA/Template/Template_Endpoint_RW.c **** 				*BytesProcessed += BytesInTransfer;
 2119               		.loc 3 63 0
 2120 00a4 F401      		movw r30,r8
 2121 00a6 8081      		ld r24,Z
 2122 00a8 9181      		ldd r25,Z+1
 2123 00aa 860D      		add r24,r6
 2124 00ac 971D      		adc r25,r7
 2125 00ae 8083      		st Z,r24
 2126 00b0 9183      		std Z+1,r25
  64:LUFA//Drivers/USB/Core/XMEGA/Template/Template_Endpoint_RW.c **** 				return ENDPOINT_RWSTREAM_IncompleteTransfer;
 2127               		.loc 3 64 0
 2128 00b2 25E0      		ldi r18,lo8(5)
 2129 00b4 B22E      		mov r11,r18
 2130 00b6 00C0      		rjmp .L109
 2131               	.L113:
  67:LUFA//Drivers/USB/Core/XMEGA/Template/Template_Endpoint_RW.c **** 			if ((ErrorCode = Endpoint_WaitUntilReady()))
 2132               		.loc 3 67 0
 2133 00b8 0E94 0000 		call Endpoint_WaitUntilReady
 2134               	.LVL176:
 2135 00bc 8823      		tst r24
 2136 00be 01F0      		breq .L117
 2137 00c0 00C0      		rjmp .L118
 2138               	.LVL177:
 2139               	.L112:
  72:LUFA//Drivers/USB/Core/XMEGA/Template/Template_Endpoint_RW.c **** 			TEMPLATE_TRANSFER_BYTE(DataStream);
 2140               		.loc 3 72 0
 2141 00c2 C801      		movw r24,r16
 2142 00c4 0E94 0000 		call __eerd_byte_x16a4u
 2143               	.LVL178:
 2144               	.LBB316:
 2145               	.LBB317:
 548:LUFA//Drivers/USB/Core/XMEGA/../XMEGA/../XMEGA/Endpoint_XMEGA.h **** 				USB_Endpoint_SelectedFIFO->Data[USB_Endpoint_SelectedFIFO->Position++] = Data;
 2146               		.loc 1 548 0
 2147 00c8 D701      		movw r26,r14
 2148 00ca 9C91      		ld r25,X
 2149 00cc FE01      		movw r30,r28
 2150 00ce E90F      		add r30,r25
 2151 00d0 F11D      		adc r31,__zero_reg__
 2152 00d2 8083      		st Z,r24
 2153 00d4 9F5F      		subi r25,lo8(-(1))
 2154 00d6 9C93      		st X,r25
 2155               	.LBE317:
 2156               	.LBE316:
  73:LUFA//Drivers/USB/Core/XMEGA/Template/Template_Endpoint_RW.c **** 			TEMPLATE_BUFFER_MOVE(DataStream, 1);
 2157               		.loc 3 73 0
 2158 00d8 0150      		subi r16,lo8(-(-1))
 2159 00da 1040      		sbci r17,hi8(-(-1))
 2160               	.LVL179:
  74:LUFA//Drivers/USB/Core/XMEGA/Template/Template_Endpoint_RW.c **** 			Length--;
 2161               		.loc 3 74 0
 2162 00dc 0894      		sec
 2163 00de C108      		sbc r12,__zero_reg__
 2164 00e0 D108      		sbc r13,__zero_reg__
 2165               	.LVL180:
  75:LUFA//Drivers/USB/Core/XMEGA/Template/Template_Endpoint_RW.c **** 			BytesInTransfer++;
 2166               		.loc 3 75 0
 2167 00e2 0894      		sec
 2168 00e4 611C      		adc r6,__zero_reg__
 2169 00e6 711C      		adc r7,__zero_reg__
 2170               	.LVL181:
 2171               	.L117:
  51:LUFA//Drivers/USB/Core/XMEGA/Template/Template_Endpoint_RW.c **** 	while (Length)
 2172               		.loc 3 51 0 discriminator 1
 2173 00e8 C114      		cp r12,__zero_reg__
 2174 00ea D104      		cpc r13,__zero_reg__
 2175 00ec 01F0      		breq .+2
 2176 00ee 00C0      		rjmp .L115
 2177 00f0 00C0      		rjmp .L109
 2178               	.LVL182:
 2179               	.L118:
  67:LUFA//Drivers/USB/Core/XMEGA/Template/Template_Endpoint_RW.c **** 			if ((ErrorCode = Endpoint_WaitUntilReady()))
 2180               		.loc 3 67 0
 2181 00f2 B82E      		mov r11,r24
 2182               	.LVL183:
 2183               	.L109:
 2184               		.loc 3 80 0
 2185 00f4 8B2D      		mov r24,r11
 2186               	/* epilogue start */
 2187 00f6 DF91      		pop r29
 2188 00f8 CF91      		pop r28
 2189 00fa 1F91      		pop r17
 2190 00fc 0F91      		pop r16
 2191 00fe FF90      		pop r15
 2192 0100 EF90      		pop r14
 2193 0102 DF90      		pop r13
 2194 0104 CF90      		pop r12
 2195               	.LVL184:
 2196 0106 BF90      		pop r11
 2197 0108 9F90      		pop r9
 2198 010a 8F90      		pop r8
 2199               	.LVL185:
 2200 010c 7F90      		pop r7
 2201 010e 6F90      		pop r6
 2202 0110 0895      		ret
 2203               		.cfi_endproc
 2204               	.LFE77:
 2206               		.section	.text.Endpoint_Read_EStream_LE,"ax",@progbits
 2207               	.global	Endpoint_Read_EStream_LE
 2209               	Endpoint_Read_EStream_LE:
 2210               	.LFB78:
  37:LUFA//Drivers/USB/Core/XMEGA/Template/Template_Endpoint_RW.c **** {
 2211               		.loc 3 37 0
 2212               		.cfi_startproc
 2213               	.LVL186:
 2214 0000 AF92      		push r10
 2215               	.LCFI94:
 2216               		.cfi_def_cfa_offset 3
 2217               		.cfi_offset 10, -2
 2218 0002 BF92      		push r11
 2219               	.LCFI95:
 2220               		.cfi_def_cfa_offset 4
 2221               		.cfi_offset 11, -3
 2222 0004 CF92      		push r12
 2223               	.LCFI96:
 2224               		.cfi_def_cfa_offset 5
 2225               		.cfi_offset 12, -4
 2226 0006 DF92      		push r13
 2227               	.LCFI97:
 2228               		.cfi_def_cfa_offset 6
 2229               		.cfi_offset 13, -5
 2230 0008 EF92      		push r14
 2231               	.LCFI98:
 2232               		.cfi_def_cfa_offset 7
 2233               		.cfi_offset 14, -6
 2234 000a FF92      		push r15
 2235               	.LCFI99:
 2236               		.cfi_def_cfa_offset 8
 2237               		.cfi_offset 15, -7
 2238 000c 1F93      		push r17
 2239               	.LCFI100:
 2240               		.cfi_def_cfa_offset 9
 2241               		.cfi_offset 17, -8
 2242 000e CF93      		push r28
 2243               	.LCFI101:
 2244               		.cfi_def_cfa_offset 10
 2245               		.cfi_offset 28, -9
 2246 0010 DF93      		push r29
 2247               	.LCFI102:
 2248               		.cfi_def_cfa_offset 11
 2249               		.cfi_offset 29, -10
 2250               	/* prologue: function */
 2251               	/* frame size = 0 */
 2252               	/* stack size = 9 */
 2253               	.L__stack_usage = 9
 2254 0012 EC01      		movw r28,r24
 2255 0014 7B01      		movw r14,r22
 2256 0016 6A01      		movw r12,r20
 2257               	.LVL187:
  42:LUFA//Drivers/USB/Core/XMEGA/Template/Template_Endpoint_RW.c **** 	if ((ErrorCode = Endpoint_WaitUntilReady()))
 2258               		.loc 3 42 0
 2259 0018 0E94 0000 		call Endpoint_WaitUntilReady
 2260               	.LVL188:
 2261 001c 182F      		mov r17,r24
 2262               	.LVL189:
 2263 001e 8823      		tst r24
 2264 0020 01F0      		breq .+2
 2265 0022 00C0      		rjmp .L120
  45:LUFA//Drivers/USB/Core/XMEGA/Template/Template_Endpoint_RW.c **** 	if (BytesProcessed != NULL)
 2266               		.loc 3 45 0
 2267 0024 C114      		cp r12,__zero_reg__
 2268 0026 D104      		cpc r13,__zero_reg__
 2269 0028 01F0      		breq .L121
  47:LUFA//Drivers/USB/Core/XMEGA/Template/Template_Endpoint_RW.c **** 		Length -= *BytesProcessed;
 2270               		.loc 3 47 0
 2271 002a F601      		movw r30,r12
 2272 002c 8081      		ld r24,Z
 2273 002e 9181      		ldd r25,Z+1
 2274               	.LVL190:
 2275 0030 E81A      		sub r14,r24
 2276 0032 F90A      		sbc r15,r25
 2277               	.LVL191:
  48:LUFA//Drivers/USB/Core/XMEGA/Template/Template_Endpoint_RW.c **** 		TEMPLATE_BUFFER_MOVE(DataStream, *BytesProcessed);
 2278               		.loc 3 48 0
 2279 0034 C80F      		add r28,r24
 2280 0036 D91F      		adc r29,r25
 2281               	.LVL192:
 2282               	.L121:
  38:LUFA//Drivers/USB/Core/XMEGA/Template/Template_Endpoint_RW.c **** 	uint8_t* DataStream      = ((uint8_t*)Buffer + TEMPLATE_BUFFER_OFFSET(Length));
 2283               		.loc 3 38 0 discriminator 1
 2284 0038 AA24      		clr r10
 2285 003a BB24      		clr r11
 2286 003c 00C0      		rjmp .L129
 2287               	.LVL193:
 2288               	.L126:
 2289               	.LBB318:
 2290               	.LBB319:
 353:LUFA//Drivers/USB/Core/XMEGA/../XMEGA/../XMEGA/Endpoint_XMEGA.h **** 				return (USB_Endpoint_SelectedFIFO->Position < USB_Endpoint_SelectedFIFO->Length);
 2291               		.loc 1 353 0
 2292 003e 8091 0000 		lds r24,USB_Endpoint_SelectedFIFO
 2293 0042 9091 0000 		lds r25,USB_Endpoint_SelectedFIFO+1
 2294 0046 DC01      		movw r26,r24
 2295 0048 AF5B      		subi r26,lo8(-(65))
 2296 004a BF4F      		sbci r27,hi8(-(65))
 2297 004c 2C91      		ld r18,X
 2298 004e FC01      		movw r30,r24
 2299 0050 E05C      		subi r30,lo8(-(64))
 2300 0052 FF4F      		sbci r31,hi8(-(64))
 2301 0054 3081      		ld r19,Z
 2302               	.LBE319:
 2303               	.LBE318:
  53:LUFA//Drivers/USB/Core/XMEGA/Template/Template_Endpoint_RW.c **** 		if (!(Endpoint_IsReadWriteAllowed()))
 2304               		.loc 3 53 0
 2305 0056 2317      		cp r18,r19
 2306 0058 00F0      		brlo .L123
 2307               	.LBB320:
 2308               	.LBB321:
 461:LUFA//Drivers/USB/Core/XMEGA/../XMEGA/../XMEGA/Endpoint_XMEGA.h **** 				USB_Endpoint_SelectedHandle->STATUS &= ~(USB_EP_TRNCOMPL0_bm | USB_EP_BUSNACK0_bm | USB_EP_OVF_
 2309               		.loc 1 461 0
 2310 005a E091 0000 		lds r30,USB_Endpoint_SelectedHandle
 2311 005e F091 0000 		lds r31,USB_Endpoint_SelectedHandle+1
 2312 0062 8081      		ld r24,Z
 2313 0064 8D79      		andi r24,lo8(-99)
 2314 0066 8083      		st Z,r24
 462:LUFA//Drivers/USB/Core/XMEGA/../XMEGA/../XMEGA/Endpoint_XMEGA.h **** 				USB_Endpoint_SelectedFIFO->Position  = 0;
 2315               		.loc 1 462 0
 2316 0068 E091 0000 		lds r30,USB_Endpoint_SelectedFIFO
 2317 006c F091 0000 		lds r31,USB_Endpoint_SelectedFIFO+1
 2318 0070 EF5B      		subi r30,lo8(-(65))
 2319 0072 FF4F      		sbci r31,hi8(-(65))
 2320 0074 1082      		st Z,__zero_reg__
 2321               	.LBE321:
 2322               	.LBE320:
  58:LUFA//Drivers/USB/Core/XMEGA/Template/Template_Endpoint_RW.c **** 			USB_USBTask();
 2323               		.loc 3 58 0
 2324 0076 0E94 0000 		call USB_USBTask
  61:LUFA//Drivers/USB/Core/XMEGA/Template/Template_Endpoint_RW.c **** 			if (BytesProcessed != NULL)
 2325               		.loc 3 61 0
 2326 007a C114      		cp r12,__zero_reg__
 2327 007c D104      		cpc r13,__zero_reg__
 2328 007e 01F0      		breq .L124
  63:LUFA//Drivers/USB/Core/XMEGA/Template/Template_Endpoint_RW.c **** 				*BytesProcessed += BytesInTransfer;
 2329               		.loc 3 63 0
 2330 0080 F601      		movw r30,r12
 2331 0082 8081      		ld r24,Z
 2332 0084 9181      		ldd r25,Z+1
 2333 0086 8A0D      		add r24,r10
 2334 0088 9B1D      		adc r25,r11
 2335 008a 8083      		st Z,r24
 2336 008c 9183      		std Z+1,r25
  64:LUFA//Drivers/USB/Core/XMEGA/Template/Template_Endpoint_RW.c **** 				return ENDPOINT_RWSTREAM_IncompleteTransfer;
 2337               		.loc 3 64 0
 2338 008e 15E0      		ldi r17,lo8(5)
 2339 0090 00C0      		rjmp .L120
 2340               	.L124:
  67:LUFA//Drivers/USB/Core/XMEGA/Template/Template_Endpoint_RW.c **** 			if ((ErrorCode = Endpoint_WaitUntilReady()))
 2341               		.loc 3 67 0
 2342 0092 0E94 0000 		call Endpoint_WaitUntilReady
 2343               	.LVL194:
 2344 0096 8823      		tst r24
 2345 0098 01F0      		breq .L129
 2346 009a 00C0      		rjmp .L130
 2347               	.LVL195:
 2348               	.L123:
 2349               	.LBB322:
 2350               	.LBB323:
 536:LUFA//Drivers/USB/Core/XMEGA/../XMEGA/../XMEGA/Endpoint_XMEGA.h **** 				return USB_Endpoint_SelectedFIFO->Data[USB_Endpoint_SelectedFIFO->Position++];
 2351               		.loc 1 536 0
 2352 009c 2C91      		ld r18,X
 2353 009e FC01      		movw r30,r24
 2354 00a0 E20F      		add r30,r18
 2355 00a2 F11D      		adc r31,__zero_reg__
 2356 00a4 6081      		ld r22,Z
 2357 00a6 2F5F      		subi r18,lo8(-(1))
 2358 00a8 2C93      		st X,r18
 2359               	.LBE323:
 2360               	.LBE322:
  72:LUFA//Drivers/USB/Core/XMEGA/Template/Template_Endpoint_RW.c **** 			TEMPLATE_TRANSFER_BYTE(DataStream);
 2361               		.loc 3 72 0
 2362 00aa CE01      		movw r24,r28
 2363 00ac 0E94 0000 		call __eeupd_byte_x16a4u
  73:LUFA//Drivers/USB/Core/XMEGA/Template/Template_Endpoint_RW.c **** 			TEMPLATE_BUFFER_MOVE(DataStream, 1);
 2364               		.loc 3 73 0
 2365 00b0 2196      		adiw r28,1
 2366               	.LVL196:
  74:LUFA//Drivers/USB/Core/XMEGA/Template/Template_Endpoint_RW.c **** 			Length--;
 2367               		.loc 3 74 0
 2368 00b2 0894      		sec
 2369 00b4 E108      		sbc r14,__zero_reg__
 2370 00b6 F108      		sbc r15,__zero_reg__
 2371               	.LVL197:
  75:LUFA//Drivers/USB/Core/XMEGA/Template/Template_Endpoint_RW.c **** 			BytesInTransfer++;
 2372               		.loc 3 75 0
 2373 00b8 0894      		sec
 2374 00ba A11C      		adc r10,__zero_reg__
 2375 00bc B11C      		adc r11,__zero_reg__
 2376               	.LVL198:
 2377               	.L129:
  51:LUFA//Drivers/USB/Core/XMEGA/Template/Template_Endpoint_RW.c **** 	while (Length)
 2378               		.loc 3 51 0 discriminator 1
 2379 00be E114      		cp r14,__zero_reg__
 2380 00c0 F104      		cpc r15,__zero_reg__
 2381 00c2 01F0      		breq .+2
 2382 00c4 00C0      		rjmp .L126
 2383 00c6 00C0      		rjmp .L120
 2384               	.LVL199:
 2385               	.L130:
  67:LUFA//Drivers/USB/Core/XMEGA/Template/Template_Endpoint_RW.c **** 			if ((ErrorCode = Endpoint_WaitUntilReady()))
 2386               		.loc 3 67 0
 2387 00c8 182F      		mov r17,r24
 2388               	.LVL200:
 2389               	.L120:
 2390               		.loc 3 80 0
 2391 00ca 812F      		mov r24,r17
 2392               	/* epilogue start */
 2393 00cc DF91      		pop r29
 2394 00ce CF91      		pop r28
 2395               	.LVL201:
 2396 00d0 1F91      		pop r17
 2397 00d2 FF90      		pop r15
 2398 00d4 EF90      		pop r14
 2399               	.LVL202:
 2400 00d6 DF90      		pop r13
 2401 00d8 CF90      		pop r12
 2402               	.LVL203:
 2403 00da BF90      		pop r11
 2404 00dc AF90      		pop r10
 2405 00de 0895      		ret
 2406               		.cfi_endproc
 2407               	.LFE78:
 2409               		.section	.text.Endpoint_Read_EStream_BE,"ax",@progbits
 2410               	.global	Endpoint_Read_EStream_BE
 2412               	Endpoint_Read_EStream_BE:
 2413               	.LFB79:
  37:LUFA//Drivers/USB/Core/XMEGA/Template/Template_Endpoint_RW.c **** {
 2414               		.loc 3 37 0
 2415               		.cfi_startproc
 2416               	.LVL204:
 2417 0000 AF92      		push r10
 2418               	.LCFI103:
 2419               		.cfi_def_cfa_offset 3
 2420               		.cfi_offset 10, -2
 2421 0002 BF92      		push r11
 2422               	.LCFI104:
 2423               		.cfi_def_cfa_offset 4
 2424               		.cfi_offset 11, -3
 2425 0004 DF92      		push r13
 2426               	.LCFI105:
 2427               		.cfi_def_cfa_offset 5
 2428               		.cfi_offset 13, -4
 2429 0006 EF92      		push r14
 2430               	.LCFI106:
 2431               		.cfi_def_cfa_offset 6
 2432               		.cfi_offset 14, -5
 2433 0008 FF92      		push r15
 2434               	.LCFI107:
 2435               		.cfi_def_cfa_offset 7
 2436               		.cfi_offset 15, -6
 2437 000a 0F93      		push r16
 2438               	.LCFI108:
 2439               		.cfi_def_cfa_offset 8
 2440               		.cfi_offset 16, -7
 2441 000c 1F93      		push r17
 2442               	.LCFI109:
 2443               		.cfi_def_cfa_offset 9
 2444               		.cfi_offset 17, -8
 2445 000e CF93      		push r28
 2446               	.LCFI110:
 2447               		.cfi_def_cfa_offset 10
 2448               		.cfi_offset 28, -9
 2449 0010 DF93      		push r29
 2450               	.LCFI111:
 2451               		.cfi_def_cfa_offset 11
 2452               		.cfi_offset 29, -10
 2453               	/* prologue: function */
 2454               	/* frame size = 0 */
 2455               	/* stack size = 9 */
 2456               	.L__stack_usage = 9
 2457 0012 EC01      		movw r28,r24
 2458 0014 7B01      		movw r14,r22
 2459 0016 5A01      		movw r10,r20
 2460               	.LVL205:
  42:LUFA//Drivers/USB/Core/XMEGA/Template/Template_Endpoint_RW.c **** 	if ((ErrorCode = Endpoint_WaitUntilReady()))
 2461               		.loc 3 42 0
 2462 0018 0E94 0000 		call Endpoint_WaitUntilReady
 2463               	.LVL206:
 2464 001c D82E      		mov r13,r24
 2465               	.LVL207:
 2466 001e 8823      		tst r24
 2467 0020 01F0      		breq .+2
 2468 0022 00C0      		rjmp .L132
  38:LUFA//Drivers/USB/Core/XMEGA/Template/Template_Endpoint_RW.c **** 	uint8_t* DataStream      = ((uint8_t*)Buffer + TEMPLATE_BUFFER_OFFSET(Length));
 2469               		.loc 3 38 0
 2470 0024 8701      		movw r16,r14
 2471 0026 0150      		subi r16,lo8(-(-1))
 2472 0028 1040      		sbci r17,hi8(-(-1))
 2473 002a 0C0F      		add r16,r28
 2474 002c 1D1F      		adc r17,r29
  45:LUFA//Drivers/USB/Core/XMEGA/Template/Template_Endpoint_RW.c **** 	if (BytesProcessed != NULL)
 2475               		.loc 3 45 0
 2476 002e A114      		cp r10,__zero_reg__
 2477 0030 B104      		cpc r11,__zero_reg__
 2478 0032 01F0      		breq .L133
  47:LUFA//Drivers/USB/Core/XMEGA/Template/Template_Endpoint_RW.c **** 		Length -= *BytesProcessed;
 2479               		.loc 3 47 0
 2480 0034 F501      		movw r30,r10
 2481 0036 8081      		ld r24,Z
 2482 0038 9181      		ldd r25,Z+1
 2483               	.LVL208:
 2484 003a E81A      		sub r14,r24
 2485 003c F90A      		sbc r15,r25
 2486               	.LVL209:
  48:LUFA//Drivers/USB/Core/XMEGA/Template/Template_Endpoint_RW.c **** 		TEMPLATE_BUFFER_MOVE(DataStream, *BytesProcessed);
 2487               		.loc 3 48 0
 2488 003e 081B      		sub r16,r24
 2489 0040 190B      		sbc r17,r25
 2490               	.LVL210:
 2491               	.L133:
  37:LUFA//Drivers/USB/Core/XMEGA/Template/Template_Endpoint_RW.c **** {
 2492               		.loc 3 37 0 discriminator 1
 2493 0042 C0E0      		ldi r28,lo8(0)
 2494 0044 D0E0      		ldi r29,hi8(0)
 2495               	.LVL211:
 2496 0046 00C0      		rjmp .L140
 2497               	.LVL212:
 2498               	.L138:
 2499               	.LBB324:
 2500               	.LBB325:
 353:LUFA//Drivers/USB/Core/XMEGA/../XMEGA/../XMEGA/Endpoint_XMEGA.h **** 				return (USB_Endpoint_SelectedFIFO->Position < USB_Endpoint_SelectedFIFO->Length);
 2501               		.loc 1 353 0
 2502 0048 8091 0000 		lds r24,USB_Endpoint_SelectedFIFO
 2503 004c 9091 0000 		lds r25,USB_Endpoint_SelectedFIFO+1
 2504 0050 DC01      		movw r26,r24
 2505 0052 AF5B      		subi r26,lo8(-(65))
 2506 0054 BF4F      		sbci r27,hi8(-(65))
 2507 0056 2C91      		ld r18,X
 2508 0058 FC01      		movw r30,r24
 2509 005a E05C      		subi r30,lo8(-(64))
 2510 005c FF4F      		sbci r31,hi8(-(64))
 2511 005e 3081      		ld r19,Z
 2512               	.LBE325:
 2513               	.LBE324:
  53:LUFA//Drivers/USB/Core/XMEGA/Template/Template_Endpoint_RW.c **** 		if (!(Endpoint_IsReadWriteAllowed()))
 2514               		.loc 3 53 0
 2515 0060 2317      		cp r18,r19
 2516 0062 00F0      		brlo .L135
 2517               	.LBB326:
 2518               	.LBB327:
 461:LUFA//Drivers/USB/Core/XMEGA/../XMEGA/../XMEGA/Endpoint_XMEGA.h **** 				USB_Endpoint_SelectedHandle->STATUS &= ~(USB_EP_TRNCOMPL0_bm | USB_EP_BUSNACK0_bm | USB_EP_OVF_
 2519               		.loc 1 461 0
 2520 0064 E091 0000 		lds r30,USB_Endpoint_SelectedHandle
 2521 0068 F091 0000 		lds r31,USB_Endpoint_SelectedHandle+1
 2522 006c 8081      		ld r24,Z
 2523 006e 8D79      		andi r24,lo8(-99)
 2524 0070 8083      		st Z,r24
 462:LUFA//Drivers/USB/Core/XMEGA/../XMEGA/../XMEGA/Endpoint_XMEGA.h **** 				USB_Endpoint_SelectedFIFO->Position  = 0;
 2525               		.loc 1 462 0
 2526 0072 E091 0000 		lds r30,USB_Endpoint_SelectedFIFO
 2527 0076 F091 0000 		lds r31,USB_Endpoint_SelectedFIFO+1
 2528 007a EF5B      		subi r30,lo8(-(65))
 2529 007c FF4F      		sbci r31,hi8(-(65))
 2530 007e 1082      		st Z,__zero_reg__
 2531               	.LBE327:
 2532               	.LBE326:
  58:LUFA//Drivers/USB/Core/XMEGA/Template/Template_Endpoint_RW.c **** 			USB_USBTask();
 2533               		.loc 3 58 0
 2534 0080 0E94 0000 		call USB_USBTask
  61:LUFA//Drivers/USB/Core/XMEGA/Template/Template_Endpoint_RW.c **** 			if (BytesProcessed != NULL)
 2535               		.loc 3 61 0
 2536 0084 A114      		cp r10,__zero_reg__
 2537 0086 B104      		cpc r11,__zero_reg__
 2538 0088 01F0      		breq .L136
  63:LUFA//Drivers/USB/Core/XMEGA/Template/Template_Endpoint_RW.c **** 				*BytesProcessed += BytesInTransfer;
 2539               		.loc 3 63 0
 2540 008a F501      		movw r30,r10
 2541 008c 8081      		ld r24,Z
 2542 008e 9181      		ldd r25,Z+1
 2543 0090 8C0F      		add r24,r28
 2544 0092 9D1F      		adc r25,r29
 2545 0094 8083      		st Z,r24
 2546 0096 9183      		std Z+1,r25
  64:LUFA//Drivers/USB/Core/XMEGA/Template/Template_Endpoint_RW.c **** 				return ENDPOINT_RWSTREAM_IncompleteTransfer;
 2547               		.loc 3 64 0
 2548 0098 45E0      		ldi r20,lo8(5)
 2549 009a D42E      		mov r13,r20
 2550 009c 00C0      		rjmp .L132
 2551               	.L136:
  67:LUFA//Drivers/USB/Core/XMEGA/Template/Template_Endpoint_RW.c **** 			if ((ErrorCode = Endpoint_WaitUntilReady()))
 2552               		.loc 3 67 0
 2553 009e 0E94 0000 		call Endpoint_WaitUntilReady
 2554               	.LVL213:
 2555 00a2 8823      		tst r24
 2556 00a4 01F0      		breq .L140
 2557 00a6 00C0      		rjmp .L141
 2558               	.LVL214:
 2559               	.L135:
 2560               	.LBB328:
 2561               	.LBB329:
 536:LUFA//Drivers/USB/Core/XMEGA/../XMEGA/../XMEGA/Endpoint_XMEGA.h **** 				return USB_Endpoint_SelectedFIFO->Data[USB_Endpoint_SelectedFIFO->Position++];
 2562               		.loc 1 536 0
 2563 00a8 2C91      		ld r18,X
 2564 00aa FC01      		movw r30,r24
 2565 00ac E20F      		add r30,r18
 2566 00ae F11D      		adc r31,__zero_reg__
 2567 00b0 6081      		ld r22,Z
 2568 00b2 2F5F      		subi r18,lo8(-(1))
 2569 00b4 2C93      		st X,r18
 2570               	.LBE329:
 2571               	.LBE328:
  72:LUFA//Drivers/USB/Core/XMEGA/Template/Template_Endpoint_RW.c **** 			TEMPLATE_TRANSFER_BYTE(DataStream);
 2572               		.loc 3 72 0
 2573 00b6 C801      		movw r24,r16
 2574 00b8 0E94 0000 		call __eeupd_byte_x16a4u
  73:LUFA//Drivers/USB/Core/XMEGA/Template/Template_Endpoint_RW.c **** 			TEMPLATE_BUFFER_MOVE(DataStream, 1);
 2575               		.loc 3 73 0
 2576 00bc 0150      		subi r16,lo8(-(-1))
 2577 00be 1040      		sbci r17,hi8(-(-1))
 2578               	.LVL215:
  74:LUFA//Drivers/USB/Core/XMEGA/Template/Template_Endpoint_RW.c **** 			Length--;
 2579               		.loc 3 74 0
 2580 00c0 0894      		sec
 2581 00c2 E108      		sbc r14,__zero_reg__
 2582 00c4 F108      		sbc r15,__zero_reg__
 2583               	.LVL216:
  75:LUFA//Drivers/USB/Core/XMEGA/Template/Template_Endpoint_RW.c **** 			BytesInTransfer++;
 2584               		.loc 3 75 0
 2585 00c6 2196      		adiw r28,1
 2586               	.LVL217:
 2587               	.L140:
  51:LUFA//Drivers/USB/Core/XMEGA/Template/Template_Endpoint_RW.c **** 	while (Length)
 2588               		.loc 3 51 0 discriminator 1
 2589 00c8 E114      		cp r14,__zero_reg__
 2590 00ca F104      		cpc r15,__zero_reg__
 2591 00cc 01F0      		breq .+2
 2592 00ce 00C0      		rjmp .L138
 2593 00d0 00C0      		rjmp .L132
 2594               	.LVL218:
 2595               	.L141:
  67:LUFA//Drivers/USB/Core/XMEGA/Template/Template_Endpoint_RW.c **** 			if ((ErrorCode = Endpoint_WaitUntilReady()))
 2596               		.loc 3 67 0
 2597 00d2 D82E      		mov r13,r24
 2598               	.LVL219:
 2599               	.L132:
 2600               		.loc 3 80 0
 2601 00d4 8D2D      		mov r24,r13
 2602               	/* epilogue start */
 2603 00d6 DF91      		pop r29
 2604 00d8 CF91      		pop r28
 2605 00da 1F91      		pop r17
 2606 00dc 0F91      		pop r16
 2607 00de FF90      		pop r15
 2608 00e0 EF90      		pop r14
 2609               	.LVL220:
 2610 00e2 DF90      		pop r13
 2611 00e4 BF90      		pop r11
 2612 00e6 AF90      		pop r10
 2613               	.LVL221:
 2614 00e8 0895      		ret
 2615               		.cfi_endproc
 2616               	.LFE79:
 2618               		.section	.text.Endpoint_Write_Control_Stream_LE,"ax",@progbits
 2619               	.global	Endpoint_Write_Control_Stream_LE
 2621               	Endpoint_Write_Control_Stream_LE:
 2622               	.LFB80:
 2623               		.file 4 "LUFA//Drivers/USB/Core/XMEGA/Template/Template_Endpoint_Control_W.c"
   1:LUFA//Drivers/USB/Core/XMEGA/Template/Template_Endpoint_Control_W.c **** /*
   2:LUFA//Drivers/USB/Core/XMEGA/Template/Template_Endpoint_Control_W.c ****              LUFA Library
   3:LUFA//Drivers/USB/Core/XMEGA/Template/Template_Endpoint_Control_W.c ****      Copyright (C) Dean Camera, 2012.
   4:LUFA//Drivers/USB/Core/XMEGA/Template/Template_Endpoint_Control_W.c **** 
   5:LUFA//Drivers/USB/Core/XMEGA/Template/Template_Endpoint_Control_W.c ****   dean [at] fourwalledcubicle [dot] com
   6:LUFA//Drivers/USB/Core/XMEGA/Template/Template_Endpoint_Control_W.c ****            www.lufa-lib.org
   7:LUFA//Drivers/USB/Core/XMEGA/Template/Template_Endpoint_Control_W.c **** */
   8:LUFA//Drivers/USB/Core/XMEGA/Template/Template_Endpoint_Control_W.c **** 
   9:LUFA//Drivers/USB/Core/XMEGA/Template/Template_Endpoint_Control_W.c **** /*
  10:LUFA//Drivers/USB/Core/XMEGA/Template/Template_Endpoint_Control_W.c ****   Copyright 2012  Dean Camera (dean [at] fourwalledcubicle [dot] com)
  11:LUFA//Drivers/USB/Core/XMEGA/Template/Template_Endpoint_Control_W.c **** 
  12:LUFA//Drivers/USB/Core/XMEGA/Template/Template_Endpoint_Control_W.c ****   Permission to use, copy, modify, distribute, and sell this
  13:LUFA//Drivers/USB/Core/XMEGA/Template/Template_Endpoint_Control_W.c ****   software and its documentation for any purpose is hereby granted
  14:LUFA//Drivers/USB/Core/XMEGA/Template/Template_Endpoint_Control_W.c ****   without fee, provided that the above copyright notice appear in
  15:LUFA//Drivers/USB/Core/XMEGA/Template/Template_Endpoint_Control_W.c ****   all copies and that both that the copyright notice and this
  16:LUFA//Drivers/USB/Core/XMEGA/Template/Template_Endpoint_Control_W.c ****   permission notice and warranty disclaimer appear in supporting
  17:LUFA//Drivers/USB/Core/XMEGA/Template/Template_Endpoint_Control_W.c ****   documentation, and that the name of the author not be used in
  18:LUFA//Drivers/USB/Core/XMEGA/Template/Template_Endpoint_Control_W.c ****   advertising or publicity pertaining to distribution of the
  19:LUFA//Drivers/USB/Core/XMEGA/Template/Template_Endpoint_Control_W.c ****   software without specific, written prior permission.
  20:LUFA//Drivers/USB/Core/XMEGA/Template/Template_Endpoint_Control_W.c **** 
  21:LUFA//Drivers/USB/Core/XMEGA/Template/Template_Endpoint_Control_W.c ****   The author disclaim all warranties with regard to this
  22:LUFA//Drivers/USB/Core/XMEGA/Template/Template_Endpoint_Control_W.c ****   software, including all implied warranties of merchantability
  23:LUFA//Drivers/USB/Core/XMEGA/Template/Template_Endpoint_Control_W.c ****   and fitness.  In no event shall the author be liable for any
  24:LUFA//Drivers/USB/Core/XMEGA/Template/Template_Endpoint_Control_W.c ****   special, indirect or consequential damages or any damages
  25:LUFA//Drivers/USB/Core/XMEGA/Template/Template_Endpoint_Control_W.c ****   whatsoever resulting from loss of use, data or profits, whether
  26:LUFA//Drivers/USB/Core/XMEGA/Template/Template_Endpoint_Control_W.c ****   in an action of contract, negligence or other tortious action,
  27:LUFA//Drivers/USB/Core/XMEGA/Template/Template_Endpoint_Control_W.c ****   arising out of or in connection with the use or performance of
  28:LUFA//Drivers/USB/Core/XMEGA/Template/Template_Endpoint_Control_W.c ****   this software.
  29:LUFA//Drivers/USB/Core/XMEGA/Template/Template_Endpoint_Control_W.c **** */
  30:LUFA//Drivers/USB/Core/XMEGA/Template/Template_Endpoint_Control_W.c **** 
  31:LUFA//Drivers/USB/Core/XMEGA/Template/Template_Endpoint_Control_W.c **** #if defined(TEMPLATE_FUNC_NAME)
  32:LUFA//Drivers/USB/Core/XMEGA/Template/Template_Endpoint_Control_W.c **** 
  33:LUFA//Drivers/USB/Core/XMEGA/Template/Template_Endpoint_Control_W.c **** // cppcheck-suppress unusedFunction
  34:LUFA//Drivers/USB/Core/XMEGA/Template/Template_Endpoint_Control_W.c **** uint8_t TEMPLATE_FUNC_NAME (const void* const Buffer,
  35:LUFA//Drivers/USB/Core/XMEGA/Template/Template_Endpoint_Control_W.c ****                             uint16_t Length)
  36:LUFA//Drivers/USB/Core/XMEGA/Template/Template_Endpoint_Control_W.c **** {
 2624               		.loc 4 36 0
 2625               		.cfi_startproc
 2626               	.LVL222:
 2627 0000 EF92      		push r14
 2628               	.LCFI112:
 2629               		.cfi_def_cfa_offset 3
 2630               		.cfi_offset 14, -2
 2631 0002 FF92      		push r15
 2632               	.LCFI113:
 2633               		.cfi_def_cfa_offset 4
 2634               		.cfi_offset 15, -3
 2635 0004 0F93      		push r16
 2636               	.LCFI114:
 2637               		.cfi_def_cfa_offset 5
 2638               		.cfi_offset 16, -4
 2639 0006 1F93      		push r17
 2640               	.LCFI115:
 2641               		.cfi_def_cfa_offset 6
 2642               		.cfi_offset 17, -5
 2643 0008 CF93      		push r28
 2644               	.LCFI116:
 2645               		.cfi_def_cfa_offset 7
 2646               		.cfi_offset 28, -6
 2647 000a DF93      		push r29
 2648               	.LCFI117:
 2649               		.cfi_def_cfa_offset 8
 2650               		.cfi_offset 29, -7
 2651               	/* prologue: function */
 2652               	/* frame size = 0 */
 2653               	/* stack size = 6 */
 2654               	.L__stack_usage = 6
 2655 000c D82F      		mov r29,r24
 2656 000e C92F      		mov r28,r25
 2657 0010 8B01      		movw r16,r22
 2658               	.LVL223:
  37:LUFA//Drivers/USB/Core/XMEGA/Template/Template_Endpoint_Control_W.c **** 	uint8_t* DataStream     = ((uint8_t*)Buffer + TEMPLATE_BUFFER_OFFSET(Length));
  38:LUFA//Drivers/USB/Core/XMEGA/Template/Template_Endpoint_Control_W.c **** 	bool     LastPacketFull = false;
  39:LUFA//Drivers/USB/Core/XMEGA/Template/Template_Endpoint_Control_W.c **** 
  40:LUFA//Drivers/USB/Core/XMEGA/Template/Template_Endpoint_Control_W.c **** 	Endpoint_SelectEndpoint(USB_Endpoint_SelectedEndpoint | ENDPOINT_DIR_IN);
 2659               		.loc 4 40 0
 2660 0012 8091 0000 		lds r24,USB_Endpoint_SelectedEndpoint
 2661               	.LVL224:
 2662 0016 8068      		ori r24,lo8(-128)
 2663 0018 0E94 0000 		call Endpoint_SelectEndpoint
 2664               	.LVL225:
  41:LUFA//Drivers/USB/Core/XMEGA/Template/Template_Endpoint_Control_W.c **** 
  42:LUFA//Drivers/USB/Core/XMEGA/Template/Template_Endpoint_Control_W.c **** 	if (Length > USB_ControlRequest.wLength)
 2665               		.loc 4 42 0
 2666 001c 8091 0000 		lds r24,USB_ControlRequest+6
 2667 0020 9091 0000 		lds r25,USB_ControlRequest+6+1
 2668 0024 8017      		cp r24,r16
 2669 0026 9107      		cpc r25,r17
 2670 0028 00F4      		brsh .L143
 2671 002a 8C01      		movw r16,r24
 2672               	.LVL226:
 2673               	.L145:
 2674               		.loc 4 42 0 is_stmt 0 discriminator 1
 2675 002c ED2E      		mov r14,r29
 2676 002e FC2E      		mov r15,r28
 2677 0030 C0E0      		ldi r28,lo8(0)
 2678               	.LVL227:
 2679 0032 00C0      		rjmp .L166
 2680               	.LVL228:
 2681               	.L143:
  43:LUFA//Drivers/USB/Core/XMEGA/Template/Template_Endpoint_Control_W.c **** 	  Length = USB_ControlRequest.wLength;
  44:LUFA//Drivers/USB/Core/XMEGA/Template/Template_Endpoint_Control_W.c **** 	else if (!(Length))
 2682               		.loc 4 44 0 is_stmt 1
 2683 0034 0115      		cp r16,__zero_reg__
 2684 0036 1105      		cpc r17,__zero_reg__
 2685 0038 01F4      		brne .L145
 2686               	.LBB330:
 2687               	.LBB331:
 448:LUFA//Drivers/USB/Core/XMEGA/../XMEGA/../XMEGA/Endpoint_XMEGA.h **** 				USB_Endpoint_SelectedHandle->CNT     = USB_Endpoint_SelectedFIFO->Position;
 2688               		.loc 1 448 0
 2689 003a E091 0000 		lds r30,USB_Endpoint_SelectedHandle
 2690 003e F091 0000 		lds r31,USB_Endpoint_SelectedHandle+1
 2691 0042 A091 0000 		lds r26,USB_Endpoint_SelectedFIFO
 2692 0046 B091 0000 		lds r27,USB_Endpoint_SelectedFIFO+1
 2693 004a AF5B      		subi r26,lo8(-(65))
 2694 004c BF4F      		sbci r27,hi8(-(65))
 2695 004e 8C91      		ld r24,X
 2696 0050 90E0      		ldi r25,lo8(0)
 2697 0052 8283      		std Z+2,r24
 2698 0054 9383      		std Z+3,r25
 449:LUFA//Drivers/USB/Core/XMEGA/../XMEGA/../XMEGA/Endpoint_XMEGA.h **** 				USB_Endpoint_SelectedHandle->STATUS &= ~(USB_EP_TRNCOMPL0_bm | USB_EP_BUSNACK0_bm | USB_EP_OVF_
 2699               		.loc 1 449 0
 2700 0056 8081      		ld r24,Z
 2701 0058 8D79      		andi r24,lo8(-99)
 2702 005a 8083      		st Z,r24
 450:LUFA//Drivers/USB/Core/XMEGA/../XMEGA/../XMEGA/Endpoint_XMEGA.h **** 				USB_Endpoint_SelectedFIFO->Position  = 0;
 2703               		.loc 1 450 0
 2704 005c E091 0000 		lds r30,USB_Endpoint_SelectedFIFO
 2705 0060 F091 0000 		lds r31,USB_Endpoint_SelectedFIFO+1
 2706 0064 EF5B      		subi r30,lo8(-(65))
 2707 0066 FF4F      		sbci r31,hi8(-(65))
 2708 0068 1082      		st Z,__zero_reg__
 2709 006a 00C0      		rjmp .L145
 2710               	.LVL229:
 2711               	.L157:
 2712               	.LBE331:
 2713               	.LBE330:
 2714               	.LBB332:
  45:LUFA//Drivers/USB/Core/XMEGA/Template/Template_Endpoint_Control_W.c **** 	  Endpoint_ClearIN();
  46:LUFA//Drivers/USB/Core/XMEGA/Template/Template_Endpoint_Control_W.c **** 
  47:LUFA//Drivers/USB/Core/XMEGA/Template/Template_Endpoint_Control_W.c **** 	while (Length || LastPacketFull)
  48:LUFA//Drivers/USB/Core/XMEGA/Template/Template_Endpoint_Control_W.c **** 	{
  49:LUFA//Drivers/USB/Core/XMEGA/Template/Template_Endpoint_Control_W.c **** 		uint8_t USB_DeviceState_LCL = USB_DeviceState;
 2715               		.loc 4 49 0
 2716 006c 8091 0000 		lds r24,USB_DeviceState
 2717               	.LVL230:
  50:LUFA//Drivers/USB/Core/XMEGA/Template/Template_Endpoint_Control_W.c **** 
  51:LUFA//Drivers/USB/Core/XMEGA/Template/Template_Endpoint_Control_W.c **** 		if (USB_DeviceState_LCL == DEVICE_STATE_Unattached)
 2718               		.loc 4 51 0
 2719 0070 8823      		tst r24
 2720 0072 01F4      		brne .+2
 2721 0074 00C0      		rjmp .L161
  52:LUFA//Drivers/USB/Core/XMEGA/Template/Template_Endpoint_Control_W.c **** 		  return ENDPOINT_RWCSTREAM_DeviceDisconnected;
  53:LUFA//Drivers/USB/Core/XMEGA/Template/Template_Endpoint_Control_W.c **** 		else if (USB_DeviceState_LCL == DEVICE_STATE_Suspended)
 2722               		.loc 4 53 0
 2723 0076 8530      		cpi r24,lo8(5)
 2724 0078 01F4      		brne .+2
 2725 007a 00C0      		rjmp .L163
 2726               	.LBB333:
 2727               	.LBB334:
 409:LUFA//Drivers/USB/Core/XMEGA/../XMEGA/../XMEGA/Endpoint_XMEGA.h **** 				Endpoint_SelectEndpoint(USB_Endpoint_SelectedEndpoint & ~ENDPOINT_DIR_IN);
 2728               		.loc 1 409 0
 2729 007c 8091 0000 		lds r24,USB_Endpoint_SelectedEndpoint
 2730               	.LVL231:
 2731 0080 8F77      		andi r24,lo8(127)
 2732 0082 0E94 0000 		call Endpoint_SelectEndpoint
 411:LUFA//Drivers/USB/Core/XMEGA/../XMEGA/../XMEGA/Endpoint_XMEGA.h **** 				if (USB_Endpoint_SelectedHandle->STATUS & USB_EP_SETUP_bm)
 2733               		.loc 1 411 0
 2734 0086 E091 0000 		lds r30,USB_Endpoint_SelectedHandle
 2735 008a F091 0000 		lds r31,USB_Endpoint_SelectedHandle+1
 2736 008e 8081      		ld r24,Z
 2737 0090 84FF      		sbrs r24,4
 2738 0092 00C0      		rjmp .L147
 413:LUFA//Drivers/USB/Core/XMEGA/../XMEGA/../XMEGA/Endpoint_XMEGA.h **** 					USB_Endpoint_SelectedFIFO->Length = USB_Endpoint_SelectedHandle->CNT;
 2739               		.loc 1 413 0
 2740 0094 A091 0000 		lds r26,USB_Endpoint_SelectedFIFO
 2741 0098 B091 0000 		lds r27,USB_Endpoint_SelectedFIFO+1
 2742 009c 8281      		ldd r24,Z+2
 2743 009e 9381      		ldd r25,Z+3
 2744 00a0 A05C      		subi r26,lo8(-(64))
 2745 00a2 BF4F      		sbci r27,hi8(-(64))
 2746 00a4 8C93      		st X,r24
  54:LUFA//Drivers/USB/Core/XMEGA/Template/Template_Endpoint_Control_W.c **** 		  return ENDPOINT_RWCSTREAM_BusSuspended;
  55:LUFA//Drivers/USB/Core/XMEGA/Template/Template_Endpoint_Control_W.c **** 		else if (Endpoint_IsSETUPReceived())
  56:LUFA//Drivers/USB/Core/XMEGA/Template/Template_Endpoint_Control_W.c **** 		  return ENDPOINT_RWCSTREAM_HostAborted;
 2747               		.loc 4 56 0
 2748 00a6 81E0      		ldi r24,lo8(1)
 2749 00a8 00C0      		rjmp .L146
 2750               	.L147:
 2751               	.LBE334:
 2752               	.LBE333:
 2753               	.LBB335:
 2754               	.LBB336:
 389:LUFA//Drivers/USB/Core/XMEGA/../XMEGA/../XMEGA/Endpoint_XMEGA.h **** 				Endpoint_SelectEndpoint(USB_Endpoint_SelectedEndpoint & ~ENDPOINT_DIR_IN);
 2755               		.loc 1 389 0
 2756 00aa 8091 0000 		lds r24,USB_Endpoint_SelectedEndpoint
 2757 00ae 8F77      		andi r24,lo8(127)
 2758 00b0 0E94 0000 		call Endpoint_SelectEndpoint
 391:LUFA//Drivers/USB/Core/XMEGA/../XMEGA/../XMEGA/Endpoint_XMEGA.h **** 				if (USB_Endpoint_SelectedHandle->STATUS & USB_EP_TRNCOMPL0_bm)
 2759               		.loc 1 391 0
 2760 00b4 E091 0000 		lds r30,USB_Endpoint_SelectedHandle
 2761 00b8 F091 0000 		lds r31,USB_Endpoint_SelectedHandle+1
 2762 00bc 8081      		ld r24,Z
 2763 00be 85FF      		sbrs r24,5
 2764 00c0 00C0      		rjmp .L148
 393:LUFA//Drivers/USB/Core/XMEGA/../XMEGA/../XMEGA/Endpoint_XMEGA.h **** 					USB_Endpoint_SelectedFIFO->Length = USB_Endpoint_SelectedHandle->CNT;
 2765               		.loc 1 393 0
 2766 00c2 A091 0000 		lds r26,USB_Endpoint_SelectedFIFO
 2767 00c6 B091 0000 		lds r27,USB_Endpoint_SelectedFIFO+1
 2768 00ca 8281      		ldd r24,Z+2
 2769 00cc 9381      		ldd r25,Z+3
 2770 00ce A05C      		subi r26,lo8(-(64))
 2771 00d0 BF4F      		sbci r27,hi8(-(64))
 2772 00d2 8C93      		st X,r24
 2773 00d4 00C0      		rjmp .L167
 2774               	.L148:
 2775               	.LBE336:
 2776               	.LBE335:
 2777               	.LBB337:
 2778               	.LBB338:
 375:LUFA//Drivers/USB/Core/XMEGA/../XMEGA/../XMEGA/Endpoint_XMEGA.h **** 				Endpoint_SelectEndpoint(USB_Endpoint_SelectedEndpoint | ENDPOINT_DIR_IN);
 2779               		.loc 1 375 0
 2780 00d6 8091 0000 		lds r24,USB_Endpoint_SelectedEndpoint
 2781 00da 8068      		ori r24,lo8(-128)
 2782 00dc 0E94 0000 		call Endpoint_SelectEndpoint
 377:LUFA//Drivers/USB/Core/XMEGA/../XMEGA/../XMEGA/Endpoint_XMEGA.h **** 				return ((USB_Endpoint_SelectedHandle->STATUS & USB_EP_BUSNACK0_bm) ? true : false);
 2783               		.loc 1 377 0
 2784 00e0 E091 0000 		lds r30,USB_Endpoint_SelectedHandle
 2785 00e4 F091 0000 		lds r31,USB_Endpoint_SelectedHandle+1
 2786 00e8 8081      		ld r24,Z
 2787               	.LBE338:
 2788               	.LBE337:
  57:LUFA//Drivers/USB/Core/XMEGA/Template/Template_Endpoint_Control_W.c **** 		else if (Endpoint_IsOUTReceived())
  58:LUFA//Drivers/USB/Core/XMEGA/Template/Template_Endpoint_Control_W.c **** 		  break;
  59:LUFA//Drivers/USB/Core/XMEGA/Template/Template_Endpoint_Control_W.c **** 
  60:LUFA//Drivers/USB/Core/XMEGA/Template/Template_Endpoint_Control_W.c **** 		if (Endpoint_IsINReady())
 2789               		.loc 4 60 0
 2790 00ea 81FF      		sbrs r24,1
 2791 00ec 00C0      		rjmp .L166
 2792               	.LBB339:
 2793               	.LBB340:
 2794               	.LBB341:
 285:LUFA//Drivers/USB/Core/XMEGA/../XMEGA/../XMEGA/Endpoint_XMEGA.h **** 				if (USB_Endpoint_SelectedEndpoint & ENDPOINT_DIR_IN)
 2795               		.loc 1 285 0
 2796 00ee 8091 0000 		lds r24,USB_Endpoint_SelectedEndpoint
 2797 00f2 2091 0000 		lds r18,USB_Endpoint_SelectedFIFO
 2798 00f6 3091 0000 		lds r19,USB_Endpoint_SelectedFIFO+1
 2799 00fa 87FF      		sbrs r24,7
 2800 00fc 00C0      		rjmp .L151
 286:LUFA//Drivers/USB/Core/XMEGA/../XMEGA/../XMEGA/Endpoint_XMEGA.h **** 				  return USB_Endpoint_SelectedFIFO->Position;
 2801               		.loc 1 286 0
 2802 00fe 2F5B      		subi r18,lo8(-(65))
 2803 0100 3F4F      		sbci r19,hi8(-(65))
 2804 0102 D901      		movw r26,r18
 2805 0104 8C91      		ld r24,X
 2806 0106 90E0      		ldi r25,lo8(0)
 2807 0108 00C0      		rjmp .L168
 2808               	.L151:
 288:LUFA//Drivers/USB/Core/XMEGA/../XMEGA/../XMEGA/Endpoint_XMEGA.h **** 				  return (USB_Endpoint_SelectedFIFO->Length - USB_Endpoint_SelectedFIFO->Position);
 2809               		.loc 1 288 0
 2810 010a F901      		movw r30,r18
 2811 010c E05C      		subi r30,lo8(-(64))
 2812 010e FF4F      		sbci r31,hi8(-(64))
 2813 0110 8081      		ld r24,Z
 2814 0112 2F5B      		subi r18,lo8(-(65))
 2815 0114 3F4F      		sbci r19,hi8(-(65))
 2816 0116 F901      		movw r30,r18
 2817 0118 2081      		ld r18,Z
 2818 011a 90E0      		ldi r25,lo8(0)
 2819 011c 821B      		sub r24,r18
 2820 011e 9109      		sbc r25,__zero_reg__
 2821 0120 00C0      		rjmp .L168
 2822               	.LVL232:
 2823               	.L155:
 2824               	.LBE341:
 2825               	.LBE340:
  61:LUFA//Drivers/USB/Core/XMEGA/Template/Template_Endpoint_Control_W.c **** 		{
  62:LUFA//Drivers/USB/Core/XMEGA/Template/Template_Endpoint_Control_W.c **** 			uint16_t BytesInEndpoint = Endpoint_BytesInEndpoint();
  63:LUFA//Drivers/USB/Core/XMEGA/Template/Template_Endpoint_Control_W.c **** 
  64:LUFA//Drivers/USB/Core/XMEGA/Template/Template_Endpoint_Control_W.c **** 			while (Length && (BytesInEndpoint < USB_Device_ControlEndpointSize))
  65:LUFA//Drivers/USB/Core/XMEGA/Template/Template_Endpoint_Control_W.c **** 			{
  66:LUFA//Drivers/USB/Core/XMEGA/Template/Template_Endpoint_Control_W.c **** 				TEMPLATE_TRANSFER_BYTE(DataStream);
 2826               		.loc 4 66 0
 2827 0122 D701      		movw r26,r14
 2828 0124 3D91      		ld r19,X+
 2829 0126 7D01      		movw r14,r26
 2830               	.LVL233:
 2831               	.LBB342:
 2832               	.LBB343:
 548:LUFA//Drivers/USB/Core/XMEGA/../XMEGA/../XMEGA/Endpoint_XMEGA.h **** 				USB_Endpoint_SelectedFIFO->Data[USB_Endpoint_SelectedFIFO->Position++] = Data;
 2833               		.loc 1 548 0
 2834 0128 DF01      		movw r26,r30
 2835               	.LVL234:
 2836 012a AF5B      		subi r26,lo8(-(65))
 2837 012c BF4F      		sbci r27,hi8(-(65))
 2838 012e 2C91      		ld r18,X
 2839 0130 E20F      		add r30,r18
 2840 0132 F11D      		adc r31,__zero_reg__
 2841 0134 3083      		st Z,r19
 2842 0136 2F5F      		subi r18,lo8(-(1))
 2843 0138 2C93      		st X,r18
 2844               	.LVL235:
 2845               	.LBE343:
 2846               	.LBE342:
  67:LUFA//Drivers/USB/Core/XMEGA/Template/Template_Endpoint_Control_W.c **** 				TEMPLATE_BUFFER_MOVE(DataStream, 1);
  68:LUFA//Drivers/USB/Core/XMEGA/Template/Template_Endpoint_Control_W.c **** 				Length--;
 2847               		.loc 4 68 0
 2848 013a 0150      		subi r16,lo8(-(-1))
 2849 013c 1040      		sbci r17,hi8(-(-1))
 2850               	.LVL236:
  69:LUFA//Drivers/USB/Core/XMEGA/Template/Template_Endpoint_Control_W.c **** 				BytesInEndpoint++;
 2851               		.loc 4 69 0
 2852 013e 0196      		adiw r24,1
 2853               	.LVL237:
 2854               	.L168:
 2855 0140 E091 0000 		lds r30,USB_Endpoint_SelectedFIFO
 2856 0144 F091 0000 		lds r31,USB_Endpoint_SelectedFIFO+1
  64:LUFA//Drivers/USB/Core/XMEGA/Template/Template_Endpoint_Control_W.c **** 			while (Length && (BytesInEndpoint < USB_Device_ControlEndpointSize))
 2857               		.loc 4 64 0 discriminator 1
 2858 0148 0115      		cp r16,__zero_reg__
 2859 014a 1105      		cpc r17,__zero_reg__
 2860 014c 01F0      		breq .L154
  64:LUFA//Drivers/USB/Core/XMEGA/Template/Template_Endpoint_Control_W.c **** 			while (Length && (BytesInEndpoint < USB_Device_ControlEndpointSize))
 2861               		.loc 4 64 0 is_stmt 0 discriminator 2
 2862 014e 8830      		cpi r24,8
 2863 0150 9105      		cpc r25,__zero_reg__
 2864 0152 00F0      		brlo .L155
 2865               	.L154:
  70:LUFA//Drivers/USB/Core/XMEGA/Template/Template_Endpoint_Control_W.c **** 			}
  71:LUFA//Drivers/USB/Core/XMEGA/Template/Template_Endpoint_Control_W.c **** 
  72:LUFA//Drivers/USB/Core/XMEGA/Template/Template_Endpoint_Control_W.c **** 			LastPacketFull = (BytesInEndpoint == USB_Device_ControlEndpointSize);
 2866               		.loc 4 72 0 is_stmt 1
 2867 0154 C1E0      		ldi r28,lo8(1)
 2868               	.LVL238:
 2869 0156 8830      		cpi r24,8
 2870 0158 9105      		cpc r25,__zero_reg__
 2871 015a 01F0      		breq .L156
 2872 015c C0E0      		ldi r28,lo8(0)
 2873               	.L156:
 2874               	.LVL239:
 2875               	.LBB344:
 2876               	.LBB345:
 448:LUFA//Drivers/USB/Core/XMEGA/../XMEGA/../XMEGA/Endpoint_XMEGA.h **** 				USB_Endpoint_SelectedHandle->CNT     = USB_Endpoint_SelectedFIFO->Position;
 2877               		.loc 1 448 0
 2878 015e A091 0000 		lds r26,USB_Endpoint_SelectedHandle
 2879 0162 B091 0000 		lds r27,USB_Endpoint_SelectedHandle+1
 2880 0166 EF5B      		subi r30,lo8(-(65))
 2881 0168 FF4F      		sbci r31,hi8(-(65))
 2882 016a 8081      		ld r24,Z
 2883               	.LVL240:
 2884 016c 90E0      		ldi r25,lo8(0)
 2885 016e 1296      		adiw r26,2
 2886 0170 8D93      		st X+,r24
 2887 0172 9C93      		st X,r25
 2888 0174 1397      		sbiw r26,2+1
 449:LUFA//Drivers/USB/Core/XMEGA/../XMEGA/../XMEGA/Endpoint_XMEGA.h **** 				USB_Endpoint_SelectedHandle->STATUS &= ~(USB_EP_TRNCOMPL0_bm | USB_EP_BUSNACK0_bm | USB_EP_OVF_
 2889               		.loc 1 449 0
 2890 0176 8C91      		ld r24,X
 2891 0178 8D79      		andi r24,lo8(-99)
 2892 017a 8C93      		st X,r24
 450:LUFA//Drivers/USB/Core/XMEGA/../XMEGA/../XMEGA/Endpoint_XMEGA.h **** 				USB_Endpoint_SelectedFIFO->Position  = 0;
 2893               		.loc 1 450 0
 2894 017c E091 0000 		lds r30,USB_Endpoint_SelectedFIFO
 2895 0180 F091 0000 		lds r31,USB_Endpoint_SelectedFIFO+1
 2896 0184 EF5B      		subi r30,lo8(-(65))
 2897 0186 FF4F      		sbci r31,hi8(-(65))
 2898 0188 1082      		st Z,__zero_reg__
 2899               	.LVL241:
 2900               	.L166:
 2901               	.LBE345:
 2902               	.LBE344:
 2903               	.LBE339:
 2904               	.LBE332:
  47:LUFA//Drivers/USB/Core/XMEGA/Template/Template_Endpoint_Control_W.c **** 	while (Length || LastPacketFull)
 2905               		.loc 4 47 0 discriminator 1
 2906 018a 0115      		cp r16,__zero_reg__
 2907 018c 1105      		cpc r17,__zero_reg__
 2908 018e 01F0      		breq .+2
 2909 0190 00C0      		rjmp .L157
  47:LUFA//Drivers/USB/Core/XMEGA/Template/Template_Endpoint_Control_W.c **** 	while (Length || LastPacketFull)
 2910               		.loc 4 47 0 is_stmt 0 discriminator 2
 2911 0192 CC23      		tst r28
 2912 0194 01F0      		breq .+2
 2913 0196 00C0      		rjmp .L157
 2914 0198 00C0      		rjmp .L167
 2915               	.LVL242:
 2916               	.L160:
 2917               	.LBB346:
  73:LUFA//Drivers/USB/Core/XMEGA/Template/Template_Endpoint_Control_W.c **** 			Endpoint_ClearIN();
  74:LUFA//Drivers/USB/Core/XMEGA/Template/Template_Endpoint_Control_W.c **** 		}
  75:LUFA//Drivers/USB/Core/XMEGA/Template/Template_Endpoint_Control_W.c **** 	}
  76:LUFA//Drivers/USB/Core/XMEGA/Template/Template_Endpoint_Control_W.c **** 
  77:LUFA//Drivers/USB/Core/XMEGA/Template/Template_Endpoint_Control_W.c **** 	while (!(Endpoint_IsOUTReceived()))
  78:LUFA//Drivers/USB/Core/XMEGA/Template/Template_Endpoint_Control_W.c **** 	{
  79:LUFA//Drivers/USB/Core/XMEGA/Template/Template_Endpoint_Control_W.c **** 		uint8_t USB_DeviceState_LCL = USB_DeviceState;
  80:LUFA//Drivers/USB/Core/XMEGA/Template/Template_Endpoint_Control_W.c **** 
  81:LUFA//Drivers/USB/Core/XMEGA/Template/Template_Endpoint_Control_W.c **** 		if (USB_DeviceState_LCL == DEVICE_STATE_Unattached)
  82:LUFA//Drivers/USB/Core/XMEGA/Template/Template_Endpoint_Control_W.c **** 		  return ENDPOINT_RWCSTREAM_DeviceDisconnected;
  83:LUFA//Drivers/USB/Core/XMEGA/Template/Template_Endpoint_Control_W.c **** 		else if (USB_DeviceState_LCL == DEVICE_STATE_Suspended)
 2918               		.loc 4 83 0 is_stmt 1
 2919 019a 8530      		cpi r24,lo8(5)
 2920 019c 01F0      		breq .L163
 2921               	.LVL243:
 2922               	.L167:
 2923               	.LBE346:
 2924               	.LBB347:
 2925               	.LBB348:
 389:LUFA//Drivers/USB/Core/XMEGA/../XMEGA/../XMEGA/Endpoint_XMEGA.h **** 				Endpoint_SelectEndpoint(USB_Endpoint_SelectedEndpoint & ~ENDPOINT_DIR_IN);
 2926               		.loc 1 389 0 discriminator 1
 2927 019e 8091 0000 		lds r24,USB_Endpoint_SelectedEndpoint
 2928 01a2 8F77      		andi r24,lo8(127)
 2929 01a4 0E94 0000 		call Endpoint_SelectEndpoint
 391:LUFA//Drivers/USB/Core/XMEGA/../XMEGA/../XMEGA/Endpoint_XMEGA.h **** 				if (USB_Endpoint_SelectedHandle->STATUS & USB_EP_TRNCOMPL0_bm)
 2930               		.loc 1 391 0 discriminator 1
 2931 01a8 A091 0000 		lds r26,USB_Endpoint_SelectedHandle
 2932 01ac B091 0000 		lds r27,USB_Endpoint_SelectedHandle+1
 2933 01b0 8C91      		ld r24,X
 2934 01b2 85FF      		sbrs r24,5
 2935 01b4 00C0      		rjmp .L159
 393:LUFA//Drivers/USB/Core/XMEGA/../XMEGA/../XMEGA/Endpoint_XMEGA.h **** 					USB_Endpoint_SelectedFIFO->Length = USB_Endpoint_SelectedHandle->CNT;
 2936               		.loc 1 393 0
 2937 01b6 E091 0000 		lds r30,USB_Endpoint_SelectedFIFO
 2938 01ba F091 0000 		lds r31,USB_Endpoint_SelectedFIFO+1
 2939 01be 1296      		adiw r26,2
 2940 01c0 8D91      		ld r24,X+
 2941 01c2 9C91      		ld r25,X
 2942 01c4 1397      		sbiw r26,2+1
 2943 01c6 E05C      		subi r30,lo8(-(64))
 2944 01c8 FF4F      		sbci r31,hi8(-(64))
 2945 01ca 8083      		st Z,r24
  84:LUFA//Drivers/USB/Core/XMEGA/Template/Template_Endpoint_Control_W.c **** 		  return ENDPOINT_RWCSTREAM_BusSuspended;
  85:LUFA//Drivers/USB/Core/XMEGA/Template/Template_Endpoint_Control_W.c **** 	}
  86:LUFA//Drivers/USB/Core/XMEGA/Template/Template_Endpoint_Control_W.c **** 
  87:LUFA//Drivers/USB/Core/XMEGA/Template/Template_Endpoint_Control_W.c **** 	return ENDPOINT_RWCSTREAM_NoError;
 2946               		.loc 4 87 0
 2947 01cc 80E0      		ldi r24,lo8(0)
 2948 01ce 00C0      		rjmp .L146
 2949               	.L159:
 2950               	.LBE348:
 2951               	.LBE347:
 2952               	.LBB349:
  79:LUFA//Drivers/USB/Core/XMEGA/Template/Template_Endpoint_Control_W.c **** 		uint8_t USB_DeviceState_LCL = USB_DeviceState;
 2953               		.loc 4 79 0
 2954 01d0 8091 0000 		lds r24,USB_DeviceState
 2955               	.LVL244:
  81:LUFA//Drivers/USB/Core/XMEGA/Template/Template_Endpoint_Control_W.c **** 		if (USB_DeviceState_LCL == DEVICE_STATE_Unattached)
 2956               		.loc 4 81 0
 2957 01d4 8823      		tst r24
 2958 01d6 01F4      		brne .L160
 2959               	.LVL245:
 2960               	.L161:
 2961               	.LBE349:
 2962               	.LBB350:
  52:LUFA//Drivers/USB/Core/XMEGA/Template/Template_Endpoint_Control_W.c **** 		  return ENDPOINT_RWCSTREAM_DeviceDisconnected;
 2963               		.loc 4 52 0
 2964 01d8 82E0      		ldi r24,lo8(2)
 2965 01da 00C0      		rjmp .L146
 2966               	.L163:
 2967               	.LBE350:
 2968               	.LBB351:
  84:LUFA//Drivers/USB/Core/XMEGA/Template/Template_Endpoint_Control_W.c **** 		  return ENDPOINT_RWCSTREAM_BusSuspended;
 2969               		.loc 4 84 0
 2970 01dc 83E0      		ldi r24,lo8(3)
 2971               	.L146:
 2972               	/* epilogue start */
 2973               	.LBE351:
  88:LUFA//Drivers/USB/Core/XMEGA/Template/Template_Endpoint_Control_W.c **** }
 2974               		.loc 4 88 0
 2975 01de DF91      		pop r29
 2976 01e0 CF91      		pop r28
 2977               	.LVL246:
 2978 01e2 1F91      		pop r17
 2979 01e4 0F91      		pop r16
 2980               	.LVL247:
 2981 01e6 FF90      		pop r15
 2982 01e8 EF90      		pop r14
 2983               	.LVL248:
 2984 01ea 0895      		ret
 2985               		.cfi_endproc
 2986               	.LFE80:
 2988               		.section	.text.Endpoint_Write_Control_Stream_BE,"ax",@progbits
 2989               	.global	Endpoint_Write_Control_Stream_BE
 2991               	Endpoint_Write_Control_Stream_BE:
 2992               	.LFB81:
  36:LUFA//Drivers/USB/Core/XMEGA/Template/Template_Endpoint_Control_W.c **** {
 2993               		.loc 4 36 0
 2994               		.cfi_startproc
 2995               	.LVL249:
 2996 0000 EF92      		push r14
 2997               	.LCFI118:
 2998               		.cfi_def_cfa_offset 3
 2999               		.cfi_offset 14, -2
 3000 0002 FF92      		push r15
 3001               	.LCFI119:
 3002               		.cfi_def_cfa_offset 4
 3003               		.cfi_offset 15, -3
 3004 0004 0F93      		push r16
 3005               	.LCFI120:
 3006               		.cfi_def_cfa_offset 5
 3007               		.cfi_offset 16, -4
 3008 0006 1F93      		push r17
 3009               	.LCFI121:
 3010               		.cfi_def_cfa_offset 6
 3011               		.cfi_offset 17, -5
 3012 0008 CF93      		push r28
 3013               	.LCFI122:
 3014               		.cfi_def_cfa_offset 7
 3015               		.cfi_offset 28, -6
 3016               	/* prologue: function */
 3017               	/* frame size = 0 */
 3018               	/* stack size = 5 */
 3019               	.L__stack_usage = 5
 3020 000a 8B01      		movw r16,r22
  37:LUFA//Drivers/USB/Core/XMEGA/Template/Template_Endpoint_Control_W.c **** 	uint8_t* DataStream     = ((uint8_t*)Buffer + TEMPLATE_BUFFER_OFFSET(Length));
 3021               		.loc 4 37 0
 3022 000c 7B01      		movw r14,r22
 3023 000e 0894      		sec
 3024 0010 E108      		sbc r14,__zero_reg__
 3025 0012 F108      		sbc r15,__zero_reg__
 3026 0014 E80E      		add r14,r24
 3027 0016 F91E      		adc r15,r25
 3028               	.LVL250:
  40:LUFA//Drivers/USB/Core/XMEGA/Template/Template_Endpoint_Control_W.c **** 	Endpoint_SelectEndpoint(USB_Endpoint_SelectedEndpoint | ENDPOINT_DIR_IN);
 3029               		.loc 4 40 0
 3030 0018 8091 0000 		lds r24,USB_Endpoint_SelectedEndpoint
 3031               	.LVL251:
 3032 001c 8068      		ori r24,lo8(-128)
 3033 001e 0E94 0000 		call Endpoint_SelectEndpoint
 3034               	.LVL252:
  42:LUFA//Drivers/USB/Core/XMEGA/Template/Template_Endpoint_Control_W.c **** 	if (Length > USB_ControlRequest.wLength)
 3035               		.loc 4 42 0
 3036 0022 8091 0000 		lds r24,USB_ControlRequest+6
 3037 0026 9091 0000 		lds r25,USB_ControlRequest+6+1
 3038 002a 8017      		cp r24,r16
 3039 002c 9107      		cpc r25,r17
 3040 002e 00F4      		brsh .L170
 3041 0030 8C01      		movw r16,r24
 3042               	.LVL253:
 3043               	.L172:
  42:LUFA//Drivers/USB/Core/XMEGA/Template/Template_Endpoint_Control_W.c **** 	if (Length > USB_ControlRequest.wLength)
 3044               		.loc 4 42 0 is_stmt 0 discriminator 1
 3045 0032 C0E0      		ldi r28,lo8(0)
 3046 0034 00C0      		rjmp .L193
 3047               	.LVL254:
 3048               	.L170:
  44:LUFA//Drivers/USB/Core/XMEGA/Template/Template_Endpoint_Control_W.c **** 	else if (!(Length))
 3049               		.loc 4 44 0 is_stmt 1
 3050 0036 0115      		cp r16,__zero_reg__
 3051 0038 1105      		cpc r17,__zero_reg__
 3052 003a 01F4      		brne .L172
 3053               	.LBB352:
 3054               	.LBB353:
 448:LUFA//Drivers/USB/Core/XMEGA/../XMEGA/../XMEGA/Endpoint_XMEGA.h **** 				USB_Endpoint_SelectedHandle->CNT     = USB_Endpoint_SelectedFIFO->Position;
 3055               		.loc 1 448 0
 3056 003c E091 0000 		lds r30,USB_Endpoint_SelectedHandle
 3057 0040 F091 0000 		lds r31,USB_Endpoint_SelectedHandle+1
 3058 0044 A091 0000 		lds r26,USB_Endpoint_SelectedFIFO
 3059 0048 B091 0000 		lds r27,USB_Endpoint_SelectedFIFO+1
 3060 004c AF5B      		subi r26,lo8(-(65))
 3061 004e BF4F      		sbci r27,hi8(-(65))
 3062 0050 8C91      		ld r24,X
 3063 0052 90E0      		ldi r25,lo8(0)
 3064 0054 8283      		std Z+2,r24
 3065 0056 9383      		std Z+3,r25
 449:LUFA//Drivers/USB/Core/XMEGA/../XMEGA/../XMEGA/Endpoint_XMEGA.h **** 				USB_Endpoint_SelectedHandle->STATUS &= ~(USB_EP_TRNCOMPL0_bm | USB_EP_BUSNACK0_bm | USB_EP_OVF_
 3066               		.loc 1 449 0
 3067 0058 8081      		ld r24,Z
 3068 005a 8D79      		andi r24,lo8(-99)
 3069 005c 8083      		st Z,r24
 450:LUFA//Drivers/USB/Core/XMEGA/../XMEGA/../XMEGA/Endpoint_XMEGA.h **** 				USB_Endpoint_SelectedFIFO->Position  = 0;
 3070               		.loc 1 450 0
 3071 005e E091 0000 		lds r30,USB_Endpoint_SelectedFIFO
 3072 0062 F091 0000 		lds r31,USB_Endpoint_SelectedFIFO+1
 3073 0066 EF5B      		subi r30,lo8(-(65))
 3074 0068 FF4F      		sbci r31,hi8(-(65))
 3075 006a 1082      		st Z,__zero_reg__
 3076 006c 00C0      		rjmp .L172
 3077               	.LVL255:
 3078               	.L184:
 3079               	.LBE353:
 3080               	.LBE352:
 3081               	.LBB354:
  49:LUFA//Drivers/USB/Core/XMEGA/Template/Template_Endpoint_Control_W.c **** 		uint8_t USB_DeviceState_LCL = USB_DeviceState;
 3082               		.loc 4 49 0
 3083 006e 8091 0000 		lds r24,USB_DeviceState
 3084               	.LVL256:
  51:LUFA//Drivers/USB/Core/XMEGA/Template/Template_Endpoint_Control_W.c **** 		if (USB_DeviceState_LCL == DEVICE_STATE_Unattached)
 3085               		.loc 4 51 0
 3086 0072 8823      		tst r24
 3087 0074 01F4      		brne .+2
 3088 0076 00C0      		rjmp .L188
  53:LUFA//Drivers/USB/Core/XMEGA/Template/Template_Endpoint_Control_W.c **** 		else if (USB_DeviceState_LCL == DEVICE_STATE_Suspended)
 3089               		.loc 4 53 0
 3090 0078 8530      		cpi r24,lo8(5)
 3091 007a 01F4      		brne .+2
 3092 007c 00C0      		rjmp .L190
 3093               	.LBB355:
 3094               	.LBB356:
 409:LUFA//Drivers/USB/Core/XMEGA/../XMEGA/../XMEGA/Endpoint_XMEGA.h **** 				Endpoint_SelectEndpoint(USB_Endpoint_SelectedEndpoint & ~ENDPOINT_DIR_IN);
 3095               		.loc 1 409 0
 3096 007e 8091 0000 		lds r24,USB_Endpoint_SelectedEndpoint
 3097               	.LVL257:
 3098 0082 8F77      		andi r24,lo8(127)
 3099 0084 0E94 0000 		call Endpoint_SelectEndpoint
 411:LUFA//Drivers/USB/Core/XMEGA/../XMEGA/../XMEGA/Endpoint_XMEGA.h **** 				if (USB_Endpoint_SelectedHandle->STATUS & USB_EP_SETUP_bm)
 3100               		.loc 1 411 0
 3101 0088 E091 0000 		lds r30,USB_Endpoint_SelectedHandle
 3102 008c F091 0000 		lds r31,USB_Endpoint_SelectedHandle+1
 3103 0090 8081      		ld r24,Z
 3104 0092 84FF      		sbrs r24,4
 3105 0094 00C0      		rjmp .L174
 413:LUFA//Drivers/USB/Core/XMEGA/../XMEGA/../XMEGA/Endpoint_XMEGA.h **** 					USB_Endpoint_SelectedFIFO->Length = USB_Endpoint_SelectedHandle->CNT;
 3106               		.loc 1 413 0
 3107 0096 A091 0000 		lds r26,USB_Endpoint_SelectedFIFO
 3108 009a B091 0000 		lds r27,USB_Endpoint_SelectedFIFO+1
 3109 009e 8281      		ldd r24,Z+2
 3110 00a0 9381      		ldd r25,Z+3
 3111 00a2 A05C      		subi r26,lo8(-(64))
 3112 00a4 BF4F      		sbci r27,hi8(-(64))
 3113 00a6 8C93      		st X,r24
  56:LUFA//Drivers/USB/Core/XMEGA/Template/Template_Endpoint_Control_W.c **** 		  return ENDPOINT_RWCSTREAM_HostAborted;
 3114               		.loc 4 56 0
 3115 00a8 81E0      		ldi r24,lo8(1)
 3116 00aa 00C0      		rjmp .L173
 3117               	.L174:
 3118               	.LBE356:
 3119               	.LBE355:
 3120               	.LBB357:
 3121               	.LBB358:
 389:LUFA//Drivers/USB/Core/XMEGA/../XMEGA/../XMEGA/Endpoint_XMEGA.h **** 				Endpoint_SelectEndpoint(USB_Endpoint_SelectedEndpoint & ~ENDPOINT_DIR_IN);
 3122               		.loc 1 389 0
 3123 00ac 8091 0000 		lds r24,USB_Endpoint_SelectedEndpoint
 3124 00b0 8F77      		andi r24,lo8(127)
 3125 00b2 0E94 0000 		call Endpoint_SelectEndpoint
 391:LUFA//Drivers/USB/Core/XMEGA/../XMEGA/../XMEGA/Endpoint_XMEGA.h **** 				if (USB_Endpoint_SelectedHandle->STATUS & USB_EP_TRNCOMPL0_bm)
 3126               		.loc 1 391 0
 3127 00b6 E091 0000 		lds r30,USB_Endpoint_SelectedHandle
 3128 00ba F091 0000 		lds r31,USB_Endpoint_SelectedHandle+1
 3129 00be 8081      		ld r24,Z
 3130 00c0 85FF      		sbrs r24,5
 3131 00c2 00C0      		rjmp .L175
 393:LUFA//Drivers/USB/Core/XMEGA/../XMEGA/../XMEGA/Endpoint_XMEGA.h **** 					USB_Endpoint_SelectedFIFO->Length = USB_Endpoint_SelectedHandle->CNT;
 3132               		.loc 1 393 0
 3133 00c4 A091 0000 		lds r26,USB_Endpoint_SelectedFIFO
 3134 00c8 B091 0000 		lds r27,USB_Endpoint_SelectedFIFO+1
 3135 00cc 8281      		ldd r24,Z+2
 3136 00ce 9381      		ldd r25,Z+3
 3137 00d0 A05C      		subi r26,lo8(-(64))
 3138 00d2 BF4F      		sbci r27,hi8(-(64))
 3139 00d4 8C93      		st X,r24
 3140 00d6 00C0      		rjmp .L194
 3141               	.L175:
 3142               	.LBE358:
 3143               	.LBE357:
 3144               	.LBB359:
 3145               	.LBB360:
 375:LUFA//Drivers/USB/Core/XMEGA/../XMEGA/../XMEGA/Endpoint_XMEGA.h **** 				Endpoint_SelectEndpoint(USB_Endpoint_SelectedEndpoint | ENDPOINT_DIR_IN);
 3146               		.loc 1 375 0
 3147 00d8 8091 0000 		lds r24,USB_Endpoint_SelectedEndpoint
 3148 00dc 8068      		ori r24,lo8(-128)
 3149 00de 0E94 0000 		call Endpoint_SelectEndpoint
 377:LUFA//Drivers/USB/Core/XMEGA/../XMEGA/../XMEGA/Endpoint_XMEGA.h **** 				return ((USB_Endpoint_SelectedHandle->STATUS & USB_EP_BUSNACK0_bm) ? true : false);
 3150               		.loc 1 377 0
 3151 00e2 E091 0000 		lds r30,USB_Endpoint_SelectedHandle
 3152 00e6 F091 0000 		lds r31,USB_Endpoint_SelectedHandle+1
 3153 00ea 8081      		ld r24,Z
 3154               	.LBE360:
 3155               	.LBE359:
  60:LUFA//Drivers/USB/Core/XMEGA/Template/Template_Endpoint_Control_W.c **** 		if (Endpoint_IsINReady())
 3156               		.loc 4 60 0
 3157 00ec 81FF      		sbrs r24,1
 3158 00ee 00C0      		rjmp .L193
 3159               	.LBB361:
 3160               	.LBB362:
 3161               	.LBB363:
 285:LUFA//Drivers/USB/Core/XMEGA/../XMEGA/../XMEGA/Endpoint_XMEGA.h **** 				if (USB_Endpoint_SelectedEndpoint & ENDPOINT_DIR_IN)
 3162               		.loc 1 285 0
 3163 00f0 8091 0000 		lds r24,USB_Endpoint_SelectedEndpoint
 3164 00f4 2091 0000 		lds r18,USB_Endpoint_SelectedFIFO
 3165 00f8 3091 0000 		lds r19,USB_Endpoint_SelectedFIFO+1
 3166 00fc 87FF      		sbrs r24,7
 3167 00fe 00C0      		rjmp .L178
 286:LUFA//Drivers/USB/Core/XMEGA/../XMEGA/../XMEGA/Endpoint_XMEGA.h **** 				  return USB_Endpoint_SelectedFIFO->Position;
 3168               		.loc 1 286 0
 3169 0100 2F5B      		subi r18,lo8(-(65))
 3170 0102 3F4F      		sbci r19,hi8(-(65))
 3171 0104 D901      		movw r26,r18
 3172 0106 8C91      		ld r24,X
 3173 0108 90E0      		ldi r25,lo8(0)
 3174 010a 00C0      		rjmp .L195
 3175               	.L178:
 288:LUFA//Drivers/USB/Core/XMEGA/../XMEGA/../XMEGA/Endpoint_XMEGA.h **** 				  return (USB_Endpoint_SelectedFIFO->Length - USB_Endpoint_SelectedFIFO->Position);
 3176               		.loc 1 288 0
 3177 010c F901      		movw r30,r18
 3178 010e E05C      		subi r30,lo8(-(64))
 3179 0110 FF4F      		sbci r31,hi8(-(64))
 3180 0112 8081      		ld r24,Z
 3181 0114 2F5B      		subi r18,lo8(-(65))
 3182 0116 3F4F      		sbci r19,hi8(-(65))
 3183 0118 F901      		movw r30,r18
 3184 011a 2081      		ld r18,Z
 3185 011c 90E0      		ldi r25,lo8(0)
 3186 011e 821B      		sub r24,r18
 3187 0120 9109      		sbc r25,__zero_reg__
 3188 0122 00C0      		rjmp .L195
 3189               	.LVL258:
 3190               	.L182:
 3191               	.LBE363:
 3192               	.LBE362:
  66:LUFA//Drivers/USB/Core/XMEGA/Template/Template_Endpoint_Control_W.c **** 				TEMPLATE_TRANSFER_BYTE(DataStream);
 3193               		.loc 4 66 0
 3194 0124 D701      		movw r26,r14
 3195 0126 3C91      		ld r19,X
 3196               	.LVL259:
 3197               	.LBB364:
 3198               	.LBB365:
 548:LUFA//Drivers/USB/Core/XMEGA/../XMEGA/../XMEGA/Endpoint_XMEGA.h **** 				USB_Endpoint_SelectedFIFO->Data[USB_Endpoint_SelectedFIFO->Position++] = Data;
 3199               		.loc 1 548 0
 3200 0128 DF01      		movw r26,r30
 3201 012a AF5B      		subi r26,lo8(-(65))
 3202 012c BF4F      		sbci r27,hi8(-(65))
 3203 012e 2C91      		ld r18,X
 3204 0130 E20F      		add r30,r18
 3205 0132 F11D      		adc r31,__zero_reg__
 3206 0134 3083      		st Z,r19
 3207 0136 2F5F      		subi r18,lo8(-(1))
 3208 0138 2C93      		st X,r18
 3209               	.LBE365:
 3210               	.LBE364:
  67:LUFA//Drivers/USB/Core/XMEGA/Template/Template_Endpoint_Control_W.c **** 				TEMPLATE_BUFFER_MOVE(DataStream, 1);
 3211               		.loc 4 67 0
 3212 013a 0894      		sec
 3213 013c E108      		sbc r14,__zero_reg__
 3214 013e F108      		sbc r15,__zero_reg__
 3215               	.LVL260:
  68:LUFA//Drivers/USB/Core/XMEGA/Template/Template_Endpoint_Control_W.c **** 				Length--;
 3216               		.loc 4 68 0
 3217 0140 0150      		subi r16,lo8(-(-1))
 3218 0142 1040      		sbci r17,hi8(-(-1))
 3219               	.LVL261:
  69:LUFA//Drivers/USB/Core/XMEGA/Template/Template_Endpoint_Control_W.c **** 				BytesInEndpoint++;
 3220               		.loc 4 69 0
 3221 0144 0196      		adiw r24,1
 3222               	.LVL262:
 3223               	.L195:
 3224 0146 E091 0000 		lds r30,USB_Endpoint_SelectedFIFO
 3225 014a F091 0000 		lds r31,USB_Endpoint_SelectedFIFO+1
  64:LUFA//Drivers/USB/Core/XMEGA/Template/Template_Endpoint_Control_W.c **** 			while (Length && (BytesInEndpoint < USB_Device_ControlEndpointSize))
 3226               		.loc 4 64 0 discriminator 1
 3227 014e 0115      		cp r16,__zero_reg__
 3228 0150 1105      		cpc r17,__zero_reg__
 3229 0152 01F0      		breq .L181
  64:LUFA//Drivers/USB/Core/XMEGA/Template/Template_Endpoint_Control_W.c **** 			while (Length && (BytesInEndpoint < USB_Device_ControlEndpointSize))
 3230               		.loc 4 64 0 is_stmt 0 discriminator 2
 3231 0154 8830      		cpi r24,8
 3232 0156 9105      		cpc r25,__zero_reg__
 3233 0158 00F0      		brlo .L182
 3234               	.L181:
  72:LUFA//Drivers/USB/Core/XMEGA/Template/Template_Endpoint_Control_W.c **** 			LastPacketFull = (BytesInEndpoint == USB_Device_ControlEndpointSize);
 3235               		.loc 4 72 0 is_stmt 1
 3236 015a C1E0      		ldi r28,lo8(1)
 3237               	.LVL263:
 3238 015c 8830      		cpi r24,8
 3239 015e 9105      		cpc r25,__zero_reg__
 3240 0160 01F0      		breq .L183
 3241 0162 C0E0      		ldi r28,lo8(0)
 3242               	.L183:
 3243               	.LVL264:
 3244               	.LBB366:
 3245               	.LBB367:
 448:LUFA//Drivers/USB/Core/XMEGA/../XMEGA/../XMEGA/Endpoint_XMEGA.h **** 				USB_Endpoint_SelectedHandle->CNT     = USB_Endpoint_SelectedFIFO->Position;
 3246               		.loc 1 448 0
 3247 0164 A091 0000 		lds r26,USB_Endpoint_SelectedHandle
 3248 0168 B091 0000 		lds r27,USB_Endpoint_SelectedHandle+1
 3249 016c EF5B      		subi r30,lo8(-(65))
 3250 016e FF4F      		sbci r31,hi8(-(65))
 3251 0170 8081      		ld r24,Z
 3252               	.LVL265:
 3253 0172 90E0      		ldi r25,lo8(0)
 3254 0174 1296      		adiw r26,2
 3255 0176 8D93      		st X+,r24
 3256 0178 9C93      		st X,r25
 3257 017a 1397      		sbiw r26,2+1
 449:LUFA//Drivers/USB/Core/XMEGA/../XMEGA/../XMEGA/Endpoint_XMEGA.h **** 				USB_Endpoint_SelectedHandle->STATUS &= ~(USB_EP_TRNCOMPL0_bm | USB_EP_BUSNACK0_bm | USB_EP_OVF_
 3258               		.loc 1 449 0
 3259 017c 8C91      		ld r24,X
 3260 017e 8D79      		andi r24,lo8(-99)
 3261 0180 8C93      		st X,r24
 450:LUFA//Drivers/USB/Core/XMEGA/../XMEGA/../XMEGA/Endpoint_XMEGA.h **** 				USB_Endpoint_SelectedFIFO->Position  = 0;
 3262               		.loc 1 450 0
 3263 0182 E091 0000 		lds r30,USB_Endpoint_SelectedFIFO
 3264 0186 F091 0000 		lds r31,USB_Endpoint_SelectedFIFO+1
 3265 018a EF5B      		subi r30,lo8(-(65))
 3266 018c FF4F      		sbci r31,hi8(-(65))
 3267 018e 1082      		st Z,__zero_reg__
 3268               	.LVL266:
 3269               	.L193:
 3270               	.LBE367:
 3271               	.LBE366:
 3272               	.LBE361:
 3273               	.LBE354:
  47:LUFA//Drivers/USB/Core/XMEGA/Template/Template_Endpoint_Control_W.c **** 	while (Length || LastPacketFull)
 3274               		.loc 4 47 0 discriminator 1
 3275 0190 0115      		cp r16,__zero_reg__
 3276 0192 1105      		cpc r17,__zero_reg__
 3277 0194 01F0      		breq .+2
 3278 0196 00C0      		rjmp .L184
  47:LUFA//Drivers/USB/Core/XMEGA/Template/Template_Endpoint_Control_W.c **** 	while (Length || LastPacketFull)
 3279               		.loc 4 47 0 is_stmt 0 discriminator 2
 3280 0198 CC23      		tst r28
 3281 019a 01F0      		breq .+2
 3282 019c 00C0      		rjmp .L184
 3283 019e 00C0      		rjmp .L194
 3284               	.LVL267:
 3285               	.L187:
 3286               	.LBB368:
  83:LUFA//Drivers/USB/Core/XMEGA/Template/Template_Endpoint_Control_W.c **** 		else if (USB_DeviceState_LCL == DEVICE_STATE_Suspended)
 3287               		.loc 4 83 0 is_stmt 1
 3288 01a0 8530      		cpi r24,lo8(5)
 3289 01a2 01F0      		breq .L190
 3290               	.LVL268:
 3291               	.L194:
 3292               	.LBE368:
 3293               	.LBB369:
 3294               	.LBB370:
 389:LUFA//Drivers/USB/Core/XMEGA/../XMEGA/../XMEGA/Endpoint_XMEGA.h **** 				Endpoint_SelectEndpoint(USB_Endpoint_SelectedEndpoint & ~ENDPOINT_DIR_IN);
 3295               		.loc 1 389 0 discriminator 1
 3296 01a4 8091 0000 		lds r24,USB_Endpoint_SelectedEndpoint
 3297 01a8 8F77      		andi r24,lo8(127)
 3298 01aa 0E94 0000 		call Endpoint_SelectEndpoint
 391:LUFA//Drivers/USB/Core/XMEGA/../XMEGA/../XMEGA/Endpoint_XMEGA.h **** 				if (USB_Endpoint_SelectedHandle->STATUS & USB_EP_TRNCOMPL0_bm)
 3299               		.loc 1 391 0 discriminator 1
 3300 01ae A091 0000 		lds r26,USB_Endpoint_SelectedHandle
 3301 01b2 B091 0000 		lds r27,USB_Endpoint_SelectedHandle+1
 3302 01b6 8C91      		ld r24,X
 3303 01b8 85FF      		sbrs r24,5
 3304 01ba 00C0      		rjmp .L186
 393:LUFA//Drivers/USB/Core/XMEGA/../XMEGA/../XMEGA/Endpoint_XMEGA.h **** 					USB_Endpoint_SelectedFIFO->Length = USB_Endpoint_SelectedHandle->CNT;
 3305               		.loc 1 393 0
 3306 01bc E091 0000 		lds r30,USB_Endpoint_SelectedFIFO
 3307 01c0 F091 0000 		lds r31,USB_Endpoint_SelectedFIFO+1
 3308 01c4 1296      		adiw r26,2
 3309 01c6 8D91      		ld r24,X+
 3310 01c8 9C91      		ld r25,X
 3311 01ca 1397      		sbiw r26,2+1
 3312 01cc E05C      		subi r30,lo8(-(64))
 3313 01ce FF4F      		sbci r31,hi8(-(64))
 3314 01d0 8083      		st Z,r24
  87:LUFA//Drivers/USB/Core/XMEGA/Template/Template_Endpoint_Control_W.c **** 	return ENDPOINT_RWCSTREAM_NoError;
 3315               		.loc 4 87 0
 3316 01d2 80E0      		ldi r24,lo8(0)
 3317 01d4 00C0      		rjmp .L173
 3318               	.L186:
 3319               	.LBE370:
 3320               	.LBE369:
 3321               	.LBB371:
  79:LUFA//Drivers/USB/Core/XMEGA/Template/Template_Endpoint_Control_W.c **** 		uint8_t USB_DeviceState_LCL = USB_DeviceState;
 3322               		.loc 4 79 0
 3323 01d6 8091 0000 		lds r24,USB_DeviceState
 3324               	.LVL269:
  81:LUFA//Drivers/USB/Core/XMEGA/Template/Template_Endpoint_Control_W.c **** 		if (USB_DeviceState_LCL == DEVICE_STATE_Unattached)
 3325               		.loc 4 81 0
 3326 01da 8823      		tst r24
 3327 01dc 01F4      		brne .L187
 3328               	.LVL270:
 3329               	.L188:
 3330               	.LBE371:
 3331               	.LBB372:
  52:LUFA//Drivers/USB/Core/XMEGA/Template/Template_Endpoint_Control_W.c **** 		  return ENDPOINT_RWCSTREAM_DeviceDisconnected;
 3332               		.loc 4 52 0
 3333 01de 82E0      		ldi r24,lo8(2)
 3334 01e0 00C0      		rjmp .L173
 3335               	.L190:
 3336               	.LBE372:
 3337               	.LBB373:
  84:LUFA//Drivers/USB/Core/XMEGA/Template/Template_Endpoint_Control_W.c **** 		  return ENDPOINT_RWCSTREAM_BusSuspended;
 3338               		.loc 4 84 0
 3339 01e2 83E0      		ldi r24,lo8(3)
 3340               	.L173:
 3341               	/* epilogue start */
 3342               	.LBE373:
 3343               		.loc 4 88 0
 3344 01e4 CF91      		pop r28
 3345               	.LVL271:
 3346 01e6 1F91      		pop r17
 3347 01e8 0F91      		pop r16
 3348               	.LVL272:
 3349 01ea FF90      		pop r15
 3350 01ec EF90      		pop r14
 3351               	.LVL273:
 3352 01ee 0895      		ret
 3353               		.cfi_endproc
 3354               	.LFE81:
 3356               		.section	.text.Endpoint_Read_Control_Stream_LE,"ax",@progbits
 3357               	.global	Endpoint_Read_Control_Stream_LE
 3359               	Endpoint_Read_Control_Stream_LE:
 3360               	.LFB82:
 3361               		.file 5 "LUFA//Drivers/USB/Core/XMEGA/Template/Template_Endpoint_Control_R.c"
   1:LUFA//Drivers/USB/Core/XMEGA/Template/Template_Endpoint_Control_R.c **** /*
   2:LUFA//Drivers/USB/Core/XMEGA/Template/Template_Endpoint_Control_R.c ****              LUFA Library
